
/home/binhkieudo/Workspace/RISC-V/NewFramework/framework/sw/matrix_mul_st/build/main.elf:     file format elf32-littleriscv


Disassembly of section .text:

80000000 <_prog_start>:

  .section .text.init
  .option norvc
  .globl _prog_start
_prog_start:
  csrw mie, zero
80000000:	30401073          	csrw	mie,zero
  csrr a0, mhartid
80000004:	f1402573          	csrr	a0,mhartid
  csrrw t0, mcycle, zero
80000008:	b00012f3          	csrrw	t0,mcycle,zero
  li sp, (MEMORY_MEM_ADDR + 0xfff0)
8000000c:	80010137          	lui	sp,0x80010
80000010:	ff010113          	addi	sp,sp,-16 # 8000fff0 <kprintf+0xfe6e>
  call main
80000014:	2029                	jal	8000001e <main>
  wfi
80000016:	10500073          	wfi

8000001a <_loopback>:
_loopback:
  j _loopback
8000001a:	0000006f          	j	8000001a <_loopback>

8000001e <main>:

#define REG32(p, i)	((p)[(i) >> 2])

#define SIZE 32

int main(int argc, char **arv) {
8000001e:	1101                	addi	sp,sp,-32
80000020:	72f5                	lui	t0,0xffffd
80000022:	ce06                	sw	ra,28(sp)
80000024:	cc22                	sw	s0,24(sp)
80000026:	ca26                	sw	s1,20(sp)
80000028:	7375                	lui	t1,0xffffd
8000002a:	9116                	add	sp,sp,t0
8000002c:	678d                	lui	a5,0x3
8000002e:	979a                	add	a5,a5,t1
80000030:	0818                	addi	a4,sp,16
80000032:	00e78333          	add	t1,a5,a4
80000036:	77f9                	lui	a5,0xffffe
80000038:	670d                	lui	a4,0x3
8000003a:	973e                	add	a4,a4,a5
8000003c:	081c                	addi	a5,sp,16
8000003e:	97ba                	add	a5,a5,a4
80000040:	c43e                	sw	a5,8(sp)
80000042:	670d                	lui	a4,0x3
80000044:	77fd                	lui	a5,0xfffff
80000046:	973e                	add	a4,a4,a5
80000048:	081c                	addi	a5,sp,16
8000004a:	97ba                	add	a5,a5,a4
8000004c:	c63e                	sw	a5,12(sp)
  
  REG32(uart, UART_REG_TXCTRL) = UART_TXEN;
8000004e:	4e32                	lw	t3,12(sp)
80000050:	48a2                	lw	a7,8(sp)
80000052:	08030293          	addi	t0,t1,128 # ffffd080 <kprintf+0x7fffcefe>
80000056:	640007b7          	lui	a5,0x64000
8000005a:	4705                	li	a4,1
8000005c:	c798                	sw	a4,8(a5)

  uint32_t a[SIZE][SIZE];
  uint32_t b[SIZE][SIZE];
  uint32_t c[SIZE][SIZE];

    for (uint32_t i = 0; i < SIZE; i = i + 1)
8000005e:	8516                	mv	a0,t0
  REG32(uart, UART_REG_TXCTRL) = UART_TXEN;
80000060:	4805                	li	a6,1
    for (uint32_t i = 0; i < SIZE; i = i + 1)
80000062:	02100e93          	li	t4,33
      for (uint32_t j = 0; j < SIZE; j = j + 1) {
80000066:	f8050793          	addi	a5,a0,-128
int main(int argc, char **arv) {
8000006a:	8672                	mv	a2,t3
8000006c:	86c6                	mv	a3,a7
8000006e:	8742                	mv	a4,a6
        a[i][j] = i + j;
80000070:	fff70593          	addi	a1,a4,-1 # 2fff <_prog_start-0x7fffd001>
        b[i][j] = i + j + 1;
80000074:	c298                	sw	a4,0(a3)
        a[i][j] = i + j;
80000076:	c38c                	sw	a1,0(a5)
        c[i][j] = 0;
80000078:	00062023          	sw	zero,0(a2)
      for (uint32_t j = 0; j < SIZE; j = j + 1) {
8000007c:	0791                	addi	a5,a5,4 # 64000004 <_prog_start-0x1bfffffc>
8000007e:	0705                	addi	a4,a4,1
80000080:	0691                	addi	a3,a3,4
80000082:	0611                	addi	a2,a2,4
80000084:	fea796e3          	bne	a5,a0,80000070 <main+0x52>
    for (uint32_t i = 0; i < SIZE; i = i + 1)
80000088:	0805                	addi	a6,a6,1
8000008a:	08088893          	addi	a7,a7,128
8000008e:	080e0e13          	addi	t3,t3,128
80000092:	08078513          	addi	a0,a5,128
80000096:	fdd818e3          	bne	a6,t4,80000066 <main+0x48>
      }

    tl_start = read_csr(mcycle);
8000009a:	b00025f3          	csrr	a1,mcycle
    for (int i = 0; i < SIZE; i = i + 1)
8000009e:	47b2                	lw	a5,12(sp)
800000a0:	4732                	lw	a4,12(sp)
800000a2:	6e85                	lui	t4,0x1
800000a4:	08078e13          	addi	t3,a5,128
800000a8:	080e8793          	addi	a5,t4,128 # 1080 <_prog_start-0x7fffef80>
800000ac:	00f70fb3          	add	t6,a4,a5
800000b0:	47a2                	lw	a5,8(sp)
    tl_start = read_csr(mcycle);
800000b2:	8872                	mv	a6,t3
800000b4:	9ebe                	add	t4,t4,a5
      for (int j = 0; j < SIZE; j = j + 1) {
        for (int k = 0; k < SIZE; k = k + 1) 
          c[i][j] += a[i][k] * b[k][j];
800000b6:	48a2                	lw	a7,8(sp)
800000b8:	f8080f13          	addi	t5,a6,-128
800000bc:	00032503          	lw	a0,0(t1)
800000c0:	87fa                	mv	a5,t5
800000c2:	8646                	mv	a2,a7
800000c4:	4214                	lw	a3,0(a2)
800000c6:	4398                	lw	a4,0(a5)
        for (int k = 0; k < SIZE; k = k + 1) 
800000c8:	0791                	addi	a5,a5,4
          c[i][j] += a[i][k] * b[k][j];
800000ca:	02d506b3          	mul	a3,a0,a3
        for (int k = 0; k < SIZE; k = k + 1) 
800000ce:	0611                	addi	a2,a2,4
          c[i][j] += a[i][k] * b[k][j];
800000d0:	9736                	add	a4,a4,a3
800000d2:	fee7ae23          	sw	a4,-4(a5)
        for (int k = 0; k < SIZE; k = k + 1) 
800000d6:	ff0797e3          	bne	a5,a6,800000c4 <main+0xa6>
      for (int j = 0; j < SIZE; j = j + 1) {
800000da:	08088893          	addi	a7,a7,128
800000de:	0311                	addi	t1,t1,4
800000e0:	fdd89ee3          	bne	a7,t4,800000bc <main+0x9e>
    for (int i = 0; i < SIZE; i = i + 1)
800000e4:	08080813          	addi	a6,a6,128
800000e8:	8316                	mv	t1,t0
800000ea:	01f80563          	beq	a6,t6,800000f4 <main+0xd6>
800000ee:	08028293          	addi	t0,t0,128 # ffffd080 <kprintf+0x7fffcefe>
800000f2:	b7d1                	j	800000b6 <main+0x98>
      }
    tl_end = read_csr(mcycle);
800000f4:	b00028f3          	csrr	a7,mcycle
  uint64_t error_count = 0;
800000f8:	4481                	li	s1,0
800000fa:	4401                	li	s0,0

    for (int i = 0; i < SIZE; i = i + 1)
      for (int j = 0; j < SIZE; j = j + 1)
800000fc:	f80e0793          	addi	a5,t3,-128
        if (c[i][j] == 0) error_count++;
80000100:	4388                	lw	a0,0(a5)
80000102:	00148713          	addi	a4,s1,1
      for (int j = 0; j < SIZE; j = j + 1)
80000106:	0791                	addi	a5,a5,4
        if (c[i][j] == 0) error_count++;
80000108:	00973833          	sltu	a6,a4,s1
8000010c:	e119                	bnez	a0,80000112 <main+0xf4>
8000010e:	84ba                	mv	s1,a4
80000110:	9442                	add	s0,s0,a6
      for (int j = 0; j < SIZE; j = j + 1)
80000112:	ffc797e3          	bne	a5,t3,80000100 <main+0xe2>
    for (int i = 0; i < SIZE; i = i + 1)
80000116:	08078e13          	addi	t3,a5,128
8000011a:	fffe11e3          	bne	t3,t6,800000fc <main+0xde>

    t_gap = tl_end - tl_start;

    kprintf("Time spent: %l (cycles)\r\n", t_gap);
8000011e:	40b885b3          	sub	a1,a7,a1
80000122:	00000517          	auipc	a0,0x0
80000126:	22650513          	addi	a0,a0,550 # 80000348 <kprintf+0x1c6>
8000012a:	28a1                	jal	80000182 <kprintf>
    kprintf("Error: %l \r\n", error_count);
8000012c:	8626                	mv	a2,s1
8000012e:	86a2                	mv	a3,s0
80000130:	00000517          	auipc	a0,0x0
80000134:	23450513          	addi	a0,a0,564 # 80000364 <kprintf+0x1e2>
80000138:	20a9                	jal	80000182 <kprintf>

  return 0;
}
8000013a:	628d                	lui	t0,0x3
8000013c:	9116                	add	sp,sp,t0
8000013e:	40f2                	lw	ra,28(sp)
80000140:	4462                	lw	s0,24(sp)
80000142:	44d2                	lw	s1,20(sp)
80000144:	4501                	li	a0,0
80000146:	6105                	addi	sp,sp,32
80000148:	8082                	ret

8000014a <kputs>:
#include "kprintf.h"

static inline void _kputs(const char *s)
{
	char c;
	for (; (c = *s) != '\0'; s++)
8000014a:	00054703          	lbu	a4,0(a0)
8000014e:	cb19                	beqz	a4,80000164 <kputs+0x1a>
{
	volatile uint32_t *tx = &REG32(uart, UART_REG_TXFIFO);
#ifdef __riscv_atomic
	int32_t r;
	do {
		__asm__ __volatile__ (
80000150:	640007b7          	lui	a5,0x64000
80000154:	40e7a6af          	amoor.w	a3,a4,(a5)
			"amoor.w %0, %2, %1\n"
			: "=r" (r), "+A" (*tx)
			: "r" (c));
	} while (r < 0);
80000158:	fe06cee3          	bltz	a3,80000154 <kputs+0xa>
8000015c:	00154703          	lbu	a4,1(a0)
80000160:	0505                	addi	a0,a0,1
80000162:	fb6d                	bnez	a4,80000154 <kputs+0xa>
		__asm__ __volatile__ (
80000164:	640007b7          	lui	a5,0x64000
80000168:	4735                	li	a4,13
8000016a:	40e7a6af          	amoor.w	a3,a4,(a5)
	} while (r < 0);
8000016e:	fe06cee3          	bltz	a3,8000016a <kputs+0x20>
		__asm__ __volatile__ (
80000172:	640007b7          	lui	a5,0x64000
80000176:	4729                	li	a4,10
80000178:	40e7a6af          	amoor.w	a3,a4,(a5)
	} while (r < 0);
8000017c:	fe06cee3          	bltz	a3,80000178 <kputs+0x2e>
void kputs(const char *s)
{
	_kputs(s);
	kputc('\r');
	kputc('\n');
}
80000180:	8082                	ret

80000182 <kprintf>:

void kprintf(const char *fmt, ...)
{
80000182:	7159                	addi	sp,sp,-112

	va_start(vl, fmt);
	is_format = false;
	is_long = false;
	is_char = false;
	while ((c = *fmt++) != '\0') {
80000184:	00054303          	lbu	t1,0(a0)
{
80000188:	d2be                	sw	a5,100(sp)
	va_start(vl, fmt);
8000018a:	08dc                	addi	a5,sp,84
{
8000018c:	caae                	sw	a1,84(sp)
8000018e:	ccb2                	sw	a2,88(sp)
80000190:	ceb6                	sw	a3,92(sp)
80000192:	d0ba                	sw	a4,96(sp)
80000194:	d4c2                	sw	a6,104(sp)
80000196:	d6c6                	sw	a7,108(sp)
	va_start(vl, fmt);
80000198:	c63e                	sw	a5,12(sp)
	while ((c = *fmt++) != '\0') {
8000019a:	04030d63          	beqz	t1,800001f4 <kprintf+0x72>
8000019e:	0505                	addi	a0,a0,1
800001a0:	4701                	li	a4,0
800001a2:	4681                	li	a3,0
				break;
			}
			is_format = false;
			is_long = false;
			is_char = false;
		} else if (c == '%') {
800001a4:	02500e13          	li	t3,37
		__asm__ __volatile__ (
800001a8:	640005b7          	lui	a1,0x64000
			switch (c) {
800001ac:	48d5                	li	a7,21
800001ae:	00000817          	auipc	a6,0x0
800001b2:	1c680813          	addi	a6,a6,454 # 80000374 <kprintf+0x1f2>
		if (is_format) {
800001b6:	c6f5                	beqz	a3,800002a2 <kprintf+0x120>
			switch (c) {
800001b8:	f9d30313          	addi	t1,t1,-99
800001bc:	0ff37313          	zext.b	t1,t1
800001c0:	0268e363          	bltu	a7,t1,800001e6 <kprintf+0x64>
800001c4:	00231793          	slli	a5,t1,0x2
800001c8:	97c2                	add	a5,a5,a6
800001ca:	439c                	lw	a5,0(a5)
800001cc:	97c2                	add	a5,a5,a6
800001ce:	8782                	jr	a5
				kputc(va_arg(vl, int));
800001d0:	46b2                	lw	a3,12(sp)
800001d2:	640007b7          	lui	a5,0x64000
800001d6:	0006c703          	lbu	a4,0(a3)
800001da:	0691                	addi	a3,a3,4
800001dc:	c636                	sw	a3,12(sp)
800001de:	40e7a6af          	amoor.w	a3,a4,(a5)
	} while (r < 0);
800001e2:	fe06cee3          	bltz	a3,800001de <kprintf+0x5c>
			is_char = false;
800001e6:	4701                	li	a4,0
			is_format = false;
800001e8:	4681                	li	a3,0
	while ((c = *fmt++) != '\0') {
800001ea:	00054303          	lbu	t1,0(a0)
800001ee:	0505                	addi	a0,a0,1
800001f0:	fc0313e3          	bnez	t1,800001b6 <kprintf+0x34>
		} else {
			kputc(c);
		}
	}
	va_end(vl);
}
800001f4:	6165                	addi	sp,sp,112
800001f6:	8082                	ret
					n = va_arg(vl, unsigned int);
800001f8:	47b2                	lw	a5,12(sp)
					i = is_char ? 4 : (sizeof(unsigned int) << 3) - 4;
800001fa:	00e03633          	snez	a2,a4
800001fe:	40c00633          	neg	a2,a2
					n = va_arg(vl, unsigned int);
80000202:	0007af83          	lw	t6,0(a5) # 64000000 <_prog_start-0x1c000000>
					i = is_char ? 4 : (sizeof(unsigned int) << 3) - 4;
80000206:	9a21                	andi	a2,a2,-24
					n = va_arg(vl, unsigned int);
80000208:	0791                	addi	a5,a5,4
8000020a:	c63e                	sw	a5,12(sp)
					i = is_char ? 4 : (sizeof(unsigned int) << 3) - 4;
8000020c:	0671                	addi	a2,a2,28
					kputc(d < 10 ? '0' + d : 'a' + d - 10);
8000020e:	4f25                	li	t5,9
		__asm__ __volatile__ (
80000210:	640007b7          	lui	a5,0x64000
				for (; i >= 0; i -= 4) {
80000214:	5ef1                	li	t4,-4
					d = (n >> i) & 0xF;
80000216:	00cfd733          	srl	a4,t6,a2
					kputc(d < 10 ? '0' + d : 'a' + d - 10);
8000021a:	00f77313          	andi	t1,a4,15
8000021e:	05730713          	addi	a4,t1,87
80000222:	006f6463          	bltu	t5,t1,8000022a <kprintf+0xa8>
80000226:	03030713          	addi	a4,t1,48
8000022a:	40e7a6af          	amoor.w	a3,a4,(a5)
	} while (r < 0);
8000022e:	fe06cee3          	bltz	a3,8000022a <kprintf+0xa8>
				for (; i >= 0; i -= 4) {
80000232:	1671                	addi	a2,a2,-4
80000234:	ffd611e3          	bne	a2,t4,80000216 <kprintf+0x94>
80000238:	b77d                	j	800001e6 <kprintf+0x64>
				_kputs(va_arg(vl, const char *));
8000023a:	47b2                	lw	a5,12(sp)
8000023c:	4390                	lw	a2,0(a5)
8000023e:	0791                	addi	a5,a5,4 # 64000004 <_prog_start-0x1bfffffc>
80000240:	c63e                	sw	a5,12(sp)
	for (; (c = *s) != '\0'; s++)
80000242:	00064703          	lbu	a4,0(a2)
80000246:	d345                	beqz	a4,800001e6 <kprintf+0x64>
		__asm__ __volatile__ (
80000248:	640007b7          	lui	a5,0x64000
8000024c:	40e7a6af          	amoor.w	a3,a4,(a5)
	} while (r < 0);
80000250:	fe06cee3          	bltz	a3,8000024c <kprintf+0xca>
80000254:	00164703          	lbu	a4,1(a2)
80000258:	0605                	addi	a2,a2,1
8000025a:	fb6d                	bnez	a4,8000024c <kprintf+0xca>
8000025c:	b769                	j	800001e6 <kprintf+0x64>
				n = va_arg(vl, unsigned long);
8000025e:	47b2                	lw	a5,12(sp)
				for (int i = 0; i < 64; i ++) c[i] = 0;
80000260:	c802                	sw	zero,16(sp)
80000262:	ca02                	sw	zero,20(sp)
				n = va_arg(vl, unsigned long);
80000264:	0007a303          	lw	t1,0(a5) # 64000000 <_prog_start-0x1c000000>
80000268:	0791                	addi	a5,a5,4
8000026a:	c63e                	sw	a5,12(sp)
				for (int i = 0; i < 64; i ++) c[i] = 0;
8000026c:	cc02                	sw	zero,24(sp)
8000026e:	ce02                	sw	zero,28(sp)
80000270:	d002                	sw	zero,32(sp)
80000272:	d202                	sw	zero,36(sp)
80000274:	d402                	sw	zero,40(sp)
80000276:	d602                	sw	zero,44(sp)
80000278:	d802                	sw	zero,48(sp)
8000027a:	da02                	sw	zero,52(sp)
8000027c:	dc02                	sw	zero,56(sp)
8000027e:	de02                	sw	zero,60(sp)
80000280:	c082                	sw	zero,64(sp)
80000282:	c282                	sw	zero,68(sp)
80000284:	c482                	sw	zero,72(sp)
80000286:	c682                	sw	zero,76(sp)
				if (n == 0) {
80000288:	02031a63          	bnez	t1,800002bc <kprintf+0x13a>
		__asm__ __volatile__ (
8000028c:	640007b7          	lui	a5,0x64000
80000290:	03000713          	li	a4,48
80000294:	40e7a6af          	amoor.w	a3,a4,(a5)
	} while (r < 0);
80000298:	fe06cee3          	bltz	a3,80000294 <kprintf+0x112>
8000029c:	b7a9                	j	800001e6 <kprintf+0x64>
				is_char = true;
8000029e:	8736                	mv	a4,a3
800002a0:	b7a9                	j	800001ea <kprintf+0x68>
		} else if (c == '%') {
800002a2:	01c31463          	bne	t1,t3,800002aa <kprintf+0x128>
			is_format = true;
800002a6:	4685                	li	a3,1
800002a8:	b789                	j	800001ea <kprintf+0x68>
		__asm__ __volatile__ (
800002aa:	4065a7af          	amoor.w	a5,t1,(a1)
	} while (r < 0);
800002ae:	f207dee3          	bgez	a5,800001ea <kprintf+0x68>
		__asm__ __volatile__ (
800002b2:	4065a7af          	amoor.w	a5,t1,(a1)
	} while (r < 0);
800002b6:	fe07cae3          	bltz	a5,800002aa <kprintf+0x128>
800002ba:	bf05                	j	800001ea <kprintf+0x68>
800002bc:	0810                	addi	a2,sp,16
					c[0] = '0' + (n%10);
800002be:	4ea9                	li	t4,10
				for (;n != 0;) {
800002c0:	4f25                	li	t5,9
					for (int i = 63; i > 0; i--) c[i] = c[i-1];
800002c2:	04e10793          	addi	a5,sp,78
800002c6:	0007c683          	lbu	a3,0(a5) # 64000000 <_prog_start-0x1c000000>
800002ca:	873e                	mv	a4,a5
800002cc:	17fd                	addi	a5,a5,-1
800002ce:	00d78123          	sb	a3,2(a5)
800002d2:	fee61ae3          	bne	a2,a4,800002c6 <kprintf+0x144>
					c[0] = '0' + (n%10);
800002d6:	03d37733          	remu	a4,t1,t4
800002da:	03070713          	addi	a4,a4,48
800002de:	00e10823          	sb	a4,16(sp)
					n = n / 10;
800002e2:	03d357b3          	divu	a5,t1,t4
				for (;n != 0;) {
800002e6:	006f7463          	bgeu	t5,t1,800002ee <kprintf+0x16c>
					n = n / 10;
800002ea:	833e                	mv	t1,a5
800002ec:	bfd9                	j	800002c2 <kprintf+0x140>
800002ee:	01110613          	addi	a2,sp,17
		__asm__ __volatile__ (
800002f2:	640007b7          	lui	a5,0x64000
800002f6:	40e7a6af          	amoor.w	a3,a4,(a5)
	} while (r < 0);
800002fa:	fe06cee3          	bltz	a3,800002f6 <kprintf+0x174>
				for (int i = 0; c[i] != 0; i++) kputc(c[i]);
800002fe:	00064703          	lbu	a4,0(a2)
80000302:	0605                	addi	a2,a2,1
80000304:	fb6d                	bnez	a4,800002f6 <kprintf+0x174>
80000306:	b5c5                	j	800001e6 <kprintf+0x64>
	...

Disassembly of section .rodata:

80000348 <.rodata>:
80000348:	6954                	.2byte	0x6954
8000034a:	656d                	lui	a0,0x1b
8000034c:	7320                	.2byte	0x7320
8000034e:	6570                	.2byte	0x6570
80000350:	746e                	.2byte	0x746e
80000352:	203a                	.2byte	0x203a
80000354:	6c25                	lui	s8,0x9
80000356:	2820                	.2byte	0x2820
80000358:	6c637963          	bgeu	t1,t1,80000a2a <kprintf+0x8a8>
8000035c:	7365                	lui	t1,0xffff9
8000035e:	0d29                	addi	s10,s10,10
80000360:	000a                	c.slli	zero,0x2
80000362:	0000                	unimp
80000364:	7245                	lui	tp,0xffff1
80000366:	6f72                	.2byte	0x6f72
80000368:	3a72                	.2byte	0x3a72
8000036a:	2520                	.2byte	0x2520
8000036c:	206c                	.2byte	0x206c
8000036e:	0a0d                	addi	s4,s4,3
80000370:	0000                	unimp
80000372:	0000                	unimp
80000374:	fe5c                	.2byte	0xfe5c
80000376:	ffff                	.2byte	0xffff
80000378:	fe72                	.2byte	0xfe72
8000037a:	ffff                	.2byte	0xffff
8000037c:	fe72                	.2byte	0xfe72
8000037e:	ffff                	.2byte	0xffff
80000380:	fe72                	.2byte	0xfe72
80000382:	ffff                	.2byte	0xffff
80000384:	fe72                	.2byte	0xfe72
80000386:	ffff                	.2byte	0xffff
80000388:	ff2a                	.2byte	0xff2a
8000038a:	ffff                	.2byte	0xffff
8000038c:	fe72                	.2byte	0xfe72
8000038e:	ffff                	.2byte	0xffff
80000390:	fe72                	.2byte	0xfe72
80000392:	ffff                	.2byte	0xffff
80000394:	fe72                	.2byte	0xfe72
80000396:	ffff                	.2byte	0xffff
80000398:	feea                	.2byte	0xfeea
8000039a:	ffff                	.2byte	0xffff
8000039c:	fe72                	.2byte	0xfe72
8000039e:	ffff                	.2byte	0xffff
800003a0:	fe72                	.2byte	0xfe72
800003a2:	ffff                	.2byte	0xffff
800003a4:	fe72                	.2byte	0xfe72
800003a6:	ffff                	.2byte	0xffff
800003a8:	fe72                	.2byte	0xfe72
800003aa:	ffff                	.2byte	0xffff
800003ac:	fe72                	.2byte	0xfe72
800003ae:	ffff                	.2byte	0xffff
800003b0:	fe72                	.2byte	0xfe72
800003b2:	ffff                	.2byte	0xffff
800003b4:	fec6                	.2byte	0xfec6
800003b6:	ffff                	.2byte	0xffff
800003b8:	fe72                	.2byte	0xfe72
800003ba:	ffff                	.2byte	0xffff
800003bc:	fe72                	.2byte	0xfe72
800003be:	ffff                	.2byte	0xffff
800003c0:	fe72                	.2byte	0xfe72
800003c2:	ffff                	.2byte	0xffff
800003c4:	fe72                	.2byte	0xfe72
800003c6:	ffff                	.2byte	0xffff
800003c8:	fe84                	.2byte	0xfe84
800003ca:	ffff                	.2byte	0xffff

Disassembly of section .riscv.attributes:

00000000 <.riscv.attributes>:
   0:	2e41                	jal	390 <_prog_start-0x7ffffc70>
   2:	0000                	unimp
   4:	7200                	.2byte	0x7200
   6:	7369                	lui	t1,0xffffa
   8:	01007663          	bgeu	zero,a6,14 <_prog_start-0x7fffffec>
   c:	0024                	addi	s1,sp,8
   e:	0000                	unimp
  10:	1004                	addi	s1,sp,32
  12:	7205                	lui	tp,0xfffe1
  14:	3376                	.2byte	0x3376
  16:	6932                	.2byte	0x6932
  18:	7032                	.2byte	0x7032
  1a:	5f30                	lw	a2,120(a4)
  1c:	326d                	jal	fffff9c6 <kprintf+0x7ffff844>
  1e:	3070                	.2byte	0x3070
  20:	615f 7032 5f30      	.byte	0x5f, 0x61, 0x32, 0x70, 0x30, 0x5f
  26:	30703263          	.4byte	0x30703263
  2a:	0800                	addi	s0,sp,16
  2c:	0a01                	addi	s4,s4,0
  2e:	0b              	Address 0x000000000000002e is out of bounds.


Disassembly of section .comment:

00000000 <.comment>:
   0:	3a434347          	.4byte	0x3a434347
   4:	2820                	.2byte	0x2820
   6:	65653267          	.4byte	0x65653267
   a:	6535                	lui	a0,0xd
   c:	3334                	.2byte	0x3334
   e:	3030                	.2byte	0x3030
  10:	3831                	jal	fffff82c <kprintf+0x7ffff6aa>
  12:	2029                	jal	1c <_prog_start-0x7fffffe4>
  14:	3231                	jal	fffff920 <kprintf+0x7ffff79e>
  16:	322e                	.2byte	0x322e
  18:	302e                	.2byte	0x302e
	...

Disassembly of section .debug_line:

00000000 <.debug_line>:
   0:	0066                	c.slli	zero,0x19
   2:	0000                	unimp
   4:	0005                	c.nop	1
   6:	0004                	.2byte	0x4
   8:	002a                	c.slli	zero,0xa
   a:	0000                	unimp
   c:	0101                	addi	sp,sp,0
   e:	fb01                	bnez	a4,ffffff1e <kprintf+0x7ffffd9c>
  10:	0d0e                	slli	s10,s10,0x3
  12:	0100                	addi	s0,sp,128
  14:	0101                	addi	sp,sp,0
  16:	0001                	nop
  18:	0000                	unimp
  1a:	0001                	nop
  1c:	0100                	addi	s0,sp,128
  1e:	0101                	addi	sp,sp,0
  20:	011f 0000 0000      	.byte	0x1f, 0x01, 0x00, 0x00, 0x00, 0x00
  26:	0102                	c.slli64	sp
  28:	021f 020f 004a      	.byte	0x1f, 0x02, 0x0f, 0x02, 0x4a, 0x00
  2e:	0000                	unimp
  30:	4a00                	lw	s0,16(a2)
  32:	0000                	unimp
  34:	0000                	unimp
  36:	0500                	addi	s0,sp,640
  38:	0002                	c.slli64	zero
  3a:	0000                	unimp
  3c:	0380                	addi	s0,sp,448
  3e:	010a                	slli	sp,sp,0x2
  40:	04090103          	lb	sp,64(s2)
  44:	0100                	addi	s0,sp,128
  46:	04090103          	lb	sp,64(s2)
  4a:	0100                	addi	s0,sp,128
  4c:	04090103          	lb	sp,64(s2)
  50:	0100                	addi	s0,sp,128
  52:	08090103          	lb	sp,128(s2)
  56:	0100                	addi	s0,sp,128
  58:	02090103          	lb	sp,32(s2)
  5c:	0100                	addi	s0,sp,128
  5e:	04090203          	lb	tp,64(s2)
  62:	0100                	addi	s0,sp,128
  64:	0409                	addi	s0,s0,2
  66:	0000                	unimp
  68:	0101                	addi	sp,sp,0
  6a:	033a                	slli	t1,t1,0xe
  6c:	0000                	unimp
  6e:	0005                	c.nop	1
  70:	0004                	.2byte	0x4
  72:	0041                	c.nop	16
  74:	0000                	unimp
  76:	0101                	addi	sp,sp,0
  78:	fb01                	bnez	a4,ffffff88 <kprintf+0x7ffffe06>
  7a:	0d0e                	slli	s10,s10,0x3
  7c:	0100                	addi	s0,sp,128
  7e:	0101                	addi	sp,sp,0
  80:	0001                	nop
  82:	0000                	unimp
  84:	0001                	nop
  86:	0100                	addi	s0,sp,128
  88:	0101                	addi	sp,sp,0
  8a:	031f 0000 0000      	.byte	0x1f, 0x03, 0x00, 0x00, 0x00, 0x00
  90:	0058                	addi	a4,sp,4
  92:	0000                	unimp
  94:	00c2                	slli	ra,ra,0x10
  96:	0000                	unimp
  98:	0102                	c.slli64	sp
  9a:	021f 050f 0051      	.byte	0x1f, 0x02, 0x0f, 0x05, 0x51, 0x00
  a0:	0000                	unimp
  a2:	5100                	lw	s0,32(a0)
  a4:	0000                	unimp
  a6:	0000                	unimp
  a8:	0128                	addi	a0,sp,136
  aa:	0000                	unimp
  ac:	3901                	jal	fffffcbc <kprintf+0x7ffffb3a>
  ae:	0001                	nop
  b0:	0200                	addi	s0,sp,256
  b2:	00000143          	.4byte	0x143
  b6:	0500                	addi	s0,sp,640
  b8:	0020                	addi	s0,sp,8
  ba:	0205                	addi	tp,tp,1 # fffe1001 <kprintf+0x7ffe0e7f>
  bc:	001e                	c.slli	zero,0x7
  be:	8000                	.2byte	0x8000
  c0:	05010a03          	lb	s4,80(sp)
  c4:	09020303          	lb	t1,144(tp) # 90 <_prog_start-0x7fffff70>
  c8:	0000                	unimp
  ca:	0501                	addi	a0,a0,0 # d000 <_prog_start-0x7fff3000>
  cc:	0620                	addi	s0,sp,776
  ce:	00097e03          	.4byte	0x97e03
  d2:	0100                	addi	s0,sp,128
  d4:	30090203          	lb	tp,768(s2)
  d8:	0100                	addi	s0,sp,128
  da:	0305                	addi	t1,t1,1 # ffffa001 <kprintf+0x7fff9e7f>
  dc:	0306                	slli	t1,t1,0x1
  de:	0902                	c.slli64	s2
  e0:	0010                	.2byte	0x10
  e2:	0301                	addi	t1,t1,0
  e4:	0901                	addi	s2,s2,0
  e6:	0000                	unimp
  e8:	0301                	addi	t1,t1,0
  ea:	0901                	addi	s2,s2,0
  ec:	0000                	unimp
  ee:	0301                	addi	t1,t1,0
  f0:	0905                	addi	s2,s2,1
  f2:	0000                	unimp
  f4:	0301                	addi	t1,t1,0
  f6:	0901                	addi	s2,s2,0
  f8:	0000                	unimp
  fa:	0301                	addi	t1,t1,0
  fc:	0901                	addi	s2,s2,0
  fe:	0000                	unimp
 100:	0501                	addi	a0,a0,0
 102:	0305                	addi	t1,t1,1
 104:	0902                	c.slli64	s2
 106:	0000                	unimp
 108:	0501                	addi	a0,a0,0
 10a:	030a                	slli	t1,t1,0x2
 10c:	0900                	addi	s0,sp,144
 10e:	0000                	unimp
 110:	0501                	addi	a0,a0,0
 112:	031c                	addi	a5,sp,384
 114:	0900                	addi	s0,sp,144
 116:	0000                	unimp
 118:	0501                	addi	a0,a0,0
 11a:	0620                	addi	s0,sp,776
 11c:	02097303          	.4byte	0x2097303
 120:	0100                	addi	s0,sp,128
 122:	1c05                	addi	s8,s8,-31 # 8fe1 <_prog_start-0x7fff701f>
 124:	02090d03          	lb	s10,32(s2)
 128:	0100                	addi	s0,sp,128
 12a:	1e05                	addi	t3,t3,-31
 12c:	0306                	slli	t1,t1,0x1
 12e:	0901                	addi	s2,s2,0
 130:	0004                	.2byte	0x4
 132:	0501                	addi	a0,a0,0
 134:	0620                	addi	s0,sp,776
 136:	04097003          	.4byte	0x4097003
 13a:	0100                	addi	s0,sp,128
 13c:	0905                	addi	s2,s2,1
 13e:	0200                	addi	s0,sp,256
 140:	0304                	addi	s1,sp,384
 142:	0306                	slli	t1,t1,0x1
 144:	0911                	addi	s2,s2,4
 146:	0006                	c.slli	zero,0x1
 148:	0501                	addi	a0,a0,0
 14a:	0015                	c.nop	5
 14c:	0402                	c.slli64	s0
 14e:	00030603          	lb	a2,0(t1)
 152:	0009                	c.nop	2
 154:	0100                	addi	s0,sp,128
 156:	1105                	addi	sp,sp,-31
 158:	0200                	addi	s0,sp,256
 15a:	0304                	addi	s1,sp,384
 15c:	04090103          	lb	sp,64(s2)
 160:	0100                	addi	s0,sp,128
 162:	0200                	addi	s0,sp,256
 164:	0304                	addi	s1,sp,384
 166:	02097f03          	.4byte	0x2097f03
 16a:	0100                	addi	s0,sp,128
 16c:	0905                	addi	s2,s2,1
 16e:	0200                	addi	s0,sp,256
 170:	0304                	addi	s1,sp,384
 172:	0306                	slli	t1,t1,0x1
 174:	0901                	addi	s2,s2,0
 176:	0002                	c.slli64	zero
 178:	0001                	nop
 17a:	0402                	c.slli64	s0
 17c:	09010303          	lb	t1,144(sp)
 180:	0000                	unimp
 182:	0501                	addi	a0,a0,0
 184:	0011                	c.nop	4
 186:	0402                	c.slli64	s0
 188:	00030603          	lb	a2,0(t1)
 18c:	0009                	c.nop	2
 18e:	0100                	addi	s0,sp,128
 190:	2805                	jal	1c0 <_prog_start-0x7ffffe40>
 192:	0200                	addi	s0,sp,256
 194:	0304                	addi	s1,sp,384
 196:	0306                	slli	t1,t1,0x1
 198:	097d                	addi	s2,s2,31
 19a:	0004                	.2byte	0x4
 19c:	0501                	addi	a0,a0,0
 19e:	001e                	c.slli	zero,0x7
 1a0:	0402                	c.slli64	s0
 1a2:	09000303          	lb	t1,144(zero) # 90 <_prog_start-0x7fffff70>
 1a6:	0000                	unimp
 1a8:	0501                	addi	a0,a0,0
 1aa:	0026                	c.slli	zero,0x9
 1ac:	0402                	c.slli64	s0
 1ae:	0302                	c.slli64	t1
 1b0:	097f                	.2byte	0x97f
 1b2:	000c                	.2byte	0xc
 1b4:	0501                	addi	a0,a0,0
 1b6:	001c                	.2byte	0x1c
 1b8:	0402                	c.slli64	s0
 1ba:	0302                	c.slli64	t1
 1bc:	0900                	addi	s0,sp,144
 1be:	0000                	unimp
 1c0:	0501                	addi	a0,a0,0
 1c2:	0305                	addi	t1,t1,1
 1c4:	00120907          	.4byte	0x120907
 1c8:	0501                	addi	a0,a0,0
 1ca:	0310                	addi	a2,sp,384
 1cc:	0900                	addi	s0,sp,144
 1ce:	0000                	unimp
 1d0:	0301                	addi	t1,t1,0
 1d2:	0900                	addi	s0,sp,144
 1d4:	0000                	unimp
 1d6:	0301                	addi	t1,t1,0
 1d8:	0900                	addi	s0,sp,144
 1da:	0004                	.2byte	0x4
 1dc:	0501                	addi	a0,a0,0
 1de:	0305                	addi	t1,t1,1
 1e0:	0901                	addi	s2,s2,0
 1e2:	0000                	unimp
 1e4:	0501                	addi	a0,a0,0
 1e6:	030a                	slli	t1,t1,0x2
 1e8:	0900                	addi	s0,sp,144
 1ea:	0000                	unimp
 1ec:	0501                	addi	a0,a0,0
 1ee:	09000317          	auipc	t1,0x9000
 1f2:	0000                	unimp
 1f4:	0501                	addi	a0,a0,0
 1f6:	0610                	addi	a2,sp,768
 1f8:	14097f03          	.4byte	0x14097f03
 1fc:	0100                	addi	s0,sp,128
 1fe:	1905                	addi	s2,s2,-31
 200:	0306                	slli	t1,t1,0x1
 202:	0902                	c.slli64	s2
 204:	0004                	.2byte	0x4
 206:	0501                	addi	a0,a0,0
 208:	061a                	slli	a2,a2,0x6
 20a:	00090203          	lb	tp,0(s2)
 20e:	0100                	addi	s0,sp,128
 210:	1b05                	addi	s6,s6,-31
 212:	0200                	addi	s0,sp,256
 214:	0304                	addi	s1,sp,384
 216:	0306                	slli	t1,t1,0x1
 218:	097f                	.2byte	0x97f
 21a:	000e                	c.slli	zero,0x3
 21c:	0501                	addi	a0,a0,0
 21e:	0402000b          	.4byte	0x402000b
 222:	09010303          	lb	t1,144(sp)
 226:	0000                	unimp
 228:	0501                	addi	a0,a0,0
 22a:	001e                	c.slli	zero,0x7
 22c:	0402                	c.slli64	s0
 22e:	00030603          	lb	a2,0(t1) # 90001ee <_prog_start-0x76fffe12>
 232:	0009                	c.nop	2
 234:	0100                	addi	s0,sp,128
 236:	1305                	addi	t1,t1,-31
 238:	0200                	addi	s0,sp,256
 23a:	0304                	addi	s1,sp,384
 23c:	02090003          	lb	zero,32(s2)
 240:	0100                	addi	s0,sp,128
 242:	1b05                	addi	s6,s6,-31
 244:	0200                	addi	s0,sp,256
 246:	0304                	addi	s1,sp,384
 248:	02097f03          	.4byte	0x2097f03
 24c:	0100                	addi	s0,sp,128
 24e:	1e05                	addi	t3,t3,-31
 250:	0200                	addi	s0,sp,256
 252:	0304                	addi	s1,sp,384
 254:	02090103          	lb	sp,32(s2)
 258:	0100                	addi	s0,sp,128
 25a:	1b05                	addi	s6,s6,-31
 25c:	0200                	addi	s0,sp,256
 25e:	0304                	addi	s1,sp,384
 260:	04097f03          	.4byte	0x4097f03
 264:	0100                	addi	s0,sp,128
 266:	1305                	addi	t1,t1,-31
 268:	0200                	addi	s0,sp,256
 26a:	0304                	addi	s1,sp,384
 26c:	02090103          	lb	sp,32(s2)
 270:	0100                	addi	s0,sp,128
 272:	2505                	jal	892 <_prog_start-0x7ffff76e>
 274:	0200                	addi	s0,sp,256
 276:	0304                	addi	s1,sp,384
 278:	0306                	slli	t1,t1,0x1
 27a:	097f                	.2byte	0x97f
 27c:	0006                	c.slli	zero,0x1
 27e:	0501                	addi	a0,a0,0
 280:	0402001b          	.4byte	0x402001b
 284:	09000303          	lb	t1,144(zero) # 90 <_prog_start-0x7fffff70>
 288:	0000                	unimp
 28a:	0501                	addi	a0,a0,0
 28c:	04020023          	sb	zero,64(tp) # 40 <_prog_start-0x7fffffc0>
 290:	097f0303          	lb	t1,151(t5)
 294:	0000                	unimp
 296:	0501                	addi	a0,a0,0
 298:	0019                	c.nop	6
 29a:	0402                	c.slli64	s0
 29c:	09000303          	lb	t1,144(zero) # 90 <_prog_start-0x7fffff70>
 2a0:	0000                	unimp
 2a2:	0501                	addi	a0,a0,0
 2a4:	0402001b          	.4byte	0x402001b
 2a8:	01030603          	lb	a2,16(t1)
 2ac:	0009                	c.nop	2
 2ae:	0100                	addi	s0,sp,128
 2b0:	1905                	addi	s2,s2,-31
 2b2:	0200                	addi	s0,sp,256
 2b4:	0204                	addi	s1,sp,256
 2b6:	04097f03          	.4byte	0x4097f03
 2ba:	0100                	addi	s0,sp,128
 2bc:	2105                	jal	6dc <_prog_start-0x7ffff924>
 2be:	0200                	addi	s0,sp,256
 2c0:	0204                	addi	s1,sp,256
 2c2:	0306                	slli	t1,t1,0x1
 2c4:	097f                	.2byte	0x97f
 2c6:	000a                	c.slli	zero,0x2
 2c8:	0501                	addi	a0,a0,0
 2ca:	04020017          	auipc	zero,0x4020
 2ce:	0302                	c.slli64	t1
 2d0:	0900                	addi	s0,sp,144
 2d2:	0000                	unimp
 2d4:	0501                	addi	a0,a0,0
 2d6:	0305                	addi	t1,t1,1
 2d8:	0905                	addi	s2,s2,1
 2da:	0010                	.2byte	0x10
 2dc:	0501                	addi	a0,a0,0
 2de:	030e                	slli	t1,t1,0x3
 2e0:	0900                	addi	s0,sp,144
 2e2:	0000                	unimp
 2e4:	0301                	addi	t1,t1,0
 2e6:	0900                	addi	s0,sp,144
 2e8:	0000                	unimp
 2ea:	0301                	addi	t1,t1,0
 2ec:	0900                	addi	s0,sp,144
 2ee:	0004                	.2byte	0x4
 2f0:	0501                	addi	a0,a0,0
 2f2:	0305                	addi	t1,t1,1
 2f4:	0902                	c.slli64	s2
 2f6:	0000                	unimp
 2f8:	0501                	addi	a0,a0,0
 2fa:	030a                	slli	t1,t1,0x2
 2fc:	0900                	addi	s0,sp,144
 2fe:	0000                	unimp
 300:	0501                	addi	a0,a0,0
 302:	09000317          	auipc	t1,0x9000
 306:	0000                	unimp
 308:	0501                	addi	a0,a0,0
 30a:	060c                	addi	a1,sp,768
 30c:	00096803          	.4byte	0x96803
 310:	0100                	addi	s0,sp,128
 312:	1905                	addi	s2,s2,-31
 314:	0306                	slli	t1,t1,0x1
 316:	0919                	addi	s2,s2,6
 318:	0004                	.2byte	0x4
 31a:	0501                	addi	a0,a0,0
 31c:	0309                	addi	t1,t1,2 # 9000304 <_prog_start-0x76fffcfc>
 31e:	0901                	addi	s2,s2,0
 320:	0004                	.2byte	0x4
 322:	0501                	addi	a0,a0,0
 324:	0900031b          	.4byte	0x900031b
 328:	0000                	unimp
 32a:	0501                	addi	a0,a0,0
 32c:	060c                	addi	a1,sp,768
 32e:	00090003          	lb	zero,0(s2)
 332:	0100                	addi	s0,sp,128
 334:	2605                	jal	654 <_prog_start-0x7ffff9ac>
 336:	02090003          	lb	zero,32(s2)
 33a:	0100                	addi	s0,sp,128
 33c:	1905                	addi	s2,s2,-31
 33e:	04097f03          	.4byte	0x4097f03
 342:	0100                	addi	s0,sp,128
 344:	2605                	jal	664 <_prog_start-0x7ffff99c>
 346:	02090103          	lb	sp,32(s2)
 34a:	0100                	addi	s0,sp,128
 34c:	0c05                	addi	s8,s8,1
 34e:	04090003          	lb	zero,64(s2)
 352:	0100                	addi	s0,sp,128
 354:	2605                	jal	674 <_prog_start-0x7ffff98c>
 356:	02090003          	lb	zero,32(s2)
 35a:	0100                	addi	s0,sp,128
 35c:	2305                	jal	87c <_prog_start-0x7ffff784>
 35e:	0306                	slli	t1,t1,0x1
 360:	097f                	.2byte	0x97f
 362:	0004                	.2byte	0x4
 364:	0501                	addi	a0,a0,0
 366:	0319                	addi	t1,t1,6
 368:	0900                	addi	s0,sp,144
 36a:	0000                	unimp
 36c:	0501                	addi	a0,a0,0
 36e:	0321                	addi	t1,t1,8
 370:	097f                	.2byte	0x97f
 372:	0004                	.2byte	0x4
 374:	0501                	addi	a0,a0,0
 376:	09000317          	auipc	t1,0x9000
 37a:	0000                	unimp
 37c:	0501                	addi	a0,a0,0
 37e:	0305                	addi	t1,t1,1 # 9000377 <_prog_start-0x76fffc89>
 380:	0904                	addi	s1,sp,144
 382:	0008                	.2byte	0x8
 384:	0301                	addi	t1,t1,0
 386:	0902                	c.slli64	s2
 388:	0000                	unimp
 38a:	0301                	addi	t1,t1,0
 38c:	0901                	addi	s2,s2,0
 38e:	000e                	c.slli	zero,0x3
 390:	0501                	addi	a0,a0,0
 392:	09020303          	lb	t1,144(tp) # 90 <_prog_start-0x7fffff70>
 396:	000e                	c.slli	zero,0x3
 398:	0501                	addi	a0,a0,0
 39a:	0601                	addi	a2,a2,0
 39c:	00090103          	lb	sp,0(s2)
 3a0:	0100                	addi	s0,sp,128
 3a2:	1009                	c.nop	-30
 3a4:	0000                	unimp
 3a6:	0101                	addi	sp,sp,0
 3a8:	07ff                	.2byte	0x7ff
 3aa:	0000                	unimp
 3ac:	0005                	c.nop	1
 3ae:	0004                	.2byte	0x4
 3b0:	004a                	c.slli	zero,0x12
 3b2:	0000                	unimp
 3b4:	0101                	addi	sp,sp,0
 3b6:	fb01                	bnez	a4,2c6 <_prog_start-0x7ffffd3a>
 3b8:	0d0e                	slli	s10,s10,0x3
 3ba:	0100                	addi	s0,sp,128
 3bc:	0101                	addi	sp,sp,0
 3be:	0001                	nop
 3c0:	0000                	unimp
 3c2:	0001                	nop
 3c4:	0100                	addi	s0,sp,128
 3c6:	0101                	addi	sp,sp,0
 3c8:	041f 0000 0000      	.byte	0x1f, 0x04, 0x00, 0x00, 0x00, 0x00
 3ce:	00000157          	.4byte	0x157
 3d2:	0058                	addi	a4,sp,4
 3d4:	0000                	unimp
 3d6:	00c2                	slli	ra,ra,0x10
 3d8:	0000                	unimp
 3da:	0102                	c.slli64	sp
 3dc:	021f 060f 014d      	.byte	0x1f, 0x02, 0x0f, 0x06, 0x4d, 0x01
 3e2:	0000                	unimp
 3e4:	4d00                	lw	s0,24(a0)
 3e6:	0001                	nop
 3e8:	0000                	unimp
 3ea:	00000143          	.4byte	0x143
 3ee:	c800                	sw	s0,16(s0)
 3f0:	0001                	nop
 3f2:	0100                	addi	s0,sp,128
 3f4:	0128                	addi	a0,sp,136
 3f6:	0000                	unimp
 3f8:	3902                	.2byte	0x3902
 3fa:	0001                	nop
 3fc:	0300                	addi	s0,sp,384
 3fe:	0105                	addi	sp,sp,1
 400:	0500                	addi	s0,sp,640
 402:	4a02                	lw	s4,0(sp)
 404:	0001                	nop
 406:	0380                	addi	s0,sp,448
 408:	0205010f          	.4byte	0x205010f
 40c:	00090103          	lb	sp,0(s2)
 410:	0100                	addi	s0,sp,128
 412:	00097903          	.4byte	0x97903
 416:	0100                	addi	s0,sp,128
 418:	00090103          	lb	sp,0(s2)
 41c:	0100                	addi	s0,sp,128
 41e:	1205                	addi	tp,tp,-31 # ffffffe1 <kprintf+0x7ffffe5f>
 420:	00090003          	lb	zero,0(s2)
 424:	0100                	addi	s0,sp,128
 426:	0c05                	addi	s8,s8,1
 428:	0306                	slli	t1,t1,0x1
 42a:	0900                	addi	s0,sp,144
 42c:	0000                	unimp
 42e:	0501                	addi	a0,a0,0
 430:	0312                	slli	t1,t1,0x4
 432:	0900                	addi	s0,sp,144
 434:	0004                	.2byte	0x4
 436:	0401                	addi	s0,s0,0
 438:	0502                	c.slli64	a0
 43a:	09100303          	lb	t1,145(zero) # 91 <_prog_start-0x7fffff6f>
 43e:	0002                	c.slli64	zero
 440:	0501                	addi	a0,a0,0
 442:	0602                	c.slli64	a2
 444:	04097e03          	.4byte	0x4097e03
 448:	0100                	addi	s0,sp,128
 44a:	00090103          	lb	sp,0(s2)
 44e:	0100                	addi	s0,sp,128
 450:	0305                	addi	t1,t1,1
 452:	00090103          	lb	sp,0(s2)
 456:	0100                	addi	s0,sp,128
 458:	0d05                	addi	s10,s10,1
 45a:	04090403          	lb	s0,64(s2)
 45e:	0100                	addi	s0,sp,128
 460:	0104                	addi	s1,sp,128
 462:	1c05                	addi	s8,s8,-31
 464:	04096c03          	.4byte	0x4096c03
 468:	0100                	addi	s0,sp,128
 46a:	0c05                	addi	s8,s8,1
 46c:	0306                	slli	t1,t1,0x1
 46e:	0900                	addi	s0,sp,144
 470:	0000                	unimp
 472:	0501                	addi	a0,a0,0
 474:	031c                	addi	a5,sp,384
 476:	0900                	addi	s0,sp,144
 478:	0004                	.2byte	0x4
 47a:	0501                	addi	a0,a0,0
 47c:	0612                	slli	a2,a2,0x4
 47e:	02090003          	lb	zero,32(s2)
 482:	0100                	addi	s0,sp,128
 484:	0204                	addi	s1,sp,256
 486:	0305                	addi	t1,t1,1
 488:	0306                	slli	t1,t1,0x1
 48a:	0910                	addi	a2,sp,144
 48c:	0002                	c.slli64	zero
 48e:	0501                	addi	a0,a0,0
 490:	0602                	c.slli64	a2
 492:	06097e03          	.4byte	0x6097e03
 496:	0100                	addi	s0,sp,128
 498:	00090103          	lb	sp,0(s2)
 49c:	0100                	addi	s0,sp,128
 49e:	0305                	addi	t1,t1,1
 4a0:	00090103          	lb	sp,0(s2)
 4a4:	0100                	addi	s0,sp,128
 4a6:	0d05                	addi	s10,s10,1
 4a8:	04090403          	lb	s0,64(s2)
 4ac:	0100                	addi	s0,sp,128
 4ae:	0305                	addi	t1,t1,1
 4b0:	0306                	slli	t1,t1,0x1
 4b2:	097c                	addi	a5,sp,156
 4b4:	0004                	.2byte	0x4
 4b6:	0501                	addi	a0,a0,0
 4b8:	0602                	c.slli64	a2
 4ba:	06097e03          	.4byte	0x6097e03
 4be:	0100                	addi	s0,sp,128
 4c0:	00090103          	lb	sp,0(s2)
 4c4:	0100                	addi	s0,sp,128
 4c6:	0305                	addi	t1,t1,1
 4c8:	00090103          	lb	sp,0(s2)
 4cc:	0100                	addi	s0,sp,128
 4ce:	0d05                	addi	s10,s10,1
 4d0:	04090403          	lb	s0,64(s2)
 4d4:	0100                	addi	s0,sp,128
 4d6:	0104                	addi	s1,sp,128
 4d8:	0105                	addi	sp,sp,1
 4da:	0306                	slli	t1,t1,0x1
 4dc:	0975                	addi	s2,s2,29
 4de:	0004                	.2byte	0x4
 4e0:	0601                	addi	a2,a2,0
 4e2:	02090303          	lb	t1,32(s2)
 4e6:	0100                	addi	s0,sp,128
 4e8:	0205                	addi	tp,tp,1 # 1 <_prog_start-0x7fffffff>
 4ea:	00090103          	lb	sp,0(s2)
 4ee:	0100                	addi	s0,sp,128
 4f0:	00090103          	lb	sp,0(s2)
 4f4:	0100                	addi	s0,sp,128
 4f6:	00090103          	lb	sp,0(s2)
 4fa:	0100                	addi	s0,sp,128
 4fc:	00090203          	lb	tp,0(s2)
 500:	0100                	addi	s0,sp,128
 502:	0105                	addi	sp,sp,1
 504:	0306                	slli	t1,t1,0x1
 506:	0000097b          	.4byte	0x97b
 50a:	0501                	addi	a0,a0,0
 50c:	030c                	addi	a1,sp,384
 50e:	0909                	addi	s2,s2,2
 510:	0002                	c.slli64	zero
 512:	0501                	addi	a0,a0,0
 514:	0301                	addi	t1,t1,0
 516:	00040977          	.4byte	0x40977
 51a:	0501                	addi	a0,a0,0
 51c:	0302                	c.slli64	t1
 51e:	0905                	addi	s2,s2,1
 520:	0002                	c.slli64	zero
 522:	0501                	addi	a0,a0,0
 524:	0301                	addi	t1,t1,0
 526:	0002097b          	.4byte	0x2097b
 52a:	0501                	addi	a0,a0,0
 52c:	0302                	c.slli64	t1
 52e:	0905                	addi	s2,s2,1
 530:	000c                	.2byte	0xc
 532:	0601                	addi	a2,a2,0
 534:	02090103          	lb	sp,32(s2)
 538:	0100                	addi	s0,sp,128
 53a:	00090103          	lb	sp,0(s2)
 53e:	0100                	addi	s0,sp,128
 540:	00090103          	lb	sp,0(s2)
 544:	0100                	addi	s0,sp,128
 546:	00090103          	lb	sp,0(s2)
 54a:	0100                	addi	s0,sp,128
 54c:	1605                	addi	a2,a2,-31
 54e:	00090003          	lb	zero,0(s2)
 552:	0100                	addi	s0,sp,128
 554:	0d05                	addi	s10,s10,1
 556:	0306                	slli	t1,t1,0x1
 558:	0931                	addi	s2,s2,12
 55a:	000a                	c.slli	zero,0x2
 55c:	0401                	addi	s0,s0,0
 55e:	0502                	c.slli64	a0
 560:	094a0303          	lb	t1,148(s4)
 564:	0004                	.2byte	0x4
 566:	0401                	addi	s0,s0,0
 568:	0501                	addi	a0,a0,0
 56a:	0304                	addi	s1,sp,384
 56c:	00040907          	.4byte	0x40907
 570:	0501                	addi	a0,a0,0
 572:	7f030603          	lb	a2,2032(t1)
 576:	0a09                	addi	s4,s4,2
 578:	0100                	addi	s0,sp,128
 57a:	0605                	addi	a2,a2,1
 57c:	0306                	slli	t1,t1,0x1
 57e:	0900                	addi	s0,sp,144
 580:	0000                	unimp
 582:	0501                	addi	a0,a0,0
 584:	0604                	addi	s1,sp,768
 586:	02090103          	lb	sp,32(s2)
 58a:	0100                	addi	s0,sp,128
 58c:	0505                	addi	a0,a0,1
 58e:	18092903          	lw	s2,384(s2)
 592:	0100                	addi	s0,sp,128
 594:	0b05                	addi	s6,s6,1
 596:	0306                	slli	t1,t1,0x1
 598:	0900                	addi	s0,sp,144
 59a:	0000                	unimp
 59c:	0401                	addi	s0,s0,0
 59e:	0502                	c.slli64	a0
 5a0:	09500303          	lb	t1,149(zero) # 95 <_prog_start-0x7fffff6b>
 5a4:	0002                	c.slli64	zero
 5a6:	0401                	addi	s0,s0,0
 5a8:	0501                	addi	a0,a0,0
 5aa:	0305                	addi	t1,t1,1
 5ac:	0930                	addi	a2,sp,152
 5ae:	0004                	.2byte	0x4
 5b0:	0401                	addi	s0,s0,0
 5b2:	0502                	c.slli64	a0
 5b4:	0602                	c.slli64	a2
 5b6:	04094c03          	lbu	s8,64(s2)
 5ba:	0100                	addi	s0,sp,128
 5bc:	0104                	addi	s1,sp,128
 5be:	0b05                	addi	s6,s6,1
 5c0:	0306                	slli	t1,t1,0x1
 5c2:	0934                	addi	a3,sp,152
 5c4:	0000                	unimp
 5c6:	0401                	addi	s0,s0,0
 5c8:	0502                	c.slli64	a0
 5ca:	0602                	c.slli64	a2
 5cc:	04094e03          	lbu	t3,64(s2)
 5d0:	0100                	addi	s0,sp,128
 5d2:	00090103          	lb	sp,0(s2)
 5d6:	0100                	addi	s0,sp,128
 5d8:	0305                	addi	t1,t1,1
 5da:	00090103          	lb	sp,0(s2)
 5de:	0100                	addi	s0,sp,128
 5e0:	0d05                	addi	s10,s10,1
 5e2:	04090403          	lb	s0,64(s2)
 5e6:	0100                	addi	s0,sp,128
 5e8:	0104                	addi	s1,sp,128
 5ea:	0c05                	addi	s8,s8,1
 5ec:	0306                	slli	t1,t1,0x1
 5ee:	0931                	addi	s2,s2,12
 5f0:	0004                	.2byte	0x4
 5f2:	0501                	addi	a0,a0,0
 5f4:	030e                	slli	t1,t1,0x3
 5f6:	097e                	slli	s2,s2,0x1f
 5f8:	0002                	c.slli64	zero
 5fa:	0501                	addi	a0,a0,0
 5fc:	0616                	slli	a2,a2,0x5
 5fe:	02095203          	lhu	tp,32(s2)
 602:	0100                	addi	s0,sp,128
 604:	0c05                	addi	s8,s8,1
 606:	0306                	slli	t1,t1,0x1
 608:	0900                	addi	s0,sp,144
 60a:	0000                	unimp
 60c:	0501                	addi	a0,a0,0
 60e:	0312                	slli	t1,t1,0x4
 610:	0900                	addi	s0,sp,144
 612:	0004                	.2byte	0x4
 614:	0501                	addi	a0,a0,0
 616:	0316                	slli	t1,t1,0x5
 618:	0900                	addi	s0,sp,144
 61a:	0002                	c.slli64	zero
 61c:	0501                	addi	a0,a0,0
 61e:	0301                	addi	t1,t1,0
 620:	0938                	addi	a4,sp,152
 622:	0004                	.2byte	0x4
 624:	0501                	addi	a0,a0,0
 626:	0605                	addi	a2,a2,1
 628:	04095f03          	lhu	t5,64(s2)
 62c:	0100                	addi	s0,sp,128
 62e:	00090103          	lb	sp,0(s2)
 632:	0100                	addi	s0,sp,128
 634:	00090103          	lb	sp,0(s2)
 638:	0100                	addi	s0,sp,128
 63a:	0605                	addi	a2,a2,1
 63c:	00090403          	lb	s0,0(s2)
 640:	0100                	addi	s0,sp,128
 642:	0805                	addi	a6,a6,1
 644:	0306                	slli	t1,t1,0x1
 646:	0900                	addi	s0,sp,144
 648:	0000                	unimp
 64a:	0501                	addi	a0,a0,0
 64c:	0316                	slli	t1,t1,0x5
 64e:	0901                	addi	s2,s2,0
 650:	0002                	c.slli64	zero
 652:	0501                	addi	a0,a0,0
 654:	0308                	addi	a0,sp,384
 656:	097f                	.2byte	0x97f
 658:	0008                	.2byte	0x8
 65a:	0501                	addi	a0,a0,0
 65c:	0606                	slli	a2,a2,0x1
 65e:	04090103          	lb	sp,64(s2)
 662:	0100                	addi	s0,sp,128
 664:	1605                	addi	a2,a2,-31
 666:	0306                	slli	t1,t1,0x1
 668:	0900                	addi	s0,sp,144
 66a:	0000                	unimp
 66c:	0501                	addi	a0,a0,0
 66e:	0308                	addi	a0,sp,384
 670:	097f                	.2byte	0x97f
 672:	0002                	c.slli64	zero
 674:	0501                	addi	a0,a0,0
 676:	0316                	slli	t1,t1,0x5
 678:	0901                	addi	s2,s2,0
 67a:	0004                	.2byte	0x4
 67c:	0501                	addi	a0,a0,0
 67e:	0306                	slli	t1,t1,0x1
 680:	0905                	addi	s2,s2,1
 682:	0002                	c.slli64	zero
 684:	0401                	addi	s0,s0,0
 686:	0502                	c.slli64	a0
 688:	09580303          	lb	t1,149(a6)
 68c:	0002                	c.slli64	zero
 68e:	0401                	addi	s0,s0,0
 690:	0501                	addi	a0,a0,0
 692:	030e                	slli	t1,t1,0x3
 694:	0925                	addi	s2,s2,9
 696:	0004                	.2byte	0x4
 698:	0501                	addi	a0,a0,0
 69a:	0606                	slli	a2,a2,0x1
 69c:	02090103          	lb	sp,32(s2)
 6a0:	0100                	addi	s0,sp,128
 6a2:	00090103          	lb	sp,0(s2)
 6a6:	0100                	addi	s0,sp,128
 6a8:	0d05                	addi	s10,s10,1
 6aa:	0306                	slli	t1,t1,0x1
 6ac:	0900                	addi	s0,sp,144
 6ae:	0000                	unimp
 6b0:	0501                	addi	a0,a0,0
 6b2:	0319                	addi	t1,t1,6
 6b4:	0901                	addi	s2,s2,0
 6b6:	0004                	.2byte	0x4
 6b8:	0501                	addi	a0,a0,0
 6ba:	0606                	slli	a2,a2,0x1
 6bc:	04090003          	lb	zero,64(s2)
 6c0:	0100                	addi	s0,sp,128
 6c2:	0200                	addi	s0,sp,256
 6c4:	0104                	addi	s1,sp,128
 6c6:	0306                	slli	t1,t1,0x1
 6c8:	0900                	addi	s0,sp,144
 6ca:	0008                	.2byte	0x8
 6cc:	0401                	addi	s0,s0,0
 6ce:	0502                	c.slli64	a0
 6d0:	0602                	c.slli64	a2
 6d2:	04095603          	lhu	a2,64(s2)
 6d6:	0100                	addi	s0,sp,128
 6d8:	00090103          	lb	sp,0(s2)
 6dc:	0100                	addi	s0,sp,128
 6de:	0305                	addi	t1,t1,1
 6e0:	00090103          	lb	sp,0(s2)
 6e4:	0100                	addi	s0,sp,128
 6e6:	0d05                	addi	s10,s10,1
 6e8:	04090403          	lb	s0,64(s2)
 6ec:	0100                	addi	s0,sp,128
 6ee:	0104                	addi	s1,sp,128
 6f0:	1605                	addi	a2,a2,-31
 6f2:	0200                	addi	s0,sp,256
 6f4:	0404                	addi	s1,sp,512
 6f6:	04092103          	lw	sp,64(s2)
 6fa:	0100                	addi	s0,sp,128
 6fc:	0e05                	addi	t3,t3,1
 6fe:	0200                	addi	s0,sp,256
 700:	0404                	addi	s1,sp,512
 702:	02090003          	lb	zero,32(s2)
 706:	0100                	addi	s0,sp,128
 708:	0505                	addi	a0,a0,1
 70a:	06090803          	lb	a6,96(s2)
 70e:	0100                	addi	s0,sp,128
 710:	0205                	addi	tp,tp,1 # 1 <_prog_start-0x7fffffff>
 712:	04094203          	lbu	tp,64(s2)
 716:	0100                	addi	s0,sp,128
 718:	00090103          	lb	sp,0(s2)
 71c:	0100                	addi	s0,sp,128
 71e:	1205                	addi	tp,tp,-31 # ffffffe1 <kprintf+0x7ffffe5f>
 720:	00090003          	lb	zero,0(s2)
 724:	0100                	addi	s0,sp,128
 726:	0505                	addi	a0,a0,1
 728:	0306                	slli	t1,t1,0x1
 72a:	093d                	addi	s2,s2,15
 72c:	0000                	unimp
 72e:	0501                	addi	a0,a0,0
 730:	030c                	addi	a1,sp,384
 732:	00040943          	.4byte	0x40943
 736:	0501                	addi	a0,a0,0
 738:	0312                	slli	t1,t1,0x4
 73a:	0900                	addi	s0,sp,144
 73c:	0004                	.2byte	0x4
 73e:	0401                	addi	s0,s0,0
 740:	0502                	c.slli64	a0
 742:	09100303          	lb	t1,145(zero) # 91 <_prog_start-0x7fffff6f>
 746:	0002                	c.slli64	zero
 748:	0501                	addi	a0,a0,0
 74a:	0602                	c.slli64	a2
 74c:	04097e03          	.4byte	0x4097e03
 750:	0100                	addi	s0,sp,128
 752:	00090103          	lb	sp,0(s2)
 756:	0100                	addi	s0,sp,128
 758:	0305                	addi	t1,t1,1
 75a:	00090103          	lb	sp,0(s2)
 75e:	0100                	addi	s0,sp,128
 760:	0d05                	addi	s10,s10,1
 762:	04090403          	lb	s0,64(s2)
 766:	0100                	addi	s0,sp,128
 768:	0104                	addi	s1,sp,128
 76a:	1c05                	addi	s8,s8,-31
 76c:	04096c03          	.4byte	0x4096c03
 770:	0100                	addi	s0,sp,128
 772:	0c05                	addi	s8,s8,1
 774:	0306                	slli	t1,t1,0x1
 776:	0900                	addi	s0,sp,144
 778:	0000                	unimp
 77a:	0501                	addi	a0,a0,0
 77c:	031c                	addi	a5,sp,384
 77e:	0900                	addi	s0,sp,144
 780:	0004                	.2byte	0x4
 782:	0501                	addi	a0,a0,0
 784:	0612                	slli	a2,a2,0x4
 786:	02090003          	lb	zero,32(s2)
 78a:	0100                	addi	s0,sp,128
 78c:	0505                	addi	a0,a0,1
 78e:	04091903          	lh	s2,64(s2)
 792:	0100                	addi	s0,sp,128
 794:	00090103          	lb	sp,0(s2)
 798:	0100                	addi	s0,sp,128
 79a:	0705                	addi	a4,a4,1
 79c:	0306                	slli	t1,t1,0x1
 79e:	0900                	addi	s0,sp,144
 7a0:	0000                	unimp
 7a2:	0501                	addi	a0,a0,0
 7a4:	0328                	addi	a0,sp,392
 7a6:	0902                	c.slli64	s2
 7a8:	0002                	c.slli64	zero
 7aa:	0501                	addi	a0,a0,0
 7ac:	097e0307          	.4byte	0x97e0307
 7b0:	0004                	.2byte	0x4
 7b2:	0501                	addi	a0,a0,0
 7b4:	0605                	addi	a2,a2,1
 7b6:	04090103          	lb	sp,64(s2)
 7ba:	0100                	addi	s0,sp,128
 7bc:	00090103          	lb	sp,0(s2)
 7c0:	0100                	addi	s0,sp,128
 7c2:	0a05                	addi	s4,s4,1
 7c4:	00090003          	lb	zero,0(s2)
 7c8:	0100                	addi	s0,sp,128
 7ca:	1705                	addi	a4,a4,-31
 7cc:	00090003          	lb	zero,0(s2)
 7d0:	0100                	addi	s0,sp,128
 7d2:	2305                	jal	cf2 <_prog_start-0x7ffff30e>
 7d4:	00090003          	lb	zero,0(s2)
 7d8:	0100                	addi	s0,sp,128
 7da:	1f05                	addi	t5,t5,-31
 7dc:	00090003          	lb	zero,0(s2)
 7e0:	0100                	addi	s0,sp,128
 7e2:	1705                	addi	a4,a4,-31
 7e4:	00090003          	lb	zero,0(s2)
 7e8:	0100                	addi	s0,sp,128
 7ea:	2305                	jal	d0a <_prog_start-0x7ffff2f6>
 7ec:	00090003          	lb	zero,0(s2)
 7f0:	0100                	addi	s0,sp,128
 7f2:	1f05                	addi	t5,t5,-31
 7f4:	00090003          	lb	zero,0(s2)
 7f8:	0100                	addi	s0,sp,128
 7fa:	1705                	addi	a4,a4,-31
 7fc:	00090003          	lb	zero,0(s2)
 800:	0100                	addi	s0,sp,128
 802:	2305                	jal	d22 <_prog_start-0x7ffff2de>
 804:	00090003          	lb	zero,0(s2)
 808:	0100                	addi	s0,sp,128
 80a:	0705                	addi	a4,a4,1
 80c:	0306                	slli	t1,t1,0x1
 80e:	097e                	slli	s2,s2,0x1f
 810:	0000                	unimp
 812:	0501                	addi	a0,a0,0
 814:	0328                	addi	a0,sp,392
 816:	0902                	c.slli64	s2
 818:	0004                	.2byte	0x4
 81a:	0501                	addi	a0,a0,0
 81c:	061f 0003 0209      	.byte	0x1f, 0x06, 0x03, 0x00, 0x09, 0x02
 822:	0100                	addi	s0,sp,128
 824:	1705                	addi	a4,a4,-31
 826:	00090003          	lb	zero,0(s2)
 82a:	0100                	addi	s0,sp,128
 82c:	2305                	jal	d4c <_prog_start-0x7ffff2b4>
 82e:	00090003          	lb	zero,0(s2)
 832:	0100                	addi	s0,sp,128
 834:	2805                	jal	864 <_prog_start-0x7ffff79c>
 836:	0306                	slli	t1,t1,0x1
 838:	0900                	addi	s0,sp,144
 83a:	0000                	unimp
 83c:	0501                	addi	a0,a0,0
 83e:	061f 0003 0209      	.byte	0x1f, 0x06, 0x03, 0x00, 0x09, 0x02
 844:	0100                	addi	s0,sp,128
 846:	1705                	addi	a4,a4,-31
 848:	00090003          	lb	zero,0(s2)
 84c:	0100                	addi	s0,sp,128
 84e:	2305                	jal	d6e <_prog_start-0x7ffff292>
 850:	00090003          	lb	zero,0(s2)
 854:	0100                	addi	s0,sp,128
 856:	2805                	jal	886 <_prog_start-0x7ffff77a>
 858:	0306                	slli	t1,t1,0x1
 85a:	0900                	addi	s0,sp,144
 85c:	0000                	unimp
 85e:	0501                	addi	a0,a0,0
 860:	061f 0003 0209      	.byte	0x1f, 0x06, 0x03, 0x00, 0x09, 0x02
 866:	0100                	addi	s0,sp,128
 868:	1705                	addi	a4,a4,-31
 86a:	00090003          	lb	zero,0(s2)
 86e:	0100                	addi	s0,sp,128
 870:	2305                	jal	d90 <_prog_start-0x7ffff270>
 872:	00090003          	lb	zero,0(s2)
 876:	0100                	addi	s0,sp,128
 878:	2805                	jal	8a8 <_prog_start-0x7ffff758>
 87a:	0306                	slli	t1,t1,0x1
 87c:	0900                	addi	s0,sp,144
 87e:	0000                	unimp
 880:	0501                	addi	a0,a0,0
 882:	061f 0003 0209      	.byte	0x1f, 0x06, 0x03, 0x00, 0x09, 0x02
 888:	0100                	addi	s0,sp,128
 88a:	1705                	addi	a4,a4,-31
 88c:	00090003          	lb	zero,0(s2)
 890:	0100                	addi	s0,sp,128
 892:	2305                	jal	db2 <_prog_start-0x7ffff24e>
 894:	00090003          	lb	zero,0(s2)
 898:	0100                	addi	s0,sp,128
 89a:	2805                	jal	8ca <_prog_start-0x7ffff736>
 89c:	0306                	slli	t1,t1,0x1
 89e:	0900                	addi	s0,sp,144
 8a0:	0000                	unimp
 8a2:	0501                	addi	a0,a0,0
 8a4:	061f 0003 0209      	.byte	0x1f, 0x06, 0x03, 0x00, 0x09, 0x02
 8aa:	0100                	addi	s0,sp,128
 8ac:	1705                	addi	a4,a4,-31
 8ae:	00090003          	lb	zero,0(s2)
 8b2:	0100                	addi	s0,sp,128
 8b4:	2305                	jal	dd4 <_prog_start-0x7ffff22c>
 8b6:	00090003          	lb	zero,0(s2)
 8ba:	0100                	addi	s0,sp,128
 8bc:	2805                	jal	8ec <_prog_start-0x7ffff714>
 8be:	0306                	slli	t1,t1,0x1
 8c0:	0900                	addi	s0,sp,144
 8c2:	0000                	unimp
 8c4:	0501                	addi	a0,a0,0
 8c6:	061f 0003 0209      	.byte	0x1f, 0x06, 0x03, 0x00, 0x09, 0x02
 8cc:	0100                	addi	s0,sp,128
 8ce:	1705                	addi	a4,a4,-31
 8d0:	00090003          	lb	zero,0(s2)
 8d4:	0100                	addi	s0,sp,128
 8d6:	2305                	jal	df6 <_prog_start-0x7ffff20a>
 8d8:	00090003          	lb	zero,0(s2)
 8dc:	0100                	addi	s0,sp,128
 8de:	2805                	jal	90e <_prog_start-0x7ffff6f2>
 8e0:	0306                	slli	t1,t1,0x1
 8e2:	0900                	addi	s0,sp,144
 8e4:	0000                	unimp
 8e6:	0501                	addi	a0,a0,0
 8e8:	061f 0003 0209      	.byte	0x1f, 0x06, 0x03, 0x00, 0x09, 0x02
 8ee:	0100                	addi	s0,sp,128
 8f0:	1705                	addi	a4,a4,-31
 8f2:	00090003          	lb	zero,0(s2)
 8f6:	0100                	addi	s0,sp,128
 8f8:	2305                	jal	e18 <_prog_start-0x7ffff1e8>
 8fa:	00090003          	lb	zero,0(s2)
 8fe:	0100                	addi	s0,sp,128
 900:	2805                	jal	930 <_prog_start-0x7ffff6d0>
 902:	0306                	slli	t1,t1,0x1
 904:	0900                	addi	s0,sp,144
 906:	0000                	unimp
 908:	0501                	addi	a0,a0,0
 90a:	061f 0003 0209      	.byte	0x1f, 0x06, 0x03, 0x00, 0x09, 0x02
 910:	0100                	addi	s0,sp,128
 912:	1705                	addi	a4,a4,-31
 914:	00090003          	lb	zero,0(s2)
 918:	0100                	addi	s0,sp,128
 91a:	2305                	jal	e3a <_prog_start-0x7ffff1c6>
 91c:	00090003          	lb	zero,0(s2)
 920:	0100                	addi	s0,sp,128
 922:	2805                	jal	952 <_prog_start-0x7ffff6ae>
 924:	0306                	slli	t1,t1,0x1
 926:	0900                	addi	s0,sp,144
 928:	0000                	unimp
 92a:	0501                	addi	a0,a0,0
 92c:	061f 0003 0209      	.byte	0x1f, 0x06, 0x03, 0x00, 0x09, 0x02
 932:	0100                	addi	s0,sp,128
 934:	1705                	addi	a4,a4,-31
 936:	00090003          	lb	zero,0(s2)
 93a:	0100                	addi	s0,sp,128
 93c:	2305                	jal	e5c <_prog_start-0x7ffff1a4>
 93e:	00090003          	lb	zero,0(s2)
 942:	0100                	addi	s0,sp,128
 944:	2805                	jal	974 <_prog_start-0x7ffff68c>
 946:	0306                	slli	t1,t1,0x1
 948:	0900                	addi	s0,sp,144
 94a:	0000                	unimp
 94c:	0501                	addi	a0,a0,0
 94e:	061f 0003 0209      	.byte	0x1f, 0x06, 0x03, 0x00, 0x09, 0x02
 954:	0100                	addi	s0,sp,128
 956:	1705                	addi	a4,a4,-31
 958:	00090003          	lb	zero,0(s2)
 95c:	0100                	addi	s0,sp,128
 95e:	2305                	jal	e7e <_prog_start-0x7ffff182>
 960:	00090003          	lb	zero,0(s2)
 964:	0100                	addi	s0,sp,128
 966:	2805                	jal	996 <_prog_start-0x7ffff66a>
 968:	0306                	slli	t1,t1,0x1
 96a:	0900                	addi	s0,sp,144
 96c:	0000                	unimp
 96e:	0501                	addi	a0,a0,0
 970:	061f 0003 0209      	.byte	0x1f, 0x06, 0x03, 0x00, 0x09, 0x02
 976:	0100                	addi	s0,sp,128
 978:	1705                	addi	a4,a4,-31
 97a:	00090003          	lb	zero,0(s2)
 97e:	0100                	addi	s0,sp,128
 980:	2305                	jal	ea0 <_prog_start-0x7ffff160>
 982:	00090003          	lb	zero,0(s2)
 986:	0100                	addi	s0,sp,128
 988:	2805                	jal	9b8 <_prog_start-0x7ffff648>
 98a:	0306                	slli	t1,t1,0x1
 98c:	0900                	addi	s0,sp,144
 98e:	0000                	unimp
 990:	0501                	addi	a0,a0,0
 992:	061f 0003 0209      	.byte	0x1f, 0x06, 0x03, 0x00, 0x09, 0x02
 998:	0100                	addi	s0,sp,128
 99a:	1705                	addi	a4,a4,-31
 99c:	00090003          	lb	zero,0(s2)
 9a0:	0100                	addi	s0,sp,128
 9a2:	2305                	jal	ec2 <_prog_start-0x7ffff13e>
 9a4:	00090003          	lb	zero,0(s2)
 9a8:	0100                	addi	s0,sp,128
 9aa:	2805                	jal	9da <_prog_start-0x7ffff626>
 9ac:	0306                	slli	t1,t1,0x1
 9ae:	0900                	addi	s0,sp,144
 9b0:	0000                	unimp
 9b2:	0501                	addi	a0,a0,0
 9b4:	061f 0003 0209      	.byte	0x1f, 0x06, 0x03, 0x00, 0x09, 0x02
 9ba:	0100                	addi	s0,sp,128
 9bc:	1705                	addi	a4,a4,-31
 9be:	00090003          	lb	zero,0(s2)
 9c2:	0100                	addi	s0,sp,128
 9c4:	2305                	jal	ee4 <_prog_start-0x7ffff11c>
 9c6:	00090003          	lb	zero,0(s2)
 9ca:	0100                	addi	s0,sp,128
 9cc:	2805                	jal	9fc <_prog_start-0x7ffff604>
 9ce:	0306                	slli	t1,t1,0x1
 9d0:	0900                	addi	s0,sp,144
 9d2:	0000                	unimp
 9d4:	0501                	addi	a0,a0,0
 9d6:	061f 0003 0209      	.byte	0x1f, 0x06, 0x03, 0x00, 0x09, 0x02
 9dc:	0100                	addi	s0,sp,128
 9de:	1705                	addi	a4,a4,-31
 9e0:	00090003          	lb	zero,0(s2)
 9e4:	0100                	addi	s0,sp,128
 9e6:	0505                	addi	a0,a0,1
 9e8:	00090103          	lb	sp,0(s2)
 9ec:	0100                	addi	s0,sp,128
 9ee:	0805                	addi	a6,a6,1
 9f0:	0306                	slli	t1,t1,0x1
 9f2:	0900                	addi	s0,sp,144
 9f4:	0000                	unimp
 9f6:	0401                	addi	s0,s0,0
 9f8:	0502                	c.slli64	a0
 9fa:	09730303          	lb	t1,151(t1)
 9fe:	0004                	.2byte	0x4
 a00:	0501                	addi	a0,a0,0
 a02:	0602                	c.slli64	a2
 a04:	08097e03          	.4byte	0x8097e03
 a08:	0100                	addi	s0,sp,128
 a0a:	00090103          	lb	sp,0(s2)
 a0e:	0100                	addi	s0,sp,128
 a10:	0305                	addi	t1,t1,1
 a12:	00090103          	lb	sp,0(s2)
 a16:	0100                	addi	s0,sp,128
 a18:	0d05                	addi	s10,s10,1
 a1a:	04090403          	lb	s0,64(s2)
 a1e:	0100                	addi	s0,sp,128
 a20:	0104                	addi	s1,sp,128
 a22:	0505                	addi	a0,a0,1
 a24:	0200                	addi	s0,sp,256
 a26:	0104                	addi	s1,sp,128
 a28:	06091503          	lh	a0,96(s2)
 a2c:	0100                	addi	s0,sp,128
 a2e:	0200                	addi	s0,sp,256
 a30:	0104                	addi	s1,sp,128
 a32:	00090103          	lb	sp,0(s2)
 a36:	0100                	addi	s0,sp,128
 a38:	0d05                	addi	s10,s10,1
 a3a:	0200                	addi	s0,sp,256
 a3c:	0104                	addi	s1,sp,128
 a3e:	0306                	slli	t1,t1,0x1
 a40:	097f                	.2byte	0x97f
 a42:	0000                	unimp
 a44:	0501                	addi	a0,a0,0
 a46:	060a                	slli	a2,a2,0x2
 a48:	04091d03          	lh	s10,64(s2)
 a4c:	0100                	addi	s0,sp,128
 a4e:	0d05                	addi	s10,s10,1
 a50:	0306                	slli	t1,t1,0x1
 a52:	0900                	addi	s0,sp,144
 a54:	0000                	unimp
 a56:	0501                	addi	a0,a0,0
 a58:	030e                	slli	t1,t1,0x3
 a5a:	0901                	addi	s2,s2,0
 a5c:	0004                	.2byte	0x4
 a5e:	0401                	addi	s0,s0,0
 a60:	0502                	c.slli64	a0
 a62:	0602                	c.slli64	a2
 a64:	04094703          	lbu	a4,64(s2)
 a68:	0100                	addi	s0,sp,128
 a6a:	00090103          	lb	sp,0(s2)
 a6e:	0100                	addi	s0,sp,128
 a70:	0305                	addi	t1,t1,1
 a72:	00090103          	lb	sp,0(s2)
 a76:	0100                	addi	s0,sp,128
 a78:	0d05                	addi	s10,s10,1
 a7a:	04090403          	lb	s0,64(s2)
 a7e:	0100                	addi	s0,sp,128
 a80:	0205                	addi	tp,tp,1 # 1 <_prog_start-0x7fffffff>
 a82:	04097a03          	.4byte	0x4097a03
 a86:	0100                	addi	s0,sp,128
 a88:	00090103          	lb	sp,0(s2)
 a8c:	0100                	addi	s0,sp,128
 a8e:	0305                	addi	t1,t1,1
 a90:	00090103          	lb	sp,0(s2)
 a94:	0100                	addi	s0,sp,128
 a96:	0d05                	addi	s10,s10,1
 a98:	04090403          	lb	s0,64(s2)
 a9c:	0100                	addi	s0,sp,128
 a9e:	0104                	addi	s1,sp,128
 aa0:	1505                	addi	a0,a0,-31
 aa2:	0306                	slli	t1,t1,0x1
 aa4:	0008090f          	.4byte	0x8090f
 aa8:	0501                	addi	a0,a0,0
 aaa:	030d                	addi	t1,t1,3
 aac:	097e                	slli	s2,s2,0x1f
 aae:	0002                	c.slli64	zero
 ab0:	0501                	addi	a0,a0,0
 ab2:	0619                	addi	a2,a2,6
 ab4:	02090103          	lb	sp,32(s2)
 ab8:	0100                	addi	s0,sp,128
 aba:	2305                	jal	fda <_prog_start-0x7ffff026>
 abc:	0200                	addi	s0,sp,256
 abe:	0304                	addi	s1,sp,384
 ac0:	04090003          	lb	zero,64(s2)
 ac4:	0100                	addi	s0,sp,128
 ac6:	2805                	jal	af6 <_prog_start-0x7ffff50a>
 ac8:	0200                	addi	s0,sp,256
 aca:	0304                	addi	s1,sp,384
 acc:	0306                	slli	t1,t1,0x1
 ace:	0900                	addi	s0,sp,144
 ad0:	0000                	unimp
 ad2:	0501                	addi	a0,a0,0
 ad4:	0019                	c.nop	6
 ad6:	0402                	c.slli64	s0
 ad8:	09000303          	lb	t1,144(zero) # 90 <_prog_start-0x7fffff70>
 adc:	0006                	c.slli	zero,0x1
 ade:	0501                	addi	a0,a0,0
 ae0:	0028                	addi	a0,sp,8
 ae2:	0402                	c.slli64	s0
 ae4:	09000303          	lb	t1,144(zero) # 90 <_prog_start-0x7fffff70>
 ae8:	0002                	c.slli64	zero
 aea:	0501                	addi	a0,a0,0
 aec:	001f 0402 0603      	.byte	0x1f, 0x00, 0x02, 0x04, 0x03, 0x06
 af2:	04090003          	lb	zero,64(s2)
 af6:	0100                	addi	s0,sp,128
 af8:	1905                	addi	s2,s2,-31
 afa:	0200                	addi	s0,sp,256
 afc:	0304                	addi	s1,sp,384
 afe:	00090003          	lb	zero,0(s2)
 b02:	0100                	addi	s0,sp,128
 b04:	0605                	addi	a2,a2,1
 b06:	04090103          	lb	sp,64(s2)
 b0a:	0100                	addi	s0,sp,128
 b0c:	1505                	addi	a0,a0,-31
 b0e:	0306                	slli	t1,t1,0x1
 b10:	0900                	addi	s0,sp,144
 b12:	0000                	unimp
 b14:	0501                	addi	a0,a0,0
 b16:	0311                	addi	t1,t1,4
 b18:	0900                	addi	s0,sp,144
 b1a:	0004                	.2byte	0x4
 b1c:	0501                	addi	a0,a0,0
 b1e:	0900030b          	.4byte	0x900030b
 b22:	0004                	.2byte	0x4
 b24:	0501                	addi	a0,a0,0
 b26:	0606                	slli	a2,a2,0x1
 b28:	04090103          	lb	sp,64(s2)
 b2c:	0100                	addi	s0,sp,128
 b2e:	0805                	addi	a6,a6,1
 b30:	0306                	slli	t1,t1,0x1
 b32:	0900                	addi	s0,sp,144
 b34:	0000                	unimp
 b36:	0501                	addi	a0,a0,0
 b38:	060d                	addi	a2,a2,3
 b3a:	04097d03          	.4byte	0x4097d03
 b3e:	0100                	addi	s0,sp,128
 b40:	0805                	addi	a6,a6,1
 b42:	0306                	slli	t1,t1,0x1
 b44:	00040903          	lb	s2,0(s0)
 b48:	0401                	addi	s0,s0,0
 b4a:	0502                	c.slli64	a0
 b4c:	096c0303          	lb	t1,150(s8)
 b50:	0008                	.2byte	0x8
 b52:	0501                	addi	a0,a0,0
 b54:	0602                	c.slli64	a2
 b56:	04097e03          	.4byte	0x4097e03
 b5a:	0100                	addi	s0,sp,128
 b5c:	00090103          	lb	sp,0(s2)
 b60:	0100                	addi	s0,sp,128
 b62:	0305                	addi	t1,t1,1
 b64:	00090103          	lb	sp,0(s2)
 b68:	0100                	addi	s0,sp,128
 b6a:	0d05                	addi	s10,s10,1
 b6c:	04090403          	lb	s0,64(s2)
 b70:	0100                	addi	s0,sp,128
 b72:	0104                	addi	s1,sp,128
 b74:	2105                	jal	f94 <_prog_start-0x7ffff06c>
 b76:	0200                	addi	s0,sp,256
 b78:	0304                	addi	s1,sp,384
 b7a:	04091203          	lh	tp,64(s2)
 b7e:	0100                	addi	s0,sp,128
 b80:	1a05                	addi	s4,s4,-31
 b82:	0200                	addi	s0,sp,256
 b84:	0304                	addi	s1,sp,384
 b86:	00090003          	lb	zero,0(s2)
 b8a:	0100                	addi	s0,sp,128
 b8c:	1605                	addi	a2,a2,-31
 b8e:	0200                	addi	s0,sp,256
 b90:	0304                	addi	s1,sp,384
 b92:	0306                	slli	t1,t1,0x1
 b94:	0900                	addi	s0,sp,144
 b96:	0000                	unimp
 b98:	0501                	addi	a0,a0,0
 b9a:	001a                	c.slli	zero,0x6
 b9c:	0402                	c.slli64	s0
 b9e:	09000303          	lb	t1,144(zero) # 90 <_prog_start-0x7fffff70>
 ba2:	0004                	.2byte	0x4
 ba4:	0901                	addi	s2,s2,0
 ba6:	0006                	c.slli	zero,0x1
 ba8:	0100                	addi	s0,sp,128
 baa:	01              	Address 0x0000000000000baa is out of bounds.


Disassembly of section .debug_line_str:

00000000 <.debug_line_str>:
   0:	6d6f682f          	.4byte	0x6d6f682f
   4:	2f65                	jal	7bc <_prog_start-0x7ffff844>
   6:	6962                	.2byte	0x6962
   8:	686e                	.2byte	0x686e
   a:	7565696b          	.4byte	0x7565696b
   e:	6f64                	.2byte	0x6f64
  10:	726f572f          	.4byte	0x726f572f
  14:	6170736b          	.4byte	0x6170736b
  18:	522f6563          	bltu	t5,sp,542 <_prog_start-0x7ffffabe>
  1c:	5349                	li	t1,-14
  1e:	2f562d43          	.4byte	0x2f562d43
  22:	654e                	.2byte	0x654e
  24:	61724677          	.4byte	0x61724677
  28:	656d                	lui	a0,0x1b
  2a:	6b726f77          	.4byte	0x6b726f77
  2e:	6172662f          	.4byte	0x6172662f
  32:	656d                	lui	a0,0x1b
  34:	6b726f77          	.4byte	0x6b726f77
  38:	2f77732f          	.4byte	0x2f77732f
  3c:	616d                	addi	sp,sp,240
  3e:	7274                	.2byte	0x7274
  40:	7869                	lui	a6,0xffffa
  42:	6d5f 6c75 735f      	.byte	0x5f, 0x6d, 0x75, 0x6c, 0x5f, 0x73
  48:	0074                	addi	a3,sp,12
  4a:	30747263          	bgeu	s0,t2,34e <_prog_start-0x7ffffcb2>
  4e:	532e                	lw	t1,232(sp)
  50:	6d00                	.2byte	0x6d00
  52:	6961                	lui	s2,0x18
  54:	2e6e                	.2byte	0x2e6e
  56:	682f0063          	beq	t5,sp,6d6 <_prog_start-0x7ffff92a>
  5a:	2f656d6f          	jal	s10,56350 <_prog_start-0x7ffa9cb0>
  5e:	6962                	.2byte	0x6962
  60:	686e                	.2byte	0x686e
  62:	7565696b          	.4byte	0x7565696b
  66:	6f64                	.2byte	0x6f64
  68:	726f572f          	.4byte	0x726f572f
  6c:	6170736b          	.4byte	0x6170736b
  70:	522f6563          	bltu	t5,sp,59a <_prog_start-0x7ffffa66>
  74:	5349                	li	t1,-14
  76:	2f562d43          	.4byte	0x2f562d43
  7a:	654e                	.2byte	0x654e
  7c:	61724677          	.4byte	0x61724677
  80:	656d                	lui	a0,0x1b
  82:	6b726f77          	.4byte	0x6b726f77
  86:	6f632e2f          	.4byte	0x6f632e2f
  8a:	646e                	.2byte	0x646e
  8c:	2d61                	jal	724 <_prog_start-0x7ffff8dc>
  8e:	6e65                	lui	t3,0x19
  90:	2f76                	.2byte	0x2f76
  92:	6972                	.2byte	0x6972
  94:	2d766373          	csrrsi	t1,0x2d7,12
  98:	6f74                	.2byte	0x6f74
  9a:	2f736c6f          	jal	s8,36b90 <_prog_start-0x7ffc9470>
  9e:	6972                	.2byte	0x6972
  a0:	36766373          	csrrsi	t1,0x367,12
  a4:	2d34                	.2byte	0x2d34
  a6:	6e75                	lui	t3,0x1d
  a8:	776f6e6b          	.4byte	0x776f6e6b
  ac:	2d6e                	.2byte	0x2d6e
  ae:	6c65                	lui	s8,0x19
  b0:	2f66                	.2byte	0x2f66
  b2:	6e69                	lui	t3,0x1a
  b4:	64756c63          	bltu	a0,t2,70c <_prog_start-0x7ffff8f4>
  b8:	2f65                	jal	870 <_prog_start-0x7ffff790>
  ba:	616d                	addi	sp,sp,240
  bc:	6e696863          	bltu	s2,t1,7ac <_prog_start-0x7ffff854>
  c0:	0065                	c.nop	25
  c2:	6d6f682f          	.4byte	0x6d6f682f
  c6:	2f65                	jal	87e <_prog_start-0x7ffff782>
  c8:	6962                	.2byte	0x6962
  ca:	686e                	.2byte	0x686e
  cc:	7565696b          	.4byte	0x7565696b
  d0:	6f64                	.2byte	0x6f64
  d2:	726f572f          	.4byte	0x726f572f
  d6:	6170736b          	.4byte	0x6170736b
  da:	522f6563          	bltu	t5,sp,604 <_prog_start-0x7ffff9fc>
  de:	5349                	li	t1,-14
  e0:	2f562d43          	.4byte	0x2f562d43
  e4:	654e                	.2byte	0x654e
  e6:	61724677          	.4byte	0x61724677
  ea:	656d                	lui	a0,0x1b
  ec:	6b726f77          	.4byte	0x6b726f77
  f0:	6f632e2f          	.4byte	0x6f632e2f
  f4:	646e                	.2byte	0x646e
  f6:	2d61                	jal	78e <_prog_start-0x7ffff872>
  f8:	6e65                	lui	t3,0x19
  fa:	2f76                	.2byte	0x2f76
  fc:	6972                	.2byte	0x6972
  fe:	2d766373          	csrrsi	t1,0x2d7,12
 102:	6f74                	.2byte	0x6f74
 104:	2f736c6f          	jal	s8,36bfa <_prog_start-0x7ffc9406>
 108:	6972                	.2byte	0x6972
 10a:	36766373          	csrrsi	t1,0x367,12
 10e:	2d34                	.2byte	0x2d34
 110:	6e75                	lui	t3,0x1d
 112:	776f6e6b          	.4byte	0x776f6e6b
 116:	2d6e                	.2byte	0x2d6e
 118:	6c65                	lui	s8,0x19
 11a:	2f66                	.2byte	0x2f66
 11c:	6e69                	lui	t3,0x1a
 11e:	64756c63          	bltu	a0,t2,776 <_prog_start-0x7ffff88a>
 122:	2f65                	jal	8da <_prog_start-0x7ffff726>
 124:	00737973          	csrrci	s2,0x7,6
 128:	645f 6665 7561      	.byte	0x5f, 0x64, 0x65, 0x66, 0x61, 0x75
 12e:	746c                	.2byte	0x746c
 130:	745f 7079 7365      	.byte	0x5f, 0x74, 0x79, 0x70, 0x65, 0x73
 136:	682e                	.2byte	0x682e
 138:	5f00                	lw	s0,56(a4)
 13a:	69647473          	csrrci	s0,0x696,8
 13e:	746e                	.2byte	0x746e
 140:	682e                	.2byte	0x682e
 142:	6b00                	.2byte	0x6b00
 144:	7270                	.2byte	0x7270
 146:	6e69                	lui	t3,0x1a
 148:	6674                	.2byte	0x6674
 14a:	682e                	.2byte	0x682e
 14c:	6b00                	.2byte	0x6b00
 14e:	7270                	.2byte	0x7270
 150:	6e69                	lui	t3,0x1a
 152:	6674                	.2byte	0x6674
 154:	632e                	.2byte	0x632e
 156:	2f00                	.2byte	0x2f00
 158:	6f68                	.2byte	0x6f68
 15a:	656d                	lui	a0,0x1b
 15c:	6e69622f          	.4byte	0x6e69622f
 160:	6b68                	.2byte	0x6b68
 162:	6569                	lui	a0,0x1a
 164:	6475                	lui	s0,0x1d
 166:	6f572f6f          	jal	t5,7305a <_prog_start-0x7ff8cfa6>
 16a:	6b72                	.2byte	0x6b72
 16c:	63617073          	csrci	0x636,2
 170:	2f65                	jal	928 <_prog_start-0x7ffff6d8>
 172:	4952                	lw	s2,20(sp)
 174:	562d4353          	.4byte	0x562d4353
 178:	77654e2f          	.4byte	0x77654e2f
 17c:	7246                	.2byte	0x7246
 17e:	6d61                	lui	s10,0x18
 180:	7765                	lui	a4,0xffff9
 182:	2f6b726f          	jal	tp,b7478 <_prog_start-0x7ff48b88>
 186:	632e                	.2byte	0x632e
 188:	61646e6f          	jal	t3,4679e <_prog_start-0x7ffb9862>
 18c:	652d                	lui	a0,0xb
 18e:	766e                	.2byte	0x766e
 190:	7369722f          	.4byte	0x7369722f
 194:	742d7663          	bgeu	s10,sp,8e0 <_prog_start-0x7ffff720>
 198:	736c6f6f          	jal	t5,c68ce <_prog_start-0x7ff39732>
 19c:	62696c2f          	.4byte	0x62696c2f
 1a0:	6363672f          	.4byte	0x6363672f
 1a4:	7369722f          	.4byte	0x7369722f
 1a8:	34367663          	bgeu	a2,gp,4f4 <_prog_start-0x7ffffb0c>
 1ac:	752d                	lui	a0,0xfffeb
 1ae:	6b6e                	.2byte	0x6b6e
 1b0:	6f6e                	.2byte	0x6f6e
 1b2:	652d6e77          	.4byte	0x652d6e77
 1b6:	666c                	.2byte	0x666c
 1b8:	2e32312f          	.4byte	0x2e32312f
 1bc:	2e32                	.2byte	0x2e32
 1be:	2f30                	.2byte	0x2f30
 1c0:	6e69                	lui	t3,0x1a
 1c2:	64756c63          	bltu	a0,t2,81a <_prog_start-0x7ffff7e6>
 1c6:	0065                	c.nop	25
 1c8:	61647473          	csrrci	s0,0x616,8
 1cc:	6772                	.2byte	0x6772
 1ce:	682e                	.2byte	0x682e
	...

Disassembly of section .debug_info:

00000000 <.debug_info>:
   0:	0020                	addi	s0,sp,8
   2:	0000                	unimp
   4:	0005                	c.nop	1
   6:	0401                	addi	s0,s0,0 # 1d000 <_prog_start-0x7ffe3000>
   8:	0000                	unimp
   a:	0000                	unimp
   c:	0001                	nop
   e:	0000                	unimp
  10:	0000                	unimp
  12:	0000                	unimp
  14:	2480                	.2byte	0x2480
  16:	0000                	unimp
  18:	0000                	unimp
  1a:	00000007          	.4byte	0x7
  1e:	0051                	c.nop	20
  20:	0000                	unimp
  22:	8001                	c.srli64	s0
  24:	0289                	addi	t0,t0,2 # 3002 <_prog_start-0x7fffcffe>
  26:	0000                	unimp
  28:	0005                	c.nop	1
  2a:	0401                	addi	s0,s0,0
  2c:	0014                	.2byte	0x14
  2e:	0000                	unimp
  30:	bd0d                	j	fffffe62 <kprintf+0x7ffffce0>
  32:	0000                	unimp
  34:	1d00                	addi	s0,sp,688
  36:	0051                	c.nop	20
  38:	0000                	unimp
  3a:	0000                	unimp
  3c:	0000                	unimp
  3e:	00000087          	.4byte	0x87
  42:	0000                	unimp
  44:	0000                	unimp
  46:	006a                	c.slli	zero,0x1a
  48:	0000                	unimp
  4a:	0101                	addi	sp,sp,0
  4c:	6e06                	.2byte	0x6e06
  4e:	0000                	unimp
  50:	0100                	addi	s0,sp,128
  52:	0801                	addi	a6,a6,0 # ffffa000 <kprintf+0x7fff9e7e>
  54:	006c                	addi	a1,sp,12
  56:	0000                	unimp
  58:	0201                	addi	tp,tp,0 # 0 <_prog_start-0x80000000>
  5a:	6205                	lui	tp,0x1
  5c:	0001                	nop
  5e:	0100                	addi	s0,sp,128
  60:	0702                	c.slli64	a4
  62:	007a                	c.slli	zero,0x1e
  64:	0000                	unimp
  66:	0401                	addi	s0,s0,0
  68:	4d05                	li	s10,1
  6a:	0001                	nop
  6c:	0400                	addi	s0,sp,512
  6e:	008d                	addi	ra,ra,3
  70:	0000                	unimp
  72:	4f02                	lw	t5,0(sp)
  74:	5519                	li	a0,-26
  76:	0000                	unimp
  78:	0100                	addi	s0,sp,128
  7a:	0704                	addi	s1,sp,896
  7c:	000000ab          	.4byte	0xab
  80:	0801                	addi	a6,a6,0
  82:	4805                	li	a6,1
  84:	0001                	nop
  86:	0400                	addi	s0,sp,512
  88:	016c                	addi	a1,sp,140
  8a:	0000                	unimp
  8c:	6902                	.2byte	0x6902
  8e:	6f19                	lui	t5,0x6
  90:	0000                	unimp
  92:	0100                	addi	s0,sp,128
  94:	0708                	addi	a0,sp,896
  96:	00a6                	slli	ra,ra,0x9
  98:	0000                	unimp
  9a:	040e                	slli	s0,s0,0x3
  9c:	6905                	lui	s2,0x1
  9e:	746e                	.2byte	0x746e
  a0:	0100                	addi	s0,sp,128
  a2:	0704                	addi	s1,sp,896
  a4:	00b0                	addi	a2,sp,72
  a6:	0000                	unimp
  a8:	8f04                	.2byte	0x8f04
  aa:	0000                	unimp
  ac:	0300                	addi	s0,sp,384
  ae:	1430                	addi	a2,sp,552
  b0:	0049                	c.nop	18
  b2:	0000                	unimp
  b4:	0000840f          	.4byte	0x840f
  b8:	0400                	addi	s0,sp,512
  ba:	016e                	slli	sp,sp,0x1b
  bc:	0000                	unimp
  be:	63143c03          	.4byte	0x63143c03
  c2:	0000                	unimp
  c4:	1000                	addi	s0,sp,32
  c6:	017d                	addi	sp,sp,31
  c8:	0000                	unimp
  ca:	1304                	addi	s1,sp,416
  cc:	b622                	.2byte	0xb622
  ce:	0000                	unimp
  d0:	0000                	unimp
  d2:	0000                	unimp
  d4:	0564                	addi	s1,sp,652
  d6:	0090                	addi	a2,sp,64
  d8:	0000                	unimp
  da:	b108                	.2byte	0xb108
  dc:	0000                	unimp
  de:	1100                	addi	s0,sp,160
  e0:	0064                	addi	s1,sp,12
  e2:	0000                	unimp
  e4:	2704                	.2byte	0x2704
  e6:	ce0d                	beqz	a2,120 <_prog_start-0x7ffffee0>
  e8:	0000                	unimp
  ea:	1200                	addi	s0,sp,288
  ec:	00ce                	slli	ra,ra,0x13
  ee:	0000                	unimp
  f0:	da050013          	addi	zero,a0,-608 # fffeada0 <kprintf+0x7ffeac1e>
  f4:	0000                	unimp
  f6:	0100                	addi	s0,sp,128
  f8:	0801                	addi	a6,a6,0
  fa:	0075                	c.nop	29
  fc:	0000                	unimp
  fe:	d308                	sw	a0,32(a4)
 100:	0000                	unimp
 102:	1400                	addi	s0,sp,544
 104:	00a1                	addi	ra,ra,8
 106:	0000                	unimp
 108:	0b01                	addi	s6,s6,0
 10a:	7605                	lui	a2,0xfffe1
 10c:	0000                	unimp
 10e:	1e00                	addi	s0,sp,816
 110:	0000                	unimp
 112:	2c80                	.2byte	0x2c80
 114:	0001                	nop
 116:	0100                	addi	s0,sp,128
 118:	729c                	.2byte	0x729c
 11a:	0002                	c.slli64	zero
 11c:	1500                	addi	s0,sp,672
 11e:	00000143          	.4byte	0x143
 122:	0b01                	addi	s6,s6,0
 124:	760e                	.2byte	0x760e
 126:	0000                	unimp
 128:	0c00                	addi	s0,sp,528
 12a:	0000                	unimp
 12c:	1600                	addi	s0,sp,800
 12e:	7261                	lui	tp,0xffff8
 130:	0076                	c.slli	zero,0x1d
 132:	0b01                	addi	s6,s6,0
 134:	0002721b          	.4byte	0x2721b
 138:	2600                	.2byte	0x2600
 13a:	0000                	unimp
 13c:	0200                	addi	s0,sp,256
 13e:	0098                	addi	a4,sp,64
 140:	0000                	unimp
 142:	00840c0f          	.4byte	0x840c0f
 146:	0000                	unimp
 148:	0040                	addi	s0,sp,4
 14a:	0000                	unimp
 14c:	5d02                	lw	s10,32(sp)
 14e:	0000                	unimp
 150:	0f00                	addi	s0,sp,912
 152:	8416                	mv	s0,t0
 154:	0000                	unimp
 156:	4c00                	lw	s0,24(s0)
 158:	0000                	unimp
 15a:	0200                	addi	s0,sp,256
 15c:	0182                	c.slli64	gp
 15e:	0000                	unimp
 160:	0c10                	addi	a2,sp,528
 162:	0084                	addi	s1,sp,64
 164:	0000                	unimp
 166:	0058                	addi	a4,sp,4
 168:	0000                	unimp
 16a:	5602                	lw	a2,32(sp)
 16c:	0001                	nop
 16e:	1100                	addi	s0,sp,160
 170:	950c                	.2byte	0x950c
 172:	0000                	unimp
 174:	7400                	.2byte	0x7400
 176:	0000                	unimp
 178:	0700                	addi	s0,sp,896
 17a:	0061                	c.nop	24
 17c:	7c16                	.2byte	0x7c16
 17e:	0002                	c.slli64	zero
 180:	0400                	addi	s0,sp,512
 182:	f091                	bnez	s1,86 <_prog_start-0x7fffff7a>
 184:	7f9f 6207 1700      	.byte	0x9f, 0x7f, 0x07, 0x62, 0x00, 0x17
 18a:	027c                	addi	a5,sp,268
 18c:	0000                	unimp
 18e:	9104                	.2byte	0x9104
 190:	bff0                	.2byte	0xbff0
 192:	077f                	.2byte	0x77f
 194:	7c180063          	beq	a6,ra,954 <_prog_start-0x7ffff6ac>
 198:	0002                	c.slli64	zero
 19a:	0300                	addi	s0,sp,384
 19c:	f091                	bnez	s1,a0 <_prog_start-0x7fffff60>
 19e:	065f 000c 0000      	.byte	0x5f, 0x06, 0x0c, 0x00, 0x00, 0x00
 1a4:	01a5                	addi	gp,gp,9
 1a6:	0000                	unimp
 1a8:	1a006903          	.4byte	0x1a006903
 1ac:	00008413          	mv	s0,ra
 1b0:	a900                	.2byte	0xa900
 1b2:	0000                	unimp
 1b4:	0900                	addi	s0,sp,144
 1b6:	0028                	addi	a0,sp,8
 1b8:	0000                	unimp
 1ba:	1b006a03          	.4byte	0x1b006a03
 1be:	8415                	srai	s0,s0,0x5
 1c0:	0000                	unimp
 1c2:	db00                	sw	s0,48(a4)
 1c4:	0000                	unimp
 1c6:	0000                	unimp
 1c8:	0600                	addi	s0,sp,768
 1ca:	0000003b          	.4byte	0x3b
 1ce:	01be                	slli	gp,gp,0xf
 1d0:	0000                	unimp
 1d2:	7702                	.2byte	0x7702
 1d4:	0001                	nop
 1d6:	2100                	.2byte	0x2100
 1d8:	5510                	lw	a2,40(a0)
 1da:	0000                	unimp
 1dc:	4000                	lw	s0,0(s0)
 1de:	0000                	unimp
 1e0:	0000                	unimp
 1e2:	4e06                	lw	t3,64(sp)
 1e4:	0000                	unimp
 1e6:	fc00                	.2byte	0xfc00
 1e8:	0001                	nop
 1ea:	0300                	addi	s0,sp,384
 1ec:	0069                	c.nop	26
 1ee:	0e22                	slli	t3,t3,0x8
 1f0:	0076                	c.slli	zero,0x1d
 1f2:	0000                	unimp
 1f4:	00000143          	.4byte	0x143
 1f8:	b60a                	.2byte	0xb60a
 1fa:	0000                	unimp
 1fc:	2e80                	.2byte	0x2e80
 1fe:	0000                	unimp
 200:	0300                	addi	s0,sp,384
 202:	006a                	c.slli	zero,0x1a
 204:	00761023          	sh	t2,0(a2) # fffe1000 <kprintf+0x7ffe0e7e>
 208:	0000                	unimp
 20a:	0150                	addi	a2,sp,132
 20c:	0000                	unimp
 20e:	6109                	addi	sp,sp,128
 210:	0000                	unimp
 212:	1700                	addi	s0,sp,928
 214:	2401006b          	.4byte	0x2401006b
 218:	7612                	.2byte	0x7612
 21a:	0000                	unimp
 21c:	0000                	unimp
 21e:	0000                	unimp
 220:	f418                	.2byte	0xf418
 222:	0000                	unimp
 224:	0480                	addi	s0,sp,576
 226:	0000                	unimp
 228:	1900                	addi	s0,sp,176
 22a:	0002                	c.slli64	zero
 22c:	0200                	addi	s0,sp,256
 22e:	00000177          	.4byte	0x177
 232:	00550e27          	.4byte	0x550e27
 236:	0000                	unimp
 238:	004c                	addi	a1,sp,4
 23a:	0000                	unimp
 23c:	0600                	addi	s0,sp,768
 23e:	0074                	addi	a3,sp,12
 240:	0000                	unimp
 242:	00000247          	.4byte	0x247
 246:	29006903          	.4byte	0x29006903
 24a:	760e                	.2byte	0x760e
 24c:	0000                	unimp
 24e:	5d00                	lw	s0,56(a0)
 250:	0001                	nop
 252:	0a00                	addi	s0,sp,272
 254:	00fc                	addi	a5,sp,76
 256:	8000                	.2byte	0x8000
 258:	001a                	c.slli	zero,0x6
 25a:	0000                	unimp
 25c:	2a006a03          	.4byte	0x2a006a03
 260:	7610                	.2byte	0x7610
 262:	0000                	unimp
 264:	6a00                	.2byte	0x6a00
 266:	0001                	nop
 268:	0000                	unimp
 26a:	1900                	addi	s0,sp,176
 26c:	012c                	addi	a1,sp,136
 26e:	8000                	.2byte	0x8000
 270:	000000bb          	.4byte	0xbb
 274:	025e                	slli	tp,tp,0x17
 276:	0000                	unimp
 278:	055a010b          	.4byte	0x55a010b
 27c:	00034803          	lbu	a6,0(t1)
 280:	0080                	addi	s0,sp,64
 282:	3a1a                	.2byte	0x3a1a
 284:	0001                	nop
 286:	bb80                	.2byte	0xbb80
 288:	0000                	unimp
 28a:	0b00                	addi	s0,sp,400
 28c:	5a01                	li	s4,-32
 28e:	0305                	addi	t1,t1,1
 290:	0364                	addi	s1,sp,396
 292:	8000                	.2byte	0x8000
 294:	0000                	unimp
 296:	7705                	lui	a4,0xfffe1
 298:	0002                	c.slli64	zero
 29a:	0500                	addi	s0,sp,640
 29c:	000000d3          	.4byte	0xd3
 2a0:	0000841b          	.4byte	0x841b
 2a4:	0c00                	addi	s0,sp,528
 2a6:	007d                	c.nop	31
 2a8:	0000                	unimp
 2aa:	7d0c                	.2byte	0x7d0c
 2ac:	0000                	unimp
 2ae:	0000                	unimp
 2b0:	2400                	.2byte	0x2400
 2b2:	0004                	.2byte	0x4
 2b4:	0500                	addi	s0,sp,640
 2b6:	0100                	addi	s0,sp,128
 2b8:	6e04                	.2byte	0x6e04
 2ba:	0001                	nop
 2bc:	1700                	addi	s0,sp,928
 2be:	00bd                	addi	ra,ra,15
 2c0:	0000                	unimp
 2c2:	4d1d                	li	s10,7
 2c4:	0001                	nop
 2c6:	0000                	unimp
 2c8:	0000                	unimp
 2ca:	4a00                	lw	s0,16(a2)
 2cc:	0001                	nop
 2ce:	be80                	.2byte	0xbe80
 2d0:	0001                	nop
 2d2:	a800                	.2byte	0xa800
 2d4:	01000003          	lb	zero,16(zero) # 10 <_prog_start-0x7ffffff0>
 2d8:	0704                	addi	s1,sp,896
 2da:	00b0                	addi	a2,sp,72
 2dc:	0000                	unimp
 2de:	b405                	j	fffffcfe <kprintf+0x7ffffb7c>
 2e0:	0001                	nop
 2e2:	0300                	addi	s0,sp,384
 2e4:	1b28                	addi	a0,sp,440
 2e6:	0039                	c.nop	14
 2e8:	0000                	unimp
 2ea:	0418                	addi	a4,sp,512
 2ec:	0190                	addi	a2,sp,192
 2ee:	0000                	unimp
 2f0:	bb05                	j	20 <_prog_start-0x7fffffe0>
 2f2:	0001                	nop
 2f4:	0300                	addi	s0,sp,384
 2f6:	002d1863          	bne	s10,sp,306 <_prog_start-0x7ffffcfa>
 2fa:	0000                	unimp
 2fc:	0101                	addi	sp,sp,0
 2fe:	6e06                	.2byte	0x6e06
 300:	0000                	unimp
 302:	0100                	addi	s0,sp,128
 304:	0801                	addi	a6,a6,0
 306:	006c                	addi	a1,sp,12
 308:	0000                	unimp
 30a:	0201                	addi	tp,tp,0 # ffff8000 <kprintf+0x7fff7e7e>
 30c:	6205                	lui	tp,0x1
 30e:	0001                	nop
 310:	0100                	addi	s0,sp,128
 312:	0702                	c.slli64	a4
 314:	007a                	c.slli	zero,0x1e
 316:	0000                	unimp
 318:	a205                	j	438 <_prog_start-0x7ffffbc8>
 31a:	0001                	nop
 31c:	0400                	addi	s0,sp,512
 31e:	184d                	addi	a6,a6,-13
 320:	00000073          	ecall
 324:	0401                	addi	s0,s0,0
 326:	4d05                	li	s10,1
 328:	0001                	nop
 32a:	0500                	addi	s0,sp,640
 32c:	008d                	addi	ra,ra,3
 32e:	0000                	unimp
 330:	4f04                	lw	s1,24(a4)
 332:	8619                	srai	a2,a2,0x6
 334:	0000                	unimp
 336:	0100                	addi	s0,sp,128
 338:	0704                	addi	s1,sp,896
 33a:	000000ab          	.4byte	0xab
 33e:	0801                	addi	a6,a6,0
 340:	4805                	li	a6,1
 342:	0001                	nop
 344:	0100                	addi	s0,sp,128
 346:	0708                	addi	a0,sp,896
 348:	00a6                	slli	ra,ra,0x9
 34a:	0000                	unimp
 34c:	0419                	addi	s0,s0,6
 34e:	6905                	lui	s2,0x1
 350:	746e                	.2byte	0x746e
 352:	0500                	addi	s0,sp,640
 354:	01a4                	addi	s1,sp,200
 356:	0000                	unimp
 358:	2c05                	jal	588 <_prog_start-0x7ffffa78>
 35a:	00006713          	ori	a4,zero,0
 35e:	0500                	addi	s0,sp,640
 360:	0000008f          	.4byte	0x8f
 364:	3005                	jal	fffffb84 <kprintf+0x7ffffa02>
 366:	7a14                	.2byte	0x7a14
 368:	0000                	unimp
 36a:	1a00                	addi	s0,sp,304
 36c:	00ae                	slli	ra,ra,0xb
 36e:	0000                	unimp
 370:	00017d1b          	.4byte	0x17d1b
 374:	0200                	addi	s0,sp,256
 376:	00d42213          	slti	tp,s0,13
 37a:	0000                	unimp
 37c:	0000                	unimp
 37e:	6400                	.2byte	0x6400
 380:	ba0d                	j	fffffcb2 <kprintf+0x7ffffb30>
 382:	0000                	unimp
 384:	0e00                	addi	s0,sp,784
 386:	000000cf          	.4byte	0xcf
 38a:	0000640f          	.4byte	0x640f
 38e:	1600                	addi	s0,sp,800
 390:	0182                	c.slli64	gp
 392:	8000                	.2byte	0x8000
 394:	0186                	slli	gp,gp,0x1
 396:	0000                	unimp
 398:	9c01                	.2byte	0x9c01
 39a:	00000303          	lb	t1,0(zero) # 0 <_prog_start-0x80000000>
 39e:	6610                	.2byte	0x6610
 3a0:	746d                	lui	s0,0xffffb
 3a2:	1600                	addi	s0,sp,800
 3a4:	031a                	slli	t1,t1,0x6
 3a6:	83000003          	lb	zero,-2000(zero) # fffff830 <kprintf+0x7ffff6ae>
 3aa:	0001                	nop
 3ac:	1c00                	addi	s0,sp,560
 3ae:	760a                	.2byte	0x760a
 3b0:	006c                	addi	a1,sp,12
 3b2:	0a18                	addi	a4,sp,272
 3b4:	0000003f 7f9c9103 	.8byte	0x7f9c91030000003f
 3bc:	c311                	beqz	a4,3c0 <_prog_start-0x7ffffc40>
 3be:	0001                	nop
 3c0:	0700                	addi	s0,sp,896
 3c2:	0314                	addi	a3,sp,384
 3c4:	0000                	unimp
 3c6:	01b2                	slli	gp,gp,0xc
 3c8:	0000                	unimp
 3ca:	ac1d                	j	600 <_prog_start-0x7ffffa00>
 3cc:	0001                	nop
 3ce:	0100                	addi	s0,sp,128
 3d0:	1219                	addi	tp,tp,-26 # fe6 <_prog_start-0x7ffff01a>
 3d2:	0314                	addi	a3,sp,384
 3d4:	0000                	unimp
 3d6:	1100                	addi	s0,sp,160
 3d8:	0188                	addi	a0,sp,192
 3da:	0000                	unimp
 3dc:	0003141b          	.4byte	0x3141b
 3e0:	1800                	addi	s0,sp,48
 3e2:	0002                	c.slli64	zero
 3e4:	0600                	addi	s0,sp,768
 3e6:	071a0063          	beq	s4,a7,446 <_prog_start-0x7ffffbba>
 3ea:	0308                	addi	a0,sp,384
 3ec:	0000                	unimp
 3ee:	00000273          	.4byte	0x273
 3f2:	b012                	.2byte	0xb012
 3f4:	0000                	unimp
 3f6:	d900                	sw	s0,48(a0)
 3f8:	0002                	c.slli64	zero
 3fa:	0600                	addi	s0,sp,768
 3fc:	006e                	c.slli	zero,0x1b
 3fe:	1324                	addi	s1,sp,424
 400:	0086                	slli	ra,ra,0x1
 402:	0000                	unimp
 404:	0295                	addi	t0,t0,5
 406:	0000                	unimp
 408:	630a                	.2byte	0x630a
 40a:	2600                	.2byte	0x2600
 40c:	1b0a                	slli	s6,s6,0x22
 40e:	03000003          	lb	zero,48(zero) # 30 <_prog_start-0x7fffffd0>
 412:	a091                	j	456 <_prog_start-0x7ffffbaa>
 414:	127f                	.2byte	0x127f
 416:	0121                	addi	sp,sp,8
 418:	0000                	unimp
 41a:	0178                	addi	a4,sp,140
 41c:	0000                	unimp
 41e:	6909                	lui	s2,0x2
 420:	0100                	addi	s0,sp,128
 422:	009b0e27          	.4byte	0x9b0e27
 426:	0000                	unimp
 428:	0b00                	addi	s0,sp,400
 42a:	02c2                	slli	t0,t0,0x10
 42c:	8000                	.2byte	0x8000
 42e:	0014                	.2byte	0x14
 430:	0000                	unimp
 432:	00000193          	li	gp,0
 436:	6906                	.2byte	0x6906
 438:	2d00                	.2byte	0x2d00
 43a:	00009b0f          	.4byte	0x9b0f
 43e:	c200                	sw	s0,0(a2)
 440:	0002                	c.slli64	zero
 442:	0000                	unimp
 444:	0002f20b          	.4byte	0x2f20b
 448:	1680                	addi	s0,sp,864
 44a:	0000                	unimp
 44c:	d100                	sw	s0,32(a0)
 44e:	0001                	nop
 450:	0600                	addi	s0,sp,768
 452:	0069                	c.nop	26
 454:	0e31                	addi	t3,t3,12 # 1a00c <_prog_start-0x7ffe5ff4>
 456:	0000009b          	.4byte	0x9b
 45a:	02f4                	addi	a3,sp,332
 45c:	0000                	unimp
 45e:	0003fe07          	.4byte	0x3fe07
 462:	f200                	.2byte	0xf200
 464:	0002                	c.slli64	zero
 466:	0c80                	addi	s0,sp,592
 468:	0000                	unimp
 46a:	3100                	.2byte	0x3100
 46c:	0325                	addi	t1,t1,9
 46e:	00000407          	.4byte	0x407
 472:	1104                	addi	s1,sp,160
 474:	0004                	.2byte	0x4
 476:	0200                	addi	s0,sp,256
 478:	041c                	addi	a5,sp,512
 47a:	0000                	unimp
 47c:	0319                	addi	t1,t1,6
 47e:	0000                	unimp
 480:	0000                	unimp
 482:	0001f80b          	.4byte	0x1f80b
 486:	4280                	lw	s0,0(a3)
 488:	0000                	unimp
 48a:	3300                	.2byte	0x3300
 48c:	0002                	c.slli64	zero
 48e:	0a00                	addi	s0,sp,272
 490:	006e                	c.slli	zero,0x1b
 492:	00861337          	lui	t1,0x861
 496:	0000                	unimp
 498:	6f01                	.2byte	0x6f01
 49a:	6906                	.2byte	0x6906
 49c:	3800                	.2byte	0x3800
 49e:	730a                	.2byte	0x730a
 4a0:	0000                	unimp
 4a2:	2500                	.2byte	0x2500
 4a4:	08000003          	lb	zero,128(zero) # 80 <_prog_start-0x7fffff80>
 4a8:	00e8                	addi	a0,sp,76
 4aa:	0000                	unimp
 4ac:	6406                	.2byte	0x6406
 4ae:	4100                	lw	s0,0(a0)
 4b0:	0000730b          	.4byte	0x730b
 4b4:	3100                	.2byte	0x3100
 4b6:	13000003          	lb	zero,304(zero) # 130 <_prog_start-0x7ffffed0>
 4ba:	03fe                	slli	t2,t2,0x1f
 4bc:	0000                	unimp
 4be:	0210                	addi	a2,sp,256
 4c0:	8000                	.2byte	0x8000
 4c2:	000000fb          	.4byte	0xfb
 4c6:	07030643          	.4byte	0x7030643
 4ca:	0004                	.2byte	0x4
 4cc:	0800                	addi	s0,sp,16
 4ce:	000000fb          	.4byte	0xfb
 4d2:	1104                	addi	s1,sp,160
 4d4:	0004                	.2byte	0x4
 4d6:	0200                	addi	s0,sp,256
 4d8:	041c                	addi	a5,sp,512
 4da:	0000                	unimp
 4dc:	033d                	addi	t1,t1,15 # 86100f <_prog_start-0x7f79eff1>
 4de:	0000                	unimp
 4e0:	0000                	unimp
 4e2:	0000                	unimp
 4e4:	fe14                	.2byte	0xfe14
 4e6:	d2000003          	lb	zero,-736(zero) # fffffd20 <kprintf+0x7ffffb9e>
 4ea:	0001                	nop
 4ec:	cc80                	sw	s0,24(s1)
 4ee:	0000                	unimp
 4f0:	4b00                	lw	s0,16(a4)
 4f2:	00000267          	jalr	tp,zero # 0 <_prog_start-0x80000000>
 4f6:	070c                	addi	a1,sp,896
 4f8:	0004                	.2byte	0x4
 4fa:	4900                	lw	s0,16(a0)
 4fc:	08000003          	lb	zero,128(zero) # 80 <_prog_start-0x7fffff80>
 500:	00cc                	addi	a1,sp,68
 502:	0000                	unimp
 504:	1102                	slli	sp,sp,0x20
 506:	0004                	.2byte	0x4
 508:	5500                	lw	s0,40(a0)
 50a:	02000003          	lb	zero,32(zero) # 20 <_prog_start-0x7fffffe0>
 50e:	041c                	addi	a5,sp,512
 510:	0000                	unimp
 512:	0364                	addi	s1,sp,396
 514:	0000                	unimp
 516:	0000                	unimp
 518:	dc14                	sw	a3,56(s0)
 51a:	3e000003          	lb	zero,992(zero) # 3e0 <_prog_start-0x7ffffc20>
 51e:	0002                	c.slli64	zero
 520:	0e80                	addi	s0,sp,848
 522:	0001                	nop
 524:	4800                	lw	s0,16(s0)
 526:	02b5                	addi	t0,t0,13
 528:	0000                	unimp
 52a:	e90c                	.2byte	0xe90c
 52c:	70000003          	lb	zero,1792(zero) # 700 <_prog_start-0x7ffff900>
 530:	08000003          	lb	zero,128(zero) # 80 <_prog_start-0x7fffff80>
 534:	010e                	slli	sp,sp,0x3
 536:	0000                	unimp
 538:	f302                	.2byte	0xf302
 53a:	7c000003          	lb	zero,1984(zero) # 7c0 <_prog_start-0x7ffff840>
 53e:	07000003          	lb	zero,112(zero) # 70 <_prog_start-0x7fffff90>
 542:	03fe                	slli	t2,t2,0x1f
 544:	0000                	unimp
 546:	0248                	addi	a0,sp,260
 548:	8000                	.2byte	0x8000
 54a:	000c                	.2byte	0xc
 54c:	0000                	unimp
 54e:	030c                	addi	a1,sp,384
 550:	00040703          	lb	a4,0(s0) # ffffb000 <kprintf+0x7fffae7e>
 554:	0400                	addi	s0,sp,512
 556:	0411                	addi	s0,s0,4
 558:	0000                	unimp
 55a:	1c02                	slli	s8,s8,0x20
 55c:	0004                	.2byte	0x4
 55e:	9300                	.2byte	0x9300
 560:	00000003          	lb	zero,0(zero) # 0 <_prog_start-0x80000000>
 564:	0000                	unimp
 566:	0003fe07          	.4byte	0x3fe07
 56a:	8c00                	.2byte	0x8c00
 56c:	0002                	c.slli64	zero
 56e:	1280                	addi	s0,sp,352
 570:	0000                	unimp
 572:	2900                	.2byte	0x2900
 574:	0306                	slli	t1,t1,0x1
 576:	00000407          	.4byte	0x407
 57a:	1104                	addi	s1,sp,160
 57c:	0004                	.2byte	0x4
 57e:	0200                	addi	s0,sp,256
 580:	041c                	addi	a5,sp,512
 582:	0000                	unimp
 584:	039f 0000 0000      	.byte	0x9f, 0x03, 0x00, 0x00, 0x00, 0x00
 58a:	0003fe13          	andi	t3,t2,0
 58e:	a800                	.2byte	0xa800
 590:	0001                	nop
 592:	9d80                	.2byte	0x9d80
 594:	0000                	unimp
 596:	5400                	lw	s0,40(s0)
 598:	0304                	addi	s1,sp,384
 59a:	00000407          	.4byte	0x407
 59e:	9d08                	.2byte	0x9d08
 5a0:	0000                	unimp
 5a2:	0400                	addi	s0,sp,512
 5a4:	0411                	addi	s0,s0,4
 5a6:	0000                	unimp
 5a8:	1c02                	slli	s8,s8,0x20
 5aa:	0004                	.2byte	0x4
 5ac:	ab00                	.2byte	0xab00
 5ae:	00000003          	lb	zero,0(zero) # 0 <_prog_start-0x80000000>
 5b2:	0000                	unimp
 5b4:	0f0d                	addi	t5,t5,3 # 6003 <_prog_start-0x7fff9ffd>
 5b6:	01000003          	lb	zero,16(zero) # 10 <_prog_start-0x7ffffff0>
 5ba:	0801                	addi	a6,a6,0
 5bc:	0075                	c.nop	29
 5be:	0000                	unimp
 5c0:	080e                	slli	a6,a6,0x3
 5c2:	01000003          	lb	zero,16(zero) # 10 <_prog_start-0x7ffffff0>
 5c6:	0201                	addi	tp,tp,0 # 0 <_prog_start-0x80000000>
 5c8:	01da                	slli	gp,gp,0x16
 5ca:	0000                	unimp
 5cc:	081e                	slli	a6,a6,0x7
 5ce:	2b000003          	lb	zero,688(zero) # 2b0 <_prog_start-0x7ffffd50>
 5d2:	1f000003          	lb	zero,496(zero) # 1f0 <_prog_start-0x7ffffe10>
 5d6:	0026                	c.slli	zero,0x9
 5d8:	0000                	unimp
 5da:	ce0f003f 0f000001 	.8byte	0xf000001ce0f003f
 5e2:	014a                	slli	sp,sp,0x12
 5e4:	8000                	.2byte	0x8000
 5e6:	0038                	addi	a4,sp,8
 5e8:	0000                	unimp
 5ea:	9c01                	.2byte	0x9c01
 5ec:	03dc                	addi	a5,sp,452
 5ee:	0000                	unimp
 5f0:	7310                	.2byte	0x7310
 5f2:	0f00                	addi	s0,sp,912
 5f4:	0318                	addi	a4,sp,384
 5f6:	b7000003          	lb	zero,-1168(zero) # fffffb70 <kprintf+0x7ffff9ee>
 5fa:	15000003          	lb	zero,336(zero) # 150 <_prog_start-0x7ffffeb0>
 5fe:	03dc                	addi	a5,sp,452
 600:	0000                	unimp
 602:	014a                	slli	sp,sp,0x12
 604:	8000                	.2byte	0x8000
 606:	001a                	c.slli	zero,0x6
 608:	0000                	unimp
 60a:	9411                	srai	s0,s0,0x24
 60c:	0c000003          	lb	zero,192(zero) # c0 <_prog_start-0x7fffff40>
 610:	03e9                	addi	t2,t2,26
 612:	0000                	unimp
 614:	03d1                	addi	t2,t2,20
 616:	0000                	unimp
 618:	f302                	.2byte	0xf302
 61a:	dd000003          	lb	zero,-560(zero) # fffffdd0 <kprintf+0x7ffffc4e>
 61e:	07000003          	lb	zero,112(zero) # 70 <_prog_start-0x7fffff90>
 622:	03fe                	slli	t2,t2,0x1f
 624:	0000                	unimp
 626:	0150                	addi	a2,sp,132
 628:	8000                	.2byte	0x8000
 62a:	000c                	.2byte	0xc
 62c:	0000                	unimp
 62e:	030c                	addi	a1,sp,384
 630:	00040703          	lb	a4,0(s0)
 634:	0400                	addi	s0,sp,512
 636:	0411                	addi	s0,s0,4
 638:	0000                	unimp
 63a:	1c02                	slli	s8,s8,0x20
 63c:	0004                	.2byte	0x4
 63e:	f400                	.2byte	0xf400
 640:	00000003          	lb	zero,0(zero) # 0 <_prog_start-0x80000000>
 644:	1500                	addi	s0,sp,672
 646:	03fe                	slli	t2,t2,0x1f
 648:	0000                	unimp
 64a:	0164                	addi	s1,sp,140
 64c:	8000                	.2byte	0x8000
 64e:	000e                	c.slli	zero,0x3
 650:	0000                	unimp
 652:	ba12                	.2byte	0xba12
 654:	03000003          	lb	zero,48(zero) # 30 <_prog_start-0x7fffffd0>
 658:	00000407          	.4byte	0x407
 65c:	1104                	addi	s1,sp,160
 65e:	0004                	.2byte	0x4
 660:	0200                	addi	s0,sp,256
 662:	041c                	addi	a5,sp,512
 664:	0000                	unimp
 666:	0400                	addi	s0,sp,512
 668:	0000                	unimp
 66a:	0700                	addi	s0,sp,896
 66c:	03fe                	slli	t2,t2,0x1f
 66e:	0000                	unimp
 670:	0172                	slli	sp,sp,0x1c
 672:	8000                	.2byte	0x8000
 674:	000e                	c.slli	zero,0x3
 676:	0000                	unimp
 678:	07030213          	addi	tp,t1,112
 67c:	0004                	.2byte	0x4
 67e:	0400                	addi	s0,sp,512
 680:	0411                	addi	s0,s0,4
 682:	0000                	unimp
 684:	1c20                	addi	s0,sp,568
 686:	0004                	.2byte	0x4
 688:	0100                	addi	s0,sp,128
 68a:	005d                	c.nop	23
 68c:	2100                	.2byte	0x2100
 68e:	01cd                	addi	gp,gp,19
 690:	0000                	unimp
 692:	0801                	addi	a6,a6,0
 694:	0314                	addi	a3,sp,384
 696:	03fe                	slli	t2,t2,0x1f
 698:	0000                	unimp
 69a:	7316                	.2byte	0x7316
 69c:	0100                	addi	s0,sp,128
 69e:	2708                	.2byte	0x2708
 6a0:	00000303          	lb	t1,0(zero) # 0 <_prog_start-0x80000000>
 6a4:	6309                	lui	t1,0x2
 6a6:	0100                	addi	s0,sp,128
 6a8:	070a                	slli	a4,a4,0x2
 6aa:	0308                	addi	a0,sp,384
 6ac:	0000                	unimp
 6ae:	2200                	.2byte	0x2200
 6b0:	01d4                	addi	a3,sp,196
 6b2:	0000                	unimp
 6b4:	1502                	slli	a0,a0,0x20
 6b6:	0314                	addi	a3,sp,384
 6b8:	6316                	.2byte	0x6316
 6ba:	0200                	addi	s0,sp,256
 6bc:	1f15                	addi	t5,t5,-27
 6be:	0308                	addi	a0,sp,384
 6c0:	0000                	unimp
 6c2:	7409                	lui	s0,0xfffe2
 6c4:	0078                	addi	a4,sp,12
 6c6:	1702                	slli	a4,a4,0x20
 6c8:	cf15                	beqz	a4,704 <_prog_start-0x7ffff8fc>
 6ca:	0000                	unimp
 6cc:	0900                	addi	s0,sp,144
 6ce:	0072                	c.slli	zero,0x1c
 6d0:	1902                	slli	s2,s2,0x20
 6d2:	a20a                	.2byte	0xa20a
 6d4:	0000                	unimp
 6d6:	0000                	unimp
	...

Disassembly of section .debug_abbrev:

00000000 <.debug_abbrev>:
   0:	1101                	addi	sp,sp,-32
   2:	1000                	addi	s0,sp,32
   4:	12011117          	auipc	sp,0x12011
   8:	1b0e030f          	.4byte	0x1b0e030f
   c:	250e                	.2byte	0x250e
   e:	130e                	slli	t1,t1,0x23
  10:	0005                	c.nop	1
  12:	0000                	unimp
  14:	2401                	jal	214 <_prog_start-0x7ffffdec>
  16:	0b00                	addi	s0,sp,400
  18:	030b3e0b          	.4byte	0x30b3e0b
  1c:	000e                	c.slli	zero,0x3
  1e:	0200                	addi	s0,sp,256
  20:	0034                	addi	a3,sp,8
  22:	213a0e03          	lb	t3,531(s4)
  26:	3b01                	jal	fffffd36 <kprintf+0x7ffffbb4>
  28:	490b390b          	.4byte	0x490b390b
  2c:	00170213          	addi	tp,a4,1 # fffe1001 <kprintf+0x7ffe0e7f>
  30:	0300                	addi	s0,sp,384
  32:	0034                	addi	a3,sp,8
  34:	213a0803          	lb	a6,531(s4)
  38:	3b01                	jal	fffffd48 <kprintf+0x7ffffbc6>
  3a:	490b390b          	.4byte	0x490b390b
  3e:	00170213          	addi	tp,a4,1
  42:	0400                	addi	s0,sp,512
  44:	0016                	c.slli	zero,0x5
  46:	0b3a0e03          	lb	t3,179(s4)
  4a:	0b390b3b          	.4byte	0xb390b3b
  4e:	1349                	addi	t1,t1,-14 # 1ff2 <_prog_start-0x7fffe00e>
  50:	0000                	unimp
  52:	0f05                	addi	t5,t5,1
  54:	0b00                	addi	s0,sp,400
  56:	0421                	addi	s0,s0,8 # fffe2008 <kprintf+0x7ffe1e86>
  58:	1349                	addi	t1,t1,-14
  5a:	0000                	unimp
  5c:	0b06                	slli	s6,s6,0x1
  5e:	5501                	li	a0,-32
  60:	00130117          	auipc	sp,0x130
  64:	0700                	addi	s0,sp,896
  66:	0034                	addi	a3,sp,8
  68:	213a0803          	lb	a6,531(s4)
  6c:	3b01                	jal	fffffd7c <kprintf+0x7ffffbfa>
  6e:	0c21390b          	.4byte	0xc21390b
  72:	1349                	addi	t1,t1,-14
  74:	1802                	slli	a6,a6,0x20
  76:	0000                	unimp
  78:	2608                	.2byte	0x2608
  7a:	4900                	lw	s0,16(a0)
  7c:	09000013          	li	zero,144
  80:	1755010b          	.4byte	0x1755010b
  84:	0000                	unimp
  86:	0b0a                	slli	s6,s6,0x2
  88:	1101                	addi	sp,sp,-32 # 130040 <_prog_start-0x7fecffc0>
  8a:	1201                	addi	tp,tp,-32 # ffffffe0 <kprintf+0x7ffffe5e>
  8c:	0006                	c.slli	zero,0x1
  8e:	0b00                	addi	s0,sp,400
  90:	0049                	c.nop	18
  92:	1802                	slli	a6,a6,0x20
  94:	187e                	slli	a6,a6,0x3f
  96:	0000                	unimp
  98:	210c                	.2byte	0x210c
  9a:	4900                	lw	s0,16(a0)
  9c:	1f212f13          	slti	t5,sp,498
  a0:	0000                	unimp
  a2:	110d                	addi	sp,sp,-29
  a4:	2501                	jal	6a4 <_prog_start-0x7ffff95c>
  a6:	130e                	slli	t1,t1,0x23
  a8:	1b1f030b          	.4byte	0x1b1f030b
  ac:	551f 1117 1001      	.byte	0x1f, 0x55, 0x17, 0x11, 0x01, 0x10
  b2:	0e000017          	auipc	zero,0xe000
  b6:	0024                	addi	s1,sp,8
  b8:	0b3e0b0b          	.4byte	0xb3e0b0b
  bc:	00000803          	lb	a6,0(zero) # 0 <_prog_start-0x80000000>
  c0:	4900350f          	.4byte	0x4900350f
  c4:	10000013          	li	zero,256
  c8:	0034                	addi	a3,sp,8
  ca:	0b3a0e03          	lb	t3,179(s4)
  ce:	0b390b3b          	.4byte	0xb390b3b
  d2:	1349                	addi	t1,t1,-14
  d4:	061c                	addi	a5,sp,768
  d6:	0000                	unimp
  d8:	2e11                	jal	3ec <_prog_start-0x7ffffc14>
  da:	3f01                	jal	ffffffea <kprintf+0x7ffffe68>
  dc:	0319                	addi	t1,t1,6
  de:	3a0e                	.2byte	0x3a0e
  e0:	390b3b0b          	.4byte	0x390b3b0b
  e4:	3c19270b          	.4byte	0x3c19270b
  e8:	0119                	addi	sp,sp,6
  ea:	12000013          	li	zero,288
  ee:	0005                	c.nop	1
  f0:	1349                	addi	t1,t1,-14
  f2:	0000                	unimp
  f4:	00001813          	slli	a6,zero,0x0
  f8:	1400                	addi	s0,sp,544
  fa:	012e                	slli	sp,sp,0xb
  fc:	0e03193f 0b3b0b3a 	.8byte	0xb3b0b3a0e03193f
 104:	0b39                	addi	s6,s6,14
 106:	13491927          	.4byte	0x13491927
 10a:	0111                	addi	sp,sp,4
 10c:	0612                	slli	a2,a2,0x4
 10e:	1840                	addi	s0,sp,52
 110:	197a                	slli	s2,s2,0x3e
 112:	1301                	addi	t1,t1,-32
 114:	0000                	unimp
 116:	0515                	addi	a0,a0,5
 118:	0300                	addi	s0,sp,384
 11a:	3a0e                	.2byte	0x3a0e
 11c:	390b3b0b          	.4byte	0x390b3b0b
 120:	0213490b          	.4byte	0x213490b
 124:	16000017          	auipc	zero,0x16000
 128:	0005                	c.nop	1
 12a:	0b3a0803          	lb	a6,179(s4)
 12e:	0b390b3b          	.4byte	0xb390b3b
 132:	1349                	addi	t1,t1,-14
 134:	1702                	slli	a4,a4,0x20
 136:	0000                	unimp
 138:	03003417          	auipc	s0,0x3003
 13c:	3a08                	.2byte	0x3a08
 13e:	390b3b0b          	.4byte	0x390b3b0b
 142:	0013490b          	.4byte	0x13490b
 146:	1800                	addi	s0,sp,48
 148:	0111010b          	.4byte	0x111010b
 14c:	0612                	slli	a2,a2,0x4
 14e:	1301                	addi	t1,t1,-32
 150:	0000                	unimp
 152:	4819                	li	a6,6
 154:	7d01                	lui	s10,0xfffe0
 156:	7f01                	lui	t5,0xfffe0
 158:	00130113          	addi	sp,t1,1
 15c:	1a00                	addi	s0,sp,304
 15e:	0148                	addi	a0,sp,132
 160:	017d                	addi	sp,sp,31
 162:	137f                	.2byte	0x137f
 164:	0000                	unimp
 166:	4901011b          	.4byte	0x4901011b
 16a:	00000013          	nop
 16e:	2401                	jal	36e <_prog_start-0x7ffffc92>
 170:	0b00                	addi	s0,sp,400
 172:	030b3e0b          	.4byte	0x30b3e0b
 176:	000e                	c.slli	zero,0x3
 178:	0200                	addi	s0,sp,256
 17a:	0034                	addi	a3,sp,8
 17c:	1331                	addi	t1,t1,-20
 17e:	1702                	slli	a4,a4,0x20
 180:	0000                	unimp
 182:	31000503          	lb	a0,784(zero) # 310 <_prog_start-0x7ffffcf0>
 186:	04000013          	li	zero,64
 18a:	0034                	addi	a3,sp,8
 18c:	1331                	addi	t1,t1,-20
 18e:	0000                	unimp
 190:	1605                	addi	a2,a2,-31
 192:	0300                	addi	s0,sp,384
 194:	3a0e                	.2byte	0x3a0e
 196:	390b3b0b          	.4byte	0x390b3b0b
 19a:	0013490b          	.4byte	0x13490b
 19e:	0600                	addi	s0,sp,768
 1a0:	0034                	addi	a3,sp,8
 1a2:	213a0803          	lb	a6,531(s4)
 1a6:	3b01                	jal	fffffeb6 <kprintf+0x7ffffd34>
 1a8:	490b390b          	.4byte	0x490b390b
 1ac:	00170213          	addi	tp,a4,1
 1b0:	0700                	addi	s0,sp,896
 1b2:	011d                	addi	sp,sp,7
 1b4:	1331                	addi	t1,t1,-20
 1b6:	0111                	addi	sp,sp,4
 1b8:	0612                	slli	a2,a2,0x4
 1ba:	2158                	.2byte	0x2158
 1bc:	5901                	li	s2,-32
 1be:	000b570b          	.4byte	0xb570b
 1c2:	0800                	addi	s0,sp,16
 1c4:	1755010b          	.4byte	0x1755010b
 1c8:	0000                	unimp
 1ca:	3409                	jal	fffffbcc <kprintf+0x7ffffa4a>
 1cc:	0300                	addi	s0,sp,384
 1ce:	3a08                	.2byte	0x3a08
 1d0:	390b3b0b          	.4byte	0x390b3b0b
 1d4:	0013490b          	.4byte	0x13490b
 1d8:	0a00                	addi	s0,sp,272
 1da:	0034                	addi	a3,sp,8
 1dc:	213a0803          	lb	a6,531(s4)
 1e0:	3b01                	jal	fffffef0 <kprintf+0x7ffffd6e>
 1e2:	490b390b          	.4byte	0x490b390b
 1e6:	00180213          	addi	tp,a6,1
 1ea:	0b00                	addi	s0,sp,400
 1ec:	0111010b          	.4byte	0x111010b
 1f0:	0612                	slli	a2,a2,0x4
 1f2:	1301                	addi	t1,t1,-32
 1f4:	0000                	unimp
 1f6:	050c                	addi	a1,sp,640
 1f8:	3100                	.2byte	0x3100
 1fa:	00170213          	addi	tp,a4,1
 1fe:	0d00                	addi	s0,sp,656
 200:	210b000f          	.4byte	0x210b000f
 204:	4904                	lw	s1,16(a0)
 206:	0e000013          	li	zero,224
 20a:	0026                	c.slli	zero,0x9
 20c:	1349                	addi	t1,t1,-14
 20e:	0000                	unimp
 210:	3f012e0f          	.4byte	0x3f012e0f
 214:	0319                	addi	t1,t1,6
 216:	3a0e                	.2byte	0x3a0e
 218:	0121                	addi	sp,sp,8
 21a:	21390b3b          	.4byte	0x21390b3b
 21e:	2706                	.2byte	0x2706
 220:	1119                	addi	sp,sp,-26
 222:	1201                	addi	tp,tp,-32 # ffffffe0 <kprintf+0x7ffffe5e>
 224:	4006                	.2byte	0x4006
 226:	7a18                	.2byte	0x7a18
 228:	0119                	addi	sp,sp,6
 22a:	10000013          	li	zero,256
 22e:	0005                	c.nop	1
 230:	213a0803          	lb	a6,531(s4)
 234:	3b01                	jal	ffffff44 <kprintf+0x7ffffdc2>
 236:	490b390b          	.4byte	0x490b390b
 23a:	00170213          	addi	tp,a4,1
 23e:	1100                	addi	s0,sp,160
 240:	0034                	addi	a3,sp,8
 242:	213a0e03          	lb	t3,531(s4)
 246:	3b01                	jal	ffffff56 <kprintf+0x7ffffdd4>
 248:	1921                	addi	s2,s2,-24 # 1fe8 <_prog_start-0x7fffe018>
 24a:	0b39                	addi	s6,s6,14
 24c:	1349                	addi	t1,t1,-14
 24e:	1702                	slli	a4,a4,0x20
 250:	0000                	unimp
 252:	0b12                	slli	s6,s6,0x4
 254:	5501                	li	a0,-32
 256:	00130117          	auipc	sp,0x130
 25a:	1300                	addi	s0,sp,416
 25c:	011d                	addi	sp,sp,7 # 13025d <_prog_start-0x7fecfda3>
 25e:	1331                	addi	t1,t1,-20
 260:	0152                	slli	sp,sp,0x14
 262:	1755                	addi	a4,a4,-11
 264:	2158                	.2byte	0x2158
 266:	5901                	li	s2,-32
 268:	000b570b          	.4byte	0xb570b
 26c:	1400                	addi	s0,sp,544
 26e:	011d                	addi	sp,sp,7
 270:	1331                	addi	t1,t1,-20
 272:	0152                	slli	sp,sp,0x14
 274:	1755                	addi	a4,a4,-11
 276:	2158                	.2byte	0x2158
 278:	5901                	li	s2,-32
 27a:	0521570b          	.4byte	0x521570b
 27e:	1301                	addi	t1,t1,-32
 280:	0000                	unimp
 282:	1d15                	addi	s10,s10,-27 # fffdffe5 <kprintf+0x7ffdfe63>
 284:	3101                	jal	fffffe84 <kprintf+0x7ffffd02>
 286:	12011113          	.4byte	0x12011113
 28a:	5806                	lw	a6,96(sp)
 28c:	0121                	addi	sp,sp,8
 28e:	0b59                	addi	s6,s6,22
 290:	01022157          	.4byte	0x1022157
 294:	16000013          	li	zero,352
 298:	0005                	c.nop	1
 29a:	0b3a0803          	lb	a6,179(s4)
 29e:	0b390b3b          	.4byte	0xb390b3b
 2a2:	1349                	addi	t1,t1,-14
 2a4:	0000                	unimp
 2a6:	25011117          	auipc	sp,0x25011
 2aa:	130e                	slli	t1,t1,0x23
 2ac:	1b1f030b          	.4byte	0x1b1f030b
 2b0:	111f 1201 1006      	.byte	0x1f, 0x11, 0x01, 0x12, 0x06, 0x10
 2b6:	18000017          	auipc	zero,0x18000
 2ba:	0b0b000f          	.4byte	0xb0b000f
 2be:	00000e03          	lb	t3,0(zero) # 0 <_prog_start-0x80000000>
 2c2:	2419                	jal	4c8 <_prog_start-0x7ffffb38>
 2c4:	0b00                	addi	s0,sp,400
 2c6:	030b3e0b          	.4byte	0x30b3e0b
 2ca:	0008                	.2byte	0x8
 2cc:	1a00                	addi	s0,sp,304
 2ce:	0035                	c.nop	13
 2d0:	1349                	addi	t1,t1,-14
 2d2:	0000                	unimp
 2d4:	0300341b          	.4byte	0x300341b
 2d8:	3a0e                	.2byte	0x3a0e
 2da:	390b3b0b          	.4byte	0x390b3b0b
 2de:	1c13490b          	.4byte	0x1c13490b
 2e2:	0006                	c.slli	zero,0x1
 2e4:	1c00                	addi	s0,sp,560
 2e6:	0018                	.2byte	0x18
 2e8:	0000                	unimp
 2ea:	341d                	jal	fffffd10 <kprintf+0x7ffffb8e>
 2ec:	0300                	addi	s0,sp,384
 2ee:	3a0e                	.2byte	0x3a0e
 2f0:	390b3b0b          	.4byte	0x390b3b0b
 2f4:	1c13490b          	.4byte	0x1c13490b
 2f8:	1e00000b          	.4byte	0x1e00000b
 2fc:	0101                	addi	sp,sp,0 # 250112a6 <_prog_start-0x5afeed5a>
 2fe:	1349                	addi	t1,t1,-14
 300:	1301                	addi	t1,t1,-32
 302:	0000                	unimp
 304:	211f 4900 2f13      	.byte	0x1f, 0x21, 0x00, 0x49, 0x13, 0x2f
 30a:	2000000b          	.4byte	0x2000000b
 30e:	0034                	addi	a3,sp,8
 310:	1331                	addi	t1,t1,-20
 312:	1802                	slli	a6,a6,0x20
 314:	0000                	unimp
 316:	2e21                	jal	62e <_prog_start-0x7ffff9d2>
 318:	0301                	addi	t1,t1,0
 31a:	3a0e                	.2byte	0x3a0e
 31c:	390b3b0b          	.4byte	0x390b3b0b
 320:	2019270b          	.4byte	0x2019270b
 324:	0013010b          	.4byte	0x13010b
 328:	2200                	.2byte	0x2200
 32a:	012e                	slli	sp,sp,0xb
 32c:	0b3a0e03          	lb	t3,179(s4)
 330:	0b390b3b          	.4byte	0xb390b3b
 334:	0b201927          	.4byte	0xb201927
 338:	0000                	unimp
	...

Disassembly of section .debug_aranges:

00000000 <.debug_aranges>:
   0:	001c                	.2byte	0x1c
   2:	0000                	unimp
   4:	0002                	c.slli64	zero
   6:	0000                	unimp
   8:	0000                	unimp
   a:	0004                	.2byte	0x4
   c:	0000                	unimp
   e:	0000                	unimp
  10:	0000                	unimp
  12:	8000                	.2byte	0x8000
  14:	001e                	c.slli	zero,0x7
	...
  1e:	0000                	unimp
  20:	001c                	.2byte	0x1c
  22:	0000                	unimp
  24:	0002                	c.slli64	zero
  26:	0024                	addi	s1,sp,8
  28:	0000                	unimp
  2a:	0004                	.2byte	0x4
  2c:	0000                	unimp
  2e:	0000                	unimp
  30:	001e                	c.slli	zero,0x7
  32:	8000                	.2byte	0x8000
  34:	012c                	addi	a1,sp,136
	...
  3e:	0000                	unimp
  40:	001c                	.2byte	0x1c
  42:	0000                	unimp
  44:	0002                	c.slli64	zero
  46:	02b1                	addi	t0,t0,12
  48:	0000                	unimp
  4a:	0004                	.2byte	0x4
  4c:	0000                	unimp
  4e:	0000                	unimp
  50:	014a                	slli	sp,sp,0x12
  52:	8000                	.2byte	0x8000
  54:	01be                	slli	gp,gp,0xf
	...

Disassembly of section .debug_str:

00000000 <.debug_str>:
   0:	30747263          	bgeu	s0,t2,304 <_prog_start-0x7ffffcfc>
   4:	532e                	lw	t1,232(sp)
   6:	2f00                	.2byte	0x2f00
   8:	6f68                	.2byte	0x6f68
   a:	656d                	lui	a0,0x1b
   c:	6e69622f          	.4byte	0x6e69622f
  10:	6b68                	.2byte	0x6b68
  12:	6569                	lui	a0,0x1a
  14:	6475                	lui	s0,0x1d
  16:	6f572f6f          	jal	t5,72f0a <_prog_start-0x7ff8d0f6>
  1a:	6b72                	.2byte	0x6b72
  1c:	63617073          	csrci	0x636,2
  20:	2f65                	jal	7d8 <_prog_start-0x7ffff828>
  22:	4952                	lw	s2,20(sp)
  24:	562d4353          	.4byte	0x562d4353
  28:	77654e2f          	.4byte	0x77654e2f
  2c:	7246                	.2byte	0x7246
  2e:	6d61                	lui	s10,0x18
  30:	7765                	lui	a4,0xffff9
  32:	2f6b726f          	jal	tp,b7328 <_prog_start-0x7ff48cd8>
  36:	7266                	.2byte	0x7266
  38:	6d61                	lui	s10,0x18
  3a:	7765                	lui	a4,0xffff9
  3c:	2f6b726f          	jal	tp,b7332 <_prog_start-0x7ff48cce>
  40:	6d2f7773          	csrrci	a4,0x6d2,30
  44:	7461                	lui	s0,0xffff8
  46:	6972                	.2byte	0x6972
  48:	5f78                	lw	a4,124(a4)
  4a:	756d                	lui	a0,0xffffb
  4c:	5f6c                	lw	a1,124(a4)
  4e:	47007473          	csrrci	s0,0x470,0
  52:	554e                	lw	a0,240(sp)
  54:	4120                	lw	s0,64(a0)
  56:	2e322053          	.4byte	0x2e322053
  5a:	74003933          	.4byte	0x74003933
  5e:	5f6c                	lw	a1,124(a4)
  60:	6e65                	lui	t3,0x19
  62:	0064                	addi	s1,sp,12
  64:	6972706b          	.4byte	0x6972706b
  68:	746e                	.2byte	0x746e
  6a:	0066                	c.slli	zero,0x19
  6c:	6e75                	lui	t3,0x1d
  6e:	6e676973          	csrrsi	s2,0x6e6,14
  72:	6465                	lui	s0,0x19
  74:	6320                	.2byte	0x6320
  76:	6168                	.2byte	0x6168
  78:	0072                	c.slli	zero,0x1c
  7a:	726f6873          	csrrsi	a6,mhpmevent6h,30
  7e:	2074                	.2byte	0x2074
  80:	6e75                	lui	t3,0x1d
  82:	6e676973          	csrrsi	s2,0x6e6,14
  86:	6465                	lui	s0,0x19
  88:	6920                	.2byte	0x6920
  8a:	746e                	.2byte	0x746e
  8c:	5f00                	lw	s0,56(a4)
  8e:	755f 6e69 3374      	.byte	0x5f, 0x75, 0x69, 0x6e, 0x74, 0x33
  94:	5f32                	lw	t5,44(sp)
  96:	0074                	addi	a3,sp,12
  98:	6c74                	.2byte	0x6c74
  9a:	735f 6174 7472      	.byte	0x5f, 0x73, 0x74, 0x61, 0x72, 0x74
  a0:	6d00                	.2byte	0x6d00
  a2:	6961                	lui	s2,0x18
  a4:	006e                	c.slli	zero,0x1b
  a6:	6f6c                	.2byte	0x6f6c
  a8:	676e                	.2byte	0x676e
  aa:	6c20                	.2byte	0x6c20
  ac:	20676e6f          	jal	t3,762b2 <_prog_start-0x7ff89d4e>
  b0:	6e75                	lui	t3,0x1d
  b2:	6e676973          	csrrsi	s2,0x6e6,14
  b6:	6465                	lui	s0,0x19
  b8:	6920                	.2byte	0x6920
  ba:	746e                	.2byte	0x746e
  bc:	4700                	lw	s0,8(a4)
  be:	554e                	lw	a0,240(sp)
  c0:	4320                	lw	s0,64(a4)
  c2:	3131                	jal	fffffcce <kprintf+0x7ffffb4c>
  c4:	3120                	.2byte	0x3120
  c6:	2e32                	.2byte	0x2e32
  c8:	2e32                	.2byte	0x2e32
  ca:	2030                	.2byte	0x2030
  cc:	6d2d                	lui	s10,0xb
  ce:	646f6d63          	bltu	t5,t1,728 <_prog_start-0x7ffff8d8>
  d2:	6c65                	lui	s8,0x19
  d4:	6d3d                	lui	s10,0xf
  d6:	6465                	lui	s0,0x19
  d8:	6e61                	lui	t3,0x18
  da:	2079                	jal	168 <_prog_start-0x7ffffe98>
  dc:	6d2d                	lui	s10,0xb
  de:	6261                	lui	tp,0x18
  e0:	3d69                	jal	ffffff7a <kprintf+0x7ffffdf8>
  e2:	6c69                	lui	s8,0x1a
  e4:	3370                	.2byte	0x3370
  e6:	2032                	.2byte	0x2032
  e8:	6d2d                	lui	s10,0xb
  ea:	7574                	.2byte	0x7574
  ec:	656e                	.2byte	0x656e
  ee:	723d                	lui	tp,0xfffef
  f0:	656b636f          	jal	t1,b6746 <_prog_start-0x7ff498ba>
  f4:	2074                	.2byte	0x2074
  f6:	6d2d                	lui	s10,0xb
  f8:	7369                	lui	t1,0xffffa
  fa:	2d61                	jal	792 <_prog_start-0x7ffff86e>
  fc:	63657073          	csrci	0x636,10
 100:	323d                	jal	fffffa2e <kprintf+0x7ffff8ac>
 102:	322e                	.2byte	0x322e
 104:	2d20                	.2byte	0x2d20
 106:	616d                	addi	sp,sp,240
 108:	6372                	.2byte	0x6372
 10a:	3d68                	.2byte	0x3d68
 10c:	7672                	.2byte	0x7672
 10e:	6d693233          	.4byte	0x6d693233
 112:	6361                	lui	t1,0x18
 114:	2d20                	.2byte	0x2d20
 116:	4f2d2067          	.4byte	0x4f2d2067
 11a:	6166                	.2byte	0x6166
 11c:	2d207473          	csrrci	s0,0x2d2,0
 120:	3d647473          	csrrci	s0,0x3d6,8
 124:	31756e67          	.4byte	0x31756e67
 128:	2031                	jal	134 <_prog_start-0x7ffffecc>
 12a:	662d                	lui	a2,0xb
 12c:	6f6e                	.2byte	0x6f6e
 12e:	632d                	lui	t1,0xb
 130:	6f6d6d6f          	jal	s10,d6826 <_prog_start-0x7ff297da>
 134:	206e                	.2byte	0x206e
 136:	662d                	lui	a2,0xb
 138:	6f6e                	.2byte	0x6f6e
 13a:	622d                	lui	tp,0xb
 13c:	6975                	lui	s2,0x1d
 13e:	746c                	.2byte	0x746c
 140:	6e69                	lui	t3,0x1a
 142:	6100                	.2byte	0x6100
 144:	6772                	.2byte	0x6772
 146:	6f6c0063          	beq	s8,s6,826 <_prog_start-0x7ffff7da>
 14a:	676e                	.2byte	0x676e
 14c:	6c20                	.2byte	0x6c20
 14e:	20676e6f          	jal	t3,76354 <_prog_start-0x7ff89cac>
 152:	6e69                	lui	t3,0x1a
 154:	0074                	addi	a3,sp,12
 156:	7265                	lui	tp,0xffff9
 158:	6f72                	.2byte	0x6f72
 15a:	5f72                	lw	t5,60(sp)
 15c:	6e756f63          	bltu	a0,t2,85a <_prog_start-0x7ffff7a6>
 160:	0074                	addi	a3,sp,12
 162:	726f6873          	csrrsi	a6,mhpmevent6h,30
 166:	2074                	.2byte	0x2074
 168:	6e69                	lui	t3,0x1a
 16a:	0074                	addi	a3,sp,12
 16c:	5f5f 6975 746e      	.byte	0x5f, 0x5f, 0x75, 0x69, 0x6e, 0x74
 172:	3436                	.2byte	0x3436
 174:	745f 5f00 745f      	.byte	0x5f, 0x74, 0x00, 0x5f, 0x5f, 0x74
 17a:	706d                	c.lui	zero,0xffffb
 17c:	7500                	.2byte	0x7500
 17e:	7261                	lui	tp,0xffff8
 180:	0074                	addi	a3,sp,12
 182:	5f74                	lw	a3,124(a4)
 184:	00706167          	.4byte	0x706167
 188:	7369                	lui	t1,0xffffa
 18a:	635f 6168 0072      	.byte	0x5f, 0x63, 0x68, 0x61, 0x72, 0x00
 190:	5f5f 7562 6c69      	.byte	0x5f, 0x5f, 0x62, 0x75, 0x69, 0x6c
 196:	6974                	.2byte	0x6974
 198:	5f6e                	lw	t5,248(sp)
 19a:	6176                	.2byte	0x6176
 19c:	6c5f 7369 0074      	.byte	0x5f, 0x6c, 0x69, 0x73, 0x74, 0x00
 1a2:	5f5f 6e69 3374      	.byte	0x5f, 0x5f, 0x69, 0x6e, 0x74, 0x33
 1a8:	5f32                	lw	t5,44(sp)
 1aa:	0074                	addi	a3,sp,12
 1ac:	7369                	lui	t1,0xffffa
 1ae:	6c5f 6e6f 0067      	.byte	0x5f, 0x6c, 0x6f, 0x6e, 0x67, 0x00
 1b4:	5f5f 6e67 6375      	.byte	0x5f, 0x5f, 0x67, 0x6e, 0x75, 0x63
 1ba:	765f 5f61 696c      	.byte	0x5f, 0x76, 0x61, 0x5f, 0x6c, 0x69
 1c0:	69007473          	csrrci	s0,0x690,0
 1c4:	6f665f73          	csrrwi	t5,0x6f6,12
 1c8:	6d72                	.2byte	0x6d72
 1ca:	7461                	lui	s0,0xffff8
 1cc:	5f00                	lw	s0,56(a4)
 1ce:	7475706b          	.4byte	0x7475706b
 1d2:	706b0073          	.4byte	0x706b0073
 1d6:	7475                	lui	s0,0xffffd
 1d8:	425f0063          	beq	t5,t0,5f8 <_prog_start-0x7ffffa08>
 1dc:	006c6f6f          	jal	t5,c61e2 <_prog_start-0x7ff39e1e>

Disassembly of section .debug_loclists:

00000000 <.debug_loclists>:
   0:	00000173          	.4byte	0x173
   4:	0005                	c.nop	1
   6:	0004                	.2byte	0x4
   8:	0000                	unimp
   a:	0000                	unimp
   c:	00001e07          	.4byte	0x1e07
  10:	6080                	.2byte	0x6080
  12:	0000                	unimp
  14:	0180                	addi	s0,sp,192
  16:	075a                	slli	a4,a4,0x16
  18:	0060                	addi	s0,sp,12
  1a:	8000                	.2byte	0x8000
  1c:	014a                	slli	sp,sp,0x12
  1e:	8000                	.2byte	0x8000
  20:	a304                	.2byte	0xa304
  22:	5a01                	li	s4,-32
  24:	009f 1e07 0000      	.byte	0x9f, 0x00, 0x07, 0x1e, 0x00, 0x00
  2a:	6680                	.2byte	0x6680
  2c:	0000                	unimp
  2e:	0180                	addi	s0,sp,192
  30:	0066075b          	.4byte	0x66075b
  34:	8000                	.2byte	0x8000
  36:	014a                	slli	sp,sp,0x12
  38:	8000                	.2byte	0x8000
  3a:	a304                	.2byte	0xa304
  3c:	5b01                	li	s6,-32
  3e:	009f 9e07 0000      	.byte	0x9f, 0x00, 0x07, 0x9e, 0x00, 0x00
  44:	2280                	.2byte	0x2280
  46:	0001                	nop
  48:	0180                	addi	s0,sp,192
  4a:	f807005b          	.4byte	0xf807005b
  4e:	0000                	unimp
  50:	2b80                	.2byte	0x2b80
  52:	0001                	nop
  54:	0180                	addi	s0,sp,192
  56:	0061                	c.nop	24
  58:	00011e07          	.4byte	0x11e07
  5c:	2280                	.2byte	0x2280
  5e:	0001                	nop
  60:	0680                	addi	s0,sp,832
  62:	0081                	addi	ra,ra,0
  64:	9f1c007b          	.4byte	0x9f1c007b
  68:	00012207          	.4byte	0x12207
  6c:	2b80                	.2byte	0x2b80
  6e:	0001                	nop
  70:	0180                	addi	s0,sp,192
  72:	5e07005b          	.4byte	0x5e07005b
  76:	0000                	unimp
  78:	fc80                	.2byte	0xfc80
  7a:	0000                	unimp
  7c:	0a80                	addi	s0,sp,336
  7e:	089e                	slli	a7,a7,0x7
	...
  88:	0000fc07          	.4byte	0xfc07
  8c:	1080                	addi	s0,sp,96
  8e:	0001                	nop
  90:	0680                	addi	s0,sp,832
  92:	9359                	srli	a4,a4,0x36
  94:	5804                	lw	s1,48(s0)
  96:	12070493          	addi	s1,a4,288 # ffff9120 <kprintf+0x7fff8f9e>
  9a:	0001                	nop
  9c:	4280                	lw	s0,0(a3)
  9e:	0001                	nop
  a0:	0680                	addi	s0,sp,832
  a2:	9359                	srli	a4,a4,0x36
  a4:	5804                	lw	s1,48(s0)
  a6:	07000493          	li	s1,112
  aa:	005e                	c.slli	zero,0x17
  ac:	8000                	.2byte	0x8000
  ae:	0066                	c.slli	zero,0x19
  b0:	8000                	.2byte	0x8000
  b2:	3002                	.2byte	0x3002
  b4:	079f 0066 8000      	.byte	0x9f, 0x07, 0x66, 0x00, 0x00, 0x80
  ba:	0088                	addi	a0,sp,64
  bc:	8000                	.2byte	0x8000
  be:	9f7f8003          	lb	zero,-1545(t6)
  c2:	00008807          	.4byte	0x8807
  c6:	8a80                	.2byte	0x8a80
  c8:	0000                	unimp
  ca:	0180                	addi	s0,sp,192
  cc:	0760                	addi	s0,sp,908
  ce:	008a                	slli	ra,ra,0x2
  d0:	8000                	.2byte	0x8000
  d2:	00b4                	addi	a3,sp,72
  d4:	8000                	.2byte	0x8000
  d6:	9f7f8003          	lb	zero,-1545(t6)
  da:	0700                	addi	s0,sp,896
  dc:	0066                	c.slli	zero,0x19
  de:	8000                	.2byte	0x8000
  e0:	0070                	addi	a2,sp,12
  e2:	8000                	.2byte	0x8000
  e4:	3002                	.2byte	0x3002
  e6:	079f 0070 8000      	.byte	0x9f, 0x07, 0x70, 0x00, 0x00, 0x80
  ec:	007c                	addi	a5,sp,12
  ee:	8000                	.2byte	0x8000
  f0:	7e06                	.2byte	0x7e06
  f2:	8000                	.2byte	0x8000
  f4:	1c00                	addi	s0,sp,560
  f6:	079f 007c 8000      	.byte	0x9f, 0x07, 0x7c, 0x00, 0x00, 0x80
  fc:	0080                	addi	s0,sp,64
  fe:	8000                	.2byte	0x8000
 100:	7e08                	.2byte	0x7e08
 102:	8000                	.2byte	0x8000
 104:	1c00                	addi	s0,sp,560
 106:	079f0123          	sb	s9,98(t5) # fffe0062 <kprintf+0x7ffdfee0>
 10a:	0080                	addi	s0,sp,64
 10c:	8000                	.2byte	0x8000
 10e:	0082                	c.slli64	ra
 110:	8000                	.2byte	0x8000
 112:	7d09                	lui	s10,0xfffe2
 114:	0600                	addi	s0,sp,768
 116:	0080                	addi	s0,sp,64
 118:	231c                	.2byte	0x231c
 11a:	9f01                	.2byte	0x9f01
 11c:	00008207          	.4byte	0x8207
 120:	8a80                	.2byte	0x8a80
 122:	0000                	unimp
 124:	0980                	addi	s0,sp,208
 126:	7c7d                	lui	s8,0xfffff
 128:	8006                	c.mv	zero,ra
 12a:	1c00                	addi	s0,sp,560
 12c:	079f0123          	sb	s9,98(t5)
 130:	008a                	slli	ra,ra,0x2
 132:	8000                	.2byte	0x8000
 134:	00b4                	addi	a3,sp,72
 136:	8000                	.2byte	0x8000
 138:	7d09                	lui	s10,0xfffe2
 13a:	067c                	addi	a5,sp,780
 13c:	0080                	addi	s0,sp,64
 13e:	231c                	.2byte	0x231c
 140:	9f02                	jalr	t5
 142:	0700                	addi	s0,sp,896
 144:	009e                	slli	ra,ra,0x7
 146:	8000                	.2byte	0x8000
 148:	00b6                	slli	ra,ra,0xd
 14a:	8000                	.2byte	0x8000
 14c:	3002                	.2byte	0x3002
 14e:	009f b607 0000      	.byte	0x9f, 0x00, 0x07, 0xb6, 0x00, 0x00
 154:	bc80                	.2byte	0xbc80
 156:	0000                	unimp
 158:	0280                	addi	s0,sp,320
 15a:	9f30                	.2byte	0x9f30
 15c:	0700                	addi	s0,sp,896
 15e:	00f8                	addi	a4,sp,76
 160:	8000                	.2byte	0x8000
 162:	00fc                	addi	a5,sp,76
 164:	8000                	.2byte	0x8000
 166:	3002                	.2byte	0x3002
 168:	009f fc07 0000      	.byte	0x9f, 0x00, 0x07, 0xfc, 0x00, 0x00
 16e:	0080                	addi	s0,sp,64
 170:	0001                	nop
 172:	0280                	addi	s0,sp,320
 174:	9f30                	.2byte	0x9f30
 176:	9100                	.2byte	0x9100
 178:	0002                	c.slli64	zero
 17a:	0500                	addi	s0,sp,640
 17c:	0400                	addi	s0,sp,512
 17e:	0000                	unimp
 180:	0000                	unimp
 182:	0700                	addi	s0,sp,896
 184:	0182                	c.slli64	gp
 186:	8000                	.2byte	0x8000
 188:	019a                	slli	gp,gp,0x6
 18a:	8000                	.2byte	0x8000
 18c:	5a01                	li	s4,-32
 18e:	00019a07          	.4byte	0x19a07
 192:	a080                	.2byte	0xa080
 194:	0001                	nop
 196:	0380                	addi	s0,sp,448
 198:	017a                	slli	sp,sp,0x1e
 19a:	079f 01a0 8000      	.byte	0x9f, 0x07, 0xa0, 0x01, 0x00, 0x80
 1a0:	01f4                	addi	a3,sp,204
 1a2:	8000                	.2byte	0x8000
 1a4:	5a01                	li	s4,-32
 1a6:	0001f807          	.4byte	0x1f807
 1aa:	0880                	addi	s0,sp,80
 1ac:	01800003          	lb	zero,24(zero) # 18 <_prog_start-0x7fffffe8>
 1b0:	005a                	c.slli	zero,0x16
 1b2:	00019a07          	.4byte	0x19a07
 1b6:	b680                	.2byte	0xb680
 1b8:	0001                	nop
 1ba:	0280                	addi	s0,sp,320
 1bc:	9f30                	.2byte	0x9f30
 1be:	0001b607          	.4byte	0x1b607
 1c2:	d280                	sw	s0,32(a3)
 1c4:	0001                	nop
 1c6:	0180                	addi	s0,sp,192
 1c8:	075d                	addi	a4,a4,23
 1ca:	01ea                	slli	gp,gp,0x1a
 1cc:	8000                	.2byte	0x8000
 1ce:	01f4                	addi	a3,sp,204
 1d0:	8000                	.2byte	0x8000
 1d2:	5d01                	li	s10,-32
 1d4:	0001f807          	.4byte	0x1f807
 1d8:	1680                	addi	s0,sp,864
 1da:	0002                	c.slli64	zero
 1dc:	0180                	addi	s0,sp,192
 1de:	075d                	addi	a4,a4,23
 1e0:	023a                	slli	tp,tp,0xe
 1e2:	8000                	.2byte	0x8000
 1e4:	024c                	addi	a1,sp,260
 1e6:	8000                	.2byte	0x8000
 1e8:	5d01                	li	s10,-32
 1ea:	00025e07          	.4byte	0x25e07
 1ee:	9480                	.2byte	0x9480
 1f0:	0002                	c.slli64	zero
 1f2:	0180                	addi	s0,sp,192
 1f4:	075d                	addi	a4,a4,23
 1f6:	029e                	slli	t0,t0,0x7
 1f8:	8000                	.2byte	0x8000
 1fa:	02a2                	slli	t0,t0,0x8
 1fc:	8000                	.2byte	0x8000
 1fe:	5d01                	li	s10,-32
 200:	0002a207          	.4byte	0x2a207
 204:	bc80                	.2byte	0xbc80
 206:	0002                	c.slli64	zero
 208:	0280                	addi	s0,sp,320
 20a:	9f30                	.2byte	0x9f30
 20c:	0002bc07          	.4byte	0x2bc07
 210:	c280                	sw	s0,0(a3)
 212:	0002                	c.slli64	zero
 214:	0180                	addi	s0,sp,192
 216:	005d                	c.nop	23
 218:	00019a07          	.4byte	0x19a07
 21c:	b680                	.2byte	0xb680
 21e:	0001                	nop
 220:	0280                	addi	s0,sp,320
 222:	9f30                	.2byte	0x9f30
 224:	0001b607          	.4byte	0x1b607
 228:	da80                	sw	s0,48(a3)
 22a:	0001                	nop
 22c:	0180                	addi	s0,sp,192
 22e:	075e                	slli	a4,a4,0x17
 230:	01ea                	slli	gp,gp,0x1a
 232:	8000                	.2byte	0x8000
 234:	01f4                	addi	a3,sp,204
 236:	8000                	.2byte	0x8000
 238:	5e01                	li	t3,-32
 23a:	0001f807          	.4byte	0x1f807
 23e:	1680                	addi	s0,sp,864
 240:	0002                	c.slli64	zero
 242:	0180                	addi	s0,sp,192
 244:	075e                	slli	a4,a4,0x17
 246:	023a                	slli	tp,tp,0xe
 248:	8000                	.2byte	0x8000
 24a:	0246                	slli	tp,tp,0x11
 24c:	8000                	.2byte	0x8000
 24e:	5e01                	li	t3,-32
 250:	00025e07          	.4byte	0x25e07
 254:	9480                	.2byte	0x9480
 256:	0002                	c.slli64	zero
 258:	0180                	addi	s0,sp,192
 25a:	075e                	slli	a4,a4,0x17
 25c:	029e                	slli	t0,t0,0x7
 25e:	8000                	.2byte	0x8000
 260:	02a2                	slli	t0,t0,0x8
 262:	8000                	.2byte	0x8000
 264:	3102                	.2byte	0x3102
 266:	079f 02a2 8000      	.byte	0x9f, 0x07, 0xa2, 0x02, 0x00, 0x80
 26c:	02c2                	slli	t0,t0,0x10
 26e:	8000                	.2byte	0x8000
 270:	5e01                	li	t3,-32
 272:	0700                	addi	s0,sp,896
 274:	019a                	slli	gp,gp,0x6
 276:	8000                	.2byte	0x8000
 278:	01bc                	addi	a5,sp,200
 27a:	8000                	.2byte	0x8000
 27c:	5601                	li	a2,-32
 27e:	0001f007          	.4byte	0x1f007
 282:	f880                	.2byte	0xf880
 284:	0001                	nop
 286:	0180                	addi	s0,sp,192
 288:	0756                	slli	a4,a4,0x15
 28a:	02a2                	slli	t0,t0,0x8
 28c:	8000                	.2byte	0x8000
 28e:	02bc                	addi	a5,sp,328
 290:	8000                	.2byte	0x8000
 292:	5601                	li	a2,-32
 294:	0700                	addi	s0,sp,896
 296:	02c2                	slli	t0,t0,0x10
 298:	8000                	.2byte	0x8000
 29a:	02e6                	slli	t0,t0,0x19
 29c:	8000                	.2byte	0x8000
 29e:	5601                	li	a2,-32
 2a0:	0002e607          	.4byte	0x2e607
 2a4:	f680                	.2byte	0xf680
 2a6:	0002                	c.slli64	zero
 2a8:	0180                	addi	s0,sp,192
 2aa:	075f 02f6 8000      	.byte	0x5f, 0x07, 0xf6, 0x02, 0x00, 0x80
 2b0:	0308                	addi	a0,sp,384
 2b2:	8000                	.2byte	0x8000
 2b4:	760c                	.2byte	0x760c
 2b6:	a800                	.2byte	0xa800
 2b8:	8d26                	mv	s10,s1
 2ba:	a800                	.2byte	0xa800
 2bc:	1b26                	slli	s6,s6,0x29
 2be:	00a8                	addi	a0,sp,72
 2c0:	009f c207 0002      	.byte	0x9f, 0x00, 0x07, 0xc2, 0x02, 0x00
 2c6:	c680                	sw	s0,8(a3)
 2c8:	0002                	c.slli64	zero
 2ca:	0380                	addi	s0,sp,448
 2cc:	3f08                	.2byte	0x3f08
 2ce:	079f 02c6 8000      	.byte	0x9f, 0x07, 0xc6, 0x02, 0x00, 0x80
 2d4:	02ce                	slli	t0,t0,0x13
 2d6:	8000                	.2byte	0x8000
 2d8:	7f08                	.2byte	0x7f08
 2da:	9100                	.2byte	0x9100
 2dc:	1c00                	addi	s0,sp,560
 2de:	079f6123          	.4byte	0x79f6123
 2e2:	02ce                	slli	t0,t0,0x13
 2e4:	8000                	.2byte	0x8000
 2e6:	02d2                	slli	t0,t0,0x14
 2e8:	8000                	.2byte	0x8000
 2ea:	7e08                	.2byte	0x7e08
 2ec:	9100                	.2byte	0x9100
 2ee:	1c00                	addi	s0,sp,560
 2f0:	009f6123          	.4byte	0x9f6123
 2f4:	0002fe07          	.4byte	0x2fe07
 2f8:	0480                	addi	s0,sp,576
 2fa:	08800003          	lb	zero,136(zero) # 88 <_prog_start-0x7fffff78>
 2fe:	007c                	addi	a5,sp,12
 300:	0091                	addi	ra,ra,4
 302:	231c                	.2byte	0x231c
 304:	9f60                	.2byte	0x9f60
 306:	00030407          	.4byte	0x30407
 30a:	0880                	addi	s0,sp,80
 30c:	08800003          	lb	zero,136(zero) # 88 <_prog_start-0x7fffff78>
 310:	007c                	addi	a5,sp,12
 312:	0091                	addi	ra,ra,4
 314:	231c                	.2byte	0x231c
 316:	9f5f 0700 02fa      	.byte	0x5f, 0x9f, 0x00, 0x07, 0xfa, 0x02
 31c:	8000                	.2byte	0x8000
 31e:	02fe                	slli	t0,t0,0x1f
 320:	8000                	.2byte	0x8000
 322:	5d01                	li	s10,-32
 324:	0700                	addi	s0,sp,896
 326:	0216                	slli	tp,tp,0x5
 328:	8000                	.2byte	0x8000
 32a:	023a                	slli	tp,tp,0xe
 32c:	8000                	.2byte	0x8000
 32e:	5c01                	li	s8,-32
 330:	0700                	addi	s0,sp,896
 332:	021e                	slli	tp,tp,0x7
 334:	8000                	.2byte	0x8000
 336:	023a                	slli	tp,tp,0xe
 338:	8000                	.2byte	0x8000
 33a:	5601                	li	a2,-32
 33c:	0700                	addi	s0,sp,896
 33e:	022e                	slli	tp,tp,0xb
 340:	8000                	.2byte	0x8000
 342:	0232                	slli	tp,tp,0xc
 344:	8000                	.2byte	0x8000
 346:	5d01                	li	s10,-32
 348:	0700                	addi	s0,sp,896
 34a:	01da                	slli	gp,gp,0x16
 34c:	8000                	.2byte	0x8000
 34e:	01e6                	slli	gp,gp,0x19
 350:	8000                	.2byte	0x8000
 352:	5e01                	li	t3,-32
 354:	0700                	addi	s0,sp,896
 356:	01da                	slli	gp,gp,0x16
 358:	8000                	.2byte	0x8000
 35a:	01e6                	slli	gp,gp,0x19
 35c:	8000                	.2byte	0x8000
 35e:	4904                	lw	s1,16(a0)
 360:	244a                	.2byte	0x244a
 362:	009f e207 0001      	.byte	0x9f, 0x00, 0x07, 0xe2, 0x01, 0x00
 368:	e680                	.2byte	0xe680
 36a:	0001                	nop
 36c:	0180                	addi	s0,sp,192
 36e:	005d                	c.nop	23
 370:	00023e07          	.4byte	0x23e07
 374:	5e80                	lw	s0,56(a3)
 376:	0002                	c.slli64	zero
 378:	0180                	addi	s0,sp,192
 37a:	005c                	addi	a5,sp,4
 37c:	00024607          	.4byte	0x24607
 380:	5880                	lw	s0,48(s1)
 382:	0002                	c.slli64	zero
 384:	0180                	addi	s0,sp,192
 386:	075e                	slli	a4,a4,0x17
 388:	025a                	slli	tp,tp,0x16
 38a:	8000                	.2byte	0x8000
 38c:	025e                	slli	tp,tp,0x17
 38e:	8000                	.2byte	0x8000
 390:	5e01                	li	t3,-32
 392:	0700                	addi	s0,sp,896
 394:	0250                	addi	a2,sp,260
 396:	8000                	.2byte	0x8000
 398:	0254                	addi	a3,sp,260
 39a:	8000                	.2byte	0x8000
 39c:	5d01                	li	s10,-32
 39e:	0700                	addi	s0,sp,896
 3a0:	0298                	addi	a4,sp,320
 3a2:	8000                	.2byte	0x8000
 3a4:	029e                	slli	t0,t0,0x7
 3a6:	8000                	.2byte	0x8000
 3a8:	5d01                	li	s10,-32
 3aa:	0700                	addi	s0,sp,896
 3ac:	02ae                	slli	t0,t0,0xb
 3ae:	8000                	.2byte	0x8000
 3b0:	02bc                	addi	a5,sp,328
 3b2:	8000                	.2byte	0x8000
 3b4:	5f01                	li	t5,-32
 3b6:	0700                	addi	s0,sp,896
 3b8:	014a                	slli	sp,sp,0x12
 3ba:	8000                	.2byte	0x8000
 3bc:	0154                	addi	a3,sp,132
 3be:	8000                	.2byte	0x8000
 3c0:	5a01                	li	s4,-32
 3c2:	00015407          	.4byte	0x15407
 3c6:	8280                	.2byte	0x8280
 3c8:	0001                	nop
 3ca:	0480                	addi	s0,sp,576
 3cc:	9f5a01a3          	sb	s5,-1565(s4)
 3d0:	0700                	addi	s0,sp,896
 3d2:	014a                	slli	sp,sp,0x12
 3d4:	8000                	.2byte	0x8000
 3d6:	016a                	slli	sp,sp,0x1a
 3d8:	8000                	.2byte	0x8000
 3da:	5a01                	li	s4,-32
 3dc:	0700                	addi	s0,sp,896
 3de:	014e                	slli	sp,sp,0x13
 3e0:	8000                	.2byte	0x8000
 3e2:	0160                	addi	s0,sp,140
 3e4:	8000                	.2byte	0x8000
 3e6:	5e01                	li	t3,-32
 3e8:	00016207          	.4byte	0x16207
 3ec:	6a80                	.2byte	0x6a80
 3ee:	0001                	nop
 3f0:	0180                	addi	s0,sp,192
 3f2:	005e                	c.slli	zero,0x17
 3f4:	00015807          	.4byte	0x15807
 3f8:	5c80                	lw	s0,56(s1)
 3fa:	0001                	nop
 3fc:	0180                	addi	s0,sp,192
 3fe:	005d                	c.nop	23
 400:	00016e07          	.4byte	0x16e07
 404:	7880                	.2byte	0x7880
 406:	0001                	nop
 408:	0180                	addi	s0,sp,192
 40a:	005d                	c.nop	23

Disassembly of section .debug_rnglists:

00000000 <.debug_rnglists>:
   0:	008d                	addi	ra,ra,3
   2:	0000                	unimp
   4:	0005                	c.nop	1
   6:	0004                	.2byte	0x4
   8:	0000                	unimp
   a:	0000                	unimp
   c:	5e06                	lw	t3,96(sp)
   e:	0000                	unimp
  10:	6080                	.2byte	0x6080
  12:	0000                	unimp
  14:	0680                	addi	s0,sp,832
  16:	0062                	c.slli	zero,0x18
  18:	8000                	.2byte	0x8000
  1a:	006a                	c.slli	zero,0x1a
  1c:	8000                	.2byte	0x8000
  1e:	7006                	.2byte	0x7006
  20:	0000                	unimp
  22:	9a80                	.2byte	0x9a80
  24:	0000                	unimp
  26:	0080                	addi	s0,sp,64
  28:	6606                	.2byte	0x6606
  2a:	0000                	unimp
  2c:	6a80                	.2byte	0x6a80
  2e:	0000                	unimp
  30:	0680                	addi	s0,sp,832
  32:	0070                	addi	a2,sp,12
  34:	8000                	.2byte	0x8000
  36:	0088                	addi	a0,sp,64
  38:	8000                	.2byte	0x8000
  3a:	0600                	addi	s0,sp,768
  3c:	009a                	slli	ra,ra,0x6
  3e:	8000                	.2byte	0x8000
  40:	009e                	slli	ra,ra,0x7
  42:	8000                	.2byte	0x8000
  44:	b206                	.2byte	0xb206
  46:	0000                	unimp
  48:	b680                	.2byte	0xb680
  4a:	0000                	unimp
  4c:	0080                	addi	s0,sp,64
  4e:	9e06                	add	t3,t3,ra
  50:	0000                	unimp
  52:	b280                	.2byte	0xb280
  54:	0000                	unimp
  56:	0680                	addi	s0,sp,832
  58:	00b6                	slli	ra,ra,0xd
  5a:	8000                	.2byte	0x8000
  5c:	00f4                	addi	a3,sp,76
  5e:	8000                	.2byte	0x8000
  60:	0600                	addi	s0,sp,768
  62:	00b6                	slli	ra,ra,0xd
  64:	8000                	.2byte	0x8000
  66:	00d6                	slli	ra,ra,0x15
  68:	8000                	.2byte	0x8000
  6a:	d606                	sw	ra,44(sp)
  6c:	0000                	unimp
  6e:	da80                	sw	s0,48(a3)
  70:	0000                	unimp
  72:	0080                	addi	s0,sp,64
  74:	f806                	.2byte	0xf806
  76:	0000                	unimp
  78:	f880                	.2byte	0xf880
  7a:	0000                	unimp
  7c:	0680                	addi	s0,sp,832
  7e:	00fc                	addi	a5,sp,76
  80:	8000                	.2byte	0x8000
  82:	011e                	slli	sp,sp,0x7
  84:	8000                	.2byte	0x8000
  86:	0600                	addi	s0,sp,768
  88:	001e                	c.slli	zero,0x7
  8a:	8000                	.2byte	0x8000
  8c:	014a                	slli	sp,sp,0x12
  8e:	8000                	.2byte	0x8000
  90:	a800                	.2byte	0xa800
  92:	0000                	unimp
  94:	0500                	addi	s0,sp,640
  96:	0400                	addi	s0,sp,512
  98:	0000                	unimp
  9a:	0000                	unimp
  9c:	0600                	addi	s0,sp,768
  9e:	01a8                	addi	a0,sp,200
  a0:	8000                	.2byte	0x8000
  a2:	01ac                	addi	a1,sp,200
  a4:	8000                	.2byte	0x8000
  a6:	aa06                	.2byte	0xaa06
  a8:	0002                	c.slli64	zero
  aa:	be80                	.2byte	0xbe80
  ac:	0002                	c.slli64	zero
  ae:	0080                	addi	s0,sp,64
  b0:	d006                	sw	ra,32(sp)
  b2:	0001                	nop
  b4:	e680                	.2byte	0xe680
  b6:	0001                	nop
  b8:	0680                	addi	s0,sp,832
  ba:	01f8                	addi	a4,sp,204
  bc:	8000                	.2byte	0x8000
  be:	02a2                	slli	t0,t0,0x8
  c0:	8000                	.2byte	0x8000
  c2:	be06                	.2byte	0xbe06
  c4:	0002                	c.slli64	zero
  c6:	0880                	addi	s0,sp,80
  c8:	00800003          	lb	zero,8(zero) # 8 <_prog_start-0x7ffffff8>
  cc:	d206                	sw	ra,36(sp)
  ce:	0001                	nop
  d0:	d680                	sw	s0,40(a3)
  d2:	0001                	nop
  d4:	0680                	addi	s0,sp,832
  d6:	01da                	slli	gp,gp,0x16
  d8:	8000                	.2byte	0x8000
  da:	01da                	slli	gp,gp,0x16
  dc:	8000                	.2byte	0x8000
  de:	de06                	sw	ra,60(sp)
  e0:	0001                	nop
  e2:	e680                	.2byte	0xe680
  e4:	0001                	nop
  e6:	0080                	addi	s0,sp,64
  e8:	0e06                	slli	t3,t3,0x1
  ea:	0002                	c.slli64	zero
  ec:	1480                	addi	s0,sp,608
  ee:	0002                	c.slli64	zero
  f0:	0680                	addi	s0,sp,832
  f2:	0216                	slli	tp,tp,0x5
  f4:	8000                	.2byte	0x8000
  f6:	0232                	slli	tp,tp,0xc
  f8:	8000                	.2byte	0x8000
  fa:	0600                	addi	s0,sp,768
  fc:	0210                	addi	a2,sp,256
  fe:	8000                	.2byte	0x8000
 100:	0214                	addi	a3,sp,256
 102:	8000                	.2byte	0x8000
 104:	2a06                	.2byte	0x2a06
 106:	0002                	c.slli64	zero
 108:	3280                	.2byte	0x3280
 10a:	0002                	c.slli64	zero
 10c:	0080                	addi	s0,sp,64
 10e:	3e06                	.2byte	0x3e06
 110:	0002                	c.slli64	zero
 112:	3e80                	.2byte	0x3e80
 114:	0002                	c.slli64	zero
 116:	0680                	addi	s0,sp,832
 118:	0242                	slli	tp,tp,0x10
 11a:	8000                	.2byte	0x8000
 11c:	025e                	slli	tp,tp,0x17
 11e:	8000                	.2byte	0x8000
 120:	0600                	addi	s0,sp,768
 122:	0260                	addi	s0,sp,268
 124:	8000                	.2byte	0x8000
 126:	0264                	addi	s1,sp,268
 128:	8000                	.2byte	0x8000
 12a:	6806                	.2byte	0x6806
 12c:	0002                	c.slli64	zero
 12e:	6880                	.2byte	0x6880
 130:	0002                	c.slli64	zero
 132:	0680                	addi	s0,sp,832
 134:	026c                	addi	a1,sp,268
 136:	8000                	.2byte	0x8000
 138:	0288                	addi	a0,sp,320
 13a:	8000                	.2byte	0x8000
	...

Disassembly of section .debug_frame:

00000000 <.debug_frame>:
   0:	000c                	.2byte	0xc
   2:	0000                	unimp
   4:	ffff                	.2byte	0xffff
   6:	ffff                	.2byte	0xffff
   8:	7c010003          	lb	zero,1984(sp)
   c:	0d01                	addi	s10,s10,0 # fffe2000 <kprintf+0x7ffe1e7e>
   e:	0002                	c.slli64	zero
  10:	0028                	addi	a0,sp,8
  12:	0000                	unimp
  14:	0000                	unimp
  16:	0000                	unimp
  18:	001e                	c.slli	zero,0x7
  1a:	8000                	.2byte	0x8000
  1c:	012c                	addi	a1,sp,136
  1e:	0000                	unimp
  20:	0e42                	slli	t3,t3,0x10
  22:	4c20                	lw	s0,88(s0)
  24:	a00e                	.2byte	0xa00e
  26:	8160                	.2byte	0x8160
  28:	8801                	andi	s0,s0,0
  2a:	8902                	jr	s2
  2c:	01120303          	lb	t1,17(tp) # ffff8011 <kprintf+0x7fff7e8f>
  30:	200e                	.2byte	0x200e
  32:	c142                	sw	a6,128(sp)
  34:	c842                	sw	a6,16(sp)
  36:	c942                	sw	a6,144(sp)
  38:	0e44                	addi	s1,sp,788
  3a:	0000                	unimp
  3c:	000c                	.2byte	0xc
  3e:	0000                	unimp
  40:	ffff                	.2byte	0xffff
  42:	ffff                	.2byte	0xffff
  44:	7c010003          	lb	zero,1984(sp)
  48:	0d01                	addi	s10,s10,0
  4a:	0002                	c.slli64	zero
  4c:	000c                	.2byte	0xc
  4e:	0000                	unimp
  50:	003c                	addi	a5,sp,8
  52:	0000                	unimp
  54:	014a                	slli	sp,sp,0x12
  56:	8000                	.2byte	0x8000
  58:	0038                	addi	a4,sp,8
  5a:	0000                	unimp
  5c:	0018                	.2byte	0x18
  5e:	0000                	unimp
  60:	003c                	addi	a5,sp,8
  62:	0000                	unimp
  64:	0182                	c.slli64	gp
  66:	8000                	.2byte	0x8000
  68:	0186                	slli	gp,gp,0x1
  6a:	0000                	unimp
  6c:	0e42                	slli	t3,t3,0x10
  6e:	0270                	addi	a2,sp,268
  70:	0a72                	slli	s4,s4,0x1c
  72:	000e                	c.slli	zero,0x3
  74:	0b42                	slli	s6,s6,0x10
	...
