
/home/binhkieudo/Workspace/NewFramework/framework/sw/matrix_mul_st/build/main.elf:     file format elf64-littleriscv


Disassembly of section .text:

0000000080000000 <_prog_start>:

  .section .text.init
  .option norvc
  .globl _prog_start
_prog_start:
  csrw mie, zero
    80000000:	30401073          	csrw	mie,zero
  csrr a0, mhartid
    80000004:	f1402573          	csrr	a0,mhartid
  csrrw t0, mcycle, zero
    80000008:	b00012f3          	csrrw	t0,mcycle,zero
  li sp, (MEMORY_MEM_ADDR + 0xfff0)
    8000000c:	00008137          	lui	sp,0x8
    80000010:	0011011b          	addiw	sp,sp,1 # 8001 <_prog_start-0x7fff7fff>
    80000014:	01011113          	slli	sp,sp,0x10
    80000018:	ff010113          	addi	sp,sp,-16
  call main
    8000001c:	00c000ef          	jal	ra,80000028 <main>
  wfi
    80000020:	10500073          	wfi

0000000080000024 <_loopback>:
_loopback:
  j _loopback
    80000024:	0000006f          	j	80000024 <_loopback>

0000000080000028 <main>:

#define REG32(p, i)	((p)[(i) >> 2])

#define SIZE 4

int main(int argc, char **arv) {
    80000028:	7171                	addi	sp,sp,-176
    8000002a:	f506                	sd	ra,168(sp)
    8000002c:	f122                	sd	s0,160(sp)
    8000002e:	1900                	addi	s0,sp,176
    80000030:	87aa                	mv	a5,a0
    80000032:	f4b43823          	sd	a1,-176(s0)
    80000036:	f4f42e23          	sw	a5,-164(s0)
  
  REG32(uart, UART_REG_TXCTRL) = UART_TXEN;
    8000003a:	640007b7          	lui	a5,0x64000
    8000003e:	07a1                	addi	a5,a5,8 # 64000008 <_prog_start-0x1bfffff8>
    80000040:	4705                	li	a4,1
    80000042:	c398                	sw	a4,0(a5)

  uint8_t a[SIZE][SIZE];
  // for (int i = 0; i < SIZE; i++)
  //   a[i] = (uint8_t*)malloc(SIZE * sizeof(uint8_t));

  for (int i = 0; i < SIZE; i++)
    80000044:	fe042623          	sw	zero,-20(s0)
    80000048:	a09d                	j	800000ae <__malloc_current_mallinfo+0x7e>
    for (int j = 0; j < SIZE; j++)
    8000004a:	fe042423          	sw	zero,-24(s0)
    8000004e:	a0a1                	j	80000096 <__malloc_current_mallinfo+0x66>
      a[i][j] = i*10 + j;
    80000050:	fec42783          	lw	a5,-20(s0)
    80000054:	0ff7f793          	zext.b	a5,a5
    80000058:	873e                	mv	a4,a5
    8000005a:	87ba                	mv	a5,a4
    8000005c:	0027979b          	slliw	a5,a5,0x2
    80000060:	9fb9                	addw	a5,a5,a4
    80000062:	0017979b          	slliw	a5,a5,0x1
    80000066:	0ff7f713          	zext.b	a4,a5
    8000006a:	fe842783          	lw	a5,-24(s0)
    8000006e:	0ff7f793          	zext.b	a5,a5
    80000072:	9fb9                	addw	a5,a5,a4
    80000074:	0ff7f713          	zext.b	a4,a5
    80000078:	fe842683          	lw	a3,-24(s0)
    8000007c:	fec42783          	lw	a5,-20(s0)
    80000080:	078a                	slli	a5,a5,0x2
    80000082:	17c1                	addi	a5,a5,-16
    80000084:	97a2                	add	a5,a5,s0
    80000086:	97b6                	add	a5,a5,a3
    80000088:	f6e78c23          	sb	a4,-136(a5)
    for (int j = 0; j < SIZE; j++)
    8000008c:	fe842783          	lw	a5,-24(s0)
    80000090:	2785                	addiw	a5,a5,1
    80000092:	fef42423          	sw	a5,-24(s0)
    80000096:	fe842783          	lw	a5,-24(s0)
    8000009a:	0007871b          	sext.w	a4,a5
    8000009e:	478d                	li	a5,3
    800000a0:	fae7d8e3          	bge	a5,a4,80000050 <__malloc_current_mallinfo+0x20>
  for (int i = 0; i < SIZE; i++)
    800000a4:	fec42783          	lw	a5,-20(s0)
    800000a8:	2785                	addiw	a5,a5,1
    800000aa:	fef42623          	sw	a5,-20(s0)
    800000ae:	fec42783          	lw	a5,-20(s0)
    800000b2:	0007871b          	sext.w	a4,a5
    800000b6:	478d                	li	a5,3
    800000b8:	f8e7d9e3          	bge	a5,a4,8000004a <__malloc_current_mallinfo+0x1a>

  // kprintf("Hello\r\n");
  for (int i = 0; i < SIZE; i++) {
    800000bc:	fe042223          	sw	zero,-28(s0)
    800000c0:	a895                	j	80000134 <__malloc_current_mallinfo+0x104>
      for (int j = 0; j < SIZE; j++) {
    800000c2:	fe042023          	sw	zero,-32(s0)
    800000c6:	a0a9                	j	80000110 <__malloc_current_mallinfo+0xe0>
        sprintf(pbuf, "%3d", a[i][j]);
    800000c8:	fe042703          	lw	a4,-32(s0)
    800000cc:	fe442783          	lw	a5,-28(s0)
    800000d0:	078a                	slli	a5,a5,0x2
    800000d2:	17c1                	addi	a5,a5,-16
    800000d4:	97a2                	add	a5,a5,s0
    800000d6:	97ba                	add	a5,a5,a4
    800000d8:	f787c783          	lbu	a5,-136(a5)
    800000dc:	0007871b          	sext.w	a4,a5
    800000e0:	f7840793          	addi	a5,s0,-136
    800000e4:	863a                	mv	a2,a4
    800000e6:	0000c597          	auipc	a1,0xc
    800000ea:	fa258593          	addi	a1,a1,-94 # 8000c088 <__malloc_trim_threshold+0x8>
    800000ee:	853e                	mv	a0,a5
    800000f0:	3fc000ef          	jal	ra,800004ec <sprintf>
        mprintf("%s", pbuf);
    800000f4:	f7840793          	addi	a5,s0,-136
    800000f8:	85be                	mv	a1,a5
    800000fa:	0000c517          	auipc	a0,0xc
    800000fe:	f9650513          	addi	a0,a0,-106 # 8000c090 <__malloc_trim_threshold+0x10>
    80000102:	0f8000ef          	jal	ra,800001fa <mprintf>
      for (int j = 0; j < SIZE; j++) {
    80000106:	fe042783          	lw	a5,-32(s0)
    8000010a:	2785                	addiw	a5,a5,1
    8000010c:	fef42023          	sw	a5,-32(s0)
    80000110:	fe042783          	lw	a5,-32(s0)
    80000114:	0007871b          	sext.w	a4,a5
    80000118:	478d                	li	a5,3
    8000011a:	fae7d7e3          	bge	a5,a4,800000c8 <__malloc_current_mallinfo+0x98>
      }
      mprintf("\r\n");
    8000011e:	0000c517          	auipc	a0,0xc
    80000122:	f7a50513          	addi	a0,a0,-134 # 8000c098 <__malloc_trim_threshold+0x18>
    80000126:	0d4000ef          	jal	ra,800001fa <mprintf>
  for (int i = 0; i < SIZE; i++) {
    8000012a:	fe442783          	lw	a5,-28(s0)
    8000012e:	2785                	addiw	a5,a5,1
    80000130:	fef42223          	sw	a5,-28(s0)
    80000134:	fe442783          	lw	a5,-28(s0)
    80000138:	0007871b          	sext.w	a4,a5
    8000013c:	478d                	li	a5,3
    8000013e:	f8e7d2e3          	bge	a5,a4,800000c2 <__malloc_current_mallinfo+0x92>
  //   t_gap = tl_end - tl_start;

  //   kprintf("Time spent: %l (cycles)\r\n", t_gap);
  //   kprintf("Error: %l \r\n", error_count);

  return 0;
    80000142:	4781                	li	a5,0
}
    80000144:	853e                	mv	a0,a5
    80000146:	70aa                	ld	ra,168(sp)
    80000148:	740a                	ld	s0,160(sp)
    8000014a:	614d                	addi	sp,sp,176
    8000014c:	8082                	ret

000000008000014e <kputc>:
  #define UART_CTRL_ADDR _UART_CTRL_ADDR(UART_NUM)
#endif
static volatile uint32_t * const uart = (void *)(UART_CTRL_ADDR);

static inline void kputc(char c)
{
    8000014e:	7179                	addi	sp,sp,-48
    80000150:	f422                	sd	s0,40(sp)
    80000152:	1800                	addi	s0,sp,48
    80000154:	87aa                	mv	a5,a0
    80000156:	fcf40fa3          	sb	a5,-33(s0)
	volatile uint32_t *tx = &REG32(uart, UART_REG_TXFIFO);
    8000015a:	640007b7          	lui	a5,0x64000
    8000015e:	fef43423          	sd	a5,-24(s0)
#ifdef __riscv_atomic
	int32_t r;
	do {
		__asm__ __volatile__ (
    80000162:	fe843703          	ld	a4,-24(s0)
    80000166:	fdf44783          	lbu	a5,-33(s0)
    8000016a:	86be                	mv	a3,a5
    8000016c:	fe843783          	ld	a5,-24(s0)
    80000170:	40d727af          	amoor.w	a5,a3,(a4)
    80000174:	fef42223          	sw	a5,-28(s0)
			"amoor.w %0, %2, %1\n"
			: "=r" (r), "+A" (*tx)
			: "r" (c));
	} while (r < 0);
    80000178:	fe442783          	lw	a5,-28(s0)
    8000017c:	2781                	sext.w	a5,a5
    8000017e:	fe07c2e3          	bltz	a5,80000162 <kputc+0x14>
#else
	while ((int32_t)(*tx) < 0);
	*tx = c;
#endif
}
    80000182:	0001                	nop
    80000184:	0001                	nop
    80000186:	7422                	ld	s0,40(sp)
    80000188:	6145                	addi	sp,sp,48
    8000018a:	8082                	ret

000000008000018c <_kputs>:
#include <stdbool.h>

#include "kprintf.h"

static inline void _kputs(const char *s)
{
    8000018c:	7179                	addi	sp,sp,-48
    8000018e:	f406                	sd	ra,40(sp)
    80000190:	f022                	sd	s0,32(sp)
    80000192:	1800                	addi	s0,sp,48
    80000194:	fca43c23          	sd	a0,-40(s0)
	char c;
	for (; (c = *s) != '\0'; s++)
    80000198:	a819                	j	800001ae <_kputs+0x22>
		kputc(c);
    8000019a:	fef44783          	lbu	a5,-17(s0)
    8000019e:	853e                	mv	a0,a5
    800001a0:	fafff0ef          	jal	ra,8000014e <kputc>
	for (; (c = *s) != '\0'; s++)
    800001a4:	fd843783          	ld	a5,-40(s0)
    800001a8:	0785                	addi	a5,a5,1 # 64000001 <_prog_start-0x1bffffff>
    800001aa:	fcf43c23          	sd	a5,-40(s0)
    800001ae:	fd843783          	ld	a5,-40(s0)
    800001b2:	0007c783          	lbu	a5,0(a5)
    800001b6:	fef407a3          	sb	a5,-17(s0)
    800001ba:	fef44783          	lbu	a5,-17(s0)
    800001be:	0ff7f793          	zext.b	a5,a5
    800001c2:	ffe1                	bnez	a5,8000019a <_kputs+0xe>
}
    800001c4:	0001                	nop
    800001c6:	0001                	nop
    800001c8:	70a2                	ld	ra,40(sp)
    800001ca:	7402                	ld	s0,32(sp)
    800001cc:	6145                	addi	sp,sp,48
    800001ce:	8082                	ret

00000000800001d0 <kputs>:

void kputs(const char *s)
{
    800001d0:	1101                	addi	sp,sp,-32
    800001d2:	ec06                	sd	ra,24(sp)
    800001d4:	e822                	sd	s0,16(sp)
    800001d6:	1000                	addi	s0,sp,32
    800001d8:	fea43423          	sd	a0,-24(s0)
	_kputs(s);
    800001dc:	fe843503          	ld	a0,-24(s0)
    800001e0:	fadff0ef          	jal	ra,8000018c <_kputs>
	kputc('\r');
    800001e4:	4535                	li	a0,13
    800001e6:	f69ff0ef          	jal	ra,8000014e <kputc>
	kputc('\n');
    800001ea:	4529                	li	a0,10
    800001ec:	f63ff0ef          	jal	ra,8000014e <kputc>
}
    800001f0:	0001                	nop
    800001f2:	60e2                	ld	ra,24(sp)
    800001f4:	6442                	ld	s0,16(sp)
    800001f6:	6105                	addi	sp,sp,32
    800001f8:	8082                	ret

00000000800001fa <mprintf>:

void mprintf(const char *fmt, ...)
{
    800001fa:	7151                	addi	sp,sp,-240
    800001fc:	f506                	sd	ra,168(sp)
    800001fe:	f122                	sd	s0,160(sp)
    80000200:	1900                	addi	s0,sp,176
    80000202:	f4a43c23          	sd	a0,-168(s0)
    80000206:	e40c                	sd	a1,8(s0)
    80000208:	e810                	sd	a2,16(s0)
    8000020a:	ec14                	sd	a3,24(s0)
    8000020c:	f018                	sd	a4,32(s0)
    8000020e:	f41c                	sd	a5,40(s0)
    80000210:	03043823          	sd	a6,48(s0)
    80000214:	03143c23          	sd	a7,56(s0)
	va_list vl;
	bool is_format, is_long, is_char;
	char c;

	va_start(vl, fmt);
    80000218:	04040793          	addi	a5,s0,64
    8000021c:	f4f43823          	sd	a5,-176(s0)
    80000220:	f5043783          	ld	a5,-176(s0)
    80000224:	fc878793          	addi	a5,a5,-56
    80000228:	faf43423          	sd	a5,-88(s0)
	is_format = false;
    8000022c:	fe0407a3          	sb	zero,-17(s0)
	is_long = false;
    80000230:	fe040723          	sb	zero,-18(s0)
	is_char = false;
    80000234:	fe0406a3          	sb	zero,-19(s0)
	while ((c = *fmt++) != '\0') {
    80000238:	a499                	j	8000047e <mprintf+0x284>
		if (is_format) {
    8000023a:	fef44783          	lbu	a5,-17(s0)
    8000023e:	0ff7f793          	zext.b	a5,a5
    80000242:	20078d63          	beqz	a5,8000045c <mprintf+0x262>
			switch (c) {
    80000246:	fbf44783          	lbu	a5,-65(s0)
    8000024a:	2781                	sext.w	a5,a5
    8000024c:	f9d7869b          	addiw	a3,a5,-99
    80000250:	0006871b          	sext.w	a4,a3
    80000254:	47d5                	li	a5,21
    80000256:	1ee7ec63          	bltu	a5,a4,8000044e <mprintf+0x254>
    8000025a:	02069793          	slli	a5,a3,0x20
    8000025e:	9381                	srli	a5,a5,0x20
    80000260:	00279713          	slli	a4,a5,0x2
    80000264:	0000c797          	auipc	a5,0xc
    80000268:	e3878793          	addi	a5,a5,-456 # 8000c09c <__malloc_trim_threshold+0x1c>
    8000026c:	97ba                	add	a5,a5,a4
    8000026e:	439c                	lw	a5,0(a5)
    80000270:	0007871b          	sext.w	a4,a5
    80000274:	0000c797          	auipc	a5,0xc
    80000278:	e2878793          	addi	a5,a5,-472 # 8000c09c <__malloc_trim_threshold+0x1c>
    8000027c:	97ba                	add	a5,a5,a4
    8000027e:	8782                	jr	a5
			case 'l':
				unsigned long n;
				n = va_arg(vl, unsigned long);
    80000280:	fa843783          	ld	a5,-88(s0)
    80000284:	00878713          	addi	a4,a5,8
    80000288:	fae43423          	sd	a4,-88(s0)
    8000028c:	639c                	ld	a5,0(a5)
    8000028e:	fef43023          	sd	a5,-32(s0)
				char c[64];
				for (int i = 0; i < 64; i ++) c[i] = 0;
    80000292:	fc042e23          	sw	zero,-36(s0)
    80000296:	a821                	j	800002ae <mprintf+0xb4>
    80000298:	fdc42783          	lw	a5,-36(s0)
    8000029c:	17c1                	addi	a5,a5,-16
    8000029e:	97a2                	add	a5,a5,s0
    800002a0:	f6078c23          	sb	zero,-136(a5)
    800002a4:	fdc42783          	lw	a5,-36(s0)
    800002a8:	2785                	addiw	a5,a5,1
    800002aa:	fcf42e23          	sw	a5,-36(s0)
    800002ae:	fdc42783          	lw	a5,-36(s0)
    800002b2:	0007871b          	sext.w	a4,a5
    800002b6:	03f00793          	li	a5,63
    800002ba:	fce7dfe3          	bge	a5,a4,80000298 <mprintf+0x9e>
				if (n == 0) {
    800002be:	fe043783          	ld	a5,-32(s0)
    800002c2:	e7bd                	bnez	a5,80000330 <mprintf+0x136>
					kputc ('0');
    800002c4:	03000513          	li	a0,48
    800002c8:	e87ff0ef          	jal	ra,8000014e <kputc>
					break;
    800002cc:	a249                	j	8000044e <mprintf+0x254>
				}
				for (;n != 0;) {
					for (int i = 63; i > 0; i--) c[i] = c[i-1];
    800002ce:	03f00793          	li	a5,63
    800002d2:	fcf42c23          	sw	a5,-40(s0)
    800002d6:	a025                	j	800002fe <mprintf+0x104>
    800002d8:	fd842783          	lw	a5,-40(s0)
    800002dc:	37fd                	addiw	a5,a5,-1
    800002de:	2781                	sext.w	a5,a5
    800002e0:	17c1                	addi	a5,a5,-16
    800002e2:	97a2                	add	a5,a5,s0
    800002e4:	f787c703          	lbu	a4,-136(a5)
    800002e8:	fd842783          	lw	a5,-40(s0)
    800002ec:	17c1                	addi	a5,a5,-16
    800002ee:	97a2                	add	a5,a5,s0
    800002f0:	f6e78c23          	sb	a4,-136(a5)
    800002f4:	fd842783          	lw	a5,-40(s0)
    800002f8:	37fd                	addiw	a5,a5,-1
    800002fa:	fcf42c23          	sw	a5,-40(s0)
    800002fe:	fd842783          	lw	a5,-40(s0)
    80000302:	2781                	sext.w	a5,a5
    80000304:	fcf04ae3          	bgtz	a5,800002d8 <mprintf+0xde>
					c[0] = '0' + (n%10);
    80000308:	fe043703          	ld	a4,-32(s0)
    8000030c:	47a9                	li	a5,10
    8000030e:	02f777b3          	remu	a5,a4,a5
    80000312:	0ff7f793          	zext.b	a5,a5
    80000316:	0307879b          	addiw	a5,a5,48
    8000031a:	0ff7f793          	zext.b	a5,a5
    8000031e:	f6f40423          	sb	a5,-152(s0)
					n = n / 10;
    80000322:	fe043703          	ld	a4,-32(s0)
    80000326:	47a9                	li	a5,10
    80000328:	02f757b3          	divu	a5,a4,a5
    8000032c:	fef43023          	sd	a5,-32(s0)
				for (;n != 0;) {
    80000330:	fe043783          	ld	a5,-32(s0)
    80000334:	ffc9                	bnez	a5,800002ce <mprintf+0xd4>
				}
				for (int i = 0; c[i] != 0; i++) kputc(c[i]);
    80000336:	fc042a23          	sw	zero,-44(s0)
    8000033a:	a839                	j	80000358 <mprintf+0x15e>
    8000033c:	fd442783          	lw	a5,-44(s0)
    80000340:	17c1                	addi	a5,a5,-16
    80000342:	97a2                	add	a5,a5,s0
    80000344:	f787c783          	lbu	a5,-136(a5)
    80000348:	853e                	mv	a0,a5
    8000034a:	e05ff0ef          	jal	ra,8000014e <kputc>
    8000034e:	fd442783          	lw	a5,-44(s0)
    80000352:	2785                	addiw	a5,a5,1
    80000354:	fcf42a23          	sw	a5,-44(s0)
    80000358:	fd442783          	lw	a5,-44(s0)
    8000035c:	17c1                	addi	a5,a5,-16
    8000035e:	97a2                	add	a5,a5,s0
    80000360:	f787c783          	lbu	a5,-136(a5)
    80000364:	ffe1                	bnez	a5,8000033c <mprintf+0x142>
				break;
    80000366:	a0e5                	j	8000044e <mprintf+0x254>
			case 'h':
				is_char = true;
    80000368:	4785                	li	a5,1
    8000036a:	fef406a3          	sb	a5,-19(s0)
    8000036e:	aa01                	j	8000047e <mprintf+0x284>
				continue;
			case 'x': {
				unsigned long n;
				long i;
				if (is_long) {
    80000370:	fee44783          	lbu	a5,-18(s0)
    80000374:	0ff7f793          	zext.b	a5,a5
    80000378:	cf99                	beqz	a5,80000396 <mprintf+0x19c>
					n = va_arg(vl, unsigned long);
    8000037a:	fa843783          	ld	a5,-88(s0)
    8000037e:	00878713          	addi	a4,a5,8
    80000382:	fae43423          	sd	a4,-88(s0)
    80000386:	639c                	ld	a5,0(a5)
    80000388:	fcf43423          	sd	a5,-56(s0)
					i = (sizeof(unsigned long) << 3) - 4;
    8000038c:	03c00793          	li	a5,60
    80000390:	fcf43023          	sd	a5,-64(s0)
    80000394:	a041                	j	80000414 <mprintf+0x21a>
				} else {
					n = va_arg(vl, unsigned int);
    80000396:	fa843783          	ld	a5,-88(s0)
    8000039a:	00878713          	addi	a4,a5,8
    8000039e:	fae43423          	sd	a4,-88(s0)
    800003a2:	439c                	lw	a5,0(a5)
    800003a4:	1782                	slli	a5,a5,0x20
    800003a6:	9381                	srli	a5,a5,0x20
    800003a8:	fcf43423          	sd	a5,-56(s0)
					i = is_char ? 4 : (sizeof(unsigned int) << 3) - 4;
    800003ac:	fed44783          	lbu	a5,-19(s0)
    800003b0:	0ff7f793          	zext.b	a5,a5
    800003b4:	c399                	beqz	a5,800003ba <mprintf+0x1c0>
    800003b6:	4791                	li	a5,4
    800003b8:	a011                	j	800003bc <mprintf+0x1c2>
    800003ba:	47f1                	li	a5,28
    800003bc:	fcf43023          	sd	a5,-64(s0)
				}
				for (; i >= 0; i -= 4) {
    800003c0:	a891                	j	80000414 <mprintf+0x21a>
					long d;
					d = (n >> i) & 0xF;
    800003c2:	fc043783          	ld	a5,-64(s0)
    800003c6:	2781                	sext.w	a5,a5
    800003c8:	873e                	mv	a4,a5
    800003ca:	fc843783          	ld	a5,-56(s0)
    800003ce:	00e7d7b3          	srl	a5,a5,a4
    800003d2:	8bbd                	andi	a5,a5,15
    800003d4:	faf43823          	sd	a5,-80(s0)
					kputc(d < 10 ? '0' + d : 'a' + d - 10);
    800003d8:	fb043703          	ld	a4,-80(s0)
    800003dc:	47a5                	li	a5,9
    800003de:	00e7cb63          	blt	a5,a4,800003f4 <mprintf+0x1fa>
    800003e2:	fb043783          	ld	a5,-80(s0)
    800003e6:	0ff7f793          	zext.b	a5,a5
    800003ea:	0307879b          	addiw	a5,a5,48
    800003ee:	0ff7f793          	zext.b	a5,a5
    800003f2:	a809                	j	80000404 <mprintf+0x20a>
    800003f4:	fb043783          	ld	a5,-80(s0)
    800003f8:	0ff7f793          	zext.b	a5,a5
    800003fc:	0577879b          	addiw	a5,a5,87
    80000400:	0ff7f793          	zext.b	a5,a5
    80000404:	853e                	mv	a0,a5
    80000406:	d49ff0ef          	jal	ra,8000014e <kputc>
				for (; i >= 0; i -= 4) {
    8000040a:	fc043783          	ld	a5,-64(s0)
    8000040e:	17f1                	addi	a5,a5,-4
    80000410:	fcf43023          	sd	a5,-64(s0)
    80000414:	fc043783          	ld	a5,-64(s0)
    80000418:	fa07d5e3          	bgez	a5,800003c2 <mprintf+0x1c8>
				}
				break;
    8000041c:	a80d                	j	8000044e <mprintf+0x254>
			}
			case 's':
				_kputs(va_arg(vl, const char *));
    8000041e:	fa843783          	ld	a5,-88(s0)
    80000422:	00878713          	addi	a4,a5,8
    80000426:	fae43423          	sd	a4,-88(s0)
    8000042a:	639c                	ld	a5,0(a5)
    8000042c:	853e                	mv	a0,a5
    8000042e:	d5fff0ef          	jal	ra,8000018c <_kputs>
				break;
    80000432:	a831                	j	8000044e <mprintf+0x254>
			case 'c':
				kputc(va_arg(vl, int));
    80000434:	fa843783          	ld	a5,-88(s0)
    80000438:	00878713          	addi	a4,a5,8
    8000043c:	fae43423          	sd	a4,-88(s0)
    80000440:	439c                	lw	a5,0(a5)
    80000442:	0ff7f793          	zext.b	a5,a5
    80000446:	853e                	mv	a0,a5
    80000448:	d07ff0ef          	jal	ra,8000014e <kputc>
				break;
    8000044c:	0001                	nop
			}
			is_format = false;
    8000044e:	fe0407a3          	sb	zero,-17(s0)
			is_long = false;
    80000452:	fe040723          	sb	zero,-18(s0)
			is_char = false;
    80000456:	fe0406a3          	sb	zero,-19(s0)
    8000045a:	a015                	j	8000047e <mprintf+0x284>
		} else if (c == '%') {
    8000045c:	fbf44783          	lbu	a5,-65(s0)
    80000460:	0ff7f713          	zext.b	a4,a5
    80000464:	02500793          	li	a5,37
    80000468:	00f71663          	bne	a4,a5,80000474 <mprintf+0x27a>
			is_format = true;
    8000046c:	4785                	li	a5,1
    8000046e:	fef407a3          	sb	a5,-17(s0)
    80000472:	a031                	j	8000047e <mprintf+0x284>
		} else {
			kputc(c);
    80000474:	fbf44783          	lbu	a5,-65(s0)
    80000478:	853e                	mv	a0,a5
    8000047a:	cd5ff0ef          	jal	ra,8000014e <kputc>
	while ((c = *fmt++) != '\0') {
    8000047e:	f5843783          	ld	a5,-168(s0)
    80000482:	00178713          	addi	a4,a5,1
    80000486:	f4e43c23          	sd	a4,-168(s0)
    8000048a:	0007c783          	lbu	a5,0(a5)
    8000048e:	faf40fa3          	sb	a5,-65(s0)
    80000492:	fbf44783          	lbu	a5,-65(s0)
    80000496:	0ff7f793          	zext.b	a5,a5
    8000049a:	da0790e3          	bnez	a5,8000023a <mprintf+0x40>
		}
	}
	va_end(vl);
}
    8000049e:	0001                	nop
    800004a0:	0001                	nop
    800004a2:	70aa                	ld	ra,168(sp)
    800004a4:	740a                	ld	s0,160(sp)
    800004a6:	616d                	addi	sp,sp,240
    800004a8:	8082                	ret

00000000800004aa <_sprintf_r>:
    800004aa:	7111                	addi	sp,sp,-256
    800004ac:	0d810e93          	addi	t4,sp,216
    800004b0:	f5be                	sd	a5,232(sp)
    800004b2:	80000337          	lui	t1,0x80000
    800004b6:	77c1                	lui	a5,0xffff0
    800004b8:	8e2e                	mv	t3,a1
    800004ba:	fff34313          	not	t1,t1
    800004be:	edb6                	sd	a3,216(sp)
    800004c0:	20878793          	addi	a5,a5,520 # ffffffffffff0208 <__clz_tab+0xffffffff7ffe34e0>
    800004c4:	080c                	addi	a1,sp,16
    800004c6:	86f6                	mv	a3,t4
    800004c8:	e586                	sd	ra,200(sp)
    800004ca:	d03e                	sw	a5,32(sp)
    800004cc:	f1ba                	sd	a4,224(sp)
    800004ce:	f9c2                	sd	a6,240(sp)
    800004d0:	fdc6                	sd	a7,248(sp)
    800004d2:	e872                	sd	t3,16(sp)
    800004d4:	f472                	sd	t3,40(sp)
    800004d6:	ce1a                	sw	t1,28(sp)
    800004d8:	d81a                	sw	t1,48(sp)
    800004da:	e476                	sd	t4,8(sp)
    800004dc:	05e000ef          	jal	ra,8000053a <_svfprintf_r>
    800004e0:	67c2                	ld	a5,16(sp)
    800004e2:	00078023          	sb	zero,0(a5)
    800004e6:	60ae                	ld	ra,200(sp)
    800004e8:	6111                	addi	sp,sp,256
    800004ea:	8082                	ret

00000000800004ec <sprintf>:
    800004ec:	7111                	addi	sp,sp,-256
    800004ee:	0d010e93          	addi	t4,sp,208
    800004f2:	f5be                	sd	a5,232(sp)
    800004f4:	80000337          	lui	t1,0x80000
    800004f8:	77c1                	lui	a5,0xffff0
    800004fa:	8e2a                	mv	t3,a0
    800004fc:	fff34313          	not	t1,t1
    80000500:	e9b2                	sd	a2,208(sp)
    80000502:	edb6                	sd	a3,216(sp)
    80000504:	20878793          	addi	a5,a5,520 # ffffffffffff0208 <__clz_tab+0xffffffff7ffe34e0>
    80000508:	862e                	mv	a2,a1
    8000050a:	86f6                	mv	a3,t4
    8000050c:	080c                	addi	a1,sp,16
    8000050e:	0000c517          	auipc	a0,0xc
    80000512:	b6253503          	ld	a0,-1182(a0) # 8000c070 <_impure_ptr>
    80000516:	e586                	sd	ra,200(sp)
    80000518:	d03e                	sw	a5,32(sp)
    8000051a:	f1ba                	sd	a4,224(sp)
    8000051c:	f9c2                	sd	a6,240(sp)
    8000051e:	fdc6                	sd	a7,248(sp)
    80000520:	e872                	sd	t3,16(sp)
    80000522:	f472                	sd	t3,40(sp)
    80000524:	ce1a                	sw	t1,28(sp)
    80000526:	d81a                	sw	t1,48(sp)
    80000528:	e476                	sd	t4,8(sp)
    8000052a:	010000ef          	jal	ra,8000053a <_svfprintf_r>
    8000052e:	67c2                	ld	a5,16(sp)
    80000530:	00078023          	sb	zero,0(a5)
    80000534:	60ae                	ld	ra,200(sp)
    80000536:	6111                	addi	sp,sp,256
    80000538:	8082                	ret

000000008000053a <_svfprintf_r>:
    8000053a:	d9010113          	addi	sp,sp,-624
    8000053e:	26113423          	sd	ra,616(sp)
    80000542:	26813023          	sd	s0,608(sp)
    80000546:	24913c23          	sd	s1,600(sp)
    8000054a:	842e                	mv	s0,a1
    8000054c:	25213823          	sd	s2,592(sp)
    80000550:	e82e                	sd	a1,16(sp)
    80000552:	8932                	mv	s2,a2
    80000554:	84b6                	mv	s1,a3
    80000556:	25313423          	sd	s3,584(sp)
    8000055a:	25413023          	sd	s4,576(sp)
    8000055e:	23513c23          	sd	s5,568(sp)
    80000562:	23613823          	sd	s6,560(sp)
    80000566:	23713423          	sd	s7,552(sp)
    8000056a:	23813023          	sd	s8,544(sp)
    8000056e:	21913c23          	sd	s9,536(sp)
    80000572:	21a13823          	sd	s10,528(sp)
    80000576:	21b13423          	sd	s11,520(sp)
    8000057a:	e42a                	sd	a0,8(sp)
    8000057c:	026040ef          	jal	ra,800045a2 <_localeconv_r>
    80000580:	611c                	ld	a5,0(a0)
    80000582:	853e                	mv	a0,a5
    80000584:	e8be                	sd	a5,80(sp)
    80000586:	6ea050ef          	jal	ra,80005c70 <strlen>
    8000058a:	01045703          	lhu	a4,16(s0)
    8000058e:	f982                	sd	zero,240(sp)
    80000590:	fd82                	sd	zero,248(sp)
    80000592:	08077713          	andi	a4,a4,128
    80000596:	e4aa                	sd	a0,72(sp)
    80000598:	c701                	beqz	a4,800005a0 <_svfprintf_r+0x66>
    8000059a:	6c18                	ld	a4,24(s0)
    8000059c:	6a070ce3          	beqz	a4,80001454 <_svfprintf_r+0xf1a>
    800005a0:	8aca                	mv	s5,s2
    800005a2:	000ac703          	lbu	a4,0(s5)
    800005a6:	031c                	addi	a5,sp,384
    800005a8:	e23e                	sd	a5,256(sp)
    800005aa:	ea02                	sd	zero,272(sp)
    800005ac:	10012423          	sw	zero,264(sp)
    800005b0:	f802                	sd	zero,48(sp)
    800005b2:	ec82                	sd	zero,88(sp)
    800005b4:	f082                	sd	zero,96(sp)
    800005b6:	f482                	sd	zero,104(sp)
    800005b8:	f882                	sd	zero,112(sp)
    800005ba:	fc82                	sd	zero,120(sp)
    800005bc:	ec02                	sd	zero,24(sp)
    800005be:	4dc1                	li	s11,16
    800005c0:	843e                	mv	s0,a5
    800005c2:	8a26                	mv	s4,s1
    800005c4:	1c070263          	beqz	a4,80000788 <_svfprintf_r+0x24e>
    800005c8:	89d6                	mv	s3,s5
    800005ca:	02500693          	li	a3,37
    800005ce:	20d70d63          	beq	a4,a3,800007e8 <_svfprintf_r+0x2ae>
    800005d2:	0019c703          	lbu	a4,1(s3)
    800005d6:	0985                	addi	s3,s3,1
    800005d8:	fb7d                	bnez	a4,800005ce <_svfprintf_r+0x94>
    800005da:	41598b3b          	subw	s6,s3,s5
    800005de:	1a0b0563          	beqz	s6,80000788 <_svfprintf_r+0x24e>
    800005e2:	10812703          	lw	a4,264(sp)
    800005e6:	6d52                	ld	s10,272(sp)
    800005e8:	01543023          	sd	s5,0(s0)
    800005ec:	0017069b          	addiw	a3,a4,1
    800005f0:	9d5a                	add	s10,s10,s6
    800005f2:	01643423          	sd	s6,8(s0)
    800005f6:	ea6a                	sd	s10,272(sp)
    800005f8:	10d12423          	sw	a3,264(sp)
    800005fc:	471d                	li	a4,7
    800005fe:	0441                	addi	s0,s0,16
    80000600:	1ed74b63          	blt	a4,a3,800007f6 <_svfprintf_r+0x2bc>
    80000604:	67e2                	ld	a5,24(sp)
    80000606:	0009c703          	lbu	a4,0(s3)
    8000060a:	016787bb          	addw	a5,a5,s6
    8000060e:	ec3e                	sd	a5,24(sp)
    80000610:	16070c63          	beqz	a4,80000788 <_svfprintf_r+0x24e>
    80000614:	5e7d                	li	t3,-1
    80000616:	0019ce83          	lbu	t4,1(s3)
    8000061a:	0c0107a3          	sb	zero,207(sp)
    8000061e:	0985                	addi	s3,s3,1
    80000620:	4481                	li	s1,0
    80000622:	4901                	li	s2,0
    80000624:	05a00b13          	li	s6,90
    80000628:	8bf2                	mv	s7,t3
    8000062a:	0985                	addi	s3,s3,1
    8000062c:	2e81                	sext.w	t4,t4
    8000062e:	fe0e879b          	addiw	a5,t4,-32
    80000632:	0007871b          	sext.w	a4,a5
    80000636:	04eb6863          	bltu	s6,a4,80000686 <_svfprintf_r+0x14c>
    8000063a:	02079713          	slli	a4,a5,0x20
    8000063e:	01e75793          	srli	a5,a4,0x1e
    80000642:	0000c717          	auipc	a4,0xc
    80000646:	b1270713          	addi	a4,a4,-1262 # 8000c154 <__malloc_trim_threshold+0xd4>
    8000064a:	97ba                	add	a5,a5,a4
    8000064c:	439c                	lw	a5,0(a5)
    8000064e:	97ba                	add	a5,a5,a4
    80000650:	8782                	jr	a5
    80000652:	4481                	li	s1,0
    80000654:	46a5                	li	a3,9
    80000656:	0009c703          	lbu	a4,0(s3)
    8000065a:	0024979b          	slliw	a5,s1,0x2
    8000065e:	9cbd                	addw	s1,s1,a5
    80000660:	fd0e8e9b          	addiw	t4,t4,-48
    80000664:	0014949b          	slliw	s1,s1,0x1
    80000668:	fd07079b          	addiw	a5,a4,-48
    8000066c:	009e84bb          	addw	s1,t4,s1
    80000670:	0985                	addi	s3,s3,1
    80000672:	00070e9b          	sext.w	t4,a4
    80000676:	fef6f0e3          	bgeu	a3,a5,80000656 <_svfprintf_r+0x11c>
    8000067a:	fe0e879b          	addiw	a5,t4,-32
    8000067e:	0007871b          	sext.w	a4,a5
    80000682:	faeb7ce3          	bgeu	s6,a4,8000063a <_svfprintf_r+0x100>
    80000686:	100e8163          	beqz	t4,80000788 <_svfprintf_r+0x24e>
    8000068a:	11d10c23          	sb	t4,280(sp)
    8000068e:	0c0107a3          	sb	zero,207(sp)
    80000692:	4b85                	li	s7,1
    80000694:	4c85                	li	s9,1
    80000696:	11810a93          	addi	s5,sp,280
    8000069a:	f002                	sd	zero,32(sp)
    8000069c:	4e01                	li	t3,0
    8000069e:	e082                	sd	zero,64(sp)
    800006a0:	fc02                	sd	zero,56(sp)
    800006a2:	f402                	sd	zero,40(sp)
    800006a4:	00297293          	andi	t0,s2,2
    800006a8:	00028363          	beqz	t0,800006ae <_svfprintf_r+0x174>
    800006ac:	2b89                	addiw	s7,s7,2
    800006ae:	08497c13          	andi	s8,s2,132
    800006b2:	000c1663          	bnez	s8,800006be <_svfprintf_r+0x184>
    800006b6:	41748d3b          	subw	s10,s1,s7
    800006ba:	09a04ce3          	bgtz	s10,80000f52 <_svfprintf_r+0xa18>
    800006be:	0cf14603          	lbu	a2,207(sp)
    800006c2:	6d52                	ld	s10,272(sp)
    800006c4:	c21d                	beqz	a2,800006ea <_svfprintf_r+0x1b0>
    800006c6:	10812603          	lw	a2,264(sp)
    800006ca:	0cf10593          	addi	a1,sp,207
    800006ce:	e00c                	sd	a1,0(s0)
    800006d0:	2605                	addiw	a2,a2,1
    800006d2:	4585                	li	a1,1
    800006d4:	0d05                	addi	s10,s10,1
    800006d6:	e40c                	sd	a1,8(s0)
    800006d8:	10c12423          	sw	a2,264(sp)
    800006dc:	0006059b          	sext.w	a1,a2
    800006e0:	ea6a                	sd	s10,272(sp)
    800006e2:	461d                	li	a2,7
    800006e4:	0441                	addi	s0,s0,16
    800006e6:	1cb64e63          	blt	a2,a1,800008c2 <_svfprintf_r+0x388>
    800006ea:	02028363          	beqz	t0,80000710 <_svfprintf_r+0x1d6>
    800006ee:	10812603          	lw	a2,264(sp)
    800006f2:	4589                	li	a1,2
    800006f4:	0d09                	addi	s10,s10,2
    800006f6:	2605                	addiw	a2,a2,1
    800006f8:	099c                	addi	a5,sp,208
    800006fa:	e40c                	sd	a1,8(s0)
    800006fc:	e01c                	sd	a5,0(s0)
    800006fe:	0006059b          	sext.w	a1,a2
    80000702:	10c12423          	sw	a2,264(sp)
    80000706:	ea6a                	sd	s10,272(sp)
    80000708:	461d                	li	a2,7
    8000070a:	0441                	addi	s0,s0,16
    8000070c:	0eb64de3          	blt	a2,a1,80001006 <_svfprintf_r+0xacc>
    80000710:	08000613          	li	a2,128
    80000714:	6ccc0a63          	beq	s8,a2,80000de8 <_svfprintf_r+0x8ae>
    80000718:	419e0b3b          	subw	s6,t3,s9
    8000071c:	77604863          	bgtz	s6,80000e8c <_svfprintf_r+0x952>
    80000720:	10097613          	andi	a2,s2,256
    80000724:	5a061d63          	bnez	a2,80000cde <_svfprintf_r+0x7a4>
    80000728:	10812583          	lw	a1,264(sp)
    8000072c:	01ac8633          	add	a2,s9,s10
    80000730:	01543023          	sd	s5,0(s0)
    80000734:	0015869b          	addiw	a3,a1,1
    80000738:	01943423          	sd	s9,8(s0)
    8000073c:	ea32                	sd	a2,272(sp)
    8000073e:	10d12423          	sw	a3,264(sp)
    80000742:	479d                	li	a5,7
    80000744:	24d7c263          	blt	a5,a3,80000988 <_svfprintf_r+0x44e>
    80000748:	0441                	addi	s0,s0,16
    8000074a:	00497913          	andi	s2,s2,4
    8000074e:	00090663          	beqz	s2,8000075a <_svfprintf_r+0x220>
    80000752:	4174893b          	subw	s2,s1,s7
    80000756:	0d2046e3          	bgtz	s2,80001022 <_svfprintf_r+0xae8>
    8000075a:	87a6                	mv	a5,s1
    8000075c:	0174d363          	bge	s1,s7,80000762 <_svfprintf_r+0x228>
    80000760:	87de                	mv	a5,s7
    80000762:	6762                	ld	a4,24(sp)
    80000764:	9fb9                	addw	a5,a5,a4
    80000766:	ec3e                	sd	a5,24(sp)
    80000768:	7a061763          	bnez	a2,80000f16 <_svfprintf_r+0x9dc>
    8000076c:	7782                	ld	a5,32(sp)
    8000076e:	10012423          	sw	zero,264(sp)
    80000772:	c789                	beqz	a5,8000077c <_svfprintf_r+0x242>
    80000774:	7582                	ld	a1,32(sp)
    80000776:	6522                	ld	a0,8(sp)
    80000778:	287010ef          	jal	ra,800021fe <_free_r>
    8000077c:	0300                	addi	s0,sp,384
    8000077e:	8ace                	mv	s5,s3
    80000780:	000ac703          	lbu	a4,0(s5)
    80000784:	e40712e3          	bnez	a4,800005c8 <_svfprintf_r+0x8e>
    80000788:	67d2                	ld	a5,272(sp)
    8000078a:	c399                	beqz	a5,80000790 <_svfprintf_r+0x256>
    8000078c:	3ac0106f          	j	80001b38 <_svfprintf_r+0x15fe>
    80000790:	67c2                	ld	a5,16(sp)
    80000792:	0107d783          	lhu	a5,16(a5)
    80000796:	0407f793          	andi	a5,a5,64
    8000079a:	c399                	beqz	a5,800007a0 <_svfprintf_r+0x266>
    8000079c:	03f0106f          	j	80001fda <_svfprintf_r+0x1aa0>
    800007a0:	26813083          	ld	ra,616(sp)
    800007a4:	26013403          	ld	s0,608(sp)
    800007a8:	6562                	ld	a0,24(sp)
    800007aa:	25813483          	ld	s1,600(sp)
    800007ae:	25013903          	ld	s2,592(sp)
    800007b2:	24813983          	ld	s3,584(sp)
    800007b6:	24013a03          	ld	s4,576(sp)
    800007ba:	23813a83          	ld	s5,568(sp)
    800007be:	23013b03          	ld	s6,560(sp)
    800007c2:	22813b83          	ld	s7,552(sp)
    800007c6:	22013c03          	ld	s8,544(sp)
    800007ca:	21813c83          	ld	s9,536(sp)
    800007ce:	21013d03          	ld	s10,528(sp)
    800007d2:	20813d83          	ld	s11,520(sp)
    800007d6:	27010113          	addi	sp,sp,624
    800007da:	8082                	ret
    800007dc:	01096913          	ori	s2,s2,16
    800007e0:	0009ce83          	lbu	t4,0(s3)
    800007e4:	2901                	sext.w	s2,s2
    800007e6:	b591                	j	8000062a <_svfprintf_r+0xf0>
    800007e8:	41598b3b          	subw	s6,s3,s5
    800007ec:	de0b1be3          	bnez	s6,800005e2 <_svfprintf_r+0xa8>
    800007f0:	0009c703          	lbu	a4,0(s3)
    800007f4:	bd31                	j	80000610 <_svfprintf_r+0xd6>
    800007f6:	65c2                	ld	a1,16(sp)
    800007f8:	6522                	ld	a0,8(sp)
    800007fa:	0210                	addi	a2,sp,256
    800007fc:	584050ef          	jal	ra,80005d80 <__ssprint_r>
    80000800:	f941                	bnez	a0,80000790 <_svfprintf_r+0x256>
    80000802:	0300                	addi	s0,sp,384
    80000804:	b501                	j	80000604 <_svfprintf_r+0xca>
    80000806:	00897713          	andi	a4,s2,8
    8000080a:	8e5e                	mv	t3,s7
    8000080c:	2e0717e3          	bnez	a4,800012fa <_svfprintf_r+0xdc0>
    80000810:	000a3507          	fld	fa0,0(s4)
    80000814:	f076                	sd	t4,32(sp)
    80000816:	f45e                	sd	s7,40(sp)
    80000818:	3440a0ef          	jal	ra,8000ab5c <__extenddftf2>
    8000081c:	7e22                	ld	t3,40(sp)
    8000081e:	7e82                	ld	t4,32(sp)
    80000820:	0a21                	addi	s4,s4,8
    80000822:	872a                	mv	a4,a0
    80000824:	1988                	addi	a0,sp,240
    80000826:	f472                	sd	t3,40(sp)
    80000828:	f076                	sd	t4,32(sp)
    8000082a:	f9ba                	sd	a4,240(sp)
    8000082c:	fdae                	sd	a1,248(sp)
    8000082e:	52d030ef          	jal	ra,8000455a <_ldcheck>
    80000832:	cdaa                	sw	a0,216(sp)
    80000834:	4709                	li	a4,2
    80000836:	7e82                	ld	t4,32(sp)
    80000838:	7e22                	ld	t3,40(sp)
    8000083a:	74e502e3          	beq	a0,a4,8000177e <_svfprintf_r+0x1244>
    8000083e:	4705                	li	a4,1
    80000840:	00e51463          	bne	a0,a4,80000848 <_svfprintf_r+0x30e>
    80000844:	0780106f          	j	800018bc <_svfprintf_r+0x1382>
    80000848:	06100713          	li	a4,97
    8000084c:	00ee9463          	bne	t4,a4,80000854 <_svfprintf_r+0x31a>
    80000850:	52a0106f          	j	80001d7a <_svfprintf_r+0x1840>
    80000854:	04100713          	li	a4,65
    80000858:	00ee9463          	bne	t4,a4,80000860 <_svfprintf_r+0x326>
    8000085c:	6580106f          	j	80001eb4 <_svfprintf_r+0x197a>
    80000860:	577d                	li	a4,-1
    80000862:	00ee1463          	bne	t3,a4,8000086a <_svfprintf_r+0x330>
    80000866:	3140106f          	j	80001b7a <_svfprintf_r+0x1640>
    8000086a:	fdfef713          	andi	a4,t4,-33
    8000086e:	04700693          	li	a3,71
    80000872:	00d71463          	bne	a4,a3,8000087a <_svfprintf_r+0x340>
    80000876:	7780106f          	j	80001fee <_svfprintf_r+0x1ab4>
    8000087a:	10096713          	ori	a4,s2,256
    8000087e:	7bee                	ld	s7,248(sp)
    80000880:	0007079b          	sext.w	a5,a4
    80000884:	e13e                	sd	a5,128(sp)
    80000886:	fc4a                	sd	s2,56(sp)
    80000888:	7c4e                	ld	s8,240(sp)
    8000088a:	000bd463          	bgez	s7,80000892 <_svfprintf_r+0x358>
    8000088e:	57a0106f          	j	80001e08 <_svfprintf_r+0x18ce>
    80000892:	e502                	sd	zero,136(sp)
    80000894:	f002                	sd	zero,32(sp)
    80000896:	fbfe871b          	addiw	a4,t4,-65
    8000089a:	0007061b          	sext.w	a2,a4
    8000089e:	02500693          	li	a3,37
    800008a2:	00c6f463          	bgeu	a3,a2,800008aa <_svfprintf_r+0x370>
    800008a6:	0f20106f          	j	80001998 <_svfprintf_r+0x145e>
    800008aa:	02071613          	slli	a2,a4,0x20
    800008ae:	0000c697          	auipc	a3,0xc
    800008b2:	a1268693          	addi	a3,a3,-1518 # 8000c2c0 <__malloc_trim_threshold+0x240>
    800008b6:	01e65713          	srli	a4,a2,0x1e
    800008ba:	9736                	add	a4,a4,a3
    800008bc:	4318                	lw	a4,0(a4)
    800008be:	9736                	add	a4,a4,a3
    800008c0:	8702                	jr	a4
    800008c2:	65c2                	ld	a1,16(sp)
    800008c4:	6522                	ld	a0,8(sp)
    800008c6:	0210                	addi	a2,sp,256
    800008c8:	e972                	sd	t3,144(sp)
    800008ca:	e576                	sd	t4,136(sp)
    800008cc:	e116                	sd	t0,128(sp)
    800008ce:	4b2050ef          	jal	ra,80005d80 <__ssprint_r>
    800008d2:	64051963          	bnez	a0,80000f24 <_svfprintf_r+0x9ea>
    800008d6:	6d52                	ld	s10,272(sp)
    800008d8:	6e4a                	ld	t3,144(sp)
    800008da:	6eaa                	ld	t4,136(sp)
    800008dc:	628a                	ld	t0,128(sp)
    800008de:	0300                	addi	s0,sp,384
    800008e0:	b529                	j	800006ea <_svfprintf_r+0x1b0>
    800008e2:	77c2                	ld	a5,48(sp)
    800008e4:	4685                	li	a3,1
    800008e6:	01040c13          	addi	s8,s0,16
    800008ea:	0ef6d6e3          	bge	a3,a5,800011d6 <_svfprintf_r+0xc9c>
    800008ee:	10812583          	lw	a1,264(sp)
    800008f2:	4685                	li	a3,1
    800008f4:	0d05                	addi	s10,s10,1
    800008f6:	2585                	addiw	a1,a1,1
    800008f8:	e414                	sd	a3,8(s0)
    800008fa:	01543023          	sd	s5,0(s0)
    800008fe:	ea6a                	sd	s10,272(sp)
    80000900:	0005869b          	sext.w	a3,a1
    80000904:	10b12423          	sw	a1,264(sp)
    80000908:	461d                	li	a2,7
    8000090a:	18d64ce3          	blt	a2,a3,800012a2 <_svfprintf_r+0xd68>
    8000090e:	67a6                	ld	a5,72(sp)
    80000910:	6746                	ld	a4,80(sp)
    80000912:	0016841b          	addiw	s0,a3,1
    80000916:	01a78cb3          	add	s9,a5,s10
    8000091a:	00ec3023          	sd	a4,0(s8)
    8000091e:	00fc3423          	sd	a5,8(s8)
    80000922:	ea66                	sd	s9,272(sp)
    80000924:	10812423          	sw	s0,264(sp)
    80000928:	469d                	li	a3,7
    8000092a:	0c41                	addi	s8,s8,16
    8000092c:	1886c9e3          	blt	a3,s0,800012be <_svfprintf_r+0xd84>
    80000930:	754e                	ld	a0,240(sp)
    80000932:	75ee                	ld	a1,248(sp)
    80000934:	4601                	li	a2,0
    80000936:	4681                	li	a3,0
    80000938:	7cb080ef          	jal	ra,80009902 <__eqtf2>
    8000093c:	77c2                	ld	a5,48(sp)
    8000093e:	fff78b1b          	addiw	s6,a5,-1
    80000942:	0c050de3          	beqz	a0,8000121c <_svfprintf_r+0xce2>
    80000946:	001a8793          	addi	a5,s5,1
    8000094a:	2405                	addiw	s0,s0,1
    8000094c:	9cda                	add	s9,s9,s6
    8000094e:	00fc3023          	sd	a5,0(s8)
    80000952:	016c3423          	sd	s6,8(s8)
    80000956:	ea66                	sd	s9,272(sp)
    80000958:	10812423          	sw	s0,264(sp)
    8000095c:	479d                	li	a5,7
    8000095e:	0a87c1e3          	blt	a5,s0,80001200 <_svfprintf_r+0xcc6>
    80000962:	0c41                	addi	s8,s8,16
    80000964:	7706                	ld	a4,96(sp)
    80000966:	0014069b          	addiw	a3,s0,1
    8000096a:	119c                	addi	a5,sp,224
    8000096c:	01970633          	add	a2,a4,s9
    80000970:	00fc3023          	sd	a5,0(s8)
    80000974:	00ec3423          	sd	a4,8(s8)
    80000978:	ea32                	sd	a2,272(sp)
    8000097a:	10d12423          	sw	a3,264(sp)
    8000097e:	479d                	li	a5,7
    80000980:	010c0413          	addi	s0,s8,16
    80000984:	dcd7d3e3          	bge	a5,a3,8000074a <_svfprintf_r+0x210>
    80000988:	65c2                	ld	a1,16(sp)
    8000098a:	6522                	ld	a0,8(sp)
    8000098c:	0210                	addi	a2,sp,256
    8000098e:	3f2050ef          	jal	ra,80005d80 <__ssprint_r>
    80000992:	58051963          	bnez	a0,80000f24 <_svfprintf_r+0x9ea>
    80000996:	6652                	ld	a2,272(sp)
    80000998:	0300                	addi	s0,sp,384
    8000099a:	bb45                	j	8000074a <_svfprintf_r+0x210>
    8000099c:	000a2783          	lw	a5,0(s4)
    800009a0:	0c0107a3          	sb	zero,207(sp)
    800009a4:	0a21                	addi	s4,s4,8
    800009a6:	10f10c23          	sb	a5,280(sp)
    800009aa:	4b85                	li	s7,1
    800009ac:	4c85                	li	s9,1
    800009ae:	11810a93          	addi	s5,sp,280
    800009b2:	b1e5                	j	8000069a <_svfprintf_r+0x160>
    800009b4:	000a3a83          	ld	s5,0(s4)
    800009b8:	0c0107a3          	sb	zero,207(sp)
    800009bc:	0a21                	addi	s4,s4,8
    800009be:	600a81e3          	beqz	s5,800017c0 <_svfprintf_r+0x1286>
    800009c2:	577d                	li	a4,-1
    800009c4:	30eb89e3          	beq	s7,a4,800014d6 <_svfprintf_r+0xf9c>
    800009c8:	865e                	mv	a2,s7
    800009ca:	4581                	li	a1,0
    800009cc:	8556                	mv	a0,s5
    800009ce:	fc76                	sd	t4,56(sp)
    800009d0:	f45e                	sd	s7,40(sp)
    800009d2:	2ee040ef          	jal	ra,80004cc0 <memchr>
    800009d6:	f02a                	sd	a0,32(sp)
    800009d8:	7e22                	ld	t3,40(sp)
    800009da:	7ee2                	ld	t4,56(sp)
    800009dc:	e119                	bnez	a0,800009e2 <_svfprintf_r+0x4a8>
    800009de:	4620106f          	j	80001e40 <_svfprintf_r+0x1906>
    800009e2:	7782                	ld	a5,32(sp)
    800009e4:	0cf14603          	lbu	a2,207(sp)
    800009e8:	f002                	sd	zero,32(sp)
    800009ea:	41578cbb          	subw	s9,a5,s5
    800009ee:	fffcc713          	not	a4,s9
    800009f2:	977d                	srai	a4,a4,0x3f
    800009f4:	e082                	sd	zero,64(sp)
    800009f6:	fc02                	sd	zero,56(sp)
    800009f8:	f402                	sd	zero,40(sp)
    800009fa:	01977bb3          	and	s7,a4,s9
    800009fe:	4e01                	li	t3,0
    80000a00:	ca0602e3          	beqz	a2,800006a4 <_svfprintf_r+0x16a>
    80000a04:	2b85                	addiw	s7,s7,1
    80000a06:	b979                	j	800006a4 <_svfprintf_r+0x16a>
    80000a08:	000a2483          	lw	s1,0(s4)
    80000a0c:	0a21                	addi	s4,s4,8
    80000a0e:	0804dc63          	bgez	s1,80000aa6 <_svfprintf_r+0x56c>
    80000a12:	409004bb          	negw	s1,s1
    80000a16:	00496913          	ori	s2,s2,4
    80000a1a:	0009ce83          	lbu	t4,0(s3)
    80000a1e:	2901                	sext.w	s2,s2
    80000a20:	b129                	j	8000062a <_svfprintf_r+0xf0>
    80000a22:	02b00793          	li	a5,43
    80000a26:	0009ce83          	lbu	t4,0(s3)
    80000a2a:	0cf107a3          	sb	a5,207(sp)
    80000a2e:	bef5                	j	8000062a <_svfprintf_r+0xf0>
    80000a30:	08096913          	ori	s2,s2,128
    80000a34:	0009ce83          	lbu	t4,0(s3)
    80000a38:	2901                	sext.w	s2,s2
    80000a3a:	bec5                	j	8000062a <_svfprintf_r+0xf0>
    80000a3c:	0009ce83          	lbu	t4,0(s3)
    80000a40:	02a00693          	li	a3,42
    80000a44:	00198793          	addi	a5,s3,1
    80000a48:	00de9463          	bne	t4,a3,80000a50 <_svfprintf_r+0x516>
    80000a4c:	6700106f          	j	800020bc <_svfprintf_r+0x1b82>
    80000a50:	fd0e871b          	addiw	a4,t4,-48
    80000a54:	4625                	li	a2,9
    80000a56:	89be                	mv	s3,a5
    80000a58:	4b81                	li	s7,0
    80000a5a:	46a5                	li	a3,9
    80000a5c:	bce669e3          	bltu	a2,a4,8000062e <_svfprintf_r+0xf4>
    80000a60:	0009ce83          	lbu	t4,0(s3)
    80000a64:	002b979b          	slliw	a5,s7,0x2
    80000a68:	01778e3b          	addw	t3,a5,s7
    80000a6c:	001e1e1b          	slliw	t3,t3,0x1
    80000a70:	00ee0bbb          	addw	s7,t3,a4
    80000a74:	fd0e871b          	addiw	a4,t4,-48
    80000a78:	0985                	addi	s3,s3,1
    80000a7a:	fee6f3e3          	bgeu	a3,a4,80000a60 <_svfprintf_r+0x526>
    80000a7e:	be45                	j	8000062e <_svfprintf_r+0xf4>
    80000a80:	6c22                	ld	s8,8(sp)
    80000a82:	8562                	mv	a0,s8
    80000a84:	31f030ef          	jal	ra,800045a2 <_localeconv_r>
    80000a88:	651c                	ld	a5,8(a0)
    80000a8a:	853e                	mv	a0,a5
    80000a8c:	fcbe                	sd	a5,120(sp)
    80000a8e:	1e2050ef          	jal	ra,80005c70 <strlen>
    80000a92:	87aa                	mv	a5,a0
    80000a94:	8562                	mv	a0,s8
    80000a96:	f8be                	sd	a5,112(sp)
    80000a98:	8c3e                	mv	s8,a5
    80000a9a:	309030ef          	jal	ra,800045a2 <_localeconv_r>
    80000a9e:	691c                	ld	a5,16(a0)
    80000aa0:	f4be                	sd	a5,104(sp)
    80000aa2:	080c10e3          	bnez	s8,80001322 <_svfprintf_r+0xde8>
    80000aa6:	0009ce83          	lbu	t4,0(s3)
    80000aaa:	b641                	j	8000062a <_svfprintf_r+0xf0>
    80000aac:	00196913          	ori	s2,s2,1
    80000ab0:	0009ce83          	lbu	t4,0(s3)
    80000ab4:	2901                	sext.w	s2,s2
    80000ab6:	be95                	j	8000062a <_svfprintf_r+0xf0>
    80000ab8:	0cf14783          	lbu	a5,207(sp)
    80000abc:	0009ce83          	lbu	t4,0(s3)
    80000ac0:	b60795e3          	bnez	a5,8000062a <_svfprintf_r+0xf0>
    80000ac4:	02000793          	li	a5,32
    80000ac8:	0cf107a3          	sb	a5,207(sp)
    80000acc:	beb9                	j	8000062a <_svfprintf_r+0xf0>
    80000ace:	01096c13          	ori	s8,s2,16
    80000ad2:	8e5e                	mv	t3,s7
    80000ad4:	2c01                	sext.w	s8,s8
    80000ad6:	020c7793          	andi	a5,s8,32
    80000ada:	008a0713          	addi	a4,s4,8
    80000ade:	e3bd                	bnez	a5,80000b44 <_svfprintf_r+0x60a>
    80000ae0:	010c7793          	andi	a5,s8,16
    80000ae4:	e3a5                	bnez	a5,80000b44 <_svfprintf_r+0x60a>
    80000ae6:	040c7793          	andi	a5,s8,64
    80000aea:	000a2b03          	lw	s6,0(s4)
    80000aee:	580783e3          	beqz	a5,80001874 <_svfprintf_r+0x133a>
    80000af2:	1b42                	slli	s6,s6,0x30
    80000af4:	030b5b13          	srli	s6,s6,0x30
    80000af8:	8a3a                	mv	s4,a4
    80000afa:	4785                	li	a5,1
    80000afc:	4701                	li	a4,0
    80000afe:	0ce107a3          	sb	a4,207(sp)
    80000b02:	577d                	li	a4,-1
    80000b04:	0cee0863          	beq	t3,a4,80000bd4 <_svfprintf_r+0x69a>
    80000b08:	f7fc7913          	andi	s2,s8,-129
    80000b0c:	2901                	sext.w	s2,s2
    80000b0e:	420b1263          	bnez	s6,80000f32 <_svfprintf_r+0x9f8>
    80000b12:	280e1e63          	bnez	t3,80000dae <_svfprintf_r+0x874>
    80000b16:	78079263          	bnez	a5,8000129a <_svfprintf_r+0xd60>
    80000b1a:	001c7c93          	andi	s9,s8,1
    80000b1e:	17c10a93          	addi	s5,sp,380
    80000b22:	7c0c9463          	bnez	s9,800012ea <_svfprintf_r+0xdb0>
    80000b26:	0cf14603          	lbu	a2,207(sp)
    80000b2a:	8772                	mv	a4,t3
    80000b2c:	019e5363          	bge	t3,s9,80000b32 <_svfprintf_r+0x5f8>
    80000b30:	8766                	mv	a4,s9
    80000b32:	f002                	sd	zero,32(sp)
    80000b34:	e082                	sd	zero,64(sp)
    80000b36:	fc02                	sd	zero,56(sp)
    80000b38:	f402                	sd	zero,40(sp)
    80000b3a:	00070b9b          	sext.w	s7,a4
    80000b3e:	ec0613e3          	bnez	a2,80000a04 <_svfprintf_r+0x4ca>
    80000b42:	b68d                	j	800006a4 <_svfprintf_r+0x16a>
    80000b44:	000a3b03          	ld	s6,0(s4)
    80000b48:	4785                	li	a5,1
    80000b4a:	8a3a                	mv	s4,a4
    80000b4c:	bf45                	j	80000afc <_svfprintf_r+0x5c2>
    80000b4e:	00896913          	ori	s2,s2,8
    80000b52:	0009ce83          	lbu	t4,0(s3)
    80000b56:	2901                	sext.w	s2,s2
    80000b58:	bcc9                	j	8000062a <_svfprintf_r+0xf0>
    80000b5a:	01096913          	ori	s2,s2,16
    80000b5e:	8e5e                	mv	t3,s7
    80000b60:	2901                	sext.w	s2,s2
    80000b62:	02097793          	andi	a5,s2,32
    80000b66:	008a0713          	addi	a4,s4,8
    80000b6a:	e7a1                	bnez	a5,80000bb2 <_svfprintf_r+0x678>
    80000b6c:	01097793          	andi	a5,s2,16
    80000b70:	e3a9                	bnez	a5,80000bb2 <_svfprintf_r+0x678>
    80000b72:	04097793          	andi	a5,s2,64
    80000b76:	000a2b03          	lw	s6,0(s4)
    80000b7a:	520786e3          	beqz	a5,800018a6 <_svfprintf_r+0x136c>
    80000b7e:	010b1b1b          	slliw	s6,s6,0x10
    80000b82:	410b5b1b          	sraiw	s6,s6,0x10
    80000b86:	87da                	mv	a5,s6
    80000b88:	0207ca63          	bltz	a5,80000bbc <_svfprintf_r+0x682>
    80000b8c:	57fd                	li	a5,-1
    80000b8e:	8c4a                	mv	s8,s2
    80000b90:	8a3a                	mv	s4,a4
    80000b92:	3afe0463          	beq	t3,a5,80000f3a <_svfprintf_r+0xa00>
    80000b96:	f7f97c13          	andi	s8,s2,-129
    80000b9a:	2c01                	sext.w	s8,s8
    80000b9c:	7a0b1663          	bnez	s6,80001348 <_svfprintf_r+0xe0e>
    80000ba0:	000e0463          	beqz	t3,80000ba8 <_svfprintf_r+0x66e>
    80000ba4:	47a0106f          	j	8000201e <_svfprintf_r+0x1ae4>
    80000ba8:	4c81                	li	s9,0
    80000baa:	8962                	mv	s2,s8
    80000bac:	17c10a93          	addi	s5,sp,380
    80000bb0:	bf9d                	j	80000b26 <_svfprintf_r+0x5ec>
    80000bb2:	000a3783          	ld	a5,0(s4)
    80000bb6:	8b3e                	mv	s6,a5
    80000bb8:	fc07dae3          	bgez	a5,80000b8c <_svfprintf_r+0x652>
    80000bbc:	8a3a                	mv	s4,a4
    80000bbe:	02d00713          	li	a4,45
    80000bc2:	0ce107a3          	sb	a4,207(sp)
    80000bc6:	577d                	li	a4,-1
    80000bc8:	41600b33          	neg	s6,s6
    80000bcc:	8c4a                	mv	s8,s2
    80000bce:	4785                	li	a5,1
    80000bd0:	f2ee1ce3          	bne	t3,a4,80000b08 <_svfprintf_r+0x5ce>
    80000bd4:	4705                	li	a4,1
    80000bd6:	36e78263          	beq	a5,a4,80000f3a <_svfprintf_r+0xa00>
    80000bda:	4709                	li	a4,2
    80000bdc:	1ee78263          	beq	a5,a4,80000dc0 <_svfprintf_r+0x886>
    80000be0:	17c10b93          	addi	s7,sp,380
    80000be4:	8ade                	mv	s5,s7
    80000be6:	007b7713          	andi	a4,s6,7
    80000bea:	03070713          	addi	a4,a4,48
    80000bee:	feea8fa3          	sb	a4,-1(s5)
    80000bf2:	003b5b13          	srli	s6,s6,0x3
    80000bf6:	8656                	mv	a2,s5
    80000bf8:	1afd                	addi	s5,s5,-1
    80000bfa:	fe0b16e3          	bnez	s6,80000be6 <_svfprintf_r+0x6ac>
    80000bfe:	001c7593          	andi	a1,s8,1
    80000c02:	1c058f63          	beqz	a1,80000de0 <_svfprintf_r+0x8a6>
    80000c06:	03000593          	li	a1,48
    80000c0a:	1cb70b63          	beq	a4,a1,80000de0 <_svfprintf_r+0x8a6>
    80000c0e:	1679                	addi	a2,a2,-2
    80000c10:	feba8fa3          	sb	a1,-1(s5)
    80000c14:	40cb8cbb          	subw	s9,s7,a2
    80000c18:	8962                	mv	s2,s8
    80000c1a:	8ab2                	mv	s5,a2
    80000c1c:	b729                	j	80000b26 <_svfprintf_r+0x5ec>
    80000c1e:	01096913          	ori	s2,s2,16
    80000c22:	8e5e                	mv	t3,s7
    80000c24:	2901                	sext.w	s2,s2
    80000c26:	02097793          	andi	a5,s2,32
    80000c2a:	008a0713          	addi	a4,s4,8
    80000c2e:	e789                	bnez	a5,80000c38 <_svfprintf_r+0x6fe>
    80000c30:	01097793          	andi	a5,s2,16
    80000c34:	6c078d63          	beqz	a5,8000130e <_svfprintf_r+0xdd4>
    80000c38:	000a3b03          	ld	s6,0(s4)
    80000c3c:	bff97c13          	andi	s8,s2,-1025
    80000c40:	2c01                	sext.w	s8,s8
    80000c42:	8a3a                	mv	s4,a4
    80000c44:	4781                	li	a5,0
    80000c46:	bd5d                	j	80000afc <_svfprintf_r+0x5c2>
    80000c48:	0009ce83          	lbu	t4,0(s3)
    80000c4c:	06800793          	li	a5,104
    80000c50:	7efe8a63          	beq	t4,a5,80001444 <_svfprintf_r+0xf0a>
    80000c54:	04096913          	ori	s2,s2,64
    80000c58:	2901                	sext.w	s2,s2
    80000c5a:	bac1                	j	8000062a <_svfprintf_r+0xf0>
    80000c5c:	02096913          	ori	s2,s2,32
    80000c60:	0009ce83          	lbu	t4,0(s3)
    80000c64:	2901                	sext.w	s2,s2
    80000c66:	b2d1                	j	8000062a <_svfprintf_r+0xf0>
    80000c68:	77e1                	lui	a5,0xffff8
    80000c6a:	8307c793          	xori	a5,a5,-2000
    80000c6e:	00296c13          	ori	s8,s2,2
    80000c72:	0cf11823          	sh	a5,208(sp)
    80000c76:	0000b797          	auipc	a5,0xb
    80000c7a:	4ba78793          	addi	a5,a5,1210 # 8000c130 <__malloc_trim_threshold+0xb0>
    80000c7e:	000a3b03          	ld	s6,0(s4)
    80000c82:	ecbe                	sd	a5,88(sp)
    80000c84:	8e5e                	mv	t3,s7
    80000c86:	2c01                	sext.w	s8,s8
    80000c88:	0a21                	addi	s4,s4,8
    80000c8a:	4789                	li	a5,2
    80000c8c:	07800e93          	li	t4,120
    80000c90:	b5b5                	j	80000afc <_svfprintf_r+0x5c2>
    80000c92:	02097793          	andi	a5,s2,32
    80000c96:	000a3703          	ld	a4,0(s4)
    80000c9a:	e785                	bnez	a5,80000cc2 <_svfprintf_r+0x788>
    80000c9c:	01097793          	andi	a5,s2,16
    80000ca0:	e38d                	bnez	a5,80000cc2 <_svfprintf_r+0x788>
    80000ca2:	04097793          	andi	a5,s2,64
    80000ca6:	4e0793e3          	bnez	a5,8000198c <_svfprintf_r+0x1452>
    80000caa:	20097913          	andi	s2,s2,512
    80000cae:	67e2                	ld	a5,24(sp)
    80000cb0:	00091463          	bnez	s2,80000cb8 <_svfprintf_r+0x77e>
    80000cb4:	3180106f          	j	80001fcc <_svfprintf_r+0x1a92>
    80000cb8:	00f70023          	sb	a5,0(a4)
    80000cbc:	0a21                	addi	s4,s4,8
    80000cbe:	8ace                	mv	s5,s3
    80000cc0:	b4c1                	j	80000780 <_svfprintf_r+0x246>
    80000cc2:	67e2                	ld	a5,24(sp)
    80000cc4:	0a21                	addi	s4,s4,8
    80000cc6:	e31c                	sd	a5,0(a4)
    80000cc8:	bfdd                	j	80000cbe <_svfprintf_r+0x784>
    80000cca:	0009ce83          	lbu	t4,0(s3)
    80000cce:	06c00793          	li	a5,108
    80000cd2:	76fe8163          	beq	t4,a5,80001434 <_svfprintf_r+0xefa>
    80000cd6:	01096913          	ori	s2,s2,16
    80000cda:	2901                	sext.w	s2,s2
    80000cdc:	b2b9                	j	8000062a <_svfprintf_r+0xf0>
    80000cde:	06500693          	li	a3,101
    80000ce2:	c1d6d0e3          	bge	a3,t4,800008e2 <_svfprintf_r+0x3a8>
    80000ce6:	754e                	ld	a0,240(sp)
    80000ce8:	75ee                	ld	a1,248(sp)
    80000cea:	4601                	li	a2,0
    80000cec:	4681                	li	a3,0
    80000cee:	415080ef          	jal	ra,80009902 <__eqtf2>
    80000cf2:	3a051a63          	bnez	a0,800010a6 <_svfprintf_r+0xb6c>
    80000cf6:	10812783          	lw	a5,264(sp)
    80000cfa:	0000b697          	auipc	a3,0xb
    80000cfe:	45668693          	addi	a3,a3,1110 # 8000c150 <__malloc_trim_threshold+0xd0>
    80000d02:	e014                	sd	a3,0(s0)
    80000d04:	2785                	addiw	a5,a5,1
    80000d06:	4685                	li	a3,1
    80000d08:	0d05                	addi	s10,s10,1
    80000d0a:	e414                	sd	a3,8(s0)
    80000d0c:	10f12423          	sw	a5,264(sp)
    80000d10:	0007869b          	sext.w	a3,a5
    80000d14:	ea6a                	sd	s10,272(sp)
    80000d16:	479d                	li	a5,7
    80000d18:	0441                	addi	s0,s0,16
    80000d1a:	1ed7c2e3          	blt	a5,a3,800016fe <_svfprintf_r+0x11c4>
    80000d1e:	47ee                	lw	a5,216(sp)
    80000d20:	7742                	ld	a4,48(sp)
    80000d22:	5ae7dc63          	bge	a5,a4,800012da <_svfprintf_r+0xda0>
    80000d26:	10812783          	lw	a5,264(sp)
    80000d2a:	6726                	ld	a4,72(sp)
    80000d2c:	66c6                	ld	a3,80(sp)
    80000d2e:	0441                	addi	s0,s0,16
    80000d30:	01a70633          	add	a2,a4,s10
    80000d34:	fed43823          	sd	a3,-16(s0)
    80000d38:	0017869b          	addiw	a3,a5,1
    80000d3c:	fee43c23          	sd	a4,-8(s0)
    80000d40:	ea32                	sd	a2,272(sp)
    80000d42:	10d12423          	sw	a3,264(sp)
    80000d46:	479d                	li	a5,7
    80000d48:	6cd7cc63          	blt	a5,a3,80001420 <_svfprintf_r+0xee6>
    80000d4c:	77c2                	ld	a5,48(sp)
    80000d4e:	fff78c1b          	addiw	s8,a5,-1
    80000d52:	9f805ce3          	blez	s8,8000074a <_svfprintf_r+0x210>
    80000d56:	46c1                	li	a3,16
    80000d58:	10812783          	lw	a5,264(sp)
    80000d5c:	0000bd17          	auipc	s10,0xb
    80000d60:	5fcd0d13          	addi	s10,s10,1532 # 8000c358 <zeroes.0>
    80000d64:	1b86dde3          	bge	a3,s8,8000171e <_svfprintf_r+0x11e4>
    80000d68:	876a                	mv	a4,s10
    80000d6a:	6b22                	ld	s6,8(sp)
    80000d6c:	8d62                	mv	s10,s8
    80000d6e:	4cc1                	li	s9,16
    80000d70:	8c52                	mv	s8,s4
    80000d72:	4a9d                	li	s5,7
    80000d74:	8a26                	mv	s4,s1
    80000d76:	84ba                	mv	s1,a4
    80000d78:	a021                	j	80000d80 <_svfprintf_r+0x846>
    80000d7a:	3d41                	addiw	s10,s10,-16
    80000d7c:	19acdce3          	bge	s9,s10,80001714 <_svfprintf_r+0x11da>
    80000d80:	2785                	addiw	a5,a5,1
    80000d82:	0641                	addi	a2,a2,16
    80000d84:	e004                	sd	s1,0(s0)
    80000d86:	01943423          	sd	s9,8(s0)
    80000d8a:	ea32                	sd	a2,272(sp)
    80000d8c:	10f12423          	sw	a5,264(sp)
    80000d90:	0441                	addi	s0,s0,16
    80000d92:	fefad4e3          	bge	s5,a5,80000d7a <_svfprintf_r+0x840>
    80000d96:	65c2                	ld	a1,16(sp)
    80000d98:	0210                	addi	a2,sp,256
    80000d9a:	855a                	mv	a0,s6
    80000d9c:	7e5040ef          	jal	ra,80005d80 <__ssprint_r>
    80000da0:	18051263          	bnez	a0,80000f24 <_svfprintf_r+0x9ea>
    80000da4:	6652                	ld	a2,272(sp)
    80000da6:	10812783          	lw	a5,264(sp)
    80000daa:	0300                	addi	s0,sp,384
    80000dac:	b7f9                	j	80000d7a <_svfprintf_r+0x840>
    80000dae:	4705                	li	a4,1
    80000db0:	00e79463          	bne	a5,a4,80000db8 <_svfprintf_r+0x87e>
    80000db4:	0fa0106f          	j	80001eae <_svfprintf_r+0x1974>
    80000db8:	4709                	li	a4,2
    80000dba:	8c4a                	mv	s8,s2
    80000dbc:	e2e792e3          	bne	a5,a4,80000be0 <_svfprintf_r+0x6a6>
    80000dc0:	6766                	ld	a4,88(sp)
    80000dc2:	17c10b93          	addi	s7,sp,380
    80000dc6:	8ade                	mv	s5,s7
    80000dc8:	00fb7793          	andi	a5,s6,15
    80000dcc:	97ba                	add	a5,a5,a4
    80000dce:	0007c783          	lbu	a5,0(a5)
    80000dd2:	004b5b13          	srli	s6,s6,0x4
    80000dd6:	1afd                	addi	s5,s5,-1
    80000dd8:	00fa8023          	sb	a5,0(s5)
    80000ddc:	fe0b16e3          	bnez	s6,80000dc8 <_svfprintf_r+0x88e>
    80000de0:	415b8cbb          	subw	s9,s7,s5
    80000de4:	8962                	mv	s2,s8
    80000de6:	b381                	j	80000b26 <_svfprintf_r+0x5ec>
    80000de8:	41748b3b          	subw	s6,s1,s7
    80000dec:	936056e3          	blez	s6,80000718 <_svfprintf_r+0x1de>
    80000df0:	4541                	li	a0,16
    80000df2:	85ea                	mv	a1,s10
    80000df4:	10812603          	lw	a2,264(sp)
    80000df8:	0000bd17          	auipc	s10,0xb
    80000dfc:	560d0d13          	addi	s10,s10,1376 # 8000c358 <zeroes.0>
    80000e00:	07655363          	bge	a0,s6,80000e66 <_svfprintf_r+0x92c>
    80000e04:	876a                	mv	a4,s10
    80000e06:	87a2                	mv	a5,s0
    80000e08:	8d52                	mv	s10,s4
    80000e0a:	845a                	mv	s0,s6
    80000e0c:	8a26                	mv	s4,s1
    80000e0e:	8b56                	mv	s6,s5
    80000e10:	48c1                	li	a7,16
    80000e12:	4c1d                	li	s8,7
    80000e14:	e176                	sd	t4,128(sp)
    80000e16:	8af2                	mv	s5,t3
    80000e18:	84ba                	mv	s1,a4
    80000e1a:	a021                	j	80000e22 <_svfprintf_r+0x8e8>
    80000e1c:	3441                	addiw	s0,s0,-16
    80000e1e:	0288db63          	bge	a7,s0,80000e54 <_svfprintf_r+0x91a>
    80000e22:	2605                	addiw	a2,a2,1
    80000e24:	05c1                	addi	a1,a1,16
    80000e26:	e384                	sd	s1,0(a5)
    80000e28:	0117b423          	sd	a7,8(a5)
    80000e2c:	ea2e                	sd	a1,272(sp)
    80000e2e:	10c12423          	sw	a2,264(sp)
    80000e32:	07c1                	addi	a5,a5,16
    80000e34:	fecc54e3          	bge	s8,a2,80000e1c <_svfprintf_r+0x8e2>
    80000e38:	65c2                	ld	a1,16(sp)
    80000e3a:	6522                	ld	a0,8(sp)
    80000e3c:	0210                	addi	a2,sp,256
    80000e3e:	743040ef          	jal	ra,80005d80 <__ssprint_r>
    80000e42:	e16d                	bnez	a0,80000f24 <_svfprintf_r+0x9ea>
    80000e44:	48c1                	li	a7,16
    80000e46:	3441                	addiw	s0,s0,-16
    80000e48:	65d2                	ld	a1,272(sp)
    80000e4a:	10812603          	lw	a2,264(sp)
    80000e4e:	031c                	addi	a5,sp,384
    80000e50:	fc88c9e3          	blt	a7,s0,80000e22 <_svfprintf_r+0x8e8>
    80000e54:	6e8a                	ld	t4,128(sp)
    80000e56:	8e56                	mv	t3,s5
    80000e58:	8ada                	mv	s5,s6
    80000e5a:	8b22                	mv	s6,s0
    80000e5c:	843e                	mv	s0,a5
    80000e5e:	87a6                	mv	a5,s1
    80000e60:	84d2                	mv	s1,s4
    80000e62:	8a6a                	mv	s4,s10
    80000e64:	8d3e                	mv	s10,a5
    80000e66:	0016051b          	addiw	a0,a2,1
    80000e6a:	95da                	add	a1,a1,s6
    80000e6c:	01a43023          	sd	s10,0(s0)
    80000e70:	01643423          	sd	s6,8(s0)
    80000e74:	ea2e                	sd	a1,272(sp)
    80000e76:	10a12423          	sw	a0,264(sp)
    80000e7a:	461d                	li	a2,7
    80000e7c:	0ea642e3          	blt	a2,a0,80001760 <_svfprintf_r+0x1226>
    80000e80:	419e0b3b          	subw	s6,t3,s9
    80000e84:	0441                	addi	s0,s0,16
    80000e86:	8d2e                	mv	s10,a1
    80000e88:	89605ce3          	blez	s6,80000720 <_svfprintf_r+0x1e6>
    80000e8c:	85ea                	mv	a1,s10
    80000e8e:	10812603          	lw	a2,264(sp)
    80000e92:	0000bd17          	auipc	s10,0xb
    80000e96:	4c6d0d13          	addi	s10,s10,1222 # 8000c358 <zeroes.0>
    80000e9a:	056ddd63          	bge	s11,s6,80000ef4 <_svfprintf_r+0x9ba>
    80000e9e:	87a2                	mv	a5,s0
    80000ea0:	4c1d                	li	s8,7
    80000ea2:	845a                	mv	s0,s6
    80000ea4:	8b52                	mv	s6,s4
    80000ea6:	8a26                	mv	s4,s1
    80000ea8:	84f6                	mv	s1,t4
    80000eaa:	a021                	j	80000eb2 <_svfprintf_r+0x978>
    80000eac:	3441                	addiw	s0,s0,-16
    80000eae:	028dde63          	bge	s11,s0,80000eea <_svfprintf_r+0x9b0>
    80000eb2:	2605                	addiw	a2,a2,1
    80000eb4:	05c1                	addi	a1,a1,16
    80000eb6:	0000b697          	auipc	a3,0xb
    80000eba:	4a268693          	addi	a3,a3,1186 # 8000c358 <zeroes.0>
    80000ebe:	e394                	sd	a3,0(a5)
    80000ec0:	01b7b423          	sd	s11,8(a5)
    80000ec4:	ea2e                	sd	a1,272(sp)
    80000ec6:	10c12423          	sw	a2,264(sp)
    80000eca:	07c1                	addi	a5,a5,16
    80000ecc:	fecc50e3          	bge	s8,a2,80000eac <_svfprintf_r+0x972>
    80000ed0:	65c2                	ld	a1,16(sp)
    80000ed2:	6522                	ld	a0,8(sp)
    80000ed4:	0210                	addi	a2,sp,256
    80000ed6:	6ab040ef          	jal	ra,80005d80 <__ssprint_r>
    80000eda:	e529                	bnez	a0,80000f24 <_svfprintf_r+0x9ea>
    80000edc:	3441                	addiw	s0,s0,-16
    80000ede:	65d2                	ld	a1,272(sp)
    80000ee0:	10812603          	lw	a2,264(sp)
    80000ee4:	031c                	addi	a5,sp,384
    80000ee6:	fc8dc6e3          	blt	s11,s0,80000eb2 <_svfprintf_r+0x978>
    80000eea:	8ea6                	mv	t4,s1
    80000eec:	84d2                	mv	s1,s4
    80000eee:	8a5a                	mv	s4,s6
    80000ef0:	8b22                	mv	s6,s0
    80000ef2:	843e                	mv	s0,a5
    80000ef4:	0016051b          	addiw	a0,a2,1
    80000ef8:	95da                	add	a1,a1,s6
    80000efa:	01a43023          	sd	s10,0(s0)
    80000efe:	01643423          	sd	s6,8(s0)
    80000f02:	ea2e                	sd	a1,272(sp)
    80000f04:	10a12423          	sw	a0,264(sp)
    80000f08:	461d                	li	a2,7
    80000f0a:	36a64b63          	blt	a2,a0,80001280 <_svfprintf_r+0xd46>
    80000f0e:	0441                	addi	s0,s0,16
    80000f10:	8d2e                	mv	s10,a1
    80000f12:	80fff06f          	j	80000720 <_svfprintf_r+0x1e6>
    80000f16:	65c2                	ld	a1,16(sp)
    80000f18:	6522                	ld	a0,8(sp)
    80000f1a:	0210                	addi	a2,sp,256
    80000f1c:	665040ef          	jal	ra,80005d80 <__ssprint_r>
    80000f20:	840506e3          	beqz	a0,8000076c <_svfprintf_r+0x232>
    80000f24:	7582                	ld	a1,32(sp)
    80000f26:	860585e3          	beqz	a1,80000790 <_svfprintf_r+0x256>
    80000f2a:	6522                	ld	a0,8(sp)
    80000f2c:	2d2010ef          	jal	ra,800021fe <_free_r>
    80000f30:	b085                	j	80000790 <_svfprintf_r+0x256>
    80000f32:	4705                	li	a4,1
    80000f34:	8c4a                	mv	s8,s2
    80000f36:	cae792e3          	bne	a5,a4,80000bda <_svfprintf_r+0x6a0>
    80000f3a:	47a5                	li	a5,9
    80000f3c:	4167ea63          	bltu	a5,s6,80001350 <_svfprintf_r+0xe16>
    80000f40:	030b0b1b          	addiw	s6,s6,48
    80000f44:	17610da3          	sb	s6,379(sp)
    80000f48:	8962                	mv	s2,s8
    80000f4a:	4c85                	li	s9,1
    80000f4c:	17b10a93          	addi	s5,sp,379
    80000f50:	bed9                	j	80000b26 <_svfprintf_r+0x5ec>
    80000f52:	4541                	li	a0,16
    80000f54:	65d2                	ld	a1,272(sp)
    80000f56:	10812603          	lw	a2,264(sp)
    80000f5a:	0000bb17          	auipc	s6,0xb
    80000f5e:	40eb0b13          	addi	s6,s6,1038 # 8000c368 <blanks.1>
    80000f62:	07a55463          	bge	a0,s10,80000fca <_svfprintf_r+0xa90>
    80000f66:	87a2                	mv	a5,s0
    80000f68:	4841                	li	a6,16
    80000f6a:	846a                	mv	s0,s10
    80000f6c:	439d                	li	t2,7
    80000f6e:	8d52                	mv	s10,s4
    80000f70:	e116                	sd	t0,128(sp)
    80000f72:	8a26                	mv	s4,s1
    80000f74:	e576                	sd	t4,136(sp)
    80000f76:	84da                	mv	s1,s6
    80000f78:	8b56                	mv	s6,s5
    80000f7a:	8af2                	mv	s5,t3
    80000f7c:	a021                	j	80000f84 <_svfprintf_r+0xa4a>
    80000f7e:	3441                	addiw	s0,s0,-16
    80000f80:	02885c63          	bge	a6,s0,80000fb8 <_svfprintf_r+0xa7e>
    80000f84:	2605                	addiw	a2,a2,1
    80000f86:	05c1                	addi	a1,a1,16
    80000f88:	e384                	sd	s1,0(a5)
    80000f8a:	0107b423          	sd	a6,8(a5)
    80000f8e:	ea2e                	sd	a1,272(sp)
    80000f90:	10c12423          	sw	a2,264(sp)
    80000f94:	07c1                	addi	a5,a5,16
    80000f96:	fec3d4e3          	bge	t2,a2,80000f7e <_svfprintf_r+0xa44>
    80000f9a:	65c2                	ld	a1,16(sp)
    80000f9c:	6522                	ld	a0,8(sp)
    80000f9e:	0210                	addi	a2,sp,256
    80000fa0:	5e1040ef          	jal	ra,80005d80 <__ssprint_r>
    80000fa4:	f141                	bnez	a0,80000f24 <_svfprintf_r+0x9ea>
    80000fa6:	4841                	li	a6,16
    80000fa8:	3441                	addiw	s0,s0,-16
    80000faa:	65d2                	ld	a1,272(sp)
    80000fac:	10812603          	lw	a2,264(sp)
    80000fb0:	031c                	addi	a5,sp,384
    80000fb2:	439d                	li	t2,7
    80000fb4:	fc8848e3          	blt	a6,s0,80000f84 <_svfprintf_r+0xa4a>
    80000fb8:	628a                	ld	t0,128(sp)
    80000fba:	6eaa                	ld	t4,136(sp)
    80000fbc:	8e56                	mv	t3,s5
    80000fbe:	8ada                	mv	s5,s6
    80000fc0:	8b26                	mv	s6,s1
    80000fc2:	84d2                	mv	s1,s4
    80000fc4:	8a6a                	mv	s4,s10
    80000fc6:	8d22                	mv	s10,s0
    80000fc8:	843e                	mv	s0,a5
    80000fca:	2605                	addiw	a2,a2,1
    80000fcc:	95ea                	add	a1,a1,s10
    80000fce:	01643023          	sd	s6,0(s0)
    80000fd2:	01a43423          	sd	s10,8(s0)
    80000fd6:	ea2e                	sd	a1,272(sp)
    80000fd8:	10c12423          	sw	a2,264(sp)
    80000fdc:	0006059b          	sext.w	a1,a2
    80000fe0:	461d                	li	a2,7
    80000fe2:	0441                	addi	s0,s0,16
    80000fe4:	ecb65d63          	bge	a2,a1,800006be <_svfprintf_r+0x184>
    80000fe8:	65c2                	ld	a1,16(sp)
    80000fea:	6522                	ld	a0,8(sp)
    80000fec:	0210                	addi	a2,sp,256
    80000fee:	e972                	sd	t3,144(sp)
    80000ff0:	e576                	sd	t4,136(sp)
    80000ff2:	e116                	sd	t0,128(sp)
    80000ff4:	58d040ef          	jal	ra,80005d80 <__ssprint_r>
    80000ff8:	f515                	bnez	a0,80000f24 <_svfprintf_r+0x9ea>
    80000ffa:	6e4a                	ld	t3,144(sp)
    80000ffc:	6eaa                	ld	t4,136(sp)
    80000ffe:	628a                	ld	t0,128(sp)
    80001000:	0300                	addi	s0,sp,384
    80001002:	ebcff06f          	j	800006be <_svfprintf_r+0x184>
    80001006:	65c2                	ld	a1,16(sp)
    80001008:	6522                	ld	a0,8(sp)
    8000100a:	0210                	addi	a2,sp,256
    8000100c:	e572                	sd	t3,136(sp)
    8000100e:	e176                	sd	t4,128(sp)
    80001010:	571040ef          	jal	ra,80005d80 <__ssprint_r>
    80001014:	f901                	bnez	a0,80000f24 <_svfprintf_r+0x9ea>
    80001016:	6d52                	ld	s10,272(sp)
    80001018:	6e2a                	ld	t3,136(sp)
    8000101a:	6e8a                	ld	t4,128(sp)
    8000101c:	0300                	addi	s0,sp,384
    8000101e:	ef2ff06f          	j	80000710 <_svfprintf_r+0x1d6>
    80001022:	46c1                	li	a3,16
    80001024:	10812783          	lw	a5,264(sp)
    80001028:	0000bb17          	auipc	s6,0xb
    8000102c:	340b0b13          	addi	s6,s6,832 # 8000c368 <blanks.1>
    80001030:	0526d463          	bge	a3,s2,80001078 <_svfprintf_r+0xb3e>
    80001034:	6aa2                	ld	s5,8(sp)
    80001036:	6d42                	ld	s10,16(sp)
    80001038:	4c41                	li	s8,16
    8000103a:	4c9d                	li	s9,7
    8000103c:	a021                	j	80001044 <_svfprintf_r+0xb0a>
    8000103e:	3941                	addiw	s2,s2,-16
    80001040:	032c5c63          	bge	s8,s2,80001078 <_svfprintf_r+0xb3e>
    80001044:	2785                	addiw	a5,a5,1
    80001046:	0641                	addi	a2,a2,16
    80001048:	01643023          	sd	s6,0(s0)
    8000104c:	01843423          	sd	s8,8(s0)
    80001050:	ea32                	sd	a2,272(sp)
    80001052:	10f12423          	sw	a5,264(sp)
    80001056:	0441                	addi	s0,s0,16
    80001058:	fefcd3e3          	bge	s9,a5,8000103e <_svfprintf_r+0xb04>
    8000105c:	0210                	addi	a2,sp,256
    8000105e:	85ea                	mv	a1,s10
    80001060:	8556                	mv	a0,s5
    80001062:	51f040ef          	jal	ra,80005d80 <__ssprint_r>
    80001066:	ea051fe3          	bnez	a0,80000f24 <_svfprintf_r+0x9ea>
    8000106a:	3941                	addiw	s2,s2,-16
    8000106c:	6652                	ld	a2,272(sp)
    8000106e:	10812783          	lw	a5,264(sp)
    80001072:	0300                	addi	s0,sp,384
    80001074:	fd2c48e3          	blt	s8,s2,80001044 <_svfprintf_r+0xb0a>
    80001078:	0017869b          	addiw	a3,a5,1
    8000107c:	964a                	add	a2,a2,s2
    8000107e:	01643023          	sd	s6,0(s0)
    80001082:	01243423          	sd	s2,8(s0)
    80001086:	ea32                	sd	a2,272(sp)
    80001088:	10d12423          	sw	a3,264(sp)
    8000108c:	479d                	li	a5,7
    8000108e:	ecd7d663          	bge	a5,a3,8000075a <_svfprintf_r+0x220>
    80001092:	65c2                	ld	a1,16(sp)
    80001094:	6522                	ld	a0,8(sp)
    80001096:	0210                	addi	a2,sp,256
    80001098:	4e9040ef          	jal	ra,80005d80 <__ssprint_r>
    8000109c:	e80514e3          	bnez	a0,80000f24 <_svfprintf_r+0x9ea>
    800010a0:	6652                	ld	a2,272(sp)
    800010a2:	eb8ff06f          	j	8000075a <_svfprintf_r+0x220>
    800010a6:	456e                	lw	a0,216(sp)
    800010a8:	5ca05263          	blez	a0,8000166c <_svfprintf_r+0x1132>
    800010ac:	77c2                	ld	a5,48(sp)
    800010ae:	7722                	ld	a4,40(sp)
    800010b0:	00fa8c33          	add	s8,s5,a5
    800010b4:	86be                	mv	a3,a5
    800010b6:	28f74363          	blt	a4,a5,8000133c <_svfprintf_r+0xe02>
    800010ba:	00068b1b          	sext.w	s6,a3
    800010be:	03605263          	blez	s6,800010e2 <_svfprintf_r+0xba8>
    800010c2:	10812603          	lw	a2,264(sp)
    800010c6:	9d5a                	add	s10,s10,s6
    800010c8:	01543023          	sd	s5,0(s0)
    800010cc:	0016059b          	addiw	a1,a2,1
    800010d0:	01643423          	sd	s6,8(s0)
    800010d4:	ea6a                	sd	s10,272(sp)
    800010d6:	10b12423          	sw	a1,264(sp)
    800010da:	461d                	li	a2,7
    800010dc:	0441                	addi	s0,s0,16
    800010de:	06b64de3          	blt	a2,a1,80001958 <_svfprintf_r+0x141e>
    800010e2:	fffb4613          	not	a2,s6
    800010e6:	77a2                	ld	a5,40(sp)
    800010e8:	967d                	srai	a2,a2,0x3f
    800010ea:	00cb76b3          	and	a3,s6,a2
    800010ee:	40d78b3b          	subw	s6,a5,a3
    800010f2:	39604163          	bgtz	s6,80001474 <_svfprintf_r+0xf3a>
    800010f6:	77a2                	ld	a5,40(sp)
    800010f8:	40097693          	andi	a3,s2,1024
    800010fc:	9abe                	add	s5,s5,a5
    800010fe:	40069363          	bnez	a3,80001504 <_svfprintf_r+0xfca>
    80001102:	46ee                	lw	a3,216(sp)
    80001104:	77c2                	ld	a5,48(sp)
    80001106:	00f6c663          	blt	a3,a5,80001112 <_svfprintf_r+0xbd8>
    8000110a:	00197613          	andi	a2,s2,1
    8000110e:	060602e3          	beqz	a2,80001972 <_svfprintf_r+0x1438>
    80001112:	10812583          	lw	a1,264(sp)
    80001116:	67a6                	ld	a5,72(sp)
    80001118:	6746                	ld	a4,80(sp)
    8000111a:	0015851b          	addiw	a0,a1,1
    8000111e:	01a78633          	add	a2,a5,s10
    80001122:	e018                	sd	a4,0(s0)
    80001124:	e41c                	sd	a5,8(s0)
    80001126:	ea32                	sd	a2,272(sp)
    80001128:	10a12423          	sw	a0,264(sp)
    8000112c:	459d                	li	a1,7
    8000112e:	0441                	addi	s0,s0,16
    80001130:	4ea5c5e3          	blt	a1,a0,80001e1a <_svfprintf_r+0x18e0>
    80001134:	77c2                	ld	a5,48(sp)
    80001136:	415c0c33          	sub	s8,s8,s5
    8000113a:	000c051b          	sext.w	a0,s8
    8000113e:	40d785bb          	subw	a1,a5,a3
    80001142:	00a5d363          	bge	a1,a0,80001148 <_svfprintf_r+0xc0e>
    80001146:	8c2e                	mv	s8,a1
    80001148:	2c01                	sext.w	s8,s8
    8000114a:	03805163          	blez	s8,8000116c <_svfprintf_r+0xc32>
    8000114e:	10812683          	lw	a3,264(sp)
    80001152:	9662                	add	a2,a2,s8
    80001154:	01543023          	sd	s5,0(s0)
    80001158:	2685                	addiw	a3,a3,1
    8000115a:	01843423          	sd	s8,8(s0)
    8000115e:	ea32                	sd	a2,272(sp)
    80001160:	10d12423          	sw	a3,264(sp)
    80001164:	479d                	li	a5,7
    80001166:	0441                	addi	s0,s0,16
    80001168:	52d7c3e3          	blt	a5,a3,80001e8e <_svfprintf_r+0x1954>
    8000116c:	fffc4793          	not	a5,s8
    80001170:	97fd                	srai	a5,a5,0x3f
    80001172:	00fc7c33          	and	s8,s8,a5
    80001176:	41858c3b          	subw	s8,a1,s8
    8000117a:	dd805863          	blez	s8,8000074a <_svfprintf_r+0x210>
    8000117e:	46c1                	li	a3,16
    80001180:	10812783          	lw	a5,264(sp)
    80001184:	0000bd17          	auipc	s10,0xb
    80001188:	1d4d0d13          	addi	s10,s10,468 # 8000c358 <zeroes.0>
    8000118c:	5986d963          	bge	a3,s8,8000171e <_svfprintf_r+0x11e4>
    80001190:	876a                	mv	a4,s10
    80001192:	6b22                	ld	s6,8(sp)
    80001194:	8d62                	mv	s10,s8
    80001196:	4cc1                	li	s9,16
    80001198:	8c52                	mv	s8,s4
    8000119a:	4a9d                	li	s5,7
    8000119c:	8a26                	mv	s4,s1
    8000119e:	84ba                	mv	s1,a4
    800011a0:	a021                	j	800011a8 <_svfprintf_r+0xc6e>
    800011a2:	3d41                	addiw	s10,s10,-16
    800011a4:	57acd863          	bge	s9,s10,80001714 <_svfprintf_r+0x11da>
    800011a8:	2785                	addiw	a5,a5,1
    800011aa:	0641                	addi	a2,a2,16
    800011ac:	e004                	sd	s1,0(s0)
    800011ae:	01943423          	sd	s9,8(s0)
    800011b2:	ea32                	sd	a2,272(sp)
    800011b4:	10f12423          	sw	a5,264(sp)
    800011b8:	0441                	addi	s0,s0,16
    800011ba:	fefad4e3          	bge	s5,a5,800011a2 <_svfprintf_r+0xc68>
    800011be:	65c2                	ld	a1,16(sp)
    800011c0:	0210                	addi	a2,sp,256
    800011c2:	855a                	mv	a0,s6
    800011c4:	3bd040ef          	jal	ra,80005d80 <__ssprint_r>
    800011c8:	d4051ee3          	bnez	a0,80000f24 <_svfprintf_r+0x9ea>
    800011cc:	6652                	ld	a2,272(sp)
    800011ce:	10812783          	lw	a5,264(sp)
    800011d2:	0300                	addi	s0,sp,384
    800011d4:	b7f9                	j	800011a2 <_svfprintf_r+0xc68>
    800011d6:	00197613          	andi	a2,s2,1
    800011da:	f0061a63          	bnez	a2,800008ee <_svfprintf_r+0x3b4>
    800011de:	10812603          	lw	a2,264(sp)
    800011e2:	001d0c93          	addi	s9,s10,1
    800011e6:	01543023          	sd	s5,0(s0)
    800011ea:	0016079b          	addiw	a5,a2,1
    800011ee:	e414                	sd	a3,8(s0)
    800011f0:	10f12423          	sw	a5,264(sp)
    800011f4:	0007841b          	sext.w	s0,a5
    800011f8:	ea66                	sd	s9,272(sp)
    800011fa:	479d                	li	a5,7
    800011fc:	f687d463          	bge	a5,s0,80000964 <_svfprintf_r+0x42a>
    80001200:	65c2                	ld	a1,16(sp)
    80001202:	6522                	ld	a0,8(sp)
    80001204:	0210                	addi	a2,sp,256
    80001206:	37b040ef          	jal	ra,80005d80 <__ssprint_r>
    8000120a:	d0051de3          	bnez	a0,80000f24 <_svfprintf_r+0x9ea>
    8000120e:	6cd2                	ld	s9,272(sp)
    80001210:	10812403          	lw	s0,264(sp)
    80001214:	18010c13          	addi	s8,sp,384
    80001218:	f4cff06f          	j	80000964 <_svfprintf_r+0x42a>
    8000121c:	7742                	ld	a4,48(sp)
    8000121e:	4785                	li	a5,1
    80001220:	f4e7d263          	bge	a5,a4,80000964 <_svfprintf_r+0x42a>
    80001224:	47c5                	li	a5,17
    80001226:	0000bd17          	auipc	s10,0xb
    8000122a:	132d0d13          	addi	s10,s10,306 # 8000c358 <zeroes.0>
    8000122e:	5ae7dd63          	bge	a5,a4,800017e8 <_svfprintf_r+0x12ae>
    80001232:	875a                	mv	a4,s6
    80001234:	87ea                	mv	a5,s10
    80001236:	8b26                	mv	s6,s1
    80001238:	8d52                	mv	s10,s4
    8000123a:	4841                	li	a6,16
    8000123c:	8a4a                	mv	s4,s2
    8000123e:	4a9d                	li	s5,7
    80001240:	893e                	mv	s2,a5
    80001242:	84ba                	mv	s1,a4
    80001244:	a021                	j	8000124c <_svfprintf_r+0xd12>
    80001246:	34c1                	addiw	s1,s1,-16
    80001248:	58985963          	bge	a6,s1,800017da <_svfprintf_r+0x12a0>
    8000124c:	2405                	addiw	s0,s0,1
    8000124e:	0cc1                	addi	s9,s9,16
    80001250:	012c3023          	sd	s2,0(s8)
    80001254:	010c3423          	sd	a6,8(s8)
    80001258:	ea66                	sd	s9,272(sp)
    8000125a:	10812423          	sw	s0,264(sp)
    8000125e:	0c41                	addi	s8,s8,16
    80001260:	fe8ad3e3          	bge	s5,s0,80001246 <_svfprintf_r+0xd0c>
    80001264:	65c2                	ld	a1,16(sp)
    80001266:	6522                	ld	a0,8(sp)
    80001268:	0210                	addi	a2,sp,256
    8000126a:	317040ef          	jal	ra,80005d80 <__ssprint_r>
    8000126e:	ca051be3          	bnez	a0,80000f24 <_svfprintf_r+0x9ea>
    80001272:	6cd2                	ld	s9,272(sp)
    80001274:	10812403          	lw	s0,264(sp)
    80001278:	18010c13          	addi	s8,sp,384
    8000127c:	4841                	li	a6,16
    8000127e:	b7e1                	j	80001246 <_svfprintf_r+0xd0c>
    80001280:	65c2                	ld	a1,16(sp)
    80001282:	6522                	ld	a0,8(sp)
    80001284:	0210                	addi	a2,sp,256
    80001286:	e176                	sd	t4,128(sp)
    80001288:	2f9040ef          	jal	ra,80005d80 <__ssprint_r>
    8000128c:	c8051ce3          	bnez	a0,80000f24 <_svfprintf_r+0x9ea>
    80001290:	6d52                	ld	s10,272(sp)
    80001292:	6e8a                	ld	t4,128(sp)
    80001294:	0300                	addi	s0,sp,384
    80001296:	c8aff06f          	j	80000720 <_svfprintf_r+0x1e6>
    8000129a:	4c81                	li	s9,0
    8000129c:	17c10a93          	addi	s5,sp,380
    800012a0:	b059                	j	80000b26 <_svfprintf_r+0x5ec>
    800012a2:	65c2                	ld	a1,16(sp)
    800012a4:	6522                	ld	a0,8(sp)
    800012a6:	0210                	addi	a2,sp,256
    800012a8:	2d9040ef          	jal	ra,80005d80 <__ssprint_r>
    800012ac:	c6051ce3          	bnez	a0,80000f24 <_svfprintf_r+0x9ea>
    800012b0:	6d52                	ld	s10,272(sp)
    800012b2:	10812683          	lw	a3,264(sp)
    800012b6:	18010c13          	addi	s8,sp,384
    800012ba:	e54ff06f          	j	8000090e <_svfprintf_r+0x3d4>
    800012be:	65c2                	ld	a1,16(sp)
    800012c0:	6522                	ld	a0,8(sp)
    800012c2:	0210                	addi	a2,sp,256
    800012c4:	2bd040ef          	jal	ra,80005d80 <__ssprint_r>
    800012c8:	c4051ee3          	bnez	a0,80000f24 <_svfprintf_r+0x9ea>
    800012cc:	6cd2                	ld	s9,272(sp)
    800012ce:	10812403          	lw	s0,264(sp)
    800012d2:	18010c13          	addi	s8,sp,384
    800012d6:	e5aff06f          	j	80000930 <_svfprintf_r+0x3f6>
    800012da:	00197793          	andi	a5,s2,1
    800012de:	866a                	mv	a2,s10
    800012e0:	c6078563          	beqz	a5,8000074a <_svfprintf_r+0x210>
    800012e4:	b489                	j	80000d26 <_svfprintf_r+0x7ec>
    800012e6:	8e5e                	mv	t3,s7
    800012e8:	b8ad                	j	80000b62 <_svfprintf_r+0x628>
    800012ea:	03000793          	li	a5,48
    800012ee:	16f10da3          	sb	a5,379(sp)
    800012f2:	17b10a93          	addi	s5,sp,379
    800012f6:	831ff06f          	j	80000b26 <_svfprintf_r+0x5ec>
    800012fa:	0a3d                	addi	s4,s4,15
    800012fc:	ff0a7a13          	andi	s4,s4,-16
    80001300:	000a3703          	ld	a4,0(s4)
    80001304:	008a3583          	ld	a1,8(s4)
    80001308:	0a41                	addi	s4,s4,16
    8000130a:	d1aff06f          	j	80000824 <_svfprintf_r+0x2ea>
    8000130e:	04097793          	andi	a5,s2,64
    80001312:	000a2b03          	lw	s6,0(s4)
    80001316:	56078963          	beqz	a5,80001888 <_svfprintf_r+0x134e>
    8000131a:	1b42                	slli	s6,s6,0x30
    8000131c:	030b5b13          	srli	s6,s6,0x30
    80001320:	ba31                	j	80000c3c <_svfprintf_r+0x702>
    80001322:	0009ce83          	lbu	t4,0(s3)
    80001326:	b0078263          	beqz	a5,8000062a <_svfprintf_r+0xf0>
    8000132a:	0007c783          	lbu	a5,0(a5)
    8000132e:	ae078e63          	beqz	a5,8000062a <_svfprintf_r+0xf0>
    80001332:	40096913          	ori	s2,s2,1024
    80001336:	2901                	sext.w	s2,s2
    80001338:	af2ff06f          	j	8000062a <_svfprintf_r+0xf0>
    8000133c:	86ba                	mv	a3,a4
    8000133e:	00068b1b          	sext.w	s6,a3
    80001342:	d96040e3          	bgtz	s6,800010c2 <_svfprintf_r+0xb88>
    80001346:	bb71                	j	800010e2 <_svfprintf_r+0xba8>
    80001348:	47a5                	li	a5,9
    8000134a:	8a3a                	mv	s4,a4
    8000134c:	bf67fae3          	bgeu	a5,s6,80000f40 <_svfprintf_r+0xa06>
    80001350:	17c10b93          	addi	s7,sp,380
    80001354:	7826                	ld	a6,104(sp)
    80001356:	400c7c93          	andi	s9,s8,1024
    8000135a:	4681                	li	a3,0
    8000135c:	85de                	mv	a1,s7
    8000135e:	4929                	li	s2,10
    80001360:	4d25                	li	s10,9
    80001362:	0ff00713          	li	a4,255
    80001366:	a039                	j	80001374 <_svfprintf_r+0xe3a>
    80001368:	032b57b3          	divu	a5,s6,s2
    8000136c:	036d7763          	bgeu	s10,s6,8000139a <_svfprintf_r+0xe60>
    80001370:	8b3e                	mv	s6,a5
    80001372:	85d6                	mv	a1,s5
    80001374:	fff58a93          	addi	s5,a1,-1
    80001378:	2685                	addiw	a3,a3,1
    8000137a:	032b77b3          	remu	a5,s6,s2
    8000137e:	0307879b          	addiw	a5,a5,48
    80001382:	fef58fa3          	sb	a5,-1(a1)
    80001386:	fe0c81e3          	beqz	s9,80001368 <_svfprintf_r+0xe2e>
    8000138a:	00084783          	lbu	a5,0(a6)
    8000138e:	fcf69de3          	bne	a3,a5,80001368 <_svfprintf_r+0xe2e>
    80001392:	fce78be3          	beq	a5,a4,80001368 <_svfprintf_r+0xe2e>
    80001396:	596d6263          	bltu	s10,s6,8000191a <_svfprintf_r+0x13e0>
    8000139a:	f4c2                	sd	a6,104(sp)
    8000139c:	f836                	sd	a3,48(sp)
    8000139e:	415b8cbb          	subw	s9,s7,s5
    800013a2:	8962                	mv	s2,s8
    800013a4:	f82ff06f          	j	80000b26 <_svfprintf_r+0x5ec>
    800013a8:	0000b797          	auipc	a5,0xb
    800013ac:	d7078793          	addi	a5,a5,-656 # 8000c118 <__malloc_trim_threshold+0x98>
    800013b0:	8e5e                	mv	t3,s7
    800013b2:	ecbe                	sd	a5,88(sp)
    800013b4:	02097793          	andi	a5,s2,32
    800013b8:	008a0713          	addi	a4,s4,8
    800013bc:	28079963          	bnez	a5,8000164e <_svfprintf_r+0x1114>
    800013c0:	01097793          	andi	a5,s2,16
    800013c4:	28079563          	bnez	a5,8000164e <_svfprintf_r+0x1114>
    800013c8:	04097793          	andi	a5,s2,64
    800013cc:	000a2b03          	lw	s6,0(s4)
    800013d0:	4c078463          	beqz	a5,80001898 <_svfprintf_r+0x135e>
    800013d4:	1b42                	slli	s6,s6,0x30
    800013d6:	030b5b13          	srli	s6,s6,0x30
    800013da:	00197793          	andi	a5,s2,1
    800013de:	cf81                	beqz	a5,800013f6 <_svfprintf_r+0xebc>
    800013e0:	000b0b63          	beqz	s6,800013f6 <_svfprintf_r+0xebc>
    800013e4:	00296913          	ori	s2,s2,2
    800013e8:	03000793          	li	a5,48
    800013ec:	0cf10823          	sb	a5,208(sp)
    800013f0:	0dd108a3          	sb	t4,209(sp)
    800013f4:	2901                	sext.w	s2,s2
    800013f6:	bff97c13          	andi	s8,s2,-1025
    800013fa:	2c01                	sext.w	s8,s8
    800013fc:	8a3a                	mv	s4,a4
    800013fe:	4789                	li	a5,2
    80001400:	efcff06f          	j	80000afc <_svfprintf_r+0x5c2>
    80001404:	8e5e                	mv	t3,s7
    80001406:	8c4a                	mv	s8,s2
    80001408:	eceff06f          	j	80000ad6 <_svfprintf_r+0x59c>
    8000140c:	0000b797          	auipc	a5,0xb
    80001410:	d2478793          	addi	a5,a5,-732 # 8000c130 <__malloc_trim_threshold+0xb0>
    80001414:	8e5e                	mv	t3,s7
    80001416:	ecbe                	sd	a5,88(sp)
    80001418:	bf71                	j	800013b4 <_svfprintf_r+0xe7a>
    8000141a:	8e5e                	mv	t3,s7
    8000141c:	80bff06f          	j	80000c26 <_svfprintf_r+0x6ec>
    80001420:	65c2                	ld	a1,16(sp)
    80001422:	6522                	ld	a0,8(sp)
    80001424:	0210                	addi	a2,sp,256
    80001426:	15b040ef          	jal	ra,80005d80 <__ssprint_r>
    8000142a:	ae051de3          	bnez	a0,80000f24 <_svfprintf_r+0x9ea>
    8000142e:	6652                	ld	a2,272(sp)
    80001430:	0300                	addi	s0,sp,384
    80001432:	ba29                	j	80000d4c <_svfprintf_r+0x812>
    80001434:	02096913          	ori	s2,s2,32
    80001438:	0019ce83          	lbu	t4,1(s3)
    8000143c:	2901                	sext.w	s2,s2
    8000143e:	0985                	addi	s3,s3,1
    80001440:	9eaff06f          	j	8000062a <_svfprintf_r+0xf0>
    80001444:	20096913          	ori	s2,s2,512
    80001448:	0019ce83          	lbu	t4,1(s3)
    8000144c:	2901                	sext.w	s2,s2
    8000144e:	0985                	addi	s3,s3,1
    80001450:	9daff06f          	j	8000062a <_svfprintf_r+0xf0>
    80001454:	6522                	ld	a0,8(sp)
    80001456:	04000593          	li	a1,64
    8000145a:	216030ef          	jal	ra,80004670 <_malloc_r>
    8000145e:	67c2                	ld	a5,16(sp)
    80001460:	e388                	sd	a0,0(a5)
    80001462:	ef88                	sd	a0,24(a5)
    80001464:	360508e3          	beqz	a0,80001fd4 <_svfprintf_r+0x1a9a>
    80001468:	67c2                	ld	a5,16(sp)
    8000146a:	04000713          	li	a4,64
    8000146e:	d398                	sw	a4,32(a5)
    80001470:	930ff06f          	j	800005a0 <_svfprintf_r+0x66>
    80001474:	4541                	li	a0,16
    80001476:	866a                	mv	a2,s10
    80001478:	10812583          	lw	a1,264(sp)
    8000147c:	0000bd17          	auipc	s10,0xb
    80001480:	edcd0d13          	addi	s10,s10,-292 # 8000c358 <zeroes.0>
    80001484:	47655a63          	bge	a0,s6,800018f8 <_svfprintf_r+0x13be>
    80001488:	8756                	mv	a4,s5
    8000148a:	87ea                	mv	a5,s10
    8000148c:	8aa6                	mv	s5,s1
    8000148e:	8d52                	mv	s10,s4
    80001490:	84da                	mv	s1,s6
    80001492:	8a4a                	mv	s4,s2
    80001494:	4841                	li	a6,16
    80001496:	4c9d                	li	s9,7
    80001498:	893e                	mv	s2,a5
    8000149a:	8b3a                	mv	s6,a4
    8000149c:	a021                	j	800014a4 <_svfprintf_r+0xf6a>
    8000149e:	34c1                	addiw	s1,s1,-16
    800014a0:	44985463          	bge	a6,s1,800018e8 <_svfprintf_r+0x13ae>
    800014a4:	2585                	addiw	a1,a1,1
    800014a6:	0641                	addi	a2,a2,16
    800014a8:	01243023          	sd	s2,0(s0)
    800014ac:	01043423          	sd	a6,8(s0)
    800014b0:	ea32                	sd	a2,272(sp)
    800014b2:	10b12423          	sw	a1,264(sp)
    800014b6:	0441                	addi	s0,s0,16
    800014b8:	febcd3e3          	bge	s9,a1,8000149e <_svfprintf_r+0xf64>
    800014bc:	65c2                	ld	a1,16(sp)
    800014be:	6522                	ld	a0,8(sp)
    800014c0:	0210                	addi	a2,sp,256
    800014c2:	0bf040ef          	jal	ra,80005d80 <__ssprint_r>
    800014c6:	a4051fe3          	bnez	a0,80000f24 <_svfprintf_r+0x9ea>
    800014ca:	6652                	ld	a2,272(sp)
    800014cc:	10812583          	lw	a1,264(sp)
    800014d0:	0300                	addi	s0,sp,384
    800014d2:	4841                	li	a6,16
    800014d4:	b7e9                	j	8000149e <_svfprintf_r+0xf64>
    800014d6:	8556                	mv	a0,s5
    800014d8:	e176                	sd	t4,128(sp)
    800014da:	796040ef          	jal	ra,80005c70 <strlen>
    800014de:	00050c9b          	sext.w	s9,a0
    800014e2:	0cf14603          	lbu	a2,207(sp)
    800014e6:	fffcc713          	not	a4,s9
    800014ea:	977d                	srai	a4,a4,0x3f
    800014ec:	f002                	sd	zero,32(sp)
    800014ee:	e082                	sd	zero,64(sp)
    800014f0:	fc02                	sd	zero,56(sp)
    800014f2:	f402                	sd	zero,40(sp)
    800014f4:	6e8a                	ld	t4,128(sp)
    800014f6:	01977bb3          	and	s7,a4,s9
    800014fa:	4e01                	li	t3,0
    800014fc:	d0061463          	bnez	a2,80000a04 <_svfprintf_r+0x4ca>
    80001500:	9a4ff06f          	j	800006a4 <_svfprintf_r+0x16a>
    80001504:	e926                	sd	s1,144(sp)
    80001506:	74e2                	ld	s1,56(sp)
    80001508:	e14e                	sd	s3,128(sp)
    8000150a:	e54a                	sd	s2,136(sp)
    8000150c:	fc5e                	sd	s7,56(sp)
    8000150e:	6b86                	ld	s7,64(sp)
    80001510:	e0d2                	sd	s4,64(sp)
    80001512:	87a2                	mv	a5,s0
    80001514:	8a56                	mv	s4,s5
    80001516:	79a6                	ld	s3,104(sp)
    80001518:	7966                	ld	s2,120(sp)
    8000151a:	6ca2                	ld	s9,8(sp)
    8000151c:	6442                	ld	s0,16(sp)
    8000151e:	7ac6                	ld	s5,112(sp)
    80001520:	489d                	li	a7,7
    80001522:	4841                	li	a6,16
    80001524:	0000bb17          	auipc	s6,0xb
    80001528:	e34b0b13          	addi	s6,s6,-460 # 8000c358 <zeroes.0>
    8000152c:	86ea                	mv	a3,s10
    8000152e:	c0c1                	beqz	s1,800015ae <_svfprintf_r+0x1074>
    80001530:	100b8c63          	beqz	s7,80001648 <_svfprintf_r+0x110e>
    80001534:	3bfd                	addiw	s7,s7,-1
    80001536:	10812703          	lw	a4,264(sp)
    8000153a:	96d6                	add	a3,a3,s5
    8000153c:	0127b023          	sd	s2,0(a5)
    80001540:	0017061b          	addiw	a2,a4,1
    80001544:	0157b423          	sd	s5,8(a5)
    80001548:	ea36                	sd	a3,272(sp)
    8000154a:	10c12423          	sw	a2,264(sp)
    8000154e:	07c1                	addi	a5,a5,16
    80001550:	10c8c263          	blt	a7,a2,80001654 <_svfprintf_r+0x111a>
    80001554:	0009c603          	lbu	a2,0(s3)
    80001558:	414c0733          	sub	a4,s8,s4
    8000155c:	0007059b          	sext.w	a1,a4
    80001560:	0006031b          	sext.w	t1,a2
    80001564:	00b65363          	bge	a2,a1,8000156a <_svfprintf_r+0x1030>
    80001568:	871a                	mv	a4,t1
    8000156a:	00070d1b          	sext.w	s10,a4
    8000156e:	03a05563          	blez	s10,80001598 <_svfprintf_r+0x105e>
    80001572:	10812603          	lw	a2,264(sp)
    80001576:	96ea                	add	a3,a3,s10
    80001578:	0147b023          	sd	s4,0(a5)
    8000157c:	0016059b          	addiw	a1,a2,1
    80001580:	01a7b423          	sd	s10,8(a5)
    80001584:	ea36                	sd	a3,272(sp)
    80001586:	10b12423          	sw	a1,264(sp)
    8000158a:	1ab8cb63          	blt	a7,a1,80001740 <_svfprintf_r+0x1206>
    8000158e:	0009c603          	lbu	a2,0(s3)
    80001592:	07c1                	addi	a5,a5,16
    80001594:	0006031b          	sext.w	t1,a2
    80001598:	fffd4593          	not	a1,s10
    8000159c:	95fd                	srai	a1,a1,0x3f
    8000159e:	00bd7733          	and	a4,s10,a1
    800015a2:	40e30d3b          	subw	s10,t1,a4
    800015a6:	03a04363          	bgtz	s10,800015cc <_svfprintf_r+0x1092>
    800015aa:	9a32                	add	s4,s4,a2
    800015ac:	f0d1                	bnez	s1,80001530 <_svfprintf_r+0xff6>
    800015ae:	f80b93e3          	bnez	s7,80001534 <_svfprintf_r+0xffa>
    800015b2:	f4ce                	sd	s3,104(sp)
    800015b4:	8ad2                	mv	s5,s4
    800015b6:	698a                	ld	s3,128(sp)
    800015b8:	692a                	ld	s2,136(sp)
    800015ba:	64ca                	ld	s1,144(sp)
    800015bc:	7be2                	ld	s7,56(sp)
    800015be:	6a06                	ld	s4,64(sp)
    800015c0:	843e                	mv	s0,a5
    800015c2:	8d36                	mv	s10,a3
    800015c4:	b35c7fe3          	bgeu	s8,s5,80001102 <_svfprintf_r+0xbc8>
    800015c8:	8ae2                	mv	s5,s8
    800015ca:	be25                	j	80001102 <_svfprintf_r+0xbc8>
    800015cc:	10812703          	lw	a4,264(sp)
    800015d0:	0000b597          	auipc	a1,0xb
    800015d4:	d8858593          	addi	a1,a1,-632 # 8000c358 <zeroes.0>
    800015d8:	05a85863          	bge	a6,s10,80001628 <_svfprintf_r+0x10ee>
    800015dc:	f426                	sd	s1,40(sp)
    800015de:	84ea                	mv	s1,s10
    800015e0:	8d5a                	mv	s10,s6
    800015e2:	a021                	j	800015ea <_svfprintf_r+0x10b0>
    800015e4:	34c1                	addiw	s1,s1,-16
    800015e6:	02985e63          	bge	a6,s1,80001622 <_svfprintf_r+0x10e8>
    800015ea:	2705                	addiw	a4,a4,1
    800015ec:	06c1                	addi	a3,a3,16
    800015ee:	0167b023          	sd	s6,0(a5)
    800015f2:	0107b423          	sd	a6,8(a5)
    800015f6:	ea36                	sd	a3,272(sp)
    800015f8:	10e12423          	sw	a4,264(sp)
    800015fc:	07c1                	addi	a5,a5,16
    800015fe:	fee8d3e3          	bge	a7,a4,800015e4 <_svfprintf_r+0x10aa>
    80001602:	0210                	addi	a2,sp,256
    80001604:	85a2                	mv	a1,s0
    80001606:	8566                	mv	a0,s9
    80001608:	778040ef          	jal	ra,80005d80 <__ssprint_r>
    8000160c:	90051ce3          	bnez	a0,80000f24 <_svfprintf_r+0x9ea>
    80001610:	4841                	li	a6,16
    80001612:	34c1                	addiw	s1,s1,-16
    80001614:	66d2                	ld	a3,272(sp)
    80001616:	10812703          	lw	a4,264(sp)
    8000161a:	031c                	addi	a5,sp,384
    8000161c:	489d                	li	a7,7
    8000161e:	fc9846e3          	blt	a6,s1,800015ea <_svfprintf_r+0x10b0>
    80001622:	85ea                	mv	a1,s10
    80001624:	8d26                	mv	s10,s1
    80001626:	74a2                	ld	s1,40(sp)
    80001628:	0017061b          	addiw	a2,a4,1
    8000162c:	96ea                	add	a3,a3,s10
    8000162e:	e38c                	sd	a1,0(a5)
    80001630:	01a7b423          	sd	s10,8(a5)
    80001634:	ea36                	sd	a3,272(sp)
    80001636:	10c12423          	sw	a2,264(sp)
    8000163a:	72c8c063          	blt	a7,a2,80001d5a <_svfprintf_r+0x1820>
    8000163e:	0009c603          	lbu	a2,0(s3)
    80001642:	07c1                	addi	a5,a5,16
    80001644:	9a32                	add	s4,s4,a2
    80001646:	b79d                	j	800015ac <_svfprintf_r+0x1072>
    80001648:	19fd                	addi	s3,s3,-1
    8000164a:	34fd                	addiw	s1,s1,-1
    8000164c:	b5ed                	j	80001536 <_svfprintf_r+0xffc>
    8000164e:	000a3b03          	ld	s6,0(s4)
    80001652:	b361                	j	800013da <_svfprintf_r+0xea0>
    80001654:	0210                	addi	a2,sp,256
    80001656:	85a2                	mv	a1,s0
    80001658:	8566                	mv	a0,s9
    8000165a:	726040ef          	jal	ra,80005d80 <__ssprint_r>
    8000165e:	8c0513e3          	bnez	a0,80000f24 <_svfprintf_r+0x9ea>
    80001662:	66d2                	ld	a3,272(sp)
    80001664:	031c                	addi	a5,sp,384
    80001666:	4841                	li	a6,16
    80001668:	489d                	li	a7,7
    8000166a:	b5ed                	j	80001554 <_svfprintf_r+0x101a>
    8000166c:	10812683          	lw	a3,264(sp)
    80001670:	0000b597          	auipc	a1,0xb
    80001674:	ae058593          	addi	a1,a1,-1312 # 8000c150 <__malloc_trim_threshold+0xd0>
    80001678:	e00c                	sd	a1,0(s0)
    8000167a:	2685                	addiw	a3,a3,1
    8000167c:	4585                	li	a1,1
    8000167e:	001d0613          	addi	a2,s10,1
    80001682:	e40c                	sd	a1,8(s0)
    80001684:	10d12423          	sw	a3,264(sp)
    80001688:	0006859b          	sext.w	a1,a3
    8000168c:	ea32                	sd	a2,272(sp)
    8000168e:	469d                	li	a3,7
    80001690:	0441                	addi	s0,s0,16
    80001692:	04b6cb63          	blt	a3,a1,800016e8 <_svfprintf_r+0x11ae>
    80001696:	16051663          	bnez	a0,80001802 <_svfprintf_r+0x12c8>
    8000169a:	77c2                	ld	a5,48(sp)
    8000169c:	00197693          	andi	a3,s2,1
    800016a0:	8edd                	or	a3,a3,a5
    800016a2:	8a068463          	beqz	a3,8000074a <_svfprintf_r+0x210>
    800016a6:	10812683          	lw	a3,264(sp)
    800016aa:	67a6                	ld	a5,72(sp)
    800016ac:	6746                	ld	a4,80(sp)
    800016ae:	0016859b          	addiw	a1,a3,1
    800016b2:	963e                	add	a2,a2,a5
    800016b4:	e018                	sd	a4,0(s0)
    800016b6:	e41c                	sd	a5,8(s0)
    800016b8:	ea32                	sd	a2,272(sp)
    800016ba:	10b12423          	sw	a1,264(sp)
    800016be:	469d                	li	a3,7
    800016c0:	48b6c363          	blt	a3,a1,80001b46 <_svfprintf_r+0x160c>
    800016c4:	0441                	addi	s0,s0,16
    800016c6:	77c2                	ld	a5,48(sp)
    800016c8:	0015869b          	addiw	a3,a1,1
    800016cc:	01543023          	sd	s5,0(s0)
    800016d0:	963e                	add	a2,a2,a5
    800016d2:	e41c                	sd	a5,8(s0)
    800016d4:	ea32                	sd	a2,272(sp)
    800016d6:	10d12423          	sw	a3,264(sp)
    800016da:	479d                	li	a5,7
    800016dc:	00d7c463          	blt	a5,a3,800016e4 <_svfprintf_r+0x11aa>
    800016e0:	868ff06f          	j	80000748 <_svfprintf_r+0x20e>
    800016e4:	aa4ff06f          	j	80000988 <_svfprintf_r+0x44e>
    800016e8:	65c2                	ld	a1,16(sp)
    800016ea:	6522                	ld	a0,8(sp)
    800016ec:	0210                	addi	a2,sp,256
    800016ee:	692040ef          	jal	ra,80005d80 <__ssprint_r>
    800016f2:	820519e3          	bnez	a0,80000f24 <_svfprintf_r+0x9ea>
    800016f6:	456e                	lw	a0,216(sp)
    800016f8:	6652                	ld	a2,272(sp)
    800016fa:	0300                	addi	s0,sp,384
    800016fc:	bf69                	j	80001696 <_svfprintf_r+0x115c>
    800016fe:	65c2                	ld	a1,16(sp)
    80001700:	6522                	ld	a0,8(sp)
    80001702:	0210                	addi	a2,sp,256
    80001704:	67c040ef          	jal	ra,80005d80 <__ssprint_r>
    80001708:	80051ee3          	bnez	a0,80000f24 <_svfprintf_r+0x9ea>
    8000170c:	6d52                	ld	s10,272(sp)
    8000170e:	0300                	addi	s0,sp,384
    80001710:	e0eff06f          	j	80000d1e <_svfprintf_r+0x7e4>
    80001714:	8726                	mv	a4,s1
    80001716:	84d2                	mv	s1,s4
    80001718:	8a62                	mv	s4,s8
    8000171a:	8c6a                	mv	s8,s10
    8000171c:	8d3a                	mv	s10,a4
    8000171e:	0017869b          	addiw	a3,a5,1
    80001722:	01a43023          	sd	s10,0(s0)
    80001726:	01843423          	sd	s8,8(s0)
    8000172a:	9662                	add	a2,a2,s8
    8000172c:	ea32                	sd	a2,272(sp)
    8000172e:	10d12423          	sw	a3,264(sp)
    80001732:	479d                	li	a5,7
    80001734:	00d7c463          	blt	a5,a3,8000173c <_svfprintf_r+0x1202>
    80001738:	810ff06f          	j	80000748 <_svfprintf_r+0x20e>
    8000173c:	a4cff06f          	j	80000988 <_svfprintf_r+0x44e>
    80001740:	0210                	addi	a2,sp,256
    80001742:	85a2                	mv	a1,s0
    80001744:	8566                	mv	a0,s9
    80001746:	63a040ef          	jal	ra,80005d80 <__ssprint_r>
    8000174a:	fc051d63          	bnez	a0,80000f24 <_svfprintf_r+0x9ea>
    8000174e:	0009c603          	lbu	a2,0(s3)
    80001752:	66d2                	ld	a3,272(sp)
    80001754:	031c                	addi	a5,sp,384
    80001756:	0006031b          	sext.w	t1,a2
    8000175a:	4841                	li	a6,16
    8000175c:	489d                	li	a7,7
    8000175e:	bd2d                	j	80001598 <_svfprintf_r+0x105e>
    80001760:	65c2                	ld	a1,16(sp)
    80001762:	6522                	ld	a0,8(sp)
    80001764:	0210                	addi	a2,sp,256
    80001766:	e572                	sd	t3,136(sp)
    80001768:	e176                	sd	t4,128(sp)
    8000176a:	616040ef          	jal	ra,80005d80 <__ssprint_r>
    8000176e:	fa051b63          	bnez	a0,80000f24 <_svfprintf_r+0x9ea>
    80001772:	6d52                	ld	s10,272(sp)
    80001774:	6e2a                	ld	t3,136(sp)
    80001776:	6e8a                	ld	t4,128(sp)
    80001778:	0300                	addi	s0,sp,384
    8000177a:	f9ffe06f          	j	80000718 <_svfprintf_r+0x1de>
    8000177e:	754e                	ld	a0,240(sp)
    80001780:	75ee                	ld	a1,248(sp)
    80001782:	4601                	li	a2,0
    80001784:	4681                	li	a3,0
    80001786:	2d6080ef          	jal	ra,80009a5c <__letf2>
    8000178a:	7e82                	ld	t4,32(sp)
    8000178c:	6a054363          	bltz	a0,80001e32 <_svfprintf_r+0x18f8>
    80001790:	0cf14603          	lbu	a2,207(sp)
    80001794:	04700713          	li	a4,71
    80001798:	0000ba97          	auipc	s5,0xb
    8000179c:	960a8a93          	addi	s5,s5,-1696 # 8000c0f8 <__malloc_trim_threshold+0x78>
    800017a0:	1bd74763          	blt	a4,t4,8000194e <_svfprintf_r+0x1414>
    800017a4:	f7f97913          	andi	s2,s2,-129
    800017a8:	f002                	sd	zero,32(sp)
    800017aa:	e082                	sd	zero,64(sp)
    800017ac:	fc02                	sd	zero,56(sp)
    800017ae:	f402                	sd	zero,40(sp)
    800017b0:	2901                	sext.w	s2,s2
    800017b2:	4b8d                	li	s7,3
    800017b4:	4c8d                	li	s9,3
    800017b6:	4e01                	li	t3,0
    800017b8:	a4061663          	bnez	a2,80000a04 <_svfprintf_r+0x4ca>
    800017bc:	ee9fe06f          	j	800006a4 <_svfprintf_r+0x16a>
    800017c0:	4799                	li	a5,6
    800017c2:	86de                	mv	a3,s7
    800017c4:	1b77e563          	bltu	a5,s7,8000196e <_svfprintf_r+0x1434>
    800017c8:	00068c9b          	sext.w	s9,a3
    800017cc:	8be6                	mv	s7,s9
    800017ce:	0000ba97          	auipc	s5,0xb
    800017d2:	97aa8a93          	addi	s5,s5,-1670 # 8000c148 <__malloc_trim_threshold+0xc8>
    800017d6:	ec5fe06f          	j	8000069a <_svfprintf_r+0x160>
    800017da:	8726                	mv	a4,s1
    800017dc:	87ca                	mv	a5,s2
    800017de:	84da                	mv	s1,s6
    800017e0:	8952                	mv	s2,s4
    800017e2:	8b3a                	mv	s6,a4
    800017e4:	8a6a                	mv	s4,s10
    800017e6:	8d3e                	mv	s10,a5
    800017e8:	2405                	addiw	s0,s0,1
    800017ea:	9cda                	add	s9,s9,s6
    800017ec:	01ac3023          	sd	s10,0(s8)
    800017f0:	016c3423          	sd	s6,8(s8)
    800017f4:	ea66                	sd	s9,272(sp)
    800017f6:	10812423          	sw	s0,264(sp)
    800017fa:	479d                	li	a5,7
    800017fc:	9687d363          	bge	a5,s0,80000962 <_svfprintf_r+0x428>
    80001800:	b401                	j	80001200 <_svfprintf_r+0xcc6>
    80001802:	10812683          	lw	a3,264(sp)
    80001806:	67a6                	ld	a5,72(sp)
    80001808:	6746                	ld	a4,80(sp)
    8000180a:	0016859b          	addiw	a1,a3,1
    8000180e:	963e                	add	a2,a2,a5
    80001810:	e018                	sd	a4,0(s0)
    80001812:	e41c                	sd	a5,8(s0)
    80001814:	ea32                	sd	a2,272(sp)
    80001816:	10b12423          	sw	a1,264(sp)
    8000181a:	469d                	li	a3,7
    8000181c:	0441                	addi	s0,s0,16
    8000181e:	32b6c463          	blt	a3,a1,80001b46 <_svfprintf_r+0x160c>
    80001822:	ea0552e3          	bgez	a0,800016c6 <_svfprintf_r+0x118c>
    80001826:	56c1                	li	a3,-16
    80001828:	40a00c3b          	negw	s8,a0
    8000182c:	0000bd17          	auipc	s10,0xb
    80001830:	b2cd0d13          	addi	s10,s10,-1236 # 8000c358 <zeroes.0>
    80001834:	4cc1                	li	s9,16
    80001836:	4b1d                	li	s6,7
    80001838:	00d54663          	blt	a0,a3,80001844 <_svfprintf_r+0x130a>
    8000183c:	af15                	j	80001f70 <_svfprintf_r+0x1a36>
    8000183e:	3c41                	addiw	s8,s8,-16
    80001840:	738cd863          	bge	s9,s8,80001f70 <_svfprintf_r+0x1a36>
    80001844:	2585                	addiw	a1,a1,1
    80001846:	0641                	addi	a2,a2,16
    80001848:	01a43023          	sd	s10,0(s0)
    8000184c:	01943423          	sd	s9,8(s0)
    80001850:	ea32                	sd	a2,272(sp)
    80001852:	10b12423          	sw	a1,264(sp)
    80001856:	0441                	addi	s0,s0,16
    80001858:	febb53e3          	bge	s6,a1,8000183e <_svfprintf_r+0x1304>
    8000185c:	65c2                	ld	a1,16(sp)
    8000185e:	6522                	ld	a0,8(sp)
    80001860:	0210                	addi	a2,sp,256
    80001862:	51e040ef          	jal	ra,80005d80 <__ssprint_r>
    80001866:	ea051f63          	bnez	a0,80000f24 <_svfprintf_r+0x9ea>
    8000186a:	6652                	ld	a2,272(sp)
    8000186c:	10812583          	lw	a1,264(sp)
    80001870:	0300                	addi	s0,sp,384
    80001872:	b7f1                	j	8000183e <_svfprintf_r+0x1304>
    80001874:	200c7793          	andi	a5,s8,512
    80001878:	28078f63          	beqz	a5,80001b16 <_svfprintf_r+0x15dc>
    8000187c:	0ffb7b13          	zext.b	s6,s6
    80001880:	8a3a                	mv	s4,a4
    80001882:	4785                	li	a5,1
    80001884:	a78ff06f          	j	80000afc <_svfprintf_r+0x5c2>
    80001888:	20097793          	andi	a5,s2,512
    8000188c:	28078063          	beqz	a5,80001b0c <_svfprintf_r+0x15d2>
    80001890:	0ffb7b13          	zext.b	s6,s6
    80001894:	ba8ff06f          	j	80000c3c <_svfprintf_r+0x702>
    80001898:	20097793          	andi	a5,s2,512
    8000189c:	28078763          	beqz	a5,80001b2a <_svfprintf_r+0x15f0>
    800018a0:	0ffb7b13          	zext.b	s6,s6
    800018a4:	be1d                	j	800013da <_svfprintf_r+0xea0>
    800018a6:	20097793          	andi	a5,s2,512
    800018aa:	26078d63          	beqz	a5,80001b24 <_svfprintf_r+0x15ea>
    800018ae:	018b1b1b          	slliw	s6,s6,0x18
    800018b2:	418b5b1b          	sraiw	s6,s6,0x18
    800018b6:	87da                	mv	a5,s6
    800018b8:	ad0ff06f          	j	80000b88 <_svfprintf_r+0x64e>
    800018bc:	77ee                	ld	a5,248(sp)
    800018be:	2607da63          	bgez	a5,80001b32 <_svfprintf_r+0x15f8>
    800018c2:	02d00793          	li	a5,45
    800018c6:	0cf107a3          	sb	a5,207(sp)
    800018ca:	02d00613          	li	a2,45
    800018ce:	04700713          	li	a4,71
    800018d2:	0000ba97          	auipc	s5,0xb
    800018d6:	836a8a93          	addi	s5,s5,-1994 # 8000c108 <__malloc_trim_threshold+0x88>
    800018da:	edd755e3          	bge	a4,t4,800017a4 <_svfprintf_r+0x126a>
    800018de:	0000ba97          	auipc	s5,0xb
    800018e2:	832a8a93          	addi	s5,s5,-1998 # 8000c110 <__malloc_trim_threshold+0x90>
    800018e6:	bd7d                	j	800017a4 <_svfprintf_r+0x126a>
    800018e8:	875a                	mv	a4,s6
    800018ea:	87ca                	mv	a5,s2
    800018ec:	8b26                	mv	s6,s1
    800018ee:	8952                	mv	s2,s4
    800018f0:	84d6                	mv	s1,s5
    800018f2:	8a6a                	mv	s4,s10
    800018f4:	8aba                	mv	s5,a4
    800018f6:	8d3e                	mv	s10,a5
    800018f8:	0015851b          	addiw	a0,a1,1
    800018fc:	965a                	add	a2,a2,s6
    800018fe:	01a43023          	sd	s10,0(s0)
    80001902:	01643423          	sd	s6,8(s0)
    80001906:	ea32                	sd	a2,272(sp)
    80001908:	10a12423          	sw	a0,264(sp)
    8000190c:	469d                	li	a3,7
    8000190e:	24a6cb63          	blt	a3,a0,80001b64 <_svfprintf_r+0x162a>
    80001912:	0441                	addi	s0,s0,16
    80001914:	8d32                	mv	s10,a2
    80001916:	fe0ff06f          	j	800010f6 <_svfprintf_r+0xbbc>
    8000191a:	77c6                	ld	a5,112(sp)
    8000191c:	75e6                	ld	a1,120(sp)
    8000191e:	f872                	sd	t3,48(sp)
    80001920:	40fa8ab3          	sub	s5,s5,a5
    80001924:	863e                	mv	a2,a5
    80001926:	8556                	mv	a0,s5
    80001928:	f476                	sd	t4,40(sp)
    8000192a:	f042                	sd	a6,32(sp)
    8000192c:	3d8040ef          	jal	ra,80005d04 <strncpy>
    80001930:	7802                	ld	a6,32(sp)
    80001932:	47a9                	li	a5,10
    80001934:	02fb57b3          	divu	a5,s6,a5
    80001938:	00184683          	lbu	a3,1(a6)
    8000193c:	7ea2                	ld	t4,40(sp)
    8000193e:	7e42                	ld	t3,48(sp)
    80001940:	00d036b3          	snez	a3,a3
    80001944:	9836                	add	a6,a6,a3
    80001946:	0ff00713          	li	a4,255
    8000194a:	4681                	li	a3,0
    8000194c:	b415                	j	80001370 <_svfprintf_r+0xe36>
    8000194e:	0000aa97          	auipc	s5,0xa
    80001952:	7b2a8a93          	addi	s5,s5,1970 # 8000c100 <__malloc_trim_threshold+0x80>
    80001956:	b5b9                	j	800017a4 <_svfprintf_r+0x126a>
    80001958:	65c2                	ld	a1,16(sp)
    8000195a:	6522                	ld	a0,8(sp)
    8000195c:	0210                	addi	a2,sp,256
    8000195e:	422040ef          	jal	ra,80005d80 <__ssprint_r>
    80001962:	dc051163          	bnez	a0,80000f24 <_svfprintf_r+0x9ea>
    80001966:	6d52                	ld	s10,272(sp)
    80001968:	0300                	addi	s0,sp,384
    8000196a:	f78ff06f          	j	800010e2 <_svfprintf_r+0xba8>
    8000196e:	4699                	li	a3,6
    80001970:	bda1                	j	800017c8 <_svfprintf_r+0x128e>
    80001972:	415c0c33          	sub	s8,s8,s5
    80001976:	40d785bb          	subw	a1,a5,a3
    8000197a:	000c079b          	sext.w	a5,s8
    8000197e:	866a                	mv	a2,s10
    80001980:	00f5d363          	bge	a1,a5,80001986 <_svfprintf_r+0x144c>
    80001984:	8c2e                	mv	s8,a1
    80001986:	2c01                	sext.w	s8,s8
    80001988:	fe4ff06f          	j	8000116c <_svfprintf_r+0xc32>
    8000198c:	67e2                	ld	a5,24(sp)
    8000198e:	0a21                	addi	s4,s4,8
    80001990:	00f71023          	sh	a5,0(a4)
    80001994:	b2aff06f          	j	80000cbe <_svfprintf_r+0x784>
    80001998:	8972                	mv	s2,t3
    8000199a:	4689                	li	a3,2
    8000199c:	6522                	ld	a0,8(sp)
    8000199e:	874a                	mv	a4,s2
    800019a0:	0e810893          	addi	a7,sp,232
    800019a4:	0dc10813          	addi	a6,sp,220
    800019a8:	09bc                	addi	a5,sp,216
    800019aa:	85e2                	mv	a1,s8
    800019ac:	865e                	mv	a2,s7
    800019ae:	f872                	sd	t3,48(sp)
    800019b0:	f476                	sd	t4,40(sp)
    800019b2:	545010ef          	jal	ra,800036f6 <_ldtoa_r>
    800019b6:	7ea2                	ld	t4,40(sp)
    800019b8:	06700713          	li	a4,103
    800019bc:	7e42                	ld	t3,48(sp)
    800019be:	8aaa                	mv	s5,a0
    800019c0:	38ee8463          	beq	t4,a4,80001d48 <_svfprintf_r+0x180e>
    800019c4:	04700713          	li	a4,71
    800019c8:	38ee8063          	beq	t4,a4,80001d48 <_svfprintf_r+0x180e>
    800019cc:	fdfefd13          	andi	s10,t4,-33
    800019d0:	04600713          	li	a4,70
    800019d4:	01250cb3          	add	s9,a0,s2
    800019d8:	48ed0163          	beq	s10,a4,80001e5a <_svfprintf_r+0x1920>
    800019dc:	85de                	mv	a1,s7
    800019de:	4601                	li	a2,0
    800019e0:	4681                	li	a3,0
    800019e2:	8562                	mv	a0,s8
    800019e4:	f872                	sd	t3,48(sp)
    800019e6:	f476                	sd	t4,40(sp)
    800019e8:	71b070ef          	jal	ra,80009902 <__eqtf2>
    800019ec:	7ea2                	ld	t4,40(sp)
    800019ee:	7e42                	ld	t3,48(sp)
    800019f0:	8be6                	mv	s7,s9
    800019f2:	cd11                	beqz	a0,80001a0e <_svfprintf_r+0x14d4>
    800019f4:	7bae                	ld	s7,232(sp)
    800019f6:	019bfc63          	bgeu	s7,s9,80001a0e <_svfprintf_r+0x14d4>
    800019fa:	03000693          	li	a3,48
    800019fe:	001b8793          	addi	a5,s7,1
    80001a02:	f5be                	sd	a5,232(sp)
    80001a04:	00db8023          	sb	a3,0(s7)
    80001a08:	7bae                	ld	s7,232(sp)
    80001a0a:	ff9beae3          	bltu	s7,s9,800019fe <_svfprintf_r+0x14c4>
    80001a0e:	415b87bb          	subw	a5,s7,s5
    80001a12:	f83e                	sd	a5,48(sp)
    80001a14:	466e                	lw	a2,216(sp)
    80001a16:	04700713          	li	a4,71
    80001a1a:	f432                	sd	a2,40(sp)
    80001a1c:	2ced0263          	beq	s10,a4,80001ce0 <_svfprintf_r+0x17a6>
    80001a20:	04600713          	li	a4,70
    80001a24:	4ced0263          	beq	s10,a4,80001ee8 <_svfprintf_r+0x19ae>
    80001a28:	fff6071b          	addiw	a4,a2,-1
    80001a2c:	cdba                	sw	a4,216(sp)
    80001a2e:	06100693          	li	a3,97
    80001a32:	68de8263          	beq	t4,a3,800020b6 <_svfprintf_r+0x1b7c>
    80001a36:	04100593          	li	a1,65
    80001a3a:	05000693          	li	a3,80
    80001a3e:	2abe9b63          	bne	t4,a1,80001cf4 <_svfprintf_r+0x17ba>
    80001a42:	4585                	li	a1,1
    80001a44:	0ed10023          	sb	a3,224(sp)
    80001a48:	02b00693          	li	a3,43
    80001a4c:	00075663          	bgez	a4,80001a58 <_svfprintf_r+0x151e>
    80001a50:	4705                	li	a4,1
    80001a52:	9f11                	subw	a4,a4,a2
    80001a54:	02d00693          	li	a3,45
    80001a58:	0ed100a3          	sb	a3,225(sp)
    80001a5c:	46a5                	li	a3,9
    80001a5e:	54e6d363          	bge	a3,a4,80001fa4 <_svfprintf_r+0x1a6a>
    80001a62:	0ef10813          	addi	a6,sp,239
    80001a66:	88c2                	mv	a7,a6
    80001a68:	4e29                	li	t3,10
    80001a6a:	06300f93          	li	t6,99
    80001a6e:	03c767bb          	remw	a5,a4,t3
    80001a72:	8646                	mv	a2,a7
    80001a74:	86ba                	mv	a3,a4
    80001a76:	18fd                	addi	a7,a7,-1
    80001a78:	0307879b          	addiw	a5,a5,48
    80001a7c:	fef60fa3          	sb	a5,-1(a2)
    80001a80:	03c7473b          	divw	a4,a4,t3
    80001a84:	fedfc5e3          	blt	t6,a3,80001a6e <_svfprintf_r+0x1534>
    80001a88:	0307051b          	addiw	a0,a4,48
    80001a8c:	fea88fa3          	sb	a0,-1(a7)
    80001a90:	ffe60713          	addi	a4,a2,-2
    80001a94:	67077a63          	bgeu	a4,a6,80002108 <_svfprintf_r+0x1bce>
    80001a98:	0e210693          	addi	a3,sp,226
    80001a9c:	00074783          	lbu	a5,0(a4)
    80001aa0:	0705                	addi	a4,a4,1
    80001aa2:	0685                	addi	a3,a3,1
    80001aa4:	fef68fa3          	sb	a5,-1(a3)
    80001aa8:	ff071ae3          	bne	a4,a6,80001a9c <_svfprintf_r+0x1562>
    80001aac:	0f110713          	addi	a4,sp,241
    80001ab0:	0e210793          	addi	a5,sp,226
    80001ab4:	8f11                	sub	a4,a4,a2
    80001ab6:	973e                	add	a4,a4,a5
    80001ab8:	1194                	addi	a3,sp,224
    80001aba:	40d707bb          	subw	a5,a4,a3
    80001abe:	f0be                	sd	a5,96(sp)
    80001ac0:	7706                	ld	a4,96(sp)
    80001ac2:	77c2                	ld	a5,48(sp)
    80001ac4:	4605                	li	a2,1
    80001ac6:	00f70cbb          	addw	s9,a4,a5
    80001aca:	8766                	mv	a4,s9
    80001acc:	50f65b63          	bge	a2,a5,80001fe2 <_svfprintf_r+0x1aa8>
    80001ad0:	67a6                	ld	a5,72(sp)
    80001ad2:	00f70cbb          	addw	s9,a4,a5
    80001ad6:	77e2                	ld	a5,56(sp)
    80001ad8:	fffcc713          	not	a4,s9
    80001adc:	977d                	srai	a4,a4,0x3f
    80001ade:	bff7f913          	andi	s2,a5,-1025
    80001ae2:	2901                	sext.w	s2,s2
    80001ae4:	00ecf733          	and	a4,s9,a4
    80001ae8:	10096913          	ori	s2,s2,256
    80001aec:	00070b9b          	sext.w	s7,a4
    80001af0:	e082                	sd	zero,64(sp)
    80001af2:	fc02                	sd	zero,56(sp)
    80001af4:	f402                	sd	zero,40(sp)
    80001af6:	67aa                	ld	a5,136(sp)
    80001af8:	20078263          	beqz	a5,80001cfc <_svfprintf_r+0x17c2>
    80001afc:	02d00613          	li	a2,45
    80001b00:	0cc107a3          	sb	a2,207(sp)
    80001b04:	4e01                	li	t3,0
    80001b06:	2b85                	addiw	s7,s7,1
    80001b08:	b9dfe06f          	j	800006a4 <_svfprintf_r+0x16a>
    80001b0c:	1b02                	slli	s6,s6,0x20
    80001b0e:	020b5b13          	srli	s6,s6,0x20
    80001b12:	92aff06f          	j	80000c3c <_svfprintf_r+0x702>
    80001b16:	1b02                	slli	s6,s6,0x20
    80001b18:	020b5b13          	srli	s6,s6,0x20
    80001b1c:	8a3a                	mv	s4,a4
    80001b1e:	4785                	li	a5,1
    80001b20:	fddfe06f          	j	80000afc <_svfprintf_r+0x5c2>
    80001b24:	87da                	mv	a5,s6
    80001b26:	862ff06f          	j	80000b88 <_svfprintf_r+0x64e>
    80001b2a:	1b02                	slli	s6,s6,0x20
    80001b2c:	020b5b13          	srli	s6,s6,0x20
    80001b30:	b06d                	j	800013da <_svfprintf_r+0xea0>
    80001b32:	0cf14603          	lbu	a2,207(sp)
    80001b36:	bb61                	j	800018ce <_svfprintf_r+0x1394>
    80001b38:	65c2                	ld	a1,16(sp)
    80001b3a:	6522                	ld	a0,8(sp)
    80001b3c:	0210                	addi	a2,sp,256
    80001b3e:	242040ef          	jal	ra,80005d80 <__ssprint_r>
    80001b42:	c4ffe06f          	j	80000790 <_svfprintf_r+0x256>
    80001b46:	65c2                	ld	a1,16(sp)
    80001b48:	6522                	ld	a0,8(sp)
    80001b4a:	0210                	addi	a2,sp,256
    80001b4c:	234040ef          	jal	ra,80005d80 <__ssprint_r>
    80001b50:	bc051a63          	bnez	a0,80000f24 <_svfprintf_r+0x9ea>
    80001b54:	456e                	lw	a0,216(sp)
    80001b56:	6652                	ld	a2,272(sp)
    80001b58:	10812583          	lw	a1,264(sp)
    80001b5c:	0300                	addi	s0,sp,384
    80001b5e:	b60554e3          	bgez	a0,800016c6 <_svfprintf_r+0x118c>
    80001b62:	b1d1                	j	80001826 <_svfprintf_r+0x12ec>
    80001b64:	65c2                	ld	a1,16(sp)
    80001b66:	6522                	ld	a0,8(sp)
    80001b68:	0210                	addi	a2,sp,256
    80001b6a:	216040ef          	jal	ra,80005d80 <__ssprint_r>
    80001b6e:	ba051b63          	bnez	a0,80000f24 <_svfprintf_r+0x9ea>
    80001b72:	6d52                	ld	s10,272(sp)
    80001b74:	0300                	addi	s0,sp,384
    80001b76:	d80ff06f          	j	800010f6 <_svfprintf_r+0xbbc>
    80001b7a:	4e19                	li	t3,6
    80001b7c:	cfffe06f          	j	8000087a <_svfprintf_r+0x340>
    80001b80:	001e091b          	addiw	s2,t3,1
    80001b84:	4689                	li	a3,2
    80001b86:	bd19                	j	8000199c <_svfprintf_r+0x1462>
    80001b88:	8972                	mv	s2,t3
    80001b8a:	468d                	li	a3,3
    80001b8c:	bd01                	j	8000199c <_svfprintf_r+0x1462>
    80001b8e:	85de                	mv	a1,s7
    80001b90:	8562                	mv	a0,s8
    80001b92:	f872                	sd	t3,48(sp)
    80001b94:	f476                	sd	t4,40(sp)
    80001b96:	08a090ef          	jal	ra,8000ac20 <__trunctfdf2>
    80001b9a:	09a8                	addi	a0,sp,216
    80001b9c:	6cd030ef          	jal	ra,80005a68 <frexp>
    80001ba0:	7bd080ef          	jal	ra,8000ab5c <__extenddftf2>
    80001ba4:	0000a717          	auipc	a4,0xa
    80001ba8:	7dc70713          	addi	a4,a4,2012 # 8000c380 <blanks.1+0x18>
    80001bac:	6310                	ld	a2,0(a4)
    80001bae:	6714                	ld	a3,8(a4)
    80001bb0:	76d070ef          	jal	ra,80009b1c <__multf3>
    80001bb4:	4601                	li	a2,0
    80001bb6:	4681                	li	a3,0
    80001bb8:	8d2a                	mv	s10,a0
    80001bba:	892e                	mv	s2,a1
    80001bbc:	547070ef          	jal	ra,80009902 <__eqtf2>
    80001bc0:	7ea2                	ld	t4,40(sp)
    80001bc2:	7e42                	ld	t3,48(sp)
    80001bc4:	e119                	bnez	a0,80001bca <_svfprintf_r+0x1690>
    80001bc6:	4705                	li	a4,1
    80001bc8:	cdba                	sw	a4,216(sp)
    80001bca:	0000a797          	auipc	a5,0xa
    80001bce:	54e78793          	addi	a5,a5,1358 # 8000c118 <__malloc_trim_threshold+0x98>
    80001bd2:	f43e                	sd	a5,40(sp)
    80001bd4:	0000a697          	auipc	a3,0xa
    80001bd8:	7bc68693          	addi	a3,a3,1980 # 8000c390 <blanks.1+0x28>
    80001bdc:	020e1713          	slli	a4,t3,0x20
    80001be0:	629c                	ld	a5,0(a3)
    80001be2:	9301                	srli	a4,a4,0x20
    80001be4:	6694                	ld	a3,8(a3)
    80001be6:	0705                	addi	a4,a4,1
    80001be8:	9756                	add	a4,a4,s5
    80001bea:	000e061b          	sext.w	a2,t3
    80001bee:	f84e                	sd	s3,48(sp)
    80001bf0:	f122                	sd	s0,160(sp)
    80001bf2:	f556                	sd	s5,168(sp)
    80001bf4:	f952                	sd	s4,176(sp)
    80001bf6:	7422                	ld	s0,40(sp)
    80001bf8:	8a56                	mv	s4,s5
    80001bfa:	89ba                	mv	s3,a4
    80001bfc:	e0f6                	sd	t4,64(sp)
    80001bfe:	fd32                	sd	a2,184(sp)
    80001c00:	e926                	sd	s1,144(sp)
    80001c02:	ed72                	sd	t3,152(sp)
    80001c04:	8abe                	mv	s5,a5
    80001c06:	8b36                	mv	s6,a3
    80001c08:	a039                	j	80001c16 <_svfprintf_r+0x16dc>
    80001c0a:	4601                	li	a2,0
    80001c0c:	4681                	li	a3,0
    80001c0e:	4f5070ef          	jal	ra,80009902 <__eqtf2>
    80001c12:	3e050563          	beqz	a0,80001ffc <_svfprintf_r+0x1ac2>
    80001c16:	8656                	mv	a2,s5
    80001c18:	86da                	mv	a3,s6
    80001c1a:	856a                	mv	a0,s10
    80001c1c:	85ca                	mv	a1,s2
    80001c1e:	6ff070ef          	jal	ra,80009b1c <__multf3>
    80001c22:	84ae                	mv	s1,a1
    80001c24:	892a                	mv	s2,a0
    80001c26:	651080ef          	jal	ra,8000aa76 <__fixtfsi>
    80001c2a:	00050b9b          	sext.w	s7,a0
    80001c2e:	855e                	mv	a0,s7
    80001c30:	6d7080ef          	jal	ra,8000ab06 <__floatsitf>
    80001c34:	86ae                	mv	a3,a1
    80001c36:	862a                	mv	a2,a0
    80001c38:	85a6                	mv	a1,s1
    80001c3a:	854a                	mv	a0,s2
    80001c3c:	502080ef          	jal	ra,8000a13e <__subtf3>
    80001c40:	01740733          	add	a4,s0,s7
    80001c44:	00074683          	lbu	a3,0(a4)
    80001c48:	84d2                	mv	s1,s4
    80001c4a:	0a05                	addi	s4,s4,1
    80001c4c:	feda0fa3          	sb	a3,-1(s4)
    80001c50:	8c2a                	mv	s8,a0
    80001c52:	8d2a                	mv	s10,a0
    80001c54:	892e                	mv	s2,a1
    80001c56:	fb499ae3          	bne	s3,s4,80001c0a <_svfprintf_r+0x16d0>
    80001c5a:	79c2                	ld	s3,48(sp)
    80001c5c:	8b52                	mv	s6,s4
    80001c5e:	f826                	sd	s1,48(sp)
    80001c60:	6e86                	ld	t4,64(sp)
    80001c62:	64ca                	ld	s1,144(sp)
    80001c64:	6e6a                	ld	t3,152(sp)
    80001c66:	740a                	ld	s0,160(sp)
    80001c68:	7aaa                	ld	s5,168(sp)
    80001c6a:	7a4a                	ld	s4,176(sp)
    80001c6c:	8caa                	mv	s9,a0
    80001c6e:	8c2e                	mv	s8,a1
    80001c70:	597d                	li	s2,-1
    80001c72:	0000a697          	auipc	a3,0xa
    80001c76:	72e68693          	addi	a3,a3,1838 # 8000c3a0 <blanks.1+0x38>
    80001c7a:	0086bd03          	ld	s10,8(a3)
    80001c7e:	6290                	ld	a2,0(a3)
    80001c80:	8566                	mv	a0,s9
    80001c82:	86ea                	mv	a3,s10
    80001c84:	85e2                	mv	a1,s8
    80001c86:	e972                	sd	t3,144(sp)
    80001c88:	e0f6                	sd	t4,64(sp)
    80001c8a:	ed32                	sd	a2,152(sp)
    80001c8c:	511070ef          	jal	ra,8000999c <__getf2>
    80001c90:	6e86                	ld	t4,64(sp)
    80001c92:	6e4a                	ld	t3,144(sp)
    80001c94:	26a04863          	bgtz	a0,80001f04 <_svfprintf_r+0x19ca>
    80001c98:	666a                	ld	a2,152(sp)
    80001c9a:	86ea                	mv	a3,s10
    80001c9c:	8566                	mv	a0,s9
    80001c9e:	85e2                	mv	a1,s8
    80001ca0:	463070ef          	jal	ra,80009902 <__eqtf2>
    80001ca4:	6e86                	ld	t4,64(sp)
    80001ca6:	6e4a                	ld	t3,144(sp)
    80001ca8:	e509                	bnez	a0,80001cb2 <_svfprintf_r+0x1778>
    80001caa:	001bfb93          	andi	s7,s7,1
    80001cae:	240b9b63          	bnez	s7,80001f04 <_svfprintf_r+0x19ca>
    80001cb2:	00190b9b          	addiw	s7,s2,1
    80001cb6:	9bda                	add	s7,s7,s6
    80001cb8:	03000693          	li	a3,48
    80001cbc:	28094463          	bltz	s2,80001f44 <_svfprintf_r+0x1a0a>
    80001cc0:	0b05                	addi	s6,s6,1
    80001cc2:	fedb0fa3          	sb	a3,-1(s6)
    80001cc6:	ff6b9de3          	bne	s7,s6,80001cc0 <_svfprintf_r+0x1786>
    80001cca:	415b87bb          	subw	a5,s7,s5
    80001cce:	f83e                	sd	a5,48(sp)
    80001cd0:	fdfefd13          	andi	s10,t4,-33
    80001cd4:	b381                	j	80001a14 <_svfprintf_r+0x14da>
    80001cd6:	7bae                	ld	s7,232(sp)
    80001cd8:	466e                	lw	a2,216(sp)
    80001cda:	415b87bb          	subw	a5,s7,s5
    80001cde:	f83e                	sd	a5,48(sp)
    80001ce0:	5775                	li	a4,-3
    80001ce2:	f432                	sd	a2,40(sp)
    80001ce4:	00e64463          	blt	a2,a4,80001cec <_svfprintf_r+0x17b2>
    80001ce8:	02ce5263          	bge	t3,a2,80001d0c <_svfprintf_r+0x17d2>
    80001cec:	fff6071b          	addiw	a4,a2,-1
    80001cf0:	3ef9                	addiw	t4,t4,-2
    80001cf2:	cdba                	sw	a4,216(sp)
    80001cf4:	0ffef693          	zext.b	a3,t4
    80001cf8:	4581                	li	a1,0
    80001cfa:	b3a9                	j	80001a44 <_svfprintf_r+0x150a>
    80001cfc:	0cf14603          	lbu	a2,207(sp)
    80001d00:	4e01                	li	t3,0
    80001d02:	c219                	beqz	a2,80001d08 <_svfprintf_r+0x17ce>
    80001d04:	d01fe06f          	j	80000a04 <_svfprintf_r+0x4ca>
    80001d08:	99dfe06f          	j	800006a4 <_svfprintf_r+0x16a>
    80001d0c:	77c2                	ld	a5,48(sp)
    80001d0e:	1af64663          	blt	a2,a5,80001eba <_svfprintf_r+0x1980>
    80001d12:	77e2                	ld	a5,56(sp)
    80001d14:	8cb2                	mv	s9,a2
    80001d16:	0017f713          	andi	a4,a5,1
    80001d1a:	c701                	beqz	a4,80001d22 <_svfprintf_r+0x17e8>
    80001d1c:	67a6                	ld	a5,72(sp)
    80001d1e:	00c78cbb          	addw	s9,a5,a2
    80001d22:	77e2                	ld	a5,56(sp)
    80001d24:	4007f713          	andi	a4,a5,1024
    80001d28:	c319                	beqz	a4,80001d2e <_svfprintf_r+0x17f4>
    80001d2a:	2ec04d63          	bgtz	a2,80002024 <_svfprintf_r+0x1aea>
    80001d2e:	fffcc713          	not	a4,s9
    80001d32:	977d                	srai	a4,a4,0x3f
    80001d34:	690a                	ld	s2,128(sp)
    80001d36:	00ecf733          	and	a4,s9,a4
    80001d3a:	00070b9b          	sext.w	s7,a4
    80001d3e:	06700e93          	li	t4,103
    80001d42:	e082                	sd	zero,64(sp)
    80001d44:	fc02                	sd	zero,56(sp)
    80001d46:	bb45                	j	80001af6 <_svfprintf_r+0x15bc>
    80001d48:	77e2                	ld	a5,56(sp)
    80001d4a:	0017f713          	andi	a4,a5,1
    80001d4e:	d741                	beqz	a4,80001cd6 <_svfprintf_r+0x179c>
    80001d50:	012a8cb3          	add	s9,s5,s2
    80001d54:	04700d13          	li	s10,71
    80001d58:	b151                	j	800019dc <_svfprintf_r+0x14a2>
    80001d5a:	0210                	addi	a2,sp,256
    80001d5c:	85a2                	mv	a1,s0
    80001d5e:	8566                	mv	a0,s9
    80001d60:	020040ef          	jal	ra,80005d80 <__ssprint_r>
    80001d64:	9c051063          	bnez	a0,80000f24 <_svfprintf_r+0x9ea>
    80001d68:	0009c603          	lbu	a2,0(s3)
    80001d6c:	66d2                	ld	a3,272(sp)
    80001d6e:	031c                	addi	a5,sp,384
    80001d70:	4841                	li	a6,16
    80001d72:	489d                	li	a7,7
    80001d74:	9a32                	add	s4,s4,a2
    80001d76:	837ff06f          	j	800015ac <_svfprintf_r+0x1072>
    80001d7a:	07800713          	li	a4,120
    80001d7e:	00296793          	ori	a5,s2,2
    80001d82:	03000693          	li	a3,48
    80001d86:	2781                	sext.w	a5,a5
    80001d88:	0ce108a3          	sb	a4,209(sp)
    80001d8c:	0cd10823          	sb	a3,208(sp)
    80001d90:	06300713          	li	a4,99
    80001d94:	fc3e                	sd	a5,56(sp)
    80001d96:	f002                	sd	zero,32(sp)
    80001d98:	11810a93          	addi	s5,sp,280
    80001d9c:	1bc74c63          	blt	a4,t3,80001f54 <_svfprintf_r+0x1a1a>
    80001da0:	10296913          	ori	s2,s2,258
    80001da4:	7bee                	ld	s7,248(sp)
    80001da6:	0009079b          	sext.w	a5,s2
    80001daa:	e13e                	sd	a5,128(sp)
    80001dac:	e502                	sd	zero,136(sp)
    80001dae:	7c4e                	ld	s8,240(sp)
    80001db0:	040bcd63          	bltz	s7,80001e0a <_svfprintf_r+0x18d0>
    80001db4:	06100713          	li	a4,97
    80001db8:	00ee8463          	beq	t4,a4,80001dc0 <_svfprintf_r+0x1886>
    80001dbc:	adbfe06f          	j	80000896 <_svfprintf_r+0x35c>
    80001dc0:	85de                	mv	a1,s7
    80001dc2:	8562                	mv	a0,s8
    80001dc4:	f872                	sd	t3,48(sp)
    80001dc6:	f476                	sd	t4,40(sp)
    80001dc8:	659080ef          	jal	ra,8000ac20 <__trunctfdf2>
    80001dcc:	09a8                	addi	a0,sp,216
    80001dce:	49b030ef          	jal	ra,80005a68 <frexp>
    80001dd2:	58b080ef          	jal	ra,8000ab5c <__extenddftf2>
    80001dd6:	0000a717          	auipc	a4,0xa
    80001dda:	5aa70713          	addi	a4,a4,1450 # 8000c380 <blanks.1+0x18>
    80001dde:	6310                	ld	a2,0(a4)
    80001de0:	6714                	ld	a3,8(a4)
    80001de2:	53b070ef          	jal	ra,80009b1c <__multf3>
    80001de6:	4601                	li	a2,0
    80001de8:	4681                	li	a3,0
    80001dea:	8d2a                	mv	s10,a0
    80001dec:	892e                	mv	s2,a1
    80001dee:	315070ef          	jal	ra,80009902 <__eqtf2>
    80001df2:	7ea2                	ld	t4,40(sp)
    80001df4:	7e42                	ld	t3,48(sp)
    80001df6:	e119                	bnez	a0,80001dfc <_svfprintf_r+0x18c2>
    80001df8:	4705                	li	a4,1
    80001dfa:	cdba                	sw	a4,216(sp)
    80001dfc:	0000a797          	auipc	a5,0xa
    80001e00:	33478793          	addi	a5,a5,820 # 8000c130 <__malloc_trim_threshold+0xb0>
    80001e04:	f43e                	sd	a5,40(sp)
    80001e06:	b3f9                	j	80001bd4 <_svfprintf_r+0x169a>
    80001e08:	f002                	sd	zero,32(sp)
    80001e0a:	577d                	li	a4,-1
    80001e0c:	177e                	slli	a4,a4,0x3f
    80001e0e:	02d00793          	li	a5,45
    80001e12:	00ebcbb3          	xor	s7,s7,a4
    80001e16:	e53e                	sd	a5,136(sp)
    80001e18:	bf71                	j	80001db4 <_svfprintf_r+0x187a>
    80001e1a:	65c2                	ld	a1,16(sp)
    80001e1c:	6522                	ld	a0,8(sp)
    80001e1e:	0210                	addi	a2,sp,256
    80001e20:	761030ef          	jal	ra,80005d80 <__ssprint_r>
    80001e24:	90051063          	bnez	a0,80000f24 <_svfprintf_r+0x9ea>
    80001e28:	46ee                	lw	a3,216(sp)
    80001e2a:	6652                	ld	a2,272(sp)
    80001e2c:	0300                	addi	s0,sp,384
    80001e2e:	b06ff06f          	j	80001134 <_svfprintf_r+0xbfa>
    80001e32:	02d00793          	li	a5,45
    80001e36:	0cf107a3          	sb	a5,207(sp)
    80001e3a:	02d00613          	li	a2,45
    80001e3e:	ba99                	j	80001794 <_svfprintf_r+0x125a>
    80001e40:	0cf14603          	lbu	a2,207(sp)
    80001e44:	e082                	sd	zero,64(sp)
    80001e46:	fc02                	sd	zero,56(sp)
    80001e48:	f402                	sd	zero,40(sp)
    80001e4a:	8bf2                	mv	s7,t3
    80001e4c:	8cf2                	mv	s9,t3
    80001e4e:	4e01                	li	t3,0
    80001e50:	c219                	beqz	a2,80001e56 <_svfprintf_r+0x191c>
    80001e52:	bb3fe06f          	j	80000a04 <_svfprintf_r+0x4ca>
    80001e56:	84ffe06f          	j	800006a4 <_svfprintf_r+0x16a>
    80001e5a:	00054683          	lbu	a3,0(a0)
    80001e5e:	03000713          	li	a4,48
    80001e62:	00e68563          	beq	a3,a4,80001e6c <_svfprintf_r+0x1932>
    80001e66:	46ee                	lw	a3,216(sp)
    80001e68:	9cb6                	add	s9,s9,a3
    80001e6a:	be8d                	j	800019dc <_svfprintf_r+0x14a2>
    80001e6c:	4601                	li	a2,0
    80001e6e:	4681                	li	a3,0
    80001e70:	8562                	mv	a0,s8
    80001e72:	85de                	mv	a1,s7
    80001e74:	f872                	sd	t3,48(sp)
    80001e76:	f476                	sd	t4,40(sp)
    80001e78:	28b070ef          	jal	ra,80009902 <__eqtf2>
    80001e7c:	7ea2                	ld	t4,40(sp)
    80001e7e:	7e42                	ld	t3,48(sp)
    80001e80:	d17d                	beqz	a0,80001e66 <_svfprintf_r+0x192c>
    80001e82:	4705                	li	a4,1
    80001e84:	412706bb          	subw	a3,a4,s2
    80001e88:	cdb6                	sw	a3,216(sp)
    80001e8a:	9cb6                	add	s9,s9,a3
    80001e8c:	be81                	j	800019dc <_svfprintf_r+0x14a2>
    80001e8e:	65c2                	ld	a1,16(sp)
    80001e90:	6522                	ld	a0,8(sp)
    80001e92:	0210                	addi	a2,sp,256
    80001e94:	6ed030ef          	jal	ra,80005d80 <__ssprint_r>
    80001e98:	c119                	beqz	a0,80001e9e <_svfprintf_r+0x1964>
    80001e9a:	88aff06f          	j	80000f24 <_svfprintf_r+0x9ea>
    80001e9e:	45ee                	lw	a1,216(sp)
    80001ea0:	77c2                	ld	a5,48(sp)
    80001ea2:	6652                	ld	a2,272(sp)
    80001ea4:	0300                	addi	s0,sp,384
    80001ea6:	40b785bb          	subw	a1,a5,a1
    80001eaa:	ac2ff06f          	j	8000116c <_svfprintf_r+0xc32>
    80001eae:	8c4a                	mv	s8,s2
    80001eb0:	890ff06f          	j	80000f40 <_svfprintf_r+0xa06>
    80001eb4:	05800713          	li	a4,88
    80001eb8:	b5d9                	j	80001d7e <_svfprintf_r+0x1844>
    80001eba:	67a6                	ld	a5,72(sp)
    80001ebc:	7742                	ld	a4,48(sp)
    80001ebe:	06700e93          	li	t4,103
    80001ec2:	00e78cbb          	addw	s9,a5,a4
    80001ec6:	77a2                	ld	a5,40(sp)
    80001ec8:	1cf05263          	blez	a5,8000208c <_svfprintf_r+0x1b52>
    80001ecc:	77e2                	ld	a5,56(sp)
    80001ece:	4007f713          	andi	a4,a5,1024
    80001ed2:	14071b63          	bnez	a4,80002028 <_svfprintf_r+0x1aee>
    80001ed6:	fffcc713          	not	a4,s9
    80001eda:	977d                	srai	a4,a4,0x3f
    80001edc:	00ecf733          	and	a4,s9,a4
    80001ee0:	690a                	ld	s2,128(sp)
    80001ee2:	00070b9b          	sext.w	s7,a4
    80001ee6:	bdb1                	j	80001d42 <_svfprintf_r+0x1808>
    80001ee8:	77e2                	ld	a5,56(sp)
    80001eea:	0017f713          	andi	a4,a5,1
    80001eee:	77a2                	ld	a5,40(sp)
    80001ef0:	00ee6733          	or	a4,t3,a4
    80001ef4:	1ef05263          	blez	a5,800020d8 <_svfprintf_r+0x1b9e>
    80001ef8:	1a071763          	bnez	a4,800020a6 <_svfprintf_r+0x1b6c>
    80001efc:	7ca2                	ld	s9,40(sp)
    80001efe:	06600e93          	li	t4,102
    80001f02:	b7e9                	j	80001ecc <_svfprintf_r+0x1992>
    80001f04:	77c2                	ld	a5,48(sp)
    80001f06:	86da                	mv	a3,s6
    80001f08:	f5be                	sd	a5,232(sp)
    80001f0a:	77a2                	ld	a5,40(sp)
    80001f0c:	fffb4603          	lbu	a2,-1(s6)
    80001f10:	00f7c583          	lbu	a1,15(a5)
    80001f14:	00c59e63          	bne	a1,a2,80001f30 <_svfprintf_r+0x19f6>
    80001f18:	03000513          	li	a0,48
    80001f1c:	fea68fa3          	sb	a0,-1(a3)
    80001f20:	76ae                	ld	a3,232(sp)
    80001f22:	fff68793          	addi	a5,a3,-1
    80001f26:	f5be                	sd	a5,232(sp)
    80001f28:	fff6c603          	lbu	a2,-1(a3)
    80001f2c:	fec588e3          	beq	a1,a2,80001f1c <_svfprintf_r+0x19e2>
    80001f30:	0016059b          	addiw	a1,a2,1
    80001f34:	03900513          	li	a0,57
    80001f38:	0ff5f593          	zext.b	a1,a1
    80001f3c:	00a60663          	beq	a2,a0,80001f48 <_svfprintf_r+0x1a0e>
    80001f40:	feb68fa3          	sb	a1,-1(a3)
    80001f44:	8bda                	mv	s7,s6
    80001f46:	b351                	j	80001cca <_svfprintf_r+0x1790>
    80001f48:	77a2                	ld	a5,40(sp)
    80001f4a:	00a7c583          	lbu	a1,10(a5)
    80001f4e:	feb68fa3          	sb	a1,-1(a3)
    80001f52:	bfcd                	j	80001f44 <_svfprintf_r+0x1a0a>
    80001f54:	6522                	ld	a0,8(sp)
    80001f56:	001e059b          	addiw	a1,t3,1
    80001f5a:	f476                	sd	t4,40(sp)
    80001f5c:	f072                	sd	t3,32(sp)
    80001f5e:	712020ef          	jal	ra,80004670 <_malloc_r>
    80001f62:	7e02                	ld	t3,32(sp)
    80001f64:	7ea2                	ld	t4,40(sp)
    80001f66:	8aaa                	mv	s5,a0
    80001f68:	1a050663          	beqz	a0,80002114 <_svfprintf_r+0x1bda>
    80001f6c:	f02a                	sd	a0,32(sp)
    80001f6e:	bd0d                	j	80001da0 <_svfprintf_r+0x1866>
    80001f70:	2585                	addiw	a1,a1,1
    80001f72:	9662                	add	a2,a2,s8
    80001f74:	01a43023          	sd	s10,0(s0)
    80001f78:	01843423          	sd	s8,8(s0)
    80001f7c:	ea32                	sd	a2,272(sp)
    80001f7e:	10b12423          	sw	a1,264(sp)
    80001f82:	469d                	li	a3,7
    80001f84:	f4b6d063          	bge	a3,a1,800016c4 <_svfprintf_r+0x118a>
    80001f88:	65c2                	ld	a1,16(sp)
    80001f8a:	6522                	ld	a0,8(sp)
    80001f8c:	0210                	addi	a2,sp,256
    80001f8e:	5f3030ef          	jal	ra,80005d80 <__ssprint_r>
    80001f92:	c119                	beqz	a0,80001f98 <_svfprintf_r+0x1a5e>
    80001f94:	f91fe06f          	j	80000f24 <_svfprintf_r+0x9ea>
    80001f98:	6652                	ld	a2,272(sp)
    80001f9a:	10812583          	lw	a1,264(sp)
    80001f9e:	0300                	addi	s0,sp,384
    80001fa0:	f26ff06f          	j	800016c6 <_svfprintf_r+0x118c>
    80001fa4:	0e210693          	addi	a3,sp,226
    80001fa8:	e599                	bnez	a1,80001fb6 <_svfprintf_r+0x1a7c>
    80001faa:	03000693          	li	a3,48
    80001fae:	0ed10123          	sb	a3,226(sp)
    80001fb2:	0e310693          	addi	a3,sp,227
    80001fb6:	041c                	addi	a5,sp,512
    80001fb8:	40f68633          	sub	a2,a3,a5
    80001fbc:	0307071b          	addiw	a4,a4,48
    80001fc0:	1216079b          	addiw	a5,a2,289
    80001fc4:	00e68023          	sb	a4,0(a3)
    80001fc8:	f0be                	sd	a5,96(sp)
    80001fca:	bcdd                	j	80001ac0 <_svfprintf_r+0x1586>
    80001fcc:	c31c                	sw	a5,0(a4)
    80001fce:	0a21                	addi	s4,s4,8
    80001fd0:	ceffe06f          	j	80000cbe <_svfprintf_r+0x784>
    80001fd4:	6722                	ld	a4,8(sp)
    80001fd6:	47b1                	li	a5,12
    80001fd8:	c31c                	sw	a5,0(a4)
    80001fda:	57fd                	li	a5,-1
    80001fdc:	ec3e                	sd	a5,24(sp)
    80001fde:	fc2fe06f          	j	800007a0 <_svfprintf_r+0x266>
    80001fe2:	77e2                	ld	a5,56(sp)
    80001fe4:	0017f613          	andi	a2,a5,1
    80001fe8:	ae0607e3          	beqz	a2,80001ad6 <_svfprintf_r+0x159c>
    80001fec:	b4d5                	j	80001ad0 <_svfprintf_r+0x1596>
    80001fee:	000e0463          	beqz	t3,80001ff6 <_svfprintf_r+0x1abc>
    80001ff2:	889fe06f          	j	8000087a <_svfprintf_r+0x340>
    80001ff6:	4e05                	li	t3,1
    80001ff8:	883fe06f          	j	8000087a <_svfprintf_r+0x340>
    80001ffc:	766a                	ld	a2,184(sp)
    80001ffe:	7aaa                	ld	s5,168(sp)
    80002000:	8b52                	mv	s6,s4
    80002002:	79c2                	ld	s3,48(sp)
    80002004:	00ca863b          	addw	a2,s5,a2
    80002008:	f826                	sd	s1,48(sp)
    8000200a:	8ce2                	mv	s9,s8
    8000200c:	6e86                	ld	t4,64(sp)
    8000200e:	8c4a                	mv	s8,s2
    80002010:	64ca                	ld	s1,144(sp)
    80002012:	6e6a                	ld	t3,152(sp)
    80002014:	740a                	ld	s0,160(sp)
    80002016:	7a4a                	ld	s4,176(sp)
    80002018:	4166093b          	subw	s2,a2,s6
    8000201c:	b999                	j	80001c72 <_svfprintf_r+0x1738>
    8000201e:	8a3a                	mv	s4,a4
    80002020:	f21fe06f          	j	80000f40 <_svfprintf_r+0xa06>
    80002024:	06700e93          	li	t4,103
    80002028:	76a6                	ld	a3,104(sp)
    8000202a:	0ff00613          	li	a2,255
    8000202e:	0006c703          	lbu	a4,0(a3)
    80002032:	0cc70e63          	beq	a4,a2,8000210e <_svfprintf_r+0x1bd4>
    80002036:	77a2                	ld	a5,40(sp)
    80002038:	4801                	li	a6,0
    8000203a:	4501                	li	a0,0
    8000203c:	0ff00593          	li	a1,255
    80002040:	0007061b          	sext.w	a2,a4
    80002044:	00f75a63          	bge	a4,a5,80002058 <_svfprintf_r+0x1b1e>
    80002048:	0016c703          	lbu	a4,1(a3)
    8000204c:	9f91                	subw	a5,a5,a2
    8000204e:	cb1d                	beqz	a4,80002084 <_svfprintf_r+0x1b4a>
    80002050:	2505                	addiw	a0,a0,1
    80002052:	0685                	addi	a3,a3,1
    80002054:	feb716e3          	bne	a4,a1,80002040 <_svfprintf_r+0x1b06>
    80002058:	f4b6                	sd	a3,104(sp)
    8000205a:	f43e                	sd	a5,40(sp)
    8000205c:	fc2a                	sd	a0,56(sp)
    8000205e:	e0c2                	sd	a6,64(sp)
    80002060:	6786                	ld	a5,64(sp)
    80002062:	7762                	ld	a4,56(sp)
    80002064:	690a                	ld	s2,128(sp)
    80002066:	9f3d                	addw	a4,a4,a5
    80002068:	77c6                	ld	a5,112(sp)
    8000206a:	02f7073b          	mulw	a4,a4,a5
    8000206e:	0197073b          	addw	a4,a4,s9
    80002072:	00070c9b          	sext.w	s9,a4
    80002076:	fffcc613          	not	a2,s9
    8000207a:	967d                	srai	a2,a2,0x3f
    8000207c:	8f71                	and	a4,a4,a2
    8000207e:	00070b9b          	sext.w	s7,a4
    80002082:	bc95                	j	80001af6 <_svfprintf_r+0x15bc>
    80002084:	0006c703          	lbu	a4,0(a3)
    80002088:	2805                	addiw	a6,a6,1
    8000208a:	b7e9                	j	80002054 <_svfprintf_r+0x1b1a>
    8000208c:	40fc873b          	subw	a4,s9,a5
    80002090:	2705                	addiw	a4,a4,1
    80002092:	00070c9b          	sext.w	s9,a4
    80002096:	fffcc613          	not	a2,s9
    8000209a:	967d                	srai	a2,a2,0x3f
    8000209c:	8f71                	and	a4,a4,a2
    8000209e:	690a                	ld	s2,128(sp)
    800020a0:	00070b9b          	sext.w	s7,a4
    800020a4:	b979                	j	80001d42 <_svfprintf_r+0x1808>
    800020a6:	6726                	ld	a4,72(sp)
    800020a8:	06600e93          	li	t4,102
    800020ac:	00f706bb          	addw	a3,a4,a5
    800020b0:	01c68cbb          	addw	s9,a3,t3
    800020b4:	bd21                	j	80001ecc <_svfprintf_r+0x1992>
    800020b6:	07000693          	li	a3,112
    800020ba:	b261                	j	80001a42 <_svfprintf_r+0x1508>
    800020bc:	000a2703          	lw	a4,0(s4)
    800020c0:	0a21                	addi	s4,s4,8
    800020c2:	8e3a                	mv	t3,a4
    800020c4:	00075363          	bgez	a4,800020ca <_svfprintf_r+0x1b90>
    800020c8:	5e7d                	li	t3,-1
    800020ca:	0019ce83          	lbu	t4,1(s3)
    800020ce:	000e0b9b          	sext.w	s7,t3
    800020d2:	89be                	mv	s3,a5
    800020d4:	d56fe06f          	j	8000062a <_svfprintf_r+0xf0>
    800020d8:	e719                	bnez	a4,800020e6 <_svfprintf_r+0x1bac>
    800020da:	690a                	ld	s2,128(sp)
    800020dc:	4b85                	li	s7,1
    800020de:	06600e93          	li	t4,102
    800020e2:	4c85                	li	s9,1
    800020e4:	b9b9                	j	80001d42 <_svfprintf_r+0x1808>
    800020e6:	67a6                	ld	a5,72(sp)
    800020e8:	690a                	ld	s2,128(sp)
    800020ea:	06600e93          	li	t4,102
    800020ee:	0017871b          	addiw	a4,a5,1
    800020f2:	01c7073b          	addw	a4,a4,t3
    800020f6:	00070c9b          	sext.w	s9,a4
    800020fa:	fffcc613          	not	a2,s9
    800020fe:	967d                	srai	a2,a2,0x3f
    80002100:	8f71                	and	a4,a4,a2
    80002102:	00070b9b          	sext.w	s7,a4
    80002106:	b935                	j	80001d42 <_svfprintf_r+0x1808>
    80002108:	4789                	li	a5,2
    8000210a:	f0be                	sd	a5,96(sp)
    8000210c:	ba55                	j	80001ac0 <_svfprintf_r+0x1586>
    8000210e:	e082                	sd	zero,64(sp)
    80002110:	fc02                	sd	zero,56(sp)
    80002112:	b7b9                	j	80002060 <_svfprintf_r+0x1b26>
    80002114:	6742                	ld	a4,16(sp)
    80002116:	01075783          	lhu	a5,16(a4)
    8000211a:	0407e793          	ori	a5,a5,64
    8000211e:	00f71823          	sh	a5,16(a4)
    80002122:	e6efe06f          	j	80000790 <_svfprintf_r+0x256>

0000000080002126 <_malloc_trim_r>:
    80002126:	7179                	addi	sp,sp,-48
    80002128:	f022                	sd	s0,32(sp)
    8000212a:	ec26                	sd	s1,24(sp)
    8000212c:	e84a                	sd	s2,16(sp)
    8000212e:	e44e                	sd	s3,8(sp)
    80002130:	e052                	sd	s4,0(sp)
    80002132:	89ae                	mv	s3,a1
    80002134:	f406                	sd	ra,40(sp)
    80002136:	00009a17          	auipc	s4,0x9
    8000213a:	72aa0a13          	addi	s4,s4,1834 # 8000b860 <__malloc_av_>
    8000213e:	892a                	mv	s2,a0
    80002140:	417020ef          	jal	ra,80004d56 <__malloc_lock>
    80002144:	010a3703          	ld	a4,16(s4)
    80002148:	6785                	lui	a5,0x1
    8000214a:	fdf78413          	addi	s0,a5,-33 # fdf <_prog_start-0x7ffff021>
    8000214e:	6704                	ld	s1,8(a4)
    80002150:	98f1                	andi	s1,s1,-4
    80002152:	9426                	add	s0,s0,s1
    80002154:	41340433          	sub	s0,s0,s3
    80002158:	8031                	srli	s0,s0,0xc
    8000215a:	147d                	addi	s0,s0,-1
    8000215c:	0432                	slli	s0,s0,0xc
    8000215e:	00f44b63          	blt	s0,a5,80002174 <_malloc_trim_r+0x4e>
    80002162:	4581                	li	a1,0
    80002164:	854a                	mv	a0,s2
    80002166:	0cb030ef          	jal	ra,80005a30 <_sbrk_r>
    8000216a:	010a3783          	ld	a5,16(s4)
    8000216e:	97a6                	add	a5,a5,s1
    80002170:	00f50e63          	beq	a0,a5,8000218c <_malloc_trim_r+0x66>
    80002174:	854a                	mv	a0,s2
    80002176:	3e3020ef          	jal	ra,80004d58 <__malloc_unlock>
    8000217a:	70a2                	ld	ra,40(sp)
    8000217c:	7402                	ld	s0,32(sp)
    8000217e:	64e2                	ld	s1,24(sp)
    80002180:	6942                	ld	s2,16(sp)
    80002182:	69a2                	ld	s3,8(sp)
    80002184:	6a02                	ld	s4,0(sp)
    80002186:	4501                	li	a0,0
    80002188:	6145                	addi	sp,sp,48
    8000218a:	8082                	ret
    8000218c:	408005b3          	neg	a1,s0
    80002190:	854a                	mv	a0,s2
    80002192:	09f030ef          	jal	ra,80005a30 <_sbrk_r>
    80002196:	57fd                	li	a5,-1
    80002198:	02f50b63          	beq	a0,a5,800021ce <_malloc_trim_r+0xa8>
    8000219c:	ffffe717          	auipc	a4,0xffffe
    800021a0:	e9470713          	addi	a4,a4,-364 # 80000030 <__malloc_current_mallinfo>
    800021a4:	431c                	lw	a5,0(a4)
    800021a6:	010a3683          	ld	a3,16(s4)
    800021aa:	8c81                	sub	s1,s1,s0
    800021ac:	0014e493          	ori	s1,s1,1
    800021b0:	9f81                	subw	a5,a5,s0
    800021b2:	854a                	mv	a0,s2
    800021b4:	e684                	sd	s1,8(a3)
    800021b6:	c31c                	sw	a5,0(a4)
    800021b8:	3a1020ef          	jal	ra,80004d58 <__malloc_unlock>
    800021bc:	70a2                	ld	ra,40(sp)
    800021be:	7402                	ld	s0,32(sp)
    800021c0:	64e2                	ld	s1,24(sp)
    800021c2:	6942                	ld	s2,16(sp)
    800021c4:	69a2                	ld	s3,8(sp)
    800021c6:	6a02                	ld	s4,0(sp)
    800021c8:	4505                	li	a0,1
    800021ca:	6145                	addi	sp,sp,48
    800021cc:	8082                	ret
    800021ce:	4581                	li	a1,0
    800021d0:	854a                	mv	a0,s2
    800021d2:	05f030ef          	jal	ra,80005a30 <_sbrk_r>
    800021d6:	010a3703          	ld	a4,16(s4)
    800021da:	46fd                	li	a3,31
    800021dc:	40e507b3          	sub	a5,a0,a4
    800021e0:	f8f6dae3          	bge	a3,a5,80002174 <_malloc_trim_r+0x4e>
    800021e4:	0000a697          	auipc	a3,0xa
    800021e8:	e946b683          	ld	a3,-364(a3) # 8000c078 <__malloc_sbrk_base>
    800021ec:	8d15                	sub	a0,a0,a3
    800021ee:	0017e793          	ori	a5,a5,1
    800021f2:	ffffe697          	auipc	a3,0xffffe
    800021f6:	e2a6af23          	sw	a0,-450(a3) # 80000030 <__malloc_current_mallinfo>
    800021fa:	e71c                	sd	a5,8(a4)
    800021fc:	bfa5                	j	80002174 <_malloc_trim_r+0x4e>

00000000800021fe <_free_r>:
    800021fe:	12058463          	beqz	a1,80002326 <_free_r+0x128>
    80002202:	1101                	addi	sp,sp,-32
    80002204:	e822                	sd	s0,16(sp)
    80002206:	e426                	sd	s1,8(sp)
    80002208:	842e                	mv	s0,a1
    8000220a:	84aa                	mv	s1,a0
    8000220c:	ec06                	sd	ra,24(sp)
    8000220e:	349020ef          	jal	ra,80004d56 <__malloc_lock>
    80002212:	ff843583          	ld	a1,-8(s0)
    80002216:	ff040713          	addi	a4,s0,-16
    8000221a:	00009517          	auipc	a0,0x9
    8000221e:	64650513          	addi	a0,a0,1606 # 8000b860 <__malloc_av_>
    80002222:	ffe5f793          	andi	a5,a1,-2
    80002226:	00f70633          	add	a2,a4,a5
    8000222a:	6614                	ld	a3,8(a2)
    8000222c:	01053803          	ld	a6,16(a0)
    80002230:	9af1                	andi	a3,a3,-4
    80002232:	12c80c63          	beq	a6,a2,8000236a <_free_r+0x16c>
    80002236:	e614                	sd	a3,8(a2)
    80002238:	8985                	andi	a1,a1,1
    8000223a:	00d60833          	add	a6,a2,a3
    8000223e:	e1c1                	bnez	a1,800022be <_free_r+0xc0>
    80002240:	ff043303          	ld	t1,-16(s0)
    80002244:	00883583          	ld	a1,8(a6)
    80002248:	00009897          	auipc	a7,0x9
    8000224c:	62888893          	addi	a7,a7,1576 # 8000b870 <__malloc_av_+0x10>
    80002250:	40670733          	sub	a4,a4,t1
    80002254:	01073803          	ld	a6,16(a4)
    80002258:	979a                	add	a5,a5,t1
    8000225a:	8985                	andi	a1,a1,1
    8000225c:	0f180b63          	beq	a6,a7,80002352 <_free_r+0x154>
    80002260:	01873303          	ld	t1,24(a4)
    80002264:	00683c23          	sd	t1,24(a6)
    80002268:	01033823          	sd	a6,16(t1) # ffffffff80000010 <__clz_tab+0xfffffffeffff32e8>
    8000226c:	12058c63          	beqz	a1,800023a4 <_free_r+0x1a6>
    80002270:	0017e693          	ori	a3,a5,1
    80002274:	e714                	sd	a3,8(a4)
    80002276:	e21c                	sd	a5,0(a2)
    80002278:	1ff00693          	li	a3,511
    8000227c:	04f6ee63          	bltu	a3,a5,800022d8 <_free_r+0xda>
    80002280:	838d                	srli	a5,a5,0x3
    80002282:	0017869b          	addiw	a3,a5,1
    80002286:	0016969b          	slliw	a3,a3,0x1
    8000228a:	068e                	slli	a3,a3,0x3
    8000228c:	00853803          	ld	a6,8(a0)
    80002290:	96aa                	add	a3,a3,a0
    80002292:	628c                	ld	a1,0(a3)
    80002294:	4027d61b          	sraiw	a2,a5,0x2
    80002298:	4785                	li	a5,1
    8000229a:	00c797b3          	sll	a5,a5,a2
    8000229e:	0107e7b3          	or	a5,a5,a6
    800022a2:	ff068613          	addi	a2,a3,-16
    800022a6:	ef10                	sd	a2,24(a4)
    800022a8:	eb0c                	sd	a1,16(a4)
    800022aa:	e51c                	sd	a5,8(a0)
    800022ac:	e298                	sd	a4,0(a3)
    800022ae:	ed98                	sd	a4,24(a1)
    800022b0:	6442                	ld	s0,16(sp)
    800022b2:	60e2                	ld	ra,24(sp)
    800022b4:	8526                	mv	a0,s1
    800022b6:	64a2                	ld	s1,8(sp)
    800022b8:	6105                	addi	sp,sp,32
    800022ba:	29f0206f          	j	80004d58 <__malloc_unlock>
    800022be:	00883583          	ld	a1,8(a6)
    800022c2:	8985                	andi	a1,a1,1
    800022c4:	c1b5                	beqz	a1,80002328 <_free_r+0x12a>
    800022c6:	0017e693          	ori	a3,a5,1
    800022ca:	fed43c23          	sd	a3,-8(s0)
    800022ce:	e21c                	sd	a5,0(a2)
    800022d0:	1ff00693          	li	a3,511
    800022d4:	faf6f6e3          	bgeu	a3,a5,80002280 <_free_r+0x82>
    800022d8:	0097d693          	srli	a3,a5,0x9
    800022dc:	4611                	li	a2,4
    800022de:	0cd66563          	bltu	a2,a3,800023a8 <_free_r+0x1aa>
    800022e2:	0067d693          	srli	a3,a5,0x6
    800022e6:	0396859b          	addiw	a1,a3,57
    800022ea:	0015959b          	slliw	a1,a1,0x1
    800022ee:	0386861b          	addiw	a2,a3,56
    800022f2:	058e                	slli	a1,a1,0x3
    800022f4:	95aa                	add	a1,a1,a0
    800022f6:	6194                	ld	a3,0(a1)
    800022f8:	15c1                	addi	a1,a1,-16
    800022fa:	00d59663          	bne	a1,a3,80002306 <_free_r+0x108>
    800022fe:	a8d5                	j	800023f2 <_free_r+0x1f4>
    80002300:	6a94                	ld	a3,16(a3)
    80002302:	00d58663          	beq	a1,a3,8000230e <_free_r+0x110>
    80002306:	6690                	ld	a2,8(a3)
    80002308:	9a71                	andi	a2,a2,-4
    8000230a:	fec7ebe3          	bltu	a5,a2,80002300 <_free_r+0x102>
    8000230e:	6e8c                	ld	a1,24(a3)
    80002310:	ef0c                	sd	a1,24(a4)
    80002312:	eb14                	sd	a3,16(a4)
    80002314:	6442                	ld	s0,16(sp)
    80002316:	60e2                	ld	ra,24(sp)
    80002318:	e998                	sd	a4,16(a1)
    8000231a:	8526                	mv	a0,s1
    8000231c:	64a2                	ld	s1,8(sp)
    8000231e:	ee98                	sd	a4,24(a3)
    80002320:	6105                	addi	sp,sp,32
    80002322:	2370206f          	j	80004d58 <__malloc_unlock>
    80002326:	8082                	ret
    80002328:	97b6                	add	a5,a5,a3
    8000232a:	00009897          	auipc	a7,0x9
    8000232e:	54688893          	addi	a7,a7,1350 # 8000b870 <__malloc_av_+0x10>
    80002332:	6a14                	ld	a3,16(a2)
    80002334:	0b168363          	beq	a3,a7,800023da <_free_r+0x1dc>
    80002338:	01863803          	ld	a6,24(a2)
    8000233c:	0017e593          	ori	a1,a5,1
    80002340:	00f70633          	add	a2,a4,a5
    80002344:	0106bc23          	sd	a6,24(a3)
    80002348:	00d83823          	sd	a3,16(a6)
    8000234c:	e70c                	sd	a1,8(a4)
    8000234e:	e21c                	sd	a5,0(a2)
    80002350:	b725                	j	80002278 <_free_r+0x7a>
    80002352:	ede5                	bnez	a1,8000244a <_free_r+0x24c>
    80002354:	6a0c                	ld	a1,16(a2)
    80002356:	6e10                	ld	a2,24(a2)
    80002358:	96be                	add	a3,a3,a5
    8000235a:	0016e793          	ori	a5,a3,1
    8000235e:	ed90                	sd	a2,24(a1)
    80002360:	ea0c                	sd	a1,16(a2)
    80002362:	e71c                	sd	a5,8(a4)
    80002364:	9736                	add	a4,a4,a3
    80002366:	e314                	sd	a3,0(a4)
    80002368:	b7a1                	j	800022b0 <_free_r+0xb2>
    8000236a:	8985                	andi	a1,a1,1
    8000236c:	96be                	add	a3,a3,a5
    8000236e:	e989                	bnez	a1,80002380 <_free_r+0x182>
    80002370:	ff043583          	ld	a1,-16(s0)
    80002374:	8f0d                	sub	a4,a4,a1
    80002376:	6f1c                	ld	a5,24(a4)
    80002378:	6b10                	ld	a2,16(a4)
    8000237a:	96ae                	add	a3,a3,a1
    8000237c:	ee1c                	sd	a5,24(a2)
    8000237e:	eb90                	sd	a2,16(a5)
    80002380:	0016e793          	ori	a5,a3,1
    80002384:	e71c                	sd	a5,8(a4)
    80002386:	e918                	sd	a4,16(a0)
    80002388:	0000a797          	auipc	a5,0xa
    8000238c:	cf87b783          	ld	a5,-776(a5) # 8000c080 <__malloc_trim_threshold>
    80002390:	f2f6e0e3          	bltu	a3,a5,800022b0 <_free_r+0xb2>
    80002394:	ffffe597          	auipc	a1,0xffffe
    80002398:	c845b583          	ld	a1,-892(a1) # 80000018 <__malloc_top_pad>
    8000239c:	8526                	mv	a0,s1
    8000239e:	d89ff0ef          	jal	ra,80002126 <_malloc_trim_r>
    800023a2:	b739                	j	800022b0 <_free_r+0xb2>
    800023a4:	97b6                	add	a5,a5,a3
    800023a6:	b771                	j	80002332 <_free_r+0x134>
    800023a8:	4651                	li	a2,20
    800023aa:	02d67063          	bgeu	a2,a3,800023ca <_free_r+0x1cc>
    800023ae:	05400613          	li	a2,84
    800023b2:	04d66b63          	bltu	a2,a3,80002408 <_free_r+0x20a>
    800023b6:	00c7d693          	srli	a3,a5,0xc
    800023ba:	06f6859b          	addiw	a1,a3,111
    800023be:	0015959b          	slliw	a1,a1,0x1
    800023c2:	06e6861b          	addiw	a2,a3,110
    800023c6:	058e                	slli	a1,a1,0x3
    800023c8:	b735                	j	800022f4 <_free_r+0xf6>
    800023ca:	05c6859b          	addiw	a1,a3,92
    800023ce:	0015959b          	slliw	a1,a1,0x1
    800023d2:	05b6861b          	addiw	a2,a3,91
    800023d6:	058e                	slli	a1,a1,0x3
    800023d8:	bf31                	j	800022f4 <_free_r+0xf6>
    800023da:	f518                	sd	a4,40(a0)
    800023dc:	f118                	sd	a4,32(a0)
    800023de:	0017e693          	ori	a3,a5,1
    800023e2:	01173c23          	sd	a7,24(a4)
    800023e6:	01173823          	sd	a7,16(a4)
    800023ea:	e714                	sd	a3,8(a4)
    800023ec:	973e                	add	a4,a4,a5
    800023ee:	e31c                	sd	a5,0(a4)
    800023f0:	b5c1                	j	800022b0 <_free_r+0xb2>
    800023f2:	00853803          	ld	a6,8(a0)
    800023f6:	4026561b          	sraiw	a2,a2,0x2
    800023fa:	4785                	li	a5,1
    800023fc:	00c797b3          	sll	a5,a5,a2
    80002400:	0107e7b3          	or	a5,a5,a6
    80002404:	e51c                	sd	a5,8(a0)
    80002406:	b729                	j	80002310 <_free_r+0x112>
    80002408:	15400613          	li	a2,340
    8000240c:	00d66c63          	bltu	a2,a3,80002424 <_free_r+0x226>
    80002410:	00f7d693          	srli	a3,a5,0xf
    80002414:	0786859b          	addiw	a1,a3,120
    80002418:	0015959b          	slliw	a1,a1,0x1
    8000241c:	0776861b          	addiw	a2,a3,119
    80002420:	058e                	slli	a1,a1,0x3
    80002422:	bdc9                	j	800022f4 <_free_r+0xf6>
    80002424:	55400613          	li	a2,1364
    80002428:	00d66c63          	bltu	a2,a3,80002440 <_free_r+0x242>
    8000242c:	0127d693          	srli	a3,a5,0x12
    80002430:	07d6859b          	addiw	a1,a3,125
    80002434:	0015959b          	slliw	a1,a1,0x1
    80002438:	07c6861b          	addiw	a2,a3,124
    8000243c:	058e                	slli	a1,a1,0x3
    8000243e:	bd5d                	j	800022f4 <_free_r+0xf6>
    80002440:	7f000593          	li	a1,2032
    80002444:	07e00613          	li	a2,126
    80002448:	b575                	j	800022f4 <_free_r+0xf6>
    8000244a:	0017e693          	ori	a3,a5,1
    8000244e:	e714                	sd	a3,8(a4)
    80002450:	e21c                	sd	a5,0(a2)
    80002452:	bdb9                	j	800022b0 <_free_r+0xb2>

0000000080002454 <eshdn1>:
    80002454:	00450693          	addi	a3,a0,4
    80002458:	4701                	li	a4,0
    8000245a:	0569                	addi	a0,a0,26
    8000245c:	7861                	lui	a6,0xffff8
    8000245e:	0006d783          	lhu	a5,0(a3)
    80002462:	0017f613          	andi	a2,a5,1
    80002466:	c219                	beqz	a2,8000246c <eshdn1+0x18>
    80002468:	00176713          	ori	a4,a4,1
    8000246c:	00277613          	andi	a2,a4,2
    80002470:	8385                	srli	a5,a5,0x1
    80002472:	0017171b          	slliw	a4,a4,0x1
    80002476:	0107e5b3          	or	a1,a5,a6
    8000247a:	c601                	beqz	a2,80002482 <eshdn1+0x2e>
    8000247c:	03059793          	slli	a5,a1,0x30
    80002480:	93c1                	srli	a5,a5,0x30
    80002482:	00f69023          	sh	a5,0(a3)
    80002486:	1742                	slli	a4,a4,0x30
    80002488:	0689                	addi	a3,a3,2
    8000248a:	9341                	srli	a4,a4,0x30
    8000248c:	fcd519e3          	bne	a0,a3,8000245e <eshdn1+0xa>
    80002490:	8082                	ret

0000000080002492 <eshup1>:
    80002492:	01850693          	addi	a3,a0,24
    80002496:	4701                	li	a4,0
    80002498:	0509                	addi	a0,a0,2
    8000249a:	0006d783          	lhu	a5,0(a3)
    8000249e:	00f7d613          	srli	a2,a5,0xf
    800024a2:	0017979b          	slliw	a5,a5,0x1
    800024a6:	c219                	beqz	a2,800024ac <eshup1+0x1a>
    800024a8:	00176713          	ori	a4,a4,1
    800024ac:	00277613          	andi	a2,a4,2
    800024b0:	17c2                	slli	a5,a5,0x30
    800024b2:	0017171b          	slliw	a4,a4,0x1
    800024b6:	93c1                	srli	a5,a5,0x30
    800024b8:	c219                	beqz	a2,800024be <eshup1+0x2c>
    800024ba:	0017e793          	ori	a5,a5,1
    800024be:	00f69023          	sh	a5,0(a3)
    800024c2:	1742                	slli	a4,a4,0x30
    800024c4:	16f9                	addi	a3,a3,-2
    800024c6:	9341                	srli	a4,a4,0x30
    800024c8:	fcd519e3          	bne	a0,a3,8000249a <eshup1+0x8>
    800024cc:	8082                	ret

00000000800024ce <m16m>:
    800024ce:	1101                	addi	sp,sp,-32
    800024d0:	6e41                	lui	t3,0x10
    800024d2:	00011b23          	sh	zero,22(sp)
    800024d6:	00011c23          	sh	zero,24(sp)
    800024da:	05e1                	addi	a1,a1,24
    800024dc:	083c                	addi	a5,sp,24
    800024de:	00410813          	addi	a6,sp,4
    800024e2:	1e7d                	addi	t3,t3,-1 # ffff <_prog_start-0x7fff0001>
    800024e4:	0005d703          	lhu	a4,0(a1)
    800024e8:	17f9                	addi	a5,a5,-2
    800024ea:	15f9                	addi	a1,a1,-2
    800024ec:	c705                	beqz	a4,80002514 <m16m+0x46>
    800024ee:	02a70733          	mul	a4,a4,a0
    800024f2:	0027d883          	lhu	a7,2(a5)
    800024f6:	0007d303          	lhu	t1,0(a5)
    800024fa:	01c776b3          	and	a3,a4,t3
    800024fe:	96c6                	add	a3,a3,a7
    80002500:	8341                	srli	a4,a4,0x10
    80002502:	0106d893          	srli	a7,a3,0x10
    80002506:	971a                	add	a4,a4,t1
    80002508:	9746                	add	a4,a4,a7
    8000250a:	00e79023          	sh	a4,0(a5)
    8000250e:	00d79123          	sh	a3,2(a5)
    80002512:	8341                	srli	a4,a4,0x10
    80002514:	fee79f23          	sh	a4,-2(a5)
    80002518:	fd0796e3          	bne	a5,a6,800024e4 <m16m+0x16>
    8000251c:	0611                	addi	a2,a2,4
    8000251e:	01a10693          	addi	a3,sp,26
    80002522:	0007d703          	lhu	a4,0(a5)
    80002526:	0789                	addi	a5,a5,2
    80002528:	0609                	addi	a2,a2,2
    8000252a:	fee61f23          	sh	a4,-2(a2)
    8000252e:	fef69ae3          	bne	a3,a5,80002522 <m16m+0x54>
    80002532:	6105                	addi	sp,sp,32
    80002534:	8082                	ret

0000000080002536 <emovo.constprop.0>:
    80002536:	00055703          	lhu	a4,0(a0)
    8000253a:	00255783          	lhu	a5,2(a0)
    8000253e:	c319                	beqz	a4,80002544 <emovo.constprop.0+0xe>
    80002540:	6721                	lui	a4,0x8
    80002542:	8fd9                	or	a5,a5,a4
    80002544:	00f59923          	sh	a5,18(a1)
    80002548:	00255703          	lhu	a4,2(a0)
    8000254c:	67a1                	lui	a5,0x8
    8000254e:	17fd                	addi	a5,a5,-1 # 7fff <_prog_start-0x7fff8001>
    80002550:	00f70f63          	beq	a4,a5,8000256e <emovo.constprop.0+0x38>
    80002554:	00650793          	addi	a5,a0,6
    80002558:	05c1                	addi	a1,a1,16
    8000255a:	0561                	addi	a0,a0,24
    8000255c:	0007d703          	lhu	a4,0(a5)
    80002560:	0789                	addi	a5,a5,2
    80002562:	15f9                	addi	a1,a1,-2
    80002564:	00e59123          	sh	a4,2(a1)
    80002568:	fea79ae3          	bne	a5,a0,8000255c <emovo.constprop.0+0x26>
    8000256c:	8082                	ret
    8000256e:	00650793          	addi	a5,a0,6
    80002572:	0569                	addi	a0,a0,26
    80002574:	0007d703          	lhu	a4,0(a5)
    80002578:	0789                	addi	a5,a5,2
    8000257a:	e31d                	bnez	a4,800025a0 <emovo.constprop.0+0x6a>
    8000257c:	fef51ce3          	bne	a0,a5,80002574 <emovo.constprop.0+0x3e>
    80002580:	01258713          	addi	a4,a1,18
    80002584:	87ae                	mv	a5,a1
    80002586:	0789                	addi	a5,a5,2
    80002588:	fe079f23          	sh	zero,-2(a5)
    8000258c:	fee79de3          	bne	a5,a4,80002586 <emovo.constprop.0+0x50>
    80002590:	0125d783          	lhu	a5,18(a1)
    80002594:	6721                	lui	a4,0x8
    80002596:	177d                	addi	a4,a4,-1 # 7fff <_prog_start-0x7fff8001>
    80002598:	8fd9                	or	a5,a5,a4
    8000259a:	00f59923          	sh	a5,18(a1)
    8000259e:	8082                	ret
    800025a0:	01058713          	addi	a4,a1,16
    800025a4:	87ae                	mv	a5,a1
    800025a6:	0789                	addi	a5,a5,2
    800025a8:	fe079f23          	sh	zero,-2(a5)
    800025ac:	fee79de3          	bne	a5,a4,800025a6 <emovo.constprop.0+0x70>
    800025b0:	77f1                	lui	a5,0xffffc
    800025b2:	00f59823          	sh	a5,16(a1)
    800025b6:	77e1                	lui	a5,0xffff8
    800025b8:	fff7c793          	not	a5,a5
    800025bc:	00f59923          	sh	a5,18(a1)
    800025c0:	8082                	ret

00000000800025c2 <enormlz>:
    800025c2:	00455783          	lhu	a5,4(a0)
    800025c6:	1101                	addi	sp,sp,-32
    800025c8:	e426                	sd	s1,8(sp)
    800025ca:	ec06                	sd	ra,24(sp)
    800025cc:	e822                	sd	s0,16(sp)
    800025ce:	e04a                	sd	s2,0(sp)
    800025d0:	84aa                	mv	s1,a0
    800025d2:	efd1                	bnez	a5,8000266e <enormlz+0xac>
    800025d4:	00655783          	lhu	a5,6(a0)
    800025d8:	4401                	li	s0,0
    800025da:	00f7d713          	srli	a4,a5,0xf
    800025de:	e349                	bnez	a4,80002660 <enormlz+0x9e>
    800025e0:	01850693          	addi	a3,a0,24
    800025e4:	0a000613          	li	a2,160
    800025e8:	e395                	bnez	a5,8000260c <enormlz+0x4a>
    800025ea:	00448793          	addi	a5,s1,4
    800025ee:	0027d703          	lhu	a4,2(a5) # ffffffffffff8002 <__clz_tab+0xffffffff7ffeb2da>
    800025f2:	0789                	addi	a5,a5,2
    800025f4:	fee79f23          	sh	a4,-2(a5)
    800025f8:	fed79be3          	bne	a5,a3,800025ee <enormlz+0x2c>
    800025fc:	00049c23          	sh	zero,24(s1)
    80002600:	2441                	addiw	s0,s0,16
    80002602:	04c40f63          	beq	s0,a2,80002660 <enormlz+0x9e>
    80002606:	0064d783          	lhu	a5,6(s1)
    8000260a:	d3e5                	beqz	a5,800025ea <enormlz+0x28>
    8000260c:	0ff00713          	li	a4,255
    80002610:	02f76b63          	bltu	a4,a5,80002646 <enormlz+0x84>
    80002614:	01848813          	addi	a6,s1,24
    80002618:	00248593          	addi	a1,s1,2
    8000261c:	0ff00513          	li	a0,255
    80002620:	4781                	li	a5,0
    80002622:	8742                	mv	a4,a6
    80002624:	00075683          	lhu	a3,0(a4)
    80002628:	1779                	addi	a4,a4,-2
    8000262a:	0086961b          	slliw	a2,a3,0x8
    8000262e:	8fd1                	or	a5,a5,a2
    80002630:	00f71123          	sh	a5,2(a4)
    80002634:	0086d793          	srli	a5,a3,0x8
    80002638:	feb716e3          	bne	a4,a1,80002624 <enormlz+0x62>
    8000263c:	0064d783          	lhu	a5,6(s1)
    80002640:	2421                	addiw	s0,s0,8
    80002642:	fcf57fe3          	bgeu	a0,a5,80002620 <enormlz+0x5e>
    80002646:	0a000913          	li	s2,160
    8000264a:	a801                	j	8000265a <enormlz+0x98>
    8000264c:	2405                	addiw	s0,s0,1
    8000264e:	e45ff0ef          	jal	ra,80002492 <eshup1>
    80002652:	00894763          	blt	s2,s0,80002660 <enormlz+0x9e>
    80002656:	0064d783          	lhu	a5,6(s1)
    8000265a:	83bd                	srli	a5,a5,0xf
    8000265c:	8526                	mv	a0,s1
    8000265e:	d7fd                	beqz	a5,8000264c <enormlz+0x8a>
    80002660:	60e2                	ld	ra,24(sp)
    80002662:	8522                	mv	a0,s0
    80002664:	6442                	ld	s0,16(sp)
    80002666:	64a2                	ld	s1,8(sp)
    80002668:	6902                	ld	s2,0(sp)
    8000266a:	6105                	addi	sp,sp,32
    8000266c:	8082                	ret
    8000266e:	0ff00713          	li	a4,255
    80002672:	4401                	li	s0,0
    80002674:	02f76563          	bltu	a4,a5,8000269e <enormlz+0xdc>
    80002678:	f6f00913          	li	s2,-145
    8000267c:	a801                	j	8000268c <enormlz+0xca>
    8000267e:	347d                	addiw	s0,s0,-1
    80002680:	dd5ff0ef          	jal	ra,80002454 <eshdn1>
    80002684:	fd240ee3          	beq	s0,s2,80002660 <enormlz+0x9e>
    80002688:	0044d783          	lhu	a5,4(s1)
    8000268c:	8526                	mv	a0,s1
    8000268e:	fbe5                	bnez	a5,8000267e <enormlz+0xbc>
    80002690:	60e2                	ld	ra,24(sp)
    80002692:	8522                	mv	a0,s0
    80002694:	6442                	ld	s0,16(sp)
    80002696:	64a2                	ld	s1,8(sp)
    80002698:	6902                	ld	s2,0(sp)
    8000269a:	6105                	addi	sp,sp,32
    8000269c:	8082                	ret
    8000269e:	00450713          	addi	a4,a0,4
    800026a2:	01a50593          	addi	a1,a0,26
    800026a6:	4781                	li	a5,0
    800026a8:	00075683          	lhu	a3,0(a4)
    800026ac:	0709                	addi	a4,a4,2
    800026ae:	0086d61b          	srliw	a2,a3,0x8
    800026b2:	8fd1                	or	a5,a5,a2
    800026b4:	0086969b          	slliw	a3,a3,0x8
    800026b8:	fef71f23          	sh	a5,-2(a4)
    800026bc:	03069793          	slli	a5,a3,0x30
    800026c0:	93c1                	srli	a5,a5,0x30
    800026c2:	feb713e3          	bne	a4,a1,800026a8 <enormlz+0xe6>
    800026c6:	0044d783          	lhu	a5,4(s1)
    800026ca:	5461                	li	s0,-8
    800026cc:	b775                	j	80002678 <enormlz+0xb6>

00000000800026ce <eshift.part.0>:
    800026ce:	7179                	addi	sp,sp,-48
    800026d0:	f022                	sd	s0,32(sp)
    800026d2:	ec26                	sd	s1,24(sp)
    800026d4:	f406                	sd	ra,40(sp)
    800026d6:	e84a                	sd	s2,16(sp)
    800026d8:	e44e                	sd	s3,8(sp)
    800026da:	84ae                	mv	s1,a1
    800026dc:	842a                	mv	s0,a0
    800026de:	0605cb63          	bltz	a1,80002754 <eshift.part.0+0x86>
    800026e2:	47bd                	li	a5,15
    800026e4:	862e                	mv	a2,a1
    800026e6:	0511                	addi	a0,a0,4
    800026e8:	01840693          	addi	a3,s0,24
    800026ec:	45bd                	li	a1,15
    800026ee:	0297d063          	bge	a5,s1,8000270e <eshift.part.0+0x40>
    800026f2:	87aa                	mv	a5,a0
    800026f4:	0027d703          	lhu	a4,2(a5)
    800026f8:	0789                	addi	a5,a5,2
    800026fa:	fee79f23          	sh	a4,-2(a5)
    800026fe:	fef69be3          	bne	a3,a5,800026f4 <eshift.part.0+0x26>
    80002702:	00041c23          	sh	zero,24(s0)
    80002706:	3641                	addiw	a2,a2,-16
    80002708:	fec5c5e3          	blt	a1,a2,800026f2 <eshift.part.0+0x24>
    8000270c:	88bd                	andi	s1,s1,15
    8000270e:	479d                	li	a5,7
    80002710:	0297d463          	bge	a5,s1,80002738 <eshift.part.0+0x6a>
    80002714:	01840713          	addi	a4,s0,24
    80002718:	00240593          	addi	a1,s0,2
    8000271c:	4781                	li	a5,0
    8000271e:	00075683          	lhu	a3,0(a4)
    80002722:	1779                	addi	a4,a4,-2
    80002724:	0086961b          	slliw	a2,a3,0x8
    80002728:	8fd1                	or	a5,a5,a2
    8000272a:	00f71123          	sh	a5,2(a4)
    8000272e:	0086d793          	srli	a5,a3,0x8
    80002732:	feb716e3          	bne	a4,a1,8000271e <eshift.part.0+0x50>
    80002736:	34e1                	addiw	s1,s1,-8
    80002738:	c491                	beqz	s1,80002744 <eshift.part.0+0x76>
    8000273a:	34fd                	addiw	s1,s1,-1
    8000273c:	8522                	mv	a0,s0
    8000273e:	d55ff0ef          	jal	ra,80002492 <eshup1>
    80002742:	fce5                	bnez	s1,8000273a <eshift.part.0+0x6c>
    80002744:	4501                	li	a0,0
    80002746:	70a2                	ld	ra,40(sp)
    80002748:	7402                	ld	s0,32(sp)
    8000274a:	64e2                	ld	s1,24(sp)
    8000274c:	6942                	ld	s2,16(sp)
    8000274e:	69a2                	ld	s3,8(sp)
    80002750:	6145                	addi	sp,sp,48
    80002752:	8082                	ret
    80002754:	57c5                	li	a5,-15
    80002756:	40b0093b          	negw	s2,a1
    8000275a:	4981                	li	s3,0
    8000275c:	01850593          	addi	a1,a0,24
    80002760:	00450693          	addi	a3,a0,4
    80002764:	463d                	li	a2,15
    80002766:	0af4d463          	bge	s1,a5,8000280e <eshift.part.0+0x140>
    8000276a:	01845703          	lhu	a4,24(s0)
    8000276e:	87ae                	mv	a5,a1
    80002770:	00e9e9b3          	or	s3,s3,a4
    80002774:	ffe7d703          	lhu	a4,-2(a5)
    80002778:	17f9                	addi	a5,a5,-2
    8000277a:	00e79123          	sh	a4,2(a5)
    8000277e:	fed79be3          	bne	a5,a3,80002774 <eshift.part.0+0xa6>
    80002782:	00041223          	sh	zero,4(s0)
    80002786:	3941                	addiw	s2,s2,-16
    80002788:	ff2641e3          	blt	a2,s2,8000276a <eshift.part.0+0x9c>
    8000278c:	5941                	li	s2,-16
    8000278e:	5745                	li	a4,-15
    80002790:	4099093b          	subw	s2,s2,s1
    80002794:	4781                	li	a5,0
    80002796:	06e4c763          	blt	s1,a4,80002804 <eshift.part.0+0x136>
    8000279a:	00f9093b          	addw	s2,s2,a5
    8000279e:	479d                	li	a5,7
    800027a0:	0327d963          	bge	a5,s2,800027d2 <eshift.part.0+0x104>
    800027a4:	01844783          	lbu	a5,24(s0)
    800027a8:	01a40593          	addi	a1,s0,26
    800027ac:	00f9e9b3          	or	s3,s3,a5
    800027b0:	4781                	li	a5,0
    800027b2:	0006d703          	lhu	a4,0(a3)
    800027b6:	0689                	addi	a3,a3,2
    800027b8:	0087561b          	srliw	a2,a4,0x8
    800027bc:	8fd1                	or	a5,a5,a2
    800027be:	0087171b          	slliw	a4,a4,0x8
    800027c2:	fef69f23          	sh	a5,-2(a3)
    800027c6:	03071793          	slli	a5,a4,0x30
    800027ca:	93c1                	srli	a5,a5,0x30
    800027cc:	feb693e3          	bne	a3,a1,800027b2 <eshift.part.0+0xe4>
    800027d0:	3961                	addiw	s2,s2,-8
    800027d2:	01303533          	snez	a0,s3
    800027d6:	f60908e3          	beqz	s2,80002746 <eshift.part.0+0x78>
    800027da:	01845783          	lhu	a5,24(s0)
    800027de:	397d                	addiw	s2,s2,-1
    800027e0:	8522                	mv	a0,s0
    800027e2:	8b85                	andi	a5,a5,1
    800027e4:	00f9e9b3          	or	s3,s3,a5
    800027e8:	c6dff0ef          	jal	ra,80002454 <eshdn1>
    800027ec:	fe0917e3          	bnez	s2,800027da <eshift.part.0+0x10c>
    800027f0:	70a2                	ld	ra,40(sp)
    800027f2:	7402                	ld	s0,32(sp)
    800027f4:	2981                	sext.w	s3,s3
    800027f6:	64e2                	ld	s1,24(sp)
    800027f8:	6942                	ld	s2,16(sp)
    800027fa:	01303533          	snez	a0,s3
    800027fe:	69a2                	ld	s3,8(sp)
    80002800:	6145                	addi	sp,sp,48
    80002802:	8082                	ret
    80002804:	ff097793          	andi	a5,s2,-16
    80002808:	40f007bb          	negw	a5,a5
    8000280c:	b779                	j	8000279a <eshift.part.0+0xcc>
    8000280e:	57e5                	li	a5,-7
    80002810:	f8f4cae3          	blt	s1,a5,800027a4 <eshift.part.0+0xd6>
    80002814:	b7d9                	j	800027da <eshift.part.0+0x10c>

0000000080002816 <emovi>:
    80002816:	01255783          	lhu	a5,18(a0)
    8000281a:	66a1                	lui	a3,0x8
    8000281c:	16fd                	addi	a3,a3,-1 # 7fff <_prog_start-0x7fff8001>
    8000281e:	00f7d79b          	srliw	a5,a5,0xf
    80002822:	40f007bb          	negw	a5,a5
    80002826:	00f59023          	sh	a5,0(a1)
    8000282a:	01255703          	lhu	a4,18(a0)
    8000282e:	01050793          	addi	a5,a0,16
    80002832:	8f75                	and	a4,a4,a3
    80002834:	00e59123          	sh	a4,2(a1)
    80002838:	0007061b          	sext.w	a2,a4
    8000283c:	02d70263          	beq	a4,a3,80002860 <emovi+0x4a>
    80002840:	00658713          	addi	a4,a1,6
    80002844:	00059223          	sh	zero,4(a1)
    80002848:	1579                	addi	a0,a0,-2
    8000284a:	0007d683          	lhu	a3,0(a5)
    8000284e:	17f9                	addi	a5,a5,-2
    80002850:	0709                	addi	a4,a4,2
    80002852:	fed71f23          	sh	a3,-2(a4)
    80002856:	fea79ae3          	bne	a5,a0,8000284a <emovi+0x34>
    8000285a:	00059c23          	sh	zero,24(a1)
    8000285e:	8082                	ret
    80002860:	01255703          	lhu	a4,18(a0)
    80002864:	8f71                	and	a4,a4,a2
    80002866:	00c71b63          	bne	a4,a2,8000287c <emovi+0x66>
    8000286a:	01250613          	addi	a2,a0,18
    8000286e:	872a                	mv	a4,a0
    80002870:	00075683          	lhu	a3,0(a4)
    80002874:	0709                	addi	a4,a4,2
    80002876:	ee81                	bnez	a3,8000288e <emovi+0x78>
    80002878:	fec71ce3          	bne	a4,a2,80002870 <emovi+0x5a>
    8000287c:	00458793          	addi	a5,a1,4
    80002880:	05e9                	addi	a1,a1,26
    80002882:	0789                	addi	a5,a5,2
    80002884:	fe079f23          	sh	zero,-2(a5)
    80002888:	feb79de3          	bne	a5,a1,80002882 <emovi+0x6c>
    8000288c:	8082                	ret
    8000288e:	00658713          	addi	a4,a1,6
    80002892:	00059223          	sh	zero,4(a1)
    80002896:	1571                	addi	a0,a0,-4
    80002898:	0007d683          	lhu	a3,0(a5)
    8000289c:	17f9                	addi	a5,a5,-2
    8000289e:	0709                	addi	a4,a4,2
    800028a0:	fed71f23          	sh	a3,-2(a4)
    800028a4:	fef51ae3          	bne	a0,a5,80002898 <emovi+0x82>
    800028a8:	8082                	ret

00000000800028aa <ecmp>:
    800028aa:	01255783          	lhu	a5,18(a0)
    800028ae:	715d                	addi	sp,sp,-80
    800028b0:	e0a2                	sd	s0,64(sp)
    800028b2:	fff7c793          	not	a5,a5
    800028b6:	e486                	sd	ra,72(sp)
    800028b8:	03179713          	slli	a4,a5,0x31
    800028bc:	842e                	mv	s0,a1
    800028be:	eb11                	bnez	a4,800028d2 <ecmp+0x28>
    800028c0:	01250693          	addi	a3,a0,18
    800028c4:	87aa                	mv	a5,a0
    800028c6:	0007d703          	lhu	a4,0(a5)
    800028ca:	0789                	addi	a5,a5,2
    800028cc:	eb25                	bnez	a4,8000293c <ecmp+0x92>
    800028ce:	fed79ce3          	bne	a5,a3,800028c6 <ecmp+0x1c>
    800028d2:	01245783          	lhu	a5,18(s0)
    800028d6:	fff7c793          	not	a5,a5
    800028da:	03179713          	slli	a4,a5,0x31
    800028de:	c331                	beqz	a4,80002922 <ecmp+0x78>
    800028e0:	858a                	mv	a1,sp
    800028e2:	f35ff0ef          	jal	ra,80002816 <emovi>
    800028e6:	100c                	addi	a1,sp,32
    800028e8:	8522                	mv	a0,s0
    800028ea:	f2dff0ef          	jal	ra,80002816 <emovi>
    800028ee:	00015583          	lhu	a1,0(sp)
    800028f2:	02015783          	lhu	a5,32(sp)
    800028f6:	04b78863          	beq	a5,a1,80002946 <ecmp+0x9c>
    800028fa:	00210793          	addi	a5,sp,2
    800028fe:	02210713          	addi	a4,sp,34
    80002902:	0830                	addi	a2,sp,24
    80002904:	0007d683          	lhu	a3,0(a5)
    80002908:	0789                	addi	a5,a5,2
    8000290a:	eab5                	bnez	a3,8000297e <ecmp+0xd4>
    8000290c:	00075683          	lhu	a3,0(a4)
    80002910:	0709                	addi	a4,a4,2
    80002912:	e6b5                	bnez	a3,8000297e <ecmp+0xd4>
    80002914:	fef618e3          	bne	a2,a5,80002904 <ecmp+0x5a>
    80002918:	4501                	li	a0,0
    8000291a:	60a6                	ld	ra,72(sp)
    8000291c:	6406                	ld	s0,64(sp)
    8000291e:	6161                	addi	sp,sp,80
    80002920:	8082                	ret
    80002922:	87a2                	mv	a5,s0
    80002924:	0007d703          	lhu	a4,0(a5)
    80002928:	01240693          	addi	a3,s0,18
    8000292c:	0789                	addi	a5,a5,2
    8000292e:	e719                	bnez	a4,8000293c <ecmp+0x92>
    80002930:	fad788e3          	beq	a5,a3,800028e0 <ecmp+0x36>
    80002934:	0007d703          	lhu	a4,0(a5)
    80002938:	0789                	addi	a5,a5,2
    8000293a:	db7d                	beqz	a4,80002930 <ecmp+0x86>
    8000293c:	60a6                	ld	ra,72(sp)
    8000293e:	6406                	ld	s0,64(sp)
    80002940:	5579                	li	a0,-2
    80002942:	6161                	addi	sp,sp,80
    80002944:	8082                	ret
    80002946:	557d                	li	a0,-1
    80002948:	c1a9                	beqz	a1,8000298a <ecmp+0xe0>
    8000294a:	878a                	mv	a5,sp
    8000294c:	0007d603          	lhu	a2,0(a5)
    80002950:	02015683          	lhu	a3,32(sp)
    80002954:	1018                	addi	a4,sp,32
    80002956:	082c                	addi	a1,sp,24
    80002958:	0789                	addi	a5,a5,2
    8000295a:	0709                	addi	a4,a4,2
    8000295c:	00d61c63          	bne	a2,a3,80002974 <ecmp+0xca>
    80002960:	fab78ce3          	beq	a5,a1,80002918 <ecmp+0x6e>
    80002964:	0007d603          	lhu	a2,0(a5)
    80002968:	00075683          	lhu	a3,0(a4)
    8000296c:	0789                	addi	a5,a5,2
    8000296e:	0709                	addi	a4,a4,2
    80002970:	fed608e3          	beq	a2,a3,80002960 <ecmp+0xb6>
    80002974:	fac6e3e3          	bltu	a3,a2,8000291a <ecmp+0x70>
    80002978:	40a0053b          	negw	a0,a0
    8000297c:	bf79                	j	8000291a <ecmp+0x70>
    8000297e:	e981                	bnez	a1,8000298e <ecmp+0xe4>
    80002980:	60a6                	ld	ra,72(sp)
    80002982:	6406                	ld	s0,64(sp)
    80002984:	4505                	li	a0,1
    80002986:	6161                	addi	sp,sp,80
    80002988:	8082                	ret
    8000298a:	4505                	li	a0,1
    8000298c:	bf7d                	j	8000294a <ecmp+0xa0>
    8000298e:	557d                	li	a0,-1
    80002990:	b769                	j	8000291a <ecmp+0x70>

0000000080002992 <emdnorm>:
    80002992:	7139                	addi	sp,sp,-64
    80002994:	f822                	sd	s0,48(sp)
    80002996:	f426                	sd	s1,40(sp)
    80002998:	f04a                	sd	s2,32(sp)
    8000299a:	ec4e                	sd	s3,24(sp)
    8000299c:	e852                	sd	s4,16(sp)
    8000299e:	e456                	sd	s5,8(sp)
    800029a0:	8936                	mv	s2,a3
    800029a2:	843e                	mv	s0,a5
    800029a4:	fc06                	sd	ra,56(sp)
    800029a6:	84aa                	mv	s1,a0
    800029a8:	89ae                	mv	s3,a1
    800029aa:	8a32                	mv	s4,a2
    800029ac:	8aba                	mv	s5,a4
    800029ae:	c15ff0ef          	jal	ra,800025c2 <enormlz>
    800029b2:	09000793          	li	a5,144
    800029b6:	40a90933          	sub	s2,s2,a0
    800029ba:	12a7d863          	bge	a5,a0,80002aea <emdnorm+0x158>
    800029be:	67a1                	lui	a5,0x8
    800029c0:	17f9                	addi	a5,a5,-2 # 7ffe <_prog_start-0x7fff8002>
    800029c2:	2327dd63          	bge	a5,s2,80002bfc <emdnorm+0x26a>
    800029c6:	1a0a8c63          	beqz	s5,80002b7e <emdnorm+0x1ec>
    800029ca:	00442a83          	lw	s5,4(s0)
    800029ce:	401c                	lw	a5,0(s0)
    800029d0:	20fa8363          	beq	s5,a5,80002bd6 <emdnorm+0x244>
    800029d4:	01a40713          	addi	a4,s0,26
    800029d8:	03440793          	addi	a5,s0,52
    800029dc:	0709                	addi	a4,a4,2
    800029de:	fe071f23          	sh	zero,-2(a4)
    800029e2:	fee79de3          	bne	a5,a4,800029dc <emdnorm+0x4a>
    800029e6:	03800793          	li	a5,56
    800029ea:	2afa8f63          	beq	s5,a5,80002ca8 <emdnorm+0x316>
    800029ee:	1557d663          	bge	a5,s5,80002b3a <emdnorm+0x1a8>
    800029f2:	04000793          	li	a5,64
    800029f6:	20fa8c63          	beq	s5,a5,80002c0e <emdnorm+0x27c>
    800029fa:	07100793          	li	a5,113
    800029fe:	2cfa9d63          	bne	s5,a5,80002cd8 <emdnorm+0x346>
    80002a02:	400087b7          	lui	a5,0x40008
    80002a06:	46a9                	li	a3,10
    80002a08:	7761                	lui	a4,0xffff8
    80002a0a:	17fd                	addi	a5,a5,-1 # 40007fff <_prog_start-0x3fff8001>
    80002a0c:	c414                	sw	a3,8(s0)
    80002a0e:	c85c                	sw	a5,20(s0)
    80002a10:	00e41c23          	sh	a4,24(s0)
    80002a14:	c454                	sw	a3,12(s0)
    80002a16:	02e41723          	sh	a4,46(s0)
    80002a1a:	01542023          	sw	s5,0(s0)
    80002a1e:	1b205263          	blez	s2,80002bc2 <emdnorm+0x230>
    80002a22:	0144d603          	lhu	a2,20(s1)
    80002a26:	01448593          	addi	a1,s1,20
    80002a2a:	47ad                	li	a5,11
    80002a2c:	1646                	slli	a2,a2,0x31
    80002a2e:	9245                	srli	a2,a2,0x31
    80002a30:	4731                	li	a4,12
    80002a32:	9f1d                	subw	a4,a4,a5
    80002a34:	1702                	slli	a4,a4,0x20
    80002a36:	9301                	srli	a4,a4,0x20
    80002a38:	973e                	add	a4,a4,a5
    80002a3a:	0706                	slli	a4,a4,0x1
    80002a3c:	0786                	slli	a5,a5,0x1
    80002a3e:	00248693          	addi	a3,s1,2
    80002a42:	97a6                	add	a5,a5,s1
    80002a44:	9736                	add	a4,a4,a3
    80002a46:	0007d683          	lhu	a3,0(a5)
    80002a4a:	c299                	beqz	a3,80002a50 <emdnorm+0xbe>
    80002a4c:	00166613          	ori	a2,a2,1
    80002a50:	00079023          	sh	zero,0(a5)
    80002a54:	0789                	addi	a5,a5,2
    80002a56:	fef718e3          	bne	a4,a5,80002a46 <emdnorm+0xb4>
    80002a5a:	0005d703          	lhu	a4,0(a1)
    80002a5e:	01445683          	lhu	a3,20(s0)
    80002a62:	fff6c693          	not	a3,a3
    80002a66:	8f75                	and	a4,a4,a3
    80002a68:	00e59023          	sh	a4,0(a1)
    80002a6c:	01645783          	lhu	a5,22(s0)
    80002a70:	00c7f733          	and	a4,a5,a2
    80002a74:	c721                	beqz	a4,80002abc <emdnorm+0x12a>
    80002a76:	00c79d63          	bne	a5,a2,80002a90 <emdnorm+0xfe>
    80002a7a:	22099463          	bnez	s3,80002ca2 <emdnorm+0x310>
    80002a7e:	445c                	lw	a5,12(s0)
    80002a80:	01845703          	lhu	a4,24(s0)
    80002a84:	0786                	slli	a5,a5,0x1
    80002a86:	97a6                	add	a5,a5,s1
    80002a88:	0007d783          	lhu	a5,0(a5)
    80002a8c:	8ff9                	and	a5,a5,a4
    80002a8e:	c79d                	beqz	a5,80002abc <emdnorm+0x12a>
    80002a90:	03240793          	addi	a5,s0,50
    80002a94:	01848613          	addi	a2,s1,24
    80002a98:	00248513          	addi	a0,s1,2
    80002a9c:	4581                	li	a1,0
    80002a9e:	0007d703          	lhu	a4,0(a5)
    80002aa2:	00065683          	lhu	a3,0(a2)
    80002aa6:	1679                	addi	a2,a2,-2
    80002aa8:	17f9                	addi	a5,a5,-2
    80002aaa:	9736                	add	a4,a4,a3
    80002aac:	972e                	add	a4,a4,a1
    80002aae:	01075593          	srli	a1,a4,0x10
    80002ab2:	00e61123          	sh	a4,2(a2)
    80002ab6:	8985                	andi	a1,a1,1
    80002ab8:	fec513e3          	bne	a0,a2,80002a9e <emdnorm+0x10c>
    80002abc:	1b205a63          	blez	s2,80002c70 <emdnorm+0x2de>
    80002ac0:	0044d783          	lhu	a5,4(s1)
    80002ac4:	18079b63          	bnez	a5,80002c5a <emdnorm+0x2c8>
    80002ac8:	67a1                	lui	a5,0x8
    80002aca:	00049c23          	sh	zero,24(s1)
    80002ace:	17f9                	addi	a5,a5,-2 # 7ffe <_prog_start-0x7fff8002>
    80002ad0:	0b27c963          	blt	a5,s2,80002b82 <emdnorm+0x1f0>
    80002ad4:	01249123          	sh	s2,2(s1)
    80002ad8:	70e2                	ld	ra,56(sp)
    80002ada:	7442                	ld	s0,48(sp)
    80002adc:	74a2                	ld	s1,40(sp)
    80002ade:	7902                	ld	s2,32(sp)
    80002ae0:	69e2                	ld	s3,24(sp)
    80002ae2:	6a42                	ld	s4,16(sp)
    80002ae4:	6aa2                	ld	s5,8(sp)
    80002ae6:	6121                	addi	sp,sp,64
    80002ae8:	8082                	ret
    80002aea:	02094b63          	bltz	s2,80002b20 <emdnorm+0x18e>
    80002aee:	fc0a8de3          	beqz	s5,80002ac8 <emdnorm+0x136>
    80002af2:	00442a83          	lw	s5,4(s0)
    80002af6:	401c                	lw	a5,0(s0)
    80002af8:	ecfa9ee3          	bne	s5,a5,800029d4 <emdnorm+0x42>
    80002afc:	23204263          	bgtz	s2,80002d20 <emdnorm+0x38e>
    80002b00:	09000713          	li	a4,144
    80002b04:	22e79063          	bne	a5,a4,80002d24 <emdnorm+0x392>
    80002b08:	440c                	lw	a1,8(s0)
    80002b0a:	01445683          	lhu	a3,20(s0)
    80002b0e:	09000a93          	li	s5,144
    80002b12:	0586                	slli	a1,a1,0x1
    80002b14:	95a6                	add	a1,a1,s1
    80002b16:	0005d703          	lhu	a4,0(a1)
    80002b1a:	00d77633          	and	a2,a4,a3
    80002b1e:	b791                	j	80002a62 <emdnorm+0xd0>
    80002b20:	f7000793          	li	a5,-144
    80002b24:	10f95c63          	bge	s2,a5,80002c3c <emdnorm+0x2aa>
    80002b28:	00248793          	addi	a5,s1,2
    80002b2c:	04e9                	addi	s1,s1,26
    80002b2e:	0789                	addi	a5,a5,2
    80002b30:	fe079f23          	sh	zero,-2(a5)
    80002b34:	fe979de3          	bne	a5,s1,80002b2e <emdnorm+0x19c>
    80002b38:	b745                	j	80002ad8 <emdnorm+0x146>
    80002b3a:	47e1                	li	a5,24
    80002b3c:	06fa8163          	beq	s5,a5,80002b9e <emdnorm+0x20c>
    80002b40:	03500793          	li	a5,53
    80002b44:	18fa9a63          	bne	s5,a5,80002cd8 <emdnorm+0x346>
    80002b48:	6785                	lui	a5,0x1
    80002b4a:	04000737          	lui	a4,0x4000
    80002b4e:	4699                	li	a3,6
    80002b50:	80078793          	addi	a5,a5,-2048 # 800 <_prog_start-0x7ffff800>
    80002b54:	7ff70713          	addi	a4,a4,2047 # 40007ff <_prog_start-0x7bfff801>
    80002b58:	c414                	sw	a3,8(s0)
    80002b5a:	c858                	sw	a4,20(s0)
    80002b5c:	00f41c23          	sh	a5,24(s0)
    80002b60:	c454                	sw	a3,12(s0)
    80002b62:	02f41323          	sh	a5,38(s0)
    80002b66:	01542023          	sw	s5,0(s0)
    80002b6a:	05205c63          	blez	s2,80002bc2 <emdnorm+0x230>
    80002b6e:	00c4d603          	lhu	a2,12(s1)
    80002b72:	00c48593          	addi	a1,s1,12
    80002b76:	479d                	li	a5,7
    80002b78:	7ff67613          	andi	a2,a2,2047
    80002b7c:	bd55                	j	80002a30 <emdnorm+0x9e>
    80002b7e:	00049c23          	sh	zero,24(s1)
    80002b82:	77e1                	lui	a5,0xffff8
    80002b84:	fff7c793          	not	a5,a5
    80002b88:	00f49123          	sh	a5,2(s1)
    80002b8c:	00448793          	addi	a5,s1,4
    80002b90:	04e1                	addi	s1,s1,24
    80002b92:	00079023          	sh	zero,0(a5) # ffffffffffff8000 <__clz_tab+0xffffffff7ffeb2d8>
    80002b96:	0789                	addi	a5,a5,2
    80002b98:	fe979de3          	bne	a5,s1,80002b92 <emdnorm+0x200>
    80002b9c:	bf35                	j	80002ad8 <emdnorm+0x146>
    80002b9e:	008007b7          	lui	a5,0x800
    80002ba2:	4691                	li	a3,4
    80002ba4:	10000713          	li	a4,256
    80002ba8:	0ff78793          	addi	a5,a5,255 # 8000ff <_prog_start-0x7f7fff01>
    80002bac:	c414                	sw	a3,8(s0)
    80002bae:	c85c                	sw	a5,20(s0)
    80002bb0:	00e41c23          	sh	a4,24(s0)
    80002bb4:	c454                	sw	a3,12(s0)
    80002bb6:	02e41123          	sh	a4,34(s0)
    80002bba:	01542023          	sw	s5,0(s0)
    80002bbe:	15204663          	bgtz	s2,80002d0a <emdnorm+0x378>
    80002bc2:	0184d783          	lhu	a5,24(s1)
    80002bc6:	8526                	mv	a0,s1
    80002bc8:	8b85                	andi	a5,a5,1
    80002bca:	00f9e7b3          	or	a5,s3,a5
    80002bce:	0007899b          	sext.w	s3,a5
    80002bd2:	883ff0ef          	jal	ra,80002454 <eshdn1>
    80002bd6:	441c                	lw	a5,8(s0)
    80002bd8:	01445683          	lhu	a3,20(s0)
    80002bdc:	08f00513          	li	a0,143
    80002be0:	00179593          	slli	a1,a5,0x1
    80002be4:	95a6                	add	a1,a1,s1
    80002be6:	0005d703          	lhu	a4,0(a1)
    80002bea:	00d77633          	and	a2,a4,a3
    80002bee:	e7554ae3          	blt	a0,s5,80002a62 <emdnorm+0xd0>
    80002bf2:	2785                	addiw	a5,a5,1
    80002bf4:	4531                	li	a0,12
    80002bf6:	e2f55de3          	bge	a0,a5,80002a30 <emdnorm+0x9e>
    80002bfa:	b5a5                	j	80002a62 <emdnorm+0xd0>
    80002bfc:	00248793          	addi	a5,s1,2
    80002c00:	04e9                	addi	s1,s1,26
    80002c02:	0789                	addi	a5,a5,2
    80002c04:	fe079f23          	sh	zero,-2(a5)
    80002c08:	fe979de3          	bne	a5,s1,80002c02 <emdnorm+0x270>
    80002c0c:	b5f1                	j	80002ad8 <emdnorm+0x146>
    80002c0e:	479d                	li	a5,7
    80002c10:	c41c                	sw	a5,8(s0)
    80002c12:	800107b7          	lui	a5,0x80010
    80002c16:	17fd                	addi	a5,a5,-1 # ffffffff8000ffff <__clz_tab+0xffffffff000032d7>
    80002c18:	4705                	li	a4,1
    80002c1a:	c85c                	sw	a5,20(s0)
    80002c1c:	4799                	li	a5,6
    80002c1e:	00e41c23          	sh	a4,24(s0)
    80002c22:	c45c                	sw	a5,12(s0)
    80002c24:	02e41323          	sh	a4,38(s0)
    80002c28:	01542023          	sw	s5,0(s0)
    80002c2c:	f9205be3          	blez	s2,80002bc2 <emdnorm+0x230>
    80002c30:	00e4d603          	lhu	a2,14(s1)
    80002c34:	00e48593          	addi	a1,s1,14
    80002c38:	47a1                	li	a5,8
    80002c3a:	bbdd                	j	80002a30 <emdnorm+0x9e>
    80002c3c:	0009059b          	sext.w	a1,s2
    80002c40:	8526                	mv	a0,s1
    80002c42:	a8dff0ef          	jal	ra,800026ce <eshift.part.0>
    80002c46:	c955                	beqz	a0,80002cfa <emdnorm+0x368>
    80002c48:	0c0a8763          	beqz	s5,80002d16 <emdnorm+0x384>
    80002c4c:	00442a83          	lw	s5,4(s0)
    80002c50:	401c                	lw	a5,0(s0)
    80002c52:	4985                	li	s3,1
    80002c54:	d8fa90e3          	bne	s5,a5,800029d4 <emdnorm+0x42>
    80002c58:	b565                	j	80002b00 <emdnorm+0x16e>
    80002c5a:	8526                	mv	a0,s1
    80002c5c:	ff8ff0ef          	jal	ra,80002454 <eshdn1>
    80002c60:	67a1                	lui	a5,0x8
    80002c62:	0905                	addi	s2,s2,1
    80002c64:	00049c23          	sh	zero,24(s1)
    80002c68:	17f9                	addi	a5,a5,-2 # 7ffe <_prog_start-0x7fff8002>
    80002c6a:	f127cce3          	blt	a5,s2,80002b82 <emdnorm+0x1f0>
    80002c6e:	b59d                	j	80002ad4 <emdnorm+0x142>
    80002c70:	09000793          	li	a5,144
    80002c74:	00fa8f63          	beq	s5,a5,80002c92 <emdnorm+0x300>
    80002c78:	8526                	mv	a0,s1
    80002c7a:	819ff0ef          	jal	ra,80002492 <eshup1>
    80002c7e:	0044d783          	lhu	a5,4(s1)
    80002c82:	eb99                	bnez	a5,80002c98 <emdnorm+0x306>
    80002c84:	00049c23          	sh	zero,24(s1)
    80002c88:	e40956e3          	bgez	s2,80002ad4 <emdnorm+0x142>
    80002c8c:	00049123          	sh	zero,2(s1)
    80002c90:	b5a1                	j	80002ad8 <emdnorm+0x146>
    80002c92:	0044d783          	lhu	a5,4(s1)
    80002c96:	d7fd                	beqz	a5,80002c84 <emdnorm+0x2f2>
    80002c98:	8526                	mv	a0,s1
    80002c9a:	fbaff0ef          	jal	ra,80002454 <eshdn1>
    80002c9e:	0905                	addi	s2,s2,1
    80002ca0:	b7d5                	j	80002c84 <emdnorm+0x2f2>
    80002ca2:	de0a07e3          	beqz	s4,80002a90 <emdnorm+0xfe>
    80002ca6:	bd19                	j	80002abc <emdnorm+0x12a>
    80002ca8:	008007b7          	lui	a5,0x800
    80002cac:	4699                	li	a3,6
    80002cae:	10000713          	li	a4,256
    80002cb2:	0ff78793          	addi	a5,a5,255 # 8000ff <_prog_start-0x7f7fff01>
    80002cb6:	c414                	sw	a3,8(s0)
    80002cb8:	c85c                	sw	a5,20(s0)
    80002cba:	00e41c23          	sh	a4,24(s0)
    80002cbe:	c454                	sw	a3,12(s0)
    80002cc0:	02e41323          	sh	a4,38(s0)
    80002cc4:	01542023          	sw	s5,0(s0)
    80002cc8:	ef205de3          	blez	s2,80002bc2 <emdnorm+0x230>
    80002ccc:	00c4c603          	lbu	a2,12(s1)
    80002cd0:	00c48593          	addi	a1,s1,12
    80002cd4:	479d                	li	a5,7
    80002cd6:	bba9                	j	80002a30 <emdnorm+0x9e>
    80002cd8:	47b1                	li	a5,12
    80002cda:	c41c                	sw	a5,8(s0)
    80002cdc:	800107b7          	lui	a5,0x80010
    80002ce0:	17fd                	addi	a5,a5,-1 # ffffffff8000ffff <__clz_tab+0xffffffff000032d7>
    80002ce2:	4705                	li	a4,1
    80002ce4:	c85c                	sw	a5,20(s0)
    80002ce6:	47ad                	li	a5,11
    80002ce8:	c45c                	sw	a5,12(s0)
    80002cea:	00e41c23          	sh	a4,24(s0)
    80002cee:	02e41823          	sh	a4,48(s0)
    80002cf2:	01542023          	sw	s5,0(s0)
    80002cf6:	87d6                	mv	a5,s5
    80002cf8:	b511                	j	80002afc <emdnorm+0x16a>
    80002cfa:	000a8e63          	beqz	s5,80002d16 <emdnorm+0x384>
    80002cfe:	00442a83          	lw	s5,4(s0)
    80002d02:	401c                	lw	a5,0(s0)
    80002d04:	ccfa98e3          	bne	s5,a5,800029d4 <emdnorm+0x42>
    80002d08:	bbe5                	j	80002b00 <emdnorm+0x16e>
    80002d0a:	0084c603          	lbu	a2,8(s1)
    80002d0e:	00848593          	addi	a1,s1,8
    80002d12:	4795                	li	a5,5
    80002d14:	bb31                	j	80002a30 <emdnorm+0x9e>
    80002d16:	00049c23          	sh	zero,24(s1)
    80002d1a:	00049123          	sh	zero,2(s1)
    80002d1e:	bb6d                	j	80002ad8 <emdnorm+0x146>
    80002d20:	8abe                	mv	s5,a5
    80002d22:	bd55                	j	80002bd6 <emdnorm+0x244>
    80002d24:	8abe                	mv	s5,a5
    80002d26:	bd71                	j	80002bc2 <emdnorm+0x230>

0000000080002d28 <eiremain>:
    80002d28:	711d                	addi	sp,sp,-96
    80002d2a:	e0ca                	sd	s2,64(sp)
    80002d2c:	fc4e                	sd	s3,56(sp)
    80002d2e:	892e                	mv	s2,a1
    80002d30:	00255983          	lhu	s3,2(a0)
    80002d34:	ec86                	sd	ra,88(sp)
    80002d36:	e8a2                	sd	s0,80(sp)
    80002d38:	e4a6                	sd	s1,72(sp)
    80002d3a:	f852                	sd	s4,48(sp)
    80002d3c:	84b2                	mv	s1,a2
    80002d3e:	ec5e                	sd	s7,24(sp)
    80002d40:	f456                	sd	s5,40(sp)
    80002d42:	f05a                	sd	s6,32(sp)
    80002d44:	e862                	sd	s8,16(sp)
    80002d46:	e466                	sd	s9,8(sp)
    80002d48:	e06a                	sd	s10,0(sp)
    80002d4a:	8baa                	mv	s7,a0
    80002d4c:	877ff0ef          	jal	ra,800025c2 <enormlz>
    80002d50:	00295403          	lhu	s0,2(s2)
    80002d54:	87aa                	mv	a5,a0
    80002d56:	854a                	mv	a0,s2
    80002d58:	40f989b3          	sub	s3,s3,a5
    80002d5c:	03448a13          	addi	s4,s1,52
    80002d60:	863ff0ef          	jal	ra,800025c2 <enormlz>
    80002d64:	8c09                	sub	s0,s0,a0
    80002d66:	04e48713          	addi	a4,s1,78
    80002d6a:	87d2                	mv	a5,s4
    80002d6c:	0789                	addi	a5,a5,2
    80002d6e:	fe079f23          	sh	zero,-2(a5)
    80002d72:	fee79de3          	bne	a5,a4,80002d6c <eiremain+0x44>
    80002d76:	07344a63          	blt	s0,s3,80002dea <eiremain+0xc2>
    80002d7a:	004b8b13          	addi	s6,s7,4
    80002d7e:	00490a93          	addi	s5,s2,4
    80002d82:	01ab8c13          	addi	s8,s7,26
    80002d86:	00290d13          	addi	s10,s2,2
    80002d8a:	8756                	mv	a4,s5
    80002d8c:	87da                	mv	a5,s6
    80002d8e:	0007d603          	lhu	a2,0(a5)
    80002d92:	00075683          	lhu	a3,0(a4)
    80002d96:	0789                	addi	a5,a5,2
    80002d98:	0709                	addi	a4,a4,2
    80002d9a:	06d61c63          	bne	a2,a3,80002e12 <eiremain+0xea>
    80002d9e:	fefc18e3          	bne	s8,a5,80002d8e <eiremain+0x66>
    80002da2:	018b8613          	addi	a2,s7,24
    80002da6:	01890713          	addi	a4,s2,24
    80002daa:	4681                	li	a3,0
    80002dac:	00075783          	lhu	a5,0(a4)
    80002db0:	00065583          	lhu	a1,0(a2)
    80002db4:	1779                	addi	a4,a4,-2
    80002db6:	1679                	addi	a2,a2,-2
    80002db8:	8f8d                	sub	a5,a5,a1
    80002dba:	8f95                	sub	a5,a5,a3
    80002dbc:	0107d693          	srli	a3,a5,0x10
    80002dc0:	00f71123          	sh	a5,2(a4)
    80002dc4:	8a85                	andi	a3,a3,1
    80002dc6:	ffa713e3          	bne	a4,s10,80002dac <eiremain+0x84>
    80002dca:	4c85                	li	s9,1
    80002dcc:	8552                	mv	a0,s4
    80002dce:	ec4ff0ef          	jal	ra,80002492 <eshup1>
    80002dd2:	04c4d783          	lhu	a5,76(s1)
    80002dd6:	147d                	addi	s0,s0,-1
    80002dd8:	854a                	mv	a0,s2
    80002dda:	00fce7b3          	or	a5,s9,a5
    80002dde:	04f49623          	sh	a5,76(s1)
    80002de2:	eb0ff0ef          	jal	ra,80002492 <eshup1>
    80002de6:	fb3452e3          	bge	s0,s3,80002d8a <eiremain+0x62>
    80002dea:	86a2                	mv	a3,s0
    80002dec:	6446                	ld	s0,80(sp)
    80002dee:	60e6                	ld	ra,88(sp)
    80002df0:	79e2                	ld	s3,56(sp)
    80002df2:	7a42                	ld	s4,48(sp)
    80002df4:	7aa2                	ld	s5,40(sp)
    80002df6:	7b02                	ld	s6,32(sp)
    80002df8:	6be2                	ld	s7,24(sp)
    80002dfa:	6c42                	ld	s8,16(sp)
    80002dfc:	6ca2                	ld	s9,8(sp)
    80002dfe:	6d02                	ld	s10,0(sp)
    80002e00:	87a6                	mv	a5,s1
    80002e02:	854a                	mv	a0,s2
    80002e04:	64a6                	ld	s1,72(sp)
    80002e06:	6906                	ld	s2,64(sp)
    80002e08:	4701                	li	a4,0
    80002e0a:	4601                	li	a2,0
    80002e0c:	4581                	li	a1,0
    80002e0e:	6125                	addi	sp,sp,96
    80002e10:	b649                	j	80002992 <emdnorm>
    80002e12:	4c81                	li	s9,0
    80002e14:	fac6ece3          	bltu	a3,a2,80002dcc <eiremain+0xa4>
    80002e18:	b769                	j	80002da2 <eiremain+0x7a>

0000000080002e1a <e113toe.isra.0>:
    80002e1a:	7179                	addi	sp,sp,-48
    80002e1c:	f022                	sd	s0,32(sp)
    80002e1e:	f406                	sd	ra,40(sp)
    80002e20:	842e                	mv	s0,a1
    80002e22:	878a                	mv	a5,sp
    80002e24:	01a10713          	addi	a4,sp,26
    80002e28:	0789                	addi	a5,a5,2
    80002e2a:	fe079f23          	sh	zero,-2(a5)
    80002e2e:	fee79de3          	bne	a5,a4,80002e28 <e113toe.isra.0+0xe>
    80002e32:	00e55783          	lhu	a5,14(a0)
    80002e36:	6721                	lui	a4,0x8
    80002e38:	177d                	addi	a4,a4,-1 # 7fff <_prog_start-0x7fff8001>
    80002e3a:	03079693          	slli	a3,a5,0x30
    80002e3e:	96fd                	srai	a3,a3,0x3f
    80002e40:	00d11023          	sh	a3,0(sp)
    80002e44:	00e7f6b3          	and	a3,a5,a4
    80002e48:	8636                	mv	a2,a3
    80002e4a:	04e68363          	beq	a3,a4,80002e90 <e113toe.isra.0+0x76>
    80002e4e:	00e50793          	addi	a5,a0,14
    80002e52:	00d11123          	sh	a3,2(sp)
    80002e56:	00610713          	addi	a4,sp,6
    80002e5a:	ffe7d683          	lhu	a3,-2(a5)
    80002e5e:	17f9                	addi	a5,a5,-2
    80002e60:	0709                	addi	a4,a4,2
    80002e62:	fed71f23          	sh	a3,-2(a4)
    80002e66:	fef51ae3          	bne	a0,a5,80002e5a <e113toe.isra.0+0x40>
    80002e6a:	ea19                	bnez	a2,80002e80 <e113toe.isra.0+0x66>
    80002e6c:	00011223          	sh	zero,4(sp)
    80002e70:	85a2                	mv	a1,s0
    80002e72:	850a                	mv	a0,sp
    80002e74:	ec2ff0ef          	jal	ra,80002536 <emovo.constprop.0>
    80002e78:	70a2                	ld	ra,40(sp)
    80002e7a:	7402                	ld	s0,32(sp)
    80002e7c:	6145                	addi	sp,sp,48
    80002e7e:	8082                	ret
    80002e80:	4785                	li	a5,1
    80002e82:	55fd                	li	a1,-1
    80002e84:	850a                	mv	a0,sp
    80002e86:	00f11223          	sh	a5,4(sp)
    80002e8a:	845ff0ef          	jal	ra,800026ce <eshift.part.0>
    80002e8e:	b7cd                	j	80002e70 <e113toe.isra.0+0x56>
    80002e90:	87aa                	mv	a5,a0
    80002e92:	00e50693          	addi	a3,a0,14
    80002e96:	0007d703          	lhu	a4,0(a5)
    80002e9a:	0789                	addi	a5,a5,2
    80002e9c:	ef21                	bnez	a4,80002ef4 <e113toe.isra.0+0xda>
    80002e9e:	fed79ce3          	bne	a5,a3,80002e96 <e113toe.isra.0+0x7c>
    80002ea2:	01440713          	addi	a4,s0,20
    80002ea6:	87a2                	mv	a5,s0
    80002ea8:	0789                	addi	a5,a5,2
    80002eaa:	fe079f23          	sh	zero,-2(a5)
    80002eae:	fee79de3          	bne	a5,a4,80002ea8 <e113toe.isra.0+0x8e>
    80002eb2:	01240713          	addi	a4,s0,18
    80002eb6:	87a2                	mv	a5,s0
    80002eb8:	0789                	addi	a5,a5,2
    80002eba:	fe079f23          	sh	zero,-2(a5)
    80002ebe:	fee79de3          	bne	a5,a4,80002eb8 <e113toe.isra.0+0x9e>
    80002ec2:	01245783          	lhu	a5,18(s0)
    80002ec6:	66a1                	lui	a3,0x8
    80002ec8:	16fd                	addi	a3,a3,-1 # 7fff <_prog_start-0x7fff8001>
    80002eca:	8fd5                	or	a5,a5,a3
    80002ecc:	17c2                	slli	a5,a5,0x30
    80002ece:	93c1                	srli	a5,a5,0x30
    80002ed0:	00f41923          	sh	a5,18(s0)
    80002ed4:	00e51683          	lh	a3,14(a0)
    80002ed8:	fa06d0e3          	bgez	a3,80002e78 <e113toe.isra.0+0x5e>
    80002edc:	86a2                	mv	a3,s0
    80002ede:	0006d603          	lhu	a2,0(a3)
    80002ee2:	0689                	addi	a3,a3,2
    80002ee4:	fa51                	bnez	a2,80002e78 <e113toe.isra.0+0x5e>
    80002ee6:	fee69ce3          	bne	a3,a4,80002ede <e113toe.isra.0+0xc4>
    80002eea:	7761                	lui	a4,0xffff8
    80002eec:	8fb9                	xor	a5,a5,a4
    80002eee:	00f41923          	sh	a5,18(s0)
    80002ef2:	b759                	j	80002e78 <e113toe.isra.0+0x5e>
    80002ef4:	01040713          	addi	a4,s0,16
    80002ef8:	87a2                	mv	a5,s0
    80002efa:	0789                	addi	a5,a5,2
    80002efc:	fe079f23          	sh	zero,-2(a5)
    80002f00:	fee79de3          	bne	a5,a4,80002efa <e113toe.isra.0+0xe0>
    80002f04:	77f1                	lui	a5,0xffffc
    80002f06:	00f41823          	sh	a5,16(s0)
    80002f0a:	77e1                	lui	a5,0xffff8
    80002f0c:	fff7c793          	not	a5,a5
    80002f10:	00f41923          	sh	a5,18(s0)
    80002f14:	b795                	j	80002e78 <e113toe.isra.0+0x5e>

0000000080002f16 <ediv>:
    80002f16:	01255783          	lhu	a5,18(a0)
    80002f1a:	7151                	addi	sp,sp,-240
    80002f1c:	f1a2                	sd	s0,224(sp)
    80002f1e:	fff7c793          	not	a5,a5
    80002f22:	eda6                	sd	s1,216(sp)
    80002f24:	e9ca                	sd	s2,208(sp)
    80002f26:	e5ce                	sd	s3,200(sp)
    80002f28:	f586                	sd	ra,232(sp)
    80002f2a:	e1d2                	sd	s4,192(sp)
    80002f2c:	fd56                	sd	s5,184(sp)
    80002f2e:	f95a                	sd	s6,176(sp)
    80002f30:	f55e                	sd	s7,168(sp)
    80002f32:	f162                	sd	s8,160(sp)
    80002f34:	ed66                	sd	s9,152(sp)
    80002f36:	e96a                	sd	s10,144(sp)
    80002f38:	e56e                	sd	s11,136(sp)
    80002f3a:	03179713          	slli	a4,a5,0x31
    80002f3e:	84aa                	mv	s1,a0
    80002f40:	89ae                	mv	s3,a1
    80002f42:	8432                	mv	s0,a2
    80002f44:	8936                	mv	s2,a3
    80002f46:	eb11                	bnez	a4,80002f5a <ediv+0x44>
    80002f48:	01250693          	addi	a3,a0,18
    80002f4c:	87aa                	mv	a5,a0
    80002f4e:	0007d703          	lhu	a4,0(a5) # ffffffffffff8000 <__clz_tab+0xffffffff7ffeb2d8>
    80002f52:	0789                	addi	a5,a5,2
    80002f54:	ef4d                	bnez	a4,8000300e <ediv+0xf8>
    80002f56:	fed79ce3          	bne	a5,a3,80002f4e <ediv+0x38>
    80002f5a:	0129d783          	lhu	a5,18(s3)
    80002f5e:	fff7c793          	not	a5,a5
    80002f62:	03179713          	slli	a4,a5,0x31
    80002f66:	eb11                	bnez	a4,80002f7a <ediv+0x64>
    80002f68:	01298693          	addi	a3,s3,18
    80002f6c:	87ce                	mv	a5,s3
    80002f6e:	0007d703          	lhu	a4,0(a5)
    80002f72:	0789                	addi	a5,a5,2
    80002f74:	eb45                	bnez	a4,80003024 <ediv+0x10e>
    80002f76:	fed79ce3          	bne	a5,a3,80002f6e <ediv+0x58>
    80002f7a:	00009597          	auipc	a1,0x9
    80002f7e:	76658593          	addi	a1,a1,1894 # 8000c6e0 <ezero>
    80002f82:	8526                	mv	a0,s1
    80002f84:	927ff0ef          	jal	ra,800028aa <ecmp>
    80002f88:	12050763          	beqz	a0,800030b6 <ediv+0x1a0>
    80002f8c:	0124d603          	lhu	a2,18(s1)
    80002f90:	67a1                	lui	a5,0x8
    80002f92:	17fd                	addi	a5,a5,-1 # 7fff <_prog_start-0x7fff8001>
    80002f94:	00f67533          	and	a0,a2,a5
    80002f98:	0af51163          	bne	a0,a5,8000303a <ediv+0x124>
    80002f9c:	01248693          	addi	a3,s1,18
    80002fa0:	87a6                	mv	a5,s1
    80002fa2:	0007d703          	lhu	a4,0(a5)
    80002fa6:	0789                	addi	a5,a5,2
    80002fa8:	eb49                	bnez	a4,8000303a <ediv+0x124>
    80002faa:	fed79ce3          	bne	a5,a3,80002fa2 <ediv+0x8c>
    80002fae:	0129d703          	lhu	a4,18(s3)
    80002fb2:	fff74793          	not	a5,a4
    80002fb6:	03179693          	slli	a3,a5,0x31
    80002fba:	e6f5                	bnez	a3,800030a6 <ediv+0x190>
    80002fbc:	01298693          	addi	a3,s3,18
    80002fc0:	87ce                	mv	a5,s3
    80002fc2:	0007d583          	lhu	a1,0(a5)
    80002fc6:	0789                	addi	a5,a5,2
    80002fc8:	36059c63          	bnez	a1,80003340 <ediv+0x42a>
    80002fcc:	fed79be3          	bne	a5,a3,80002fc2 <ediv+0xac>
    80002fd0:	01040713          	addi	a4,s0,16
    80002fd4:	87a2                	mv	a5,s0
    80002fd6:	0789                	addi	a5,a5,2
    80002fd8:	fe079f23          	sh	zero,-2(a5)
    80002fdc:	fee79de3          	bne	a5,a4,80002fd6 <ediv+0xc0>
    80002fe0:	77f1                	lui	a5,0xffffc
    80002fe2:	00f41823          	sh	a5,16(s0)
    80002fe6:	77e1                	lui	a5,0xffff8
    80002fe8:	fff7c793          	not	a5,a5
    80002fec:	00f41923          	sh	a5,18(s0)
    80002ff0:	70ae                	ld	ra,232(sp)
    80002ff2:	740e                	ld	s0,224(sp)
    80002ff4:	64ee                	ld	s1,216(sp)
    80002ff6:	694e                	ld	s2,208(sp)
    80002ff8:	69ae                	ld	s3,200(sp)
    80002ffa:	6a0e                	ld	s4,192(sp)
    80002ffc:	7aea                	ld	s5,184(sp)
    80002ffe:	7b4a                	ld	s6,176(sp)
    80003000:	7baa                	ld	s7,168(sp)
    80003002:	7c0a                	ld	s8,160(sp)
    80003004:	6cea                	ld	s9,152(sp)
    80003006:	6d4a                	ld	s10,144(sp)
    80003008:	6daa                	ld	s11,136(sp)
    8000300a:	616d                	addi	sp,sp,240
    8000300c:	8082                	ret
    8000300e:	01448713          	addi	a4,s1,20
    80003012:	0004d783          	lhu	a5,0(s1)
    80003016:	0489                	addi	s1,s1,2
    80003018:	0409                	addi	s0,s0,2
    8000301a:	fef41f23          	sh	a5,-2(s0)
    8000301e:	fee49ae3          	bne	s1,a4,80003012 <ediv+0xfc>
    80003022:	b7f9                	j	80002ff0 <ediv+0xda>
    80003024:	01440713          	addi	a4,s0,20
    80003028:	0009d783          	lhu	a5,0(s3)
    8000302c:	0409                	addi	s0,s0,2
    8000302e:	0989                	addi	s3,s3,2
    80003030:	fef41f23          	sh	a5,-2(s0)
    80003034:	fee41ae3          	bne	s0,a4,80003028 <ediv+0x112>
    80003038:	bf65                	j	80002ff0 <ediv+0xda>
    8000303a:	0129d703          	lhu	a4,18(s3)
    8000303e:	fff74793          	not	a5,a4
    80003042:	03179693          	slli	a3,a5,0x31
    80003046:	e2d1                	bnez	a3,800030ca <ediv+0x1b4>
    80003048:	4801                	li	a6,0
    8000304a:	01298693          	addi	a3,s3,18
    8000304e:	87ce                	mv	a5,s3
    80003050:	0007d583          	lhu	a1,0(a5) # ffffffffffff8000 <__clz_tab+0xffffffff7ffeb2d8>
    80003054:	0789                	addi	a5,a5,2
    80003056:	e5b1                	bnez	a1,800030a2 <ediv+0x18c>
    80003058:	fed79ce3          	bne	a5,a3,80003050 <ediv+0x13a>
    8000305c:	67a1                	lui	a5,0x8
    8000305e:	17fd                	addi	a5,a5,-1 # 7fff <_prog_start-0x7fff8001>
    80003060:	0af50663          	beq	a0,a5,8000310c <ediv+0x1f6>
    80003064:	823d                	srli	a2,a2,0xf
    80003066:	0009d783          	lhu	a5,0(s3)
    8000306a:	0989                	addi	s3,s3,2
    8000306c:	2c079663          	bnez	a5,80003338 <ediv+0x422>
    80003070:	fed99be3          	bne	s3,a3,80003066 <ediv+0x150>
    80003074:	00f75793          	srli	a5,a4,0xf
    80003078:	8fb1                	xor	a5,a5,a2
    8000307a:	00f7979b          	slliw	a5,a5,0xf
    8000307e:	00f41923          	sh	a5,18(s0)
    80003082:	01240713          	addi	a4,s0,18
    80003086:	87a2                	mv	a5,s0
    80003088:	0789                	addi	a5,a5,2
    8000308a:	fe079f23          	sh	zero,-2(a5)
    8000308e:	fee79de3          	bne	a5,a4,80003088 <ediv+0x172>
    80003092:	01245783          	lhu	a5,18(s0)
    80003096:	6721                	lui	a4,0x8
    80003098:	177d                	addi	a4,a4,-1 # 7fff <_prog_start-0x7fff8001>
    8000309a:	8fd9                	or	a5,a5,a4
    8000309c:	00f41923          	sh	a5,18(s0)
    800030a0:	bf81                	j	80002ff0 <ediv+0xda>
    800030a2:	02080463          	beqz	a6,800030ca <ediv+0x1b4>
    800030a6:	01440793          	addi	a5,s0,20
    800030aa:	0409                	addi	s0,s0,2
    800030ac:	fe041f23          	sh	zero,-2(s0)
    800030b0:	fef41de3          	bne	s0,a5,800030aa <ediv+0x194>
    800030b4:	bf35                	j	80002ff0 <ediv+0xda>
    800030b6:	00009597          	auipc	a1,0x9
    800030ba:	62a58593          	addi	a1,a1,1578 # 8000c6e0 <ezero>
    800030be:	854e                	mv	a0,s3
    800030c0:	feaff0ef          	jal	ra,800028aa <ecmp>
    800030c4:	ec0514e3          	bnez	a0,80002f8c <ediv+0x76>
    800030c8:	b721                	j	80002fd0 <ediv+0xba>
    800030ca:	100c                	addi	a1,sp,32
    800030cc:	8526                	mv	a0,s1
    800030ce:	f48ff0ef          	jal	ra,80002816 <emovi>
    800030d2:	008c                	addi	a1,sp,64
    800030d4:	854e                	mv	a0,s3
    800030d6:	f40ff0ef          	jal	ra,80002816 <emovi>
    800030da:	04215b03          	lhu	s6,66(sp)
    800030de:	02215c03          	lhu	s8,34(sp)
    800030e2:	020b1f63          	bnez	s6,80003120 <ediv+0x20a>
    800030e6:	04210793          	addi	a5,sp,66
    800030ea:	05810c93          	addi	s9,sp,88
    800030ee:	0007d703          	lhu	a4,0(a5)
    800030f2:	0789                	addi	a5,a5,2
    800030f4:	22071463          	bnez	a4,8000331c <ediv+0x406>
    800030f8:	fefc9be3          	bne	s9,a5,800030ee <ediv+0x1d8>
    800030fc:	01440793          	addi	a5,s0,20
    80003100:	0409                	addi	s0,s0,2
    80003102:	fe041f23          	sh	zero,-2(s0)
    80003106:	fef41de3          	bne	s0,a5,80003100 <ediv+0x1ea>
    8000310a:	b5dd                	j	80002ff0 <ediv+0xda>
    8000310c:	01248593          	addi	a1,s1,18
    80003110:	0004d783          	lhu	a5,0(s1)
    80003114:	0489                	addi	s1,s1,2
    80003116:	22079363          	bnez	a5,8000333c <ediv+0x426>
    8000311a:	feb49be3          	bne	s1,a1,80003110 <ediv+0x1fa>
    8000311e:	b799                	j	80003064 <ediv+0x14e>
    80003120:	e45a                	sd	s6,8(sp)
    80003122:	040c1063          	bnez	s8,80003162 <ediv+0x24c>
    80003126:	02210793          	addi	a5,sp,34
    8000312a:	1834                	addi	a3,sp,56
    8000312c:	0007d703          	lhu	a4,0(a5)
    80003130:	0789                	addi	a5,a5,2
    80003132:	1e071c63          	bnez	a4,8000332a <ediv+0x414>
    80003136:	fed79be3          	bne	a5,a3,8000312c <ediv+0x216>
    8000313a:	02015683          	lhu	a3,32(sp)
    8000313e:	04015603          	lhu	a2,64(sp)
    80003142:	01240713          	addi	a4,s0,18
    80003146:	87a2                	mv	a5,s0
    80003148:	8e91                	sub	a3,a3,a2
    8000314a:	00d036b3          	snez	a3,a3
    8000314e:	00f6969b          	slliw	a3,a3,0xf
    80003152:	00d41923          	sh	a3,18(s0)
    80003156:	0789                	addi	a5,a5,2
    80003158:	fe079f23          	sh	zero,-2(a5)
    8000315c:	fee79de3          	bne	a5,a4,80003156 <ediv+0x240>
    80003160:	bf0d                	j	80003092 <ediv+0x17c>
    80003162:	e862                	sd	s8,16(sp)
    80003164:	4786                	lw	a5,64(sp)
    80003166:	03890493          	addi	s1,s2,56
    8000316a:	03490713          	addi	a4,s2,52
    8000316e:	02f92a23          	sw	a5,52(s2)
    80003172:	ec3a                	sd	a4,24(sp)
    80003174:	04e90993          	addi	s3,s2,78
    80003178:	87a6                	mv	a5,s1
    8000317a:	0789                	addi	a5,a5,2
    8000317c:	fe079f23          	sh	zero,-2(a5)
    80003180:	ff379de3          	bne	a5,s3,8000317a <ediv+0x264>
    80003184:	0088                	addi	a0,sp,64
    80003186:	aceff0ef          	jal	ra,80002454 <eshdn1>
    8000318a:	02615b83          	lhu	s7,38(sp)
    8000318e:	6a41                	lui	s4,0x10
    80003190:	04210d13          	addi	s10,sp,66
    80003194:	010b9a93          	slli	s5,s7,0x10
    80003198:	417a8ab3          	sub	s5,s5,s7
    8000319c:	05810c93          	addi	s9,sp,88
    800031a0:	1a7d                	addi	s4,s4,-1 # ffff <_prog_start-0x7fff0001>
    800031a2:	07a10d93          	addi	s11,sp,122
    800031a6:	06210c13          	addi	s8,sp,98
    800031aa:	04415783          	lhu	a5,68(sp)
    800031ae:	04615703          	lhu	a4,70(sp)
    800031b2:	8b52                	mv	s6,s4
    800031b4:	07c2                	slli	a5,a5,0x10
    800031b6:	97ba                	add	a5,a5,a4
    800031b8:	00fae863          	bltu	s5,a5,800031c8 <ediv+0x2b2>
    800031bc:	0377d7b3          	divu	a5,a5,s7
    800031c0:	03079b13          	slli	s6,a5,0x30
    800031c4:	030b5b13          	srli	s6,s6,0x30
    800031c8:	1090                	addi	a2,sp,96
    800031ca:	100c                	addi	a1,sp,32
    800031cc:	855a                	mv	a0,s6
    800031ce:	b00ff0ef          	jal	ra,800024ce <m16m>
    800031d2:	00d8                	addi	a4,sp,68
    800031d4:	10dc                	addi	a5,sp,100
    800031d6:	0007d603          	lhu	a2,0(a5)
    800031da:	00075683          	lhu	a3,0(a4)
    800031de:	0789                	addi	a5,a5,2
    800031e0:	0709                	addi	a4,a4,2
    800031e2:	0ad61a63          	bne	a2,a3,80003296 <ediv+0x380>
    800031e6:	ffb798e3          	bne	a5,s11,800031d6 <ediv+0x2c0>
    800031ea:	4681                	li	a3,0
    800031ec:	18b0                	addi	a2,sp,120
    800031ee:	87e6                	mv	a5,s9
    800031f0:	0007d703          	lhu	a4,0(a5)
    800031f4:	00065583          	lhu	a1,0(a2)
    800031f8:	17f9                	addi	a5,a5,-2
    800031fa:	1679                	addi	a2,a2,-2
    800031fc:	8f0d                	sub	a4,a4,a1
    800031fe:	8f15                	sub	a4,a4,a3
    80003200:	01075693          	srli	a3,a4,0x10
    80003204:	00e79123          	sh	a4,2(a5)
    80003208:	8a85                	andi	a3,a3,1
    8000320a:	ffa793e3          	bne	a5,s10,800031f0 <ediv+0x2da>
    8000320e:	01649023          	sh	s6,0(s1)
    80003212:	00dc                	addi	a5,sp,68
    80003214:	0027d703          	lhu	a4,2(a5)
    80003218:	0789                	addi	a5,a5,2
    8000321a:	fee79f23          	sh	a4,-2(a5)
    8000321e:	ff979be3          	bne	a5,s9,80003214 <ediv+0x2fe>
    80003222:	04011c23          	sh	zero,88(sp)
    80003226:	0489                	addi	s1,s1,2
    80003228:	f89991e3          	bne	s3,s1,800031aa <ediv+0x294>
    8000322c:	4701                	li	a4,0
    8000322e:	00dc                	addi	a5,sp,68
    80003230:	05a10693          	addi	a3,sp,90
    80003234:	0007d603          	lhu	a2,0(a5)
    80003238:	0789                	addi	a5,a5,2
    8000323a:	8f51                	or	a4,a4,a2
    8000323c:	fed79ce3          	bne	a5,a3,80003234 <ediv+0x31e>
    80003240:	64e2                	ld	s1,24(sp)
    80003242:	2701                	sext.w	a4,a4
    80003244:	00e035b3          	snez	a1,a4
    80003248:	009c                	addi	a5,sp,64
    8000324a:	0004d703          	lhu	a4,0(s1)
    8000324e:	0789                	addi	a5,a5,2
    80003250:	0489                	addi	s1,s1,2
    80003252:	fee79f23          	sh	a4,-2(a5)
    80003256:	fed79ae3          	bne	a5,a3,8000324a <ediv+0x334>
    8000325a:	67a2                	ld	a5,8(sp)
    8000325c:	6742                	ld	a4,16(sp)
    8000325e:	6691                	lui	a3,0x4
    80003260:	16fd                	addi	a3,a3,-1 # 3fff <_prog_start-0x7fffc001>
    80003262:	40e78b33          	sub	s6,a5,a4
    80003266:	0088                	addi	a0,sp,64
    80003268:	87ca                	mv	a5,s2
    8000326a:	04000713          	li	a4,64
    8000326e:	96da                	add	a3,a3,s6
    80003270:	4601                	li	a2,0
    80003272:	f20ff0ef          	jal	ra,80002992 <emdnorm>
    80003276:	04015703          	lhu	a4,64(sp)
    8000327a:	02015783          	lhu	a5,32(sp)
    8000327e:	85a2                	mv	a1,s0
    80003280:	0088                	addi	a0,sp,64
    80003282:	8f99                	sub	a5,a5,a4
    80003284:	00f037b3          	snez	a5,a5
    80003288:	40f007bb          	negw	a5,a5
    8000328c:	04f11023          	sh	a5,64(sp)
    80003290:	aa6ff0ef          	jal	ra,80002536 <emovo.constprop.0>
    80003294:	bbb1                	j	80002ff0 <ediv+0xda>
    80003296:	f4c6fae3          	bgeu	a3,a2,800031ea <ediv+0x2d4>
    8000329a:	fffb079b          	addiw	a5,s6,-1
    8000329e:	03079313          	slli	t1,a5,0x30
    800032a2:	03035313          	srli	t1,t1,0x30
    800032a6:	4681                	li	a3,0
    800032a8:	1830                	addi	a2,sp,56
    800032aa:	18b8                	addi	a4,sp,120
    800032ac:	00075783          	lhu	a5,0(a4)
    800032b0:	00065583          	lhu	a1,0(a2)
    800032b4:	1779                	addi	a4,a4,-2
    800032b6:	1679                	addi	a2,a2,-2
    800032b8:	8f8d                	sub	a5,a5,a1
    800032ba:	8f95                	sub	a5,a5,a3
    800032bc:	0107d693          	srli	a3,a5,0x10
    800032c0:	00f71123          	sh	a5,2(a4)
    800032c4:	8a85                	andi	a3,a3,1
    800032c6:	ff8713e3          	bne	a4,s8,800032ac <ediv+0x396>
    800032ca:	00d8                	addi	a4,sp,68
    800032cc:	10dc                	addi	a5,sp,100
    800032ce:	0007d603          	lhu	a2,0(a5)
    800032d2:	00075683          	lhu	a3,0(a4)
    800032d6:	0789                	addi	a5,a5,2
    800032d8:	0709                	addi	a4,a4,2
    800032da:	00d61663          	bne	a2,a3,800032e6 <ediv+0x3d0>
    800032de:	ffb798e3          	bne	a5,s11,800032ce <ediv+0x3b8>
    800032e2:	8b1a                	mv	s6,t1
    800032e4:	b719                	j	800031ea <ediv+0x2d4>
    800032e6:	fec6fee3          	bgeu	a3,a2,800032e2 <ediv+0x3cc>
    800032ea:	ffeb051b          	addiw	a0,s6,-2
    800032ee:	03051b13          	slli	s6,a0,0x30
    800032f2:	030b5b13          	srli	s6,s6,0x30
    800032f6:	4681                	li	a3,0
    800032f8:	1830                	addi	a2,sp,56
    800032fa:	18b8                	addi	a4,sp,120
    800032fc:	00075783          	lhu	a5,0(a4)
    80003300:	00065583          	lhu	a1,0(a2)
    80003304:	1779                	addi	a4,a4,-2
    80003306:	1679                	addi	a2,a2,-2
    80003308:	8f8d                	sub	a5,a5,a1
    8000330a:	8f95                	sub	a5,a5,a3
    8000330c:	0107d693          	srli	a3,a5,0x10
    80003310:	00f71123          	sh	a5,2(a4)
    80003314:	8a85                	andi	a3,a3,1
    80003316:	ff8713e3          	bne	a4,s8,800032fc <ediv+0x3e6>
    8000331a:	bdc1                	j	800031ea <ediv+0x2d4>
    8000331c:	0088                	addi	a0,sp,64
    8000331e:	aa4ff0ef          	jal	ra,800025c2 <enormlz>
    80003322:	40a007b3          	neg	a5,a0
    80003326:	e43e                	sd	a5,8(sp)
    80003328:	bbed                	j	80003122 <ediv+0x20c>
    8000332a:	1008                	addi	a0,sp,32
    8000332c:	a96ff0ef          	jal	ra,800025c2 <enormlz>
    80003330:	40a007b3          	neg	a5,a0
    80003334:	e83e                	sd	a5,16(sp)
    80003336:	b53d                	j	80003164 <ediv+0x24e>
    80003338:	4781                	li	a5,0
    8000333a:	bb3d                	j	80003078 <ediv+0x162>
    8000333c:	4601                	li	a2,0
    8000333e:	b325                	j	80003066 <ediv+0x150>
    80003340:	4805                	li	a6,1
    80003342:	b331                	j	8000304e <ediv+0x138>

0000000080003344 <emul>:
    80003344:	01255803          	lhu	a6,18(a0)
    80003348:	6721                	lui	a4,0x8
    8000334a:	7131                	addi	sp,sp,-192
    8000334c:	177d                	addi	a4,a4,-1 # 7fff <_prog_start-0x7fff8001>
    8000334e:	f922                	sd	s0,176(sp)
    80003350:	f526                	sd	s1,168(sp)
    80003352:	f14a                	sd	s2,160(sp)
    80003354:	e556                	sd	s5,136(sp)
    80003356:	84aa                	mv	s1,a0
    80003358:	fd06                	sd	ra,184(sp)
    8000335a:	ed4e                	sd	s3,152(sp)
    8000335c:	e952                	sd	s4,144(sp)
    8000335e:	e15a                	sd	s6,128(sp)
    80003360:	fcde                	sd	s7,120(sp)
    80003362:	f8e2                	sd	s8,112(sp)
    80003364:	f4e6                	sd	s9,104(sp)
    80003366:	f0ea                	sd	s10,96(sp)
    80003368:	00e87533          	and	a0,a6,a4
    8000336c:	892e                	mv	s2,a1
    8000336e:	8432                	mv	s0,a2
    80003370:	8ab6                	mv	s5,a3
    80003372:	12e51863          	bne	a0,a4,800034a2 <emul+0x15e>
    80003376:	01248993          	addi	s3,s1,18
    8000337a:	8726                	mv	a4,s1
    8000337c:	00075603          	lhu	a2,0(a4)
    80003380:	0709                	addi	a4,a4,2
    80003382:	18061a63          	bnez	a2,80003516 <emul+0x1d2>
    80003386:	ff371be3          	bne	a4,s3,8000337c <emul+0x38>
    8000338a:	01295603          	lhu	a2,18(s2)
    8000338e:	fff64793          	not	a5,a2
    80003392:	03179713          	slli	a4,a5,0x31
    80003396:	10070c63          	beqz	a4,800034ae <emul+0x16a>
    8000339a:	87a6                	mv	a5,s1
    8000339c:	0007d703          	lhu	a4,0(a5)
    800033a0:	0789                	addi	a5,a5,2
    800033a2:	1e071763          	bnez	a4,80003590 <emul+0x24c>
    800033a6:	ff379be3          	bne	a5,s3,8000339c <emul+0x58>
    800033aa:	00009597          	auipc	a1,0x9
    800033ae:	33658593          	addi	a1,a1,822 # 8000c6e0 <ezero>
    800033b2:	854a                	mv	a0,s2
    800033b4:	cf6ff0ef          	jal	ra,800028aa <ecmp>
    800033b8:	1e050f63          	beqz	a0,800035b6 <emul+0x272>
    800033bc:	01295603          	lhu	a2,18(s2)
    800033c0:	65a1                	lui	a1,0x8
    800033c2:	15fd                	addi	a1,a1,-1 # 7fff <_prog_start-0x7fff8001>
    800033c4:	00b67733          	and	a4,a2,a1
    800033c8:	86ba                	mv	a3,a4
    800033ca:	01290793          	addi	a5,s2,18
    800033ce:	30b71d63          	bne	a4,a1,800036e8 <emul+0x3a4>
    800033d2:	874a                	mv	a4,s2
    800033d4:	00075683          	lhu	a3,0(a4)
    800033d8:	0709                	addi	a4,a4,2
    800033da:	18069663          	bnez	a3,80003566 <emul+0x222>
    800033de:	fee79be3          	bne	a5,a4,800033d4 <emul+0x90>
    800033e2:	00009597          	auipc	a1,0x9
    800033e6:	2fe58593          	addi	a1,a1,766 # 8000c6e0 <ezero>
    800033ea:	8526                	mv	a0,s1
    800033ec:	cbeff0ef          	jal	ra,800028aa <ecmp>
    800033f0:	1c050363          	beqz	a0,800035b6 <emul+0x272>
    800033f4:	0124d803          	lhu	a6,18(s1)
    800033f8:	01295603          	lhu	a2,18(s2)
    800033fc:	67a1                	lui	a5,0x8
    800033fe:	17fd                	addi	a5,a5,-1 # 7fff <_prog_start-0x7fff8001>
    80003400:	00f87733          	and	a4,a6,a5
    80003404:	00f676b3          	and	a3,a2,a5
    80003408:	85ba                	mv	a1,a4
    8000340a:	16f70763          	beq	a4,a5,80003578 <emul+0x234>
    8000340e:	8736                	mv	a4,a3
    80003410:	86ae                	mv	a3,a1
    80003412:	67a1                	lui	a5,0x8
    80003414:	2701                	sext.w	a4,a4
    80003416:	17fd                	addi	a5,a5,-1 # 7fff <_prog_start-0x7fff8001>
    80003418:	0af71e63          	bne	a4,a5,800034d4 <emul+0x190>
    8000341c:	01290793          	addi	a5,s2,18
    80003420:	874a                	mv	a4,s2
    80003422:	00075583          	lhu	a1,0(a4)
    80003426:	0709                	addi	a4,a4,2
    80003428:	e5d5                	bnez	a1,800034d4 <emul+0x190>
    8000342a:	fee79ce3          	bne	a5,a4,80003422 <emul+0xde>
    8000342e:	65a1                	lui	a1,0x8
    80003430:	15fd                	addi	a1,a1,-1 # 7fff <_prog_start-0x7fff8001>
    80003432:	0006871b          	sext.w	a4,a3
    80003436:	01248993          	addi	s3,s1,18
    8000343a:	18b69f63          	bne	a3,a1,800035d8 <emul+0x294>
    8000343e:	0004d783          	lhu	a5,0(s1)
    80003442:	0489                	addi	s1,s1,2
    80003444:	18079d63          	bnez	a5,800035de <emul+0x29a>
    80003448:	fe999be3          	bne	s3,s1,8000343e <emul+0xfa>
    8000344c:	00f85813          	srli	a6,a6,0xf
    80003450:	67a1                	lui	a5,0x8
    80003452:	17fd                	addi	a5,a5,-1 # 7fff <_prog_start-0x7fff8001>
    80003454:	14f70863          	beq	a4,a5,800035a4 <emul+0x260>
    80003458:	00f65793          	srli	a5,a2,0xf
    8000345c:	0107c7b3          	xor	a5,a5,a6
    80003460:	00f7979b          	slliw	a5,a5,0xf
    80003464:	00f41923          	sh	a5,18(s0)
    80003468:	01240713          	addi	a4,s0,18
    8000346c:	87a2                	mv	a5,s0
    8000346e:	0789                	addi	a5,a5,2
    80003470:	fe079f23          	sh	zero,-2(a5)
    80003474:	fee79de3          	bne	a5,a4,8000346e <emul+0x12a>
    80003478:	01245783          	lhu	a5,18(s0)
    8000347c:	6721                	lui	a4,0x8
    8000347e:	177d                	addi	a4,a4,-1 # 7fff <_prog_start-0x7fff8001>
    80003480:	8fd9                	or	a5,a5,a4
    80003482:	00f41923          	sh	a5,18(s0)
    80003486:	70ea                	ld	ra,184(sp)
    80003488:	744a                	ld	s0,176(sp)
    8000348a:	74aa                	ld	s1,168(sp)
    8000348c:	790a                	ld	s2,160(sp)
    8000348e:	69ea                	ld	s3,152(sp)
    80003490:	6a4a                	ld	s4,144(sp)
    80003492:	6aaa                	ld	s5,136(sp)
    80003494:	6b0a                	ld	s6,128(sp)
    80003496:	7be6                	ld	s7,120(sp)
    80003498:	7c46                	ld	s8,112(sp)
    8000349a:	7ca6                	ld	s9,104(sp)
    8000349c:	7d06                	ld	s10,96(sp)
    8000349e:	6129                	addi	sp,sp,192
    800034a0:	8082                	ret
    800034a2:	0125d603          	lhu	a2,18(a1)
    800034a6:	00e677b3          	and	a5,a2,a4
    800034aa:	02e79563          	bne	a5,a4,800034d4 <emul+0x190>
    800034ae:	01290793          	addi	a5,s2,18
    800034b2:	874a                	mv	a4,s2
    800034b4:	00075683          	lhu	a3,0(a4)
    800034b8:	0709                	addi	a4,a4,2
    800034ba:	eaad                	bnez	a3,8000352c <emul+0x1e8>
    800034bc:	fef71ce3          	bne	a4,a5,800034b4 <emul+0x170>
    800034c0:	6721                	lui	a4,0x8
    800034c2:	177d                	addi	a4,a4,-1 # 7fff <_prog_start-0x7fff8001>
    800034c4:	01248993          	addi	s3,s1,18
    800034c8:	ece509e3          	beq	a0,a4,8000339a <emul+0x56>
    800034cc:	00e676b3          	and	a3,a2,a4
    800034d0:	f0e681e3          	beq	a3,a4,800033d2 <emul+0x8e>
    800034d4:	8526                	mv	a0,s1
    800034d6:	858a                	mv	a1,sp
    800034d8:	b3eff0ef          	jal	ra,80002816 <emovi>
    800034dc:	854a                	mv	a0,s2
    800034de:	100c                	addi	a1,sp,32
    800034e0:	b36ff0ef          	jal	ra,80002816 <emovi>
    800034e4:	00215903          	lhu	s2,2(sp)
    800034e8:	02215483          	lhu	s1,34(sp)
    800034ec:	04090b63          	beqz	s2,80003542 <emul+0x1fe>
    800034f0:	ecfd                	bnez	s1,800035ee <emul+0x2aa>
    800034f2:	02210793          	addi	a5,sp,34
    800034f6:	1834                	addi	a3,sp,56
    800034f8:	0007d703          	lhu	a4,0(a5)
    800034fc:	0789                	addi	a5,a5,2
    800034fe:	1c071d63          	bnez	a4,800036d8 <emul+0x394>
    80003502:	fed79be3          	bne	a5,a3,800034f8 <emul+0x1b4>
    80003506:	01440793          	addi	a5,s0,20
    8000350a:	0409                	addi	s0,s0,2
    8000350c:	fe041f23          	sh	zero,-2(s0)
    80003510:	fe879de3          	bne	a5,s0,8000350a <emul+0x1c6>
    80003514:	bf8d                	j	80003486 <emul+0x142>
    80003516:	01440713          	addi	a4,s0,20
    8000351a:	0004d783          	lhu	a5,0(s1)
    8000351e:	0409                	addi	s0,s0,2
    80003520:	0489                	addi	s1,s1,2
    80003522:	fef41f23          	sh	a5,-2(s0)
    80003526:	fee41ae3          	bne	s0,a4,8000351a <emul+0x1d6>
    8000352a:	bfb1                	j	80003486 <emul+0x142>
    8000352c:	01490713          	addi	a4,s2,20
    80003530:	00095783          	lhu	a5,0(s2)
    80003534:	0909                	addi	s2,s2,2
    80003536:	0409                	addi	s0,s0,2
    80003538:	fef41f23          	sh	a5,-2(s0)
    8000353c:	ff271ae3          	bne	a4,s2,80003530 <emul+0x1ec>
    80003540:	b799                	j	80003486 <emul+0x142>
    80003542:	00210793          	addi	a5,sp,2
    80003546:	0834                	addi	a3,sp,24
    80003548:	0007d703          	lhu	a4,0(a5)
    8000354c:	0789                	addi	a5,a5,2
    8000354e:	16071f63          	bnez	a4,800036cc <emul+0x388>
    80003552:	fef69be3          	bne	a3,a5,80003548 <emul+0x204>
    80003556:	01440793          	addi	a5,s0,20
    8000355a:	0409                	addi	s0,s0,2
    8000355c:	fe041f23          	sh	zero,-2(s0)
    80003560:	fef41de3          	bne	s0,a5,8000355a <emul+0x216>
    80003564:	b70d                	j	80003486 <emul+0x142>
    80003566:	0124d803          	lhu	a6,18(s1)
    8000356a:	65a1                	lui	a1,0x8
    8000356c:	15fd                	addi	a1,a1,-1 # 7fff <_prog_start-0x7fff8001>
    8000356e:	00b87733          	and	a4,a6,a1
    80003572:	86ba                	mv	a3,a4
    80003574:	eab716e3          	bne	a4,a1,80003420 <emul+0xdc>
    80003578:	01248993          	addi	s3,s1,18
    8000357c:	87a6                	mv	a5,s1
    8000357e:	0007d703          	lhu	a4,0(a5)
    80003582:	0789                	addi	a5,a5,2
    80003584:	e32d                	bnez	a4,800035e6 <emul+0x2a2>
    80003586:	fef99ce3          	bne	s3,a5,8000357e <emul+0x23a>
    8000358a:	0006871b          	sext.w	a4,a3
    8000358e:	bd45                	j	8000343e <emul+0xfa>
    80003590:	65a1                	lui	a1,0x8
    80003592:	15fd                	addi	a1,a1,-1 # 7fff <_prog_start-0x7fff8001>
    80003594:	00b67733          	and	a4,a2,a1
    80003598:	86ba                	mv	a3,a4
    8000359a:	01290793          	addi	a5,s2,18
    8000359e:	e2b70ae3          	beq	a4,a1,800033d2 <emul+0x8e>
    800035a2:	bfe9                	j	8000357c <emul+0x238>
    800035a4:	01290793          	addi	a5,s2,18
    800035a8:	00095703          	lhu	a4,0(s2)
    800035ac:	0909                	addi	s2,s2,2
    800035ae:	eb15                	bnez	a4,800035e2 <emul+0x29e>
    800035b0:	fef91ce3          	bne	s2,a5,800035a8 <emul+0x264>
    800035b4:	b555                	j	80003458 <emul+0x114>
    800035b6:	01040713          	addi	a4,s0,16
    800035ba:	87a2                	mv	a5,s0
    800035bc:	0789                	addi	a5,a5,2
    800035be:	fe079f23          	sh	zero,-2(a5)
    800035c2:	fef71de3          	bne	a4,a5,800035bc <emul+0x278>
    800035c6:	77f1                	lui	a5,0xffffc
    800035c8:	00f41823          	sh	a5,16(s0)
    800035cc:	77e1                	lui	a5,0xffff8
    800035ce:	fff7c793          	not	a5,a5
    800035d2:	00f41923          	sh	a5,18(s0)
    800035d6:	bd45                	j	80003486 <emul+0x142>
    800035d8:	00f85813          	srli	a6,a6,0xf
    800035dc:	b7f1                	j	800035a8 <emul+0x264>
    800035de:	4801                	li	a6,0
    800035e0:	bd85                	j	80003450 <emul+0x10c>
    800035e2:	4781                	li	a5,0
    800035e4:	bda5                	j	8000345c <emul+0x118>
    800035e6:	8736                	mv	a4,a3
    800035e8:	66a1                	lui	a3,0x8
    800035ea:	16fd                	addi	a3,a3,-1 # 7fff <_prog_start-0x7fff8001>
    800035ec:	b51d                	j	80003412 <emul+0xce>
    800035ee:	89a6                	mv	s3,s1
    800035f0:	02015783          	lhu	a5,32(sp)
    800035f4:	0104949b          	slliw	s1,s1,0x10
    800035f8:	038a8a13          	addi	s4,s5,56
    800035fc:	8fc5                	or	a5,a5,s1
    800035fe:	02faaa23          	sw	a5,52(s5)
    80003602:	034a8493          	addi	s1,s5,52
    80003606:	87d2                	mv	a5,s4
    80003608:	04ea8713          	addi	a4,s5,78
    8000360c:	00079023          	sh	zero,0(a5) # ffffffffffff8000 <__clz_tab+0xffffffff7ffeb2d8>
    80003610:	0789                	addi	a5,a5,2
    80003612:	fee79de3          	bne	a5,a4,8000360c <emul+0x2c8>
    80003616:	04ca8c93          	addi	s9,s5,76
    8000361a:	4c01                	li	s8,0
    8000361c:	01810b13          	addi	s6,sp,24
    80003620:	00410d13          	addi	s10,sp,4
    80003624:	04210b93          	addi	s7,sp,66
    80003628:	000b5503          	lhu	a0,0(s6)
    8000362c:	1b79                	addi	s6,s6,-2
    8000362e:	e925                	bnez	a0,8000369e <emul+0x35a>
    80003630:	04cad783          	lhu	a5,76(s5)
    80003634:	8766                	mv	a4,s9
    80003636:	00fc6c33          	or	s8,s8,a5
    8000363a:	ffe75603          	lhu	a2,-2(a4)
    8000363e:	1779                	addi	a4,a4,-2
    80003640:	00c71123          	sh	a2,2(a4)
    80003644:	feea1be3          	bne	s4,a4,8000363a <emul+0x2f6>
    80003648:	020a9c23          	sh	zero,56(s5)
    8000364c:	fdab1ee3          	bne	s6,s10,80003628 <emul+0x2e4>
    80003650:	101c                	addi	a5,sp,32
    80003652:	03a10693          	addi	a3,sp,58
    80003656:	0004d703          	lhu	a4,0(s1)
    8000365a:	0789                	addi	a5,a5,2
    8000365c:	0489                	addi	s1,s1,2
    8000365e:	fee79f23          	sh	a4,-2(a5)
    80003662:	fef69ae3          	bne	a3,a5,80003656 <emul+0x312>
    80003666:	76f1                	lui	a3,0xffffc
    80003668:	994e                	add	s2,s2,s3
    8000366a:	0689                	addi	a3,a3,2 # ffffffffffffc002 <__clz_tab+0xffffffff7ffef2da>
    8000366c:	85e2                	mv	a1,s8
    8000366e:	1008                	addi	a0,sp,32
    80003670:	87d6                	mv	a5,s5
    80003672:	04000713          	li	a4,64
    80003676:	96ca                	add	a3,a3,s2
    80003678:	4601                	li	a2,0
    8000367a:	b18ff0ef          	jal	ra,80002992 <emdnorm>
    8000367e:	02015703          	lhu	a4,32(sp)
    80003682:	00015783          	lhu	a5,0(sp)
    80003686:	85a2                	mv	a1,s0
    80003688:	1008                	addi	a0,sp,32
    8000368a:	8f99                	sub	a5,a5,a4
    8000368c:	00f037b3          	snez	a5,a5
    80003690:	40f007bb          	negw	a5,a5
    80003694:	02f11023          	sh	a5,32(sp)
    80003698:	e9ffe0ef          	jal	ra,80002536 <emovo.constprop.0>
