
/home/binhkieudo/Workspace/PhDThesis/NewFramework/framework/src/main/resources/bootROM/MTBoot//build/sdboot.elf:     file format elf64-littleriscv


Disassembly of section .text:

0000000000010000 <_prog_start>:

  .section .text.init
  .option norvc
  .globl _prog_start
_prog_start:
  li s2, 0x8  
   10000:	00800913          	li	s2,8
  csrw mie, s2
   10004:	30491073          	csrw	mie,s2
  // perform boot if hart_0, otherwise sleep
  li s1, 0
   10008:	00000493          	li	s1,0
  csrr s2, mhartid
   1000c:	f1402973          	csrr	s2,mhartid
  beq s1, s2, _boot
   10010:	0d248663          	beq	s1,s2,100dc <_boot>
  wfi
   10014:	10500073          	wfi
  // wake up from first sleep, clear flag
  csrw mie, zero
   10018:	30401073          	csrw	mie,zero
  csrr s0, mhartid
   1001c:	f1402473          	csrr	s0,mhartid

0000000000010020 <_hart1_clear>:
_hart1_clear:
  li s1, 1
   10020:	00100493          	li	s1,1
  bne s0, s1, _hart2_clear
   10024:	00941c63          	bne	s0,s1,1003c <_hart2_clear>
  // if hart 1, clear flag
  li t0, (CLINT_CTRL_ADDR + CLINT_MSIP1)
   10028:	020002b7          	lui	t0,0x2000
   1002c:	0042829b          	addiw	t0,t0,4 # 2000004 <dtb+0x1fef73c>
  li t1, 0
   10030:	00000313          	li	t1,0
  amoswap.w t1, t1, (t0)
   10034:	0862a32f          	amoswap.w	t1,t1,(t0)
  j _exit
   10038:	12c0006f          	j	10164 <_exit>

000000000001003c <_hart2_clear>:
_hart2_clear:
  li s1, 2
   1003c:	00200493          	li	s1,2
  bne s0, s1, _hart3_clear
   10040:	00941c63          	bne	s0,s1,10058 <_hart3_clear>
  // if hart 2, clear flag
  li t0, (CLINT_CTRL_ADDR + CLINT_MSIP2)
   10044:	020002b7          	lui	t0,0x2000
   10048:	0082829b          	addiw	t0,t0,8 # 2000008 <dtb+0x1fef740>
  li t1, 0
   1004c:	00000313          	li	t1,0
  amoswap.w t1, t1, (t0)
   10050:	0862a32f          	amoswap.w	t1,t1,(t0)
  j _exit
   10054:	1100006f          	j	10164 <_exit>

0000000000010058 <_hart3_clear>:
_hart3_clear:
  li s1, 3
   10058:	00300493          	li	s1,3
  bne s0, s1, _hart4_clear
   1005c:	00941c63          	bne	s0,s1,10074 <_hart4_clear>
  li t0, (CLINT_CTRL_ADDR + CLINT_MSIP3)
   10060:	020002b7          	lui	t0,0x2000
   10064:	00c2829b          	addiw	t0,t0,12 # 200000c <dtb+0x1fef744>
  li t1, 0
   10068:	00000313          	li	t1,0
  amoswap.w t1, t1, (t0)
   1006c:	0862a32f          	amoswap.w	t1,t1,(t0)
  j _exit
   10070:	0f40006f          	j	10164 <_exit>

0000000000010074 <_hart4_clear>:
_hart4_clear:
  li s1, 4
   10074:	00400493          	li	s1,4
  bne s0, s1, _hart5_clear
   10078:	00941c63          	bne	s0,s1,10090 <_hart5_clear>
  li t0, (CLINT_CTRL_ADDR + CLINT_MSIP4)
   1007c:	020002b7          	lui	t0,0x2000
   10080:	0102829b          	addiw	t0,t0,16 # 2000010 <dtb+0x1fef748>
  li t1, 0
   10084:	00000313          	li	t1,0
  amoswap.w t1, t1, (t0)
   10088:	0862a32f          	amoswap.w	t1,t1,(t0)
  j _exit
   1008c:	0d80006f          	j	10164 <_exit>

0000000000010090 <_hart5_clear>:
_hart5_clear:
  li s1, 5
   10090:	00500493          	li	s1,5
  bne s0, s1, _hart6_clear
   10094:	00941c63          	bne	s0,s1,100ac <_hart6_clear>
  li t0, (CLINT_CTRL_ADDR + CLINT_MSIP5)
   10098:	020002b7          	lui	t0,0x2000
   1009c:	0142829b          	addiw	t0,t0,20 # 2000014 <dtb+0x1fef74c>
  li t1, 0
   100a0:	00000313          	li	t1,0
  amoswap.w t1, t1, (t0)
   100a4:	0862a32f          	amoswap.w	t1,t1,(t0)
  j _exit
   100a8:	0bc0006f          	j	10164 <_exit>

00000000000100ac <_hart6_clear>:
_hart6_clear:
  li s1, 6
   100ac:	00600493          	li	s1,6
  bne s0, s1, _hart7_clear
   100b0:	00941c63          	bne	s0,s1,100c8 <_hart7_clear>
  li t0, (CLINT_CTRL_ADDR + CLINT_MSIP6)
   100b4:	020002b7          	lui	t0,0x2000
   100b8:	0182829b          	addiw	t0,t0,24 # 2000018 <dtb+0x1fef750>
  li t1, 0
   100bc:	00000313          	li	t1,0
  amoswap.w t1, t1, (t0)
   100c0:	0862a32f          	amoswap.w	t1,t1,(t0)
  j _exit
   100c4:	0a00006f          	j	10164 <_exit>

00000000000100c8 <_hart7_clear>:
_hart7_clear:
  li t0, (CLINT_CTRL_ADDR + CLINT_MSIP7)
   100c8:	020002b7          	lui	t0,0x2000
   100cc:	01c2829b          	addiw	t0,t0,28 # 200001c <dtb+0x1fef754>
  li t1, 0
   100d0:	00000313          	li	t1,0
  amoswap.w t1, t1, (t0)
   100d4:	0862a32f          	amoswap.w	t1,t1,(t0)
  j _exit  
   100d8:	08c0006f          	j	10164 <_exit>

00000000000100dc <_boot>:
_boot: // only perform by hart0
  li sp, (MEMORY_MEM_ADDR + 0xffff000)
   100dc:	00090137          	lui	sp,0x90
   100e0:	fff1011b          	addiw	sp,sp,-1 # 8ffff <dtb+0x7f737>
   100e4:	00c11113          	slli	sp,sp,0xc
  csrr a0, mhartid
   100e8:	f1402573          	csrr	a0,mhartid
  call main
   100ec:	162000ef          	jal	ra,1024e <main>
  j _exit
   100f0:	0740006f          	j	10164 <_exit>
  // After booting, wake other hart from first sleep
  li t0, (CLINT_CTRL_ADDR + CLINT_MSIP1)
   100f4:	020002b7          	lui	t0,0x2000
   100f8:	0042829b          	addiw	t0,t0,4 # 2000004 <dtb+0x1fef73c>
  li t1, 1
   100fc:	00100313          	li	t1,1
  amoswap.w t1, t1, (t0)
   10100:	0862a32f          	amoswap.w	t1,t1,(t0)
  li t0, (CLINT_CTRL_ADDR + CLINT_MSIP2)
   10104:	020002b7          	lui	t0,0x2000
   10108:	0082829b          	addiw	t0,t0,8 # 2000008 <dtb+0x1fef740>
  li t1, 1
   1010c:	00100313          	li	t1,1
  amoswap.w t1, t1, (t0)
   10110:	0862a32f          	amoswap.w	t1,t1,(t0)
  li t0, (CLINT_CTRL_ADDR + CLINT_MSIP3)
   10114:	020002b7          	lui	t0,0x2000
   10118:	00c2829b          	addiw	t0,t0,12 # 200000c <dtb+0x1fef744>
  li t1, 1
   1011c:	00100313          	li	t1,1
  amoswap.w t1, t1, (t0)
   10120:	0862a32f          	amoswap.w	t1,t1,(t0)
  li t0, (CLINT_CTRL_ADDR + CLINT_MSIP4)
   10124:	020002b7          	lui	t0,0x2000
   10128:	0102829b          	addiw	t0,t0,16 # 2000010 <dtb+0x1fef748>
  li t1, 1
   1012c:	00100313          	li	t1,1
  amoswap.w t1, t1, (t0)
   10130:	0862a32f          	amoswap.w	t1,t1,(t0)
  li t0, (CLINT_CTRL_ADDR + CLINT_MSIP5)
   10134:	020002b7          	lui	t0,0x2000
   10138:	0142829b          	addiw	t0,t0,20 # 2000014 <dtb+0x1fef74c>
  li t1, 1
   1013c:	00100313          	li	t1,1
  amoswap.w t1, t1, (t0)
   10140:	0862a32f          	amoswap.w	t1,t1,(t0)
  li t0, (CLINT_CTRL_ADDR + CLINT_MSIP6)
   10144:	020002b7          	lui	t0,0x2000
   10148:	0182829b          	addiw	t0,t0,24 # 2000018 <dtb+0x1fef750>
  li t1, 1
   1014c:	00100313          	li	t1,1
  amoswap.w t1, t1, (t0)
   10150:	0862a32f          	amoswap.w	t1,t1,(t0)
  li t0, (CLINT_CTRL_ADDR + CLINT_MSIP7)
   10154:	020002b7          	lui	t0,0x2000
   10158:	01c2829b          	addiw	t0,t0,28 # 200001c <dtb+0x1fef754>
  li t1, 1
   1015c:	00100313          	li	t1,1
  amoswap.w t1, t1, (t0)
   10160:	0862a32f          	amoswap.w	t1,t1,(t0)

0000000000010164 <_exit>:
_exit:
  li s2, 0x8
   10164:	00800913          	li	s2,8
  csrw mie, s2
   10168:	30491073          	csrw	mie,s2
  csrr a0, mhartid
   1016c:	f1402573          	csrr	a0,mhartid
  la a1, dtb // dtb address for next level bootloader
   10170:	00000597          	auipc	a1,0x0
   10174:	75858593          	addi	a1,a1,1880 # 108c8 <dtb>
  li s1, MEMORY_MEM_ADDR
   10178:	0010049b          	addiw	s1,zero,1
   1017c:	01f49493          	slli	s1,s1,0x1f
  jr s1
   10180:	00048067          	jr	s1
  wfi
   10184:	10500073          	wfi

0000000000010188 <_loopback>:
_loopback:
  j _prog_start
   10188:	e79ff06f          	j	10000 <_prog_start>

000000000001018c <sd_cmd>:
{
	return spi_xfer(0xFF);
}

static uint8_t sd_cmd(uint8_t cmd, uint32_t arg, uint8_t crc)
{
   1018c:	1141                	addi	sp,sp,-16
   1018e:	e406                	sd	ra,8(sp)
   10190:	e022                	sd	s0,0(sp)
	unsigned long n;
	uint8_t r;

	REG32(spi, SPI_REG_CSMODE) = SPI_CSMODE_HOLD;
   10192:	640017b7          	lui	a5,0x64001
   10196:	4709                	li	a4,2
   10198:	cf98                	sw	a4,24(a5)
	REG32(spi, SPI_REG_TXFIFO) = d;
   1019a:	0ff00713          	li	a4,255
   1019e:	c7b8                	sw	a4,72(a5)
		r = REG32(spi, SPI_REG_RXFIFO);
   101a0:	64001737          	lui	a4,0x64001
   101a4:	477c                	lw	a5,76(a4)
	} while (r < 0);
   101a6:	fe07cfe3          	bltz	a5,101a4 <sd_cmd+0x18>
	REG32(spi, SPI_REG_TXFIFO) = d;
   101aa:	2501                	sext.w	a0,a0
   101ac:	c728                	sw	a0,72(a4)
		r = REG32(spi, SPI_REG_RXFIFO);
   101ae:	64001737          	lui	a4,0x64001
   101b2:	477c                	lw	a5,76(a4)
	} while (r < 0);
   101b4:	fe07cfe3          	bltz	a5,101b2 <sd_cmd+0x26>
	sd_dummy();
	spi_xfer(cmd);
	spi_xfer(arg >> 24);
   101b8:	0185d79b          	srliw	a5,a1,0x18
	REG32(spi, SPI_REG_TXFIFO) = d;
   101bc:	c73c                	sw	a5,72(a4)
		r = REG32(spi, SPI_REG_RXFIFO);
   101be:	64001737          	lui	a4,0x64001
   101c2:	477c                	lw	a5,76(a4)
	} while (r < 0);
   101c4:	fe07cfe3          	bltz	a5,101c2 <sd_cmd+0x36>
	REG32(spi, SPI_REG_TXFIFO) = d;
   101c8:	04072423          	sw	zero,72(a4) # 64001048 <dtb+0x63ff0780>
		r = REG32(spi, SPI_REG_RXFIFO);
   101cc:	64001737          	lui	a4,0x64001
   101d0:	477c                	lw	a5,76(a4)
	} while (r < 0);
   101d2:	fe07cfe3          	bltz	a5,101d0 <sd_cmd+0x44>
	spi_xfer(arg >> 16);
	spi_xfer(arg >> 8);
   101d6:	0085d79b          	srliw	a5,a1,0x8
   101da:	0ff7f793          	zext.b	a5,a5
	REG32(spi, SPI_REG_TXFIFO) = d;
   101de:	c73c                	sw	a5,72(a4)
		r = REG32(spi, SPI_REG_RXFIFO);
   101e0:	64001737          	lui	a4,0x64001
   101e4:	477c                	lw	a5,76(a4)
	} while (r < 0);
   101e6:	fe07cfe3          	bltz	a5,101e4 <sd_cmd+0x58>
	REG32(spi, SPI_REG_TXFIFO) = d;
   101ea:	0ff5f593          	zext.b	a1,a1
   101ee:	c72c                	sw	a1,72(a4)
		r = REG32(spi, SPI_REG_RXFIFO);
   101f0:	64001737          	lui	a4,0x64001
   101f4:	477c                	lw	a5,76(a4)
	} while (r < 0);
   101f6:	fe07cfe3          	bltz	a5,101f4 <sd_cmd+0x68>
	REG32(spi, SPI_REG_TXFIFO) = d;
   101fa:	0006079b          	sext.w	a5,a2
   101fe:	c73c                	sw	a5,72(a4)
		r = REG32(spi, SPI_REG_RXFIFO);
   10200:	64001737          	lui	a4,0x64001
   10204:	477c                	lw	a5,76(a4)
	} while (r < 0);
   10206:	fe07cfe3          	bltz	a5,10204 <sd_cmd+0x78>
	REG32(spi, SPI_REG_TXFIFO) = d;
   1020a:	64001737          	lui	a4,0x64001
   1020e:	3e800693          	li	a3,1000
   10212:	04870593          	addi	a1,a4,72 # 64001048 <dtb+0x63ff0780>
   10216:	0ff00613          	li	a2,255
   1021a:	c190                	sw	a2,0(a1)
		r = REG32(spi, SPI_REG_RXFIFO);
   1021c:	477c                	lw	a5,76(a4)
   1021e:	0007841b          	sext.w	s0,a5
	} while (r < 0);
   10222:	fe07cde3          	bltz	a5,1021c <sd_cmd+0x90>
	spi_xfer(crc);

	n = 1000;
	do {
		r = sd_dummy();
		if (!(r & 0x80)) {
   10226:	0184179b          	slliw	a5,s0,0x18
   1022a:	4187d79b          	sraiw	a5,a5,0x18
   1022e:	0007da63          	bgez	a5,10242 <sd_cmd+0xb6>
//			dprintf("sd:cmd: %hx\r\n", r);
			goto done;
		}
	} while (--n > 0);
   10232:	16fd                	addi	a3,a3,-1
   10234:	f2fd                	bnez	a3,1021a <sd_cmd+0x8e>
	kputs("sd_cmd: timeout");
   10236:	00000517          	auipc	a0,0x0
   1023a:	59a50513          	addi	a0,a0,1434 # 107d0 <kprintf+0x15e>
   1023e:	3f6000ef          	jal	ra,10634 <kputs>
done:
	return r;
}
   10242:	60a2                	ld	ra,8(sp)
   10244:	0ff47513          	zext.b	a0,s0
   10248:	6402                	ld	s0,0(sp)
   1024a:	0141                	addi	sp,sp,16
   1024c:	8082                	ret

000000000001024e <main>:
	kputs("\b ");
	return rc;
}

int main(int argc, char** dump)
{
   1024e:	7179                	addi	sp,sp,-48
   10250:	f406                	sd	ra,40(sp)
   10252:	f022                	sd	s0,32(sp)
   10254:	ec26                	sd	s1,24(sp)
   10256:	e84a                	sd	s2,16(sp)
   10258:	e44e                	sd	s3,8(sp)
	REG32(uart, UART_REG_TXCTRL) = UART_TXEN;
   1025a:	640007b7          	lui	a5,0x64000
   1025e:	4705                	li	a4,1
   10260:	c798                	sw	a4,8(a5)

	int mhartid = read_csr(mhartid);
   10262:	f1402473          	csrr	s0,mhartid
   10266:	2401                	sext.w	s0,s0

	if (mhartid == 0) {
   10268:	c819                	beqz	s0,1027e <main+0x30>
	 		return 1;
	 	}
	 	kputs("FINISH");
	 }

	__asm__ __volatile__ ("fence.i" : : : "memory");
   1026a:	0000100f          	fence.i

	return 0;
   1026e:	4501                	li	a0,0
   10270:	70a2                	ld	ra,40(sp)
   10272:	7402                	ld	s0,32(sp)
   10274:	64e2                	ld	s1,24(sp)
   10276:	6942                	ld	s2,16(sp)
   10278:	69a2                	ld	s3,8(sp)
   1027a:	6145                	addi	sp,sp,48
   1027c:	8082                	ret
		kputs("");
   1027e:	00000517          	auipc	a0,0x0
   10282:	5d250513          	addi	a0,a0,1490 # 10850 <kprintf+0x1de>
   10286:	3ae000ef          	jal	ra,10634 <kputs>
		kputs("Core 0: ZERO STAGE BOOT..");
   1028a:	00000517          	auipc	a0,0x0
   1028e:	55650513          	addi	a0,a0,1366 # 107e0 <kprintf+0x16e>
   10292:	3a2000ef          	jal	ra,10634 <kputs>
	REG32(spi, SPI_REG_SCKDIV) = (F_CLK / FDIV);
   10296:	6795                	lui	a5,0x5
   10298:	64001737          	lui	a4,0x64001
   1029c:	e2078793          	addi	a5,a5,-480 # 4e20 <_prog_start-0xb1e0>
   102a0:	c31c                	sw	a5,0(a4)
	REG32(spi, SPI_REG_TXFIFO) = d;
   102a2:	640014b7          	lui	s1,0x64001
	REG32(spi, SPI_REG_CSMODE) = SPI_CSMODE_OFF;
   102a6:	478d                	li	a5,3
   102a8:	cf1c                	sw	a5,24(a4)
	REG32(spi, SPI_REG_TXFIFO) = d;
   102aa:	04848613          	addi	a2,s1,72 # 64001048 <dtb+0x63ff0780>
	REG32(spi, SPI_REG_CSMODE) = SPI_CSMODE_OFF;
   102ae:	4729                	li	a4,10
	REG32(spi, SPI_REG_TXFIFO) = d;
   102b0:	0ff00693          	li	a3,255
   102b4:	c214                	sw	a3,0(a2)
		r = REG32(spi, SPI_REG_RXFIFO);
   102b6:	44fc                	lw	a5,76(s1)
	} while (r < 0);
   102b8:	fe07cfe3          	bltz	a5,102b6 <main+0x68>
	for (i = 10; i > 0; i--) {
   102bc:	177d                	addi	a4,a4,-1 # 64000fff <dtb+0x63ff0737>
   102be:	fb7d                	bnez	a4,102b4 <main+0x66>
	dputs("CMD0");
   102c0:	00000517          	auipc	a0,0x0
   102c4:	54050513          	addi	a0,a0,1344 # 10800 <kprintf+0x18e>
	REG32(spi, SPI_REG_CSMODE) = SPI_CSMODE_AUTO;
   102c8:	0004ac23          	sw	zero,24(s1)
	dputs("CMD0");
   102cc:	368000ef          	jal	ra,10634 <kputs>
	rc = (sd_cmd(0x40, 0, 0x95) != 0x01);
   102d0:	09500613          	li	a2,149
   102d4:	4581                	li	a1,0
   102d6:	04000513          	li	a0,64
   102da:	eb3ff0ef          	jal	ra,1018c <sd_cmd>
	REG32(spi, SPI_REG_TXFIFO) = d;
   102de:	0ff00793          	li	a5,255
   102e2:	c4bc                	sw	a5,72(s1)
		r = REG32(spi, SPI_REG_RXFIFO);
   102e4:	640014b7          	lui	s1,0x64001
   102e8:	44fc                	lw	a5,76(s1)
	} while (r < 0);
   102ea:	fe07cfe3          	bltz	a5,102e8 <main+0x9a>
	REG32(spi, SPI_REG_CSMODE) = SPI_CSMODE_AUTO;
   102ee:	0004ac23          	sw	zero,24(s1) # 64001018 <dtb+0x63ff0750>
	 	if (sd_cmd0() ||
   102f2:	4785                	li	a5,1
   102f4:	0af51463          	bne	a0,a5,1039c <main+0x14e>
	dputs("CMD8");
   102f8:	00000517          	auipc	a0,0x0
   102fc:	51050513          	addi	a0,a0,1296 # 10808 <kprintf+0x196>
   10300:	334000ef          	jal	ra,10634 <kputs>
	rc = (sd_cmd(0x48, 0x000001AA, 0x87) != 0x01);
   10304:	08700613          	li	a2,135
   10308:	1aa00593          	li	a1,426
   1030c:	04800513          	li	a0,72
   10310:	e7dff0ef          	jal	ra,1018c <sd_cmd>
   10314:	0005071b          	sext.w	a4,a0
   10318:	177d                	addi	a4,a4,-1
	REG32(spi, SPI_REG_TXFIFO) = d;
   1031a:	0ff00793          	li	a5,255
	rc = (sd_cmd(0x48, 0x000001AA, 0x87) != 0x01);
   1031e:	00e03633          	snez	a2,a4
	REG32(spi, SPI_REG_TXFIFO) = d;
   10322:	c4bc                	sw	a5,72(s1)
		r = REG32(spi, SPI_REG_RXFIFO);
   10324:	64001737          	lui	a4,0x64001
   10328:	477c                	lw	a5,76(a4)
	} while (r < 0);
   1032a:	fe07cfe3          	bltz	a5,10328 <main+0xda>
	REG32(spi, SPI_REG_TXFIFO) = d;
   1032e:	0ff00793          	li	a5,255
   10332:	c73c                	sw	a5,72(a4)
		r = REG32(spi, SPI_REG_RXFIFO);
   10334:	64001737          	lui	a4,0x64001
   10338:	477c                	lw	a5,76(a4)
	} while (r < 0);
   1033a:	fe07cfe3          	bltz	a5,10338 <main+0xea>
	REG32(spi, SPI_REG_TXFIFO) = d;
   1033e:	0ff00793          	li	a5,255
   10342:	c73c                	sw	a5,72(a4)
		r = REG32(spi, SPI_REG_RXFIFO);
   10344:	640016b7          	lui	a3,0x64001
   10348:	46fc                	lw	a5,76(a3)
   1034a:	0007871b          	sext.w	a4,a5
	} while (r < 0);
   1034e:	fe07cde3          	bltz	a5,10348 <main+0xfa>
	rc |= ((sd_dummy() & 0xF) != 0x1); /* voltage */
   10352:	8b3d                	andi	a4,a4,15
   10354:	fff70793          	addi	a5,a4,-1 # 64000fff <dtb+0x63ff0737>
   10358:	00f03733          	snez	a4,a5
	REG32(spi, SPI_REG_TXFIFO) = d;
   1035c:	0ff00793          	li	a5,255
   10360:	c6bc                	sw	a5,72(a3)
		r = REG32(spi, SPI_REG_RXFIFO);
   10362:	640015b7          	lui	a1,0x64001
   10366:	45fc                	lw	a5,76(a1)
   10368:	0007869b          	sext.w	a3,a5
	} while (r < 0);
   1036c:	fe07cde3          	bltz	a5,10366 <main+0x118>
	rc |= (sd_dummy() != 0xAA); /* check pattern */
   10370:	0ff6f793          	zext.b	a5,a3
   10374:	f5678793          	addi	a5,a5,-170
   10378:	00f037b3          	snez	a5,a5
   1037c:	8fd9                	or	a5,a5,a4
   1037e:	00f66733          	or	a4,a2,a5
	REG32(spi, SPI_REG_TXFIFO) = d;
   10382:	0ff00793          	li	a5,255
   10386:	0ff77713          	zext.b	a4,a4
   1038a:	c5bc                	sw	a5,72(a1)
		r = REG32(spi, SPI_REG_RXFIFO);
   1038c:	640016b7          	lui	a3,0x64001
   10390:	46fc                	lw	a5,76(a3)
	} while (r < 0);
   10392:	fe07cfe3          	bltz	a5,10390 <main+0x142>
	REG32(spi, SPI_REG_CSMODE) = SPI_CSMODE_AUTO;
   10396:	0006ac23          	sw	zero,24(a3) # 64001018 <dtb+0x63ff0750>
	 	if (sd_cmd0() ||
   1039a:	cb09                	beqz	a4,103ac <main+0x15e>
	 		kputs("ERROR");
   1039c:	00000517          	auipc	a0,0x0
   103a0:	4c450513          	addi	a0,a0,1220 # 10860 <kprintf+0x1ee>
   103a4:	290000ef          	jal	ra,10634 <kputs>
	 		return 1;
   103a8:	4505                	li	a0,1
   103aa:	b5d9                	j	10270 <main+0x22>
	dputs("ACMD41");
   103ac:	00000517          	auipc	a0,0x0
   103b0:	46450513          	addi	a0,a0,1124 # 10810 <kprintf+0x19e>
   103b4:	280000ef          	jal	ra,10634 <kputs>
	REG32(spi, SPI_REG_TXFIFO) = d;
   103b8:	640014b7          	lui	s1,0x64001
   103bc:	0ff00993          	li	s3,255
	} while (r == 0x01);
   103c0:	4905                	li	s2,1
	sd_cmd(0x77, 0, 0x65);
   103c2:	06500613          	li	a2,101
   103c6:	4581                	li	a1,0
   103c8:	07700513          	li	a0,119
   103cc:	dc1ff0ef          	jal	ra,1018c <sd_cmd>
	REG32(spi, SPI_REG_TXFIFO) = d;
   103d0:	0534a423          	sw	s3,72(s1) # 64001048 <dtb+0x63ff0780>
		r = REG32(spi, SPI_REG_RXFIFO);
   103d4:	44fc                	lw	a5,76(s1)
	} while (r < 0);
   103d6:	fe07cfe3          	bltz	a5,103d4 <main+0x186>
	REG32(spi, SPI_REG_CSMODE) = SPI_CSMODE_AUTO;
   103da:	0004ac23          	sw	zero,24(s1)
		r = sd_cmd(0x69, 0x40000000, 0x77); /* HCS = 1 */
   103de:	07700613          	li	a2,119
   103e2:	400005b7          	lui	a1,0x40000
   103e6:	06900513          	li	a0,105
   103ea:	da3ff0ef          	jal	ra,1018c <sd_cmd>
	} while (r == 0x01);
   103ee:	fd250ae3          	beq	a0,s2,103c2 <main+0x174>
	 		sd_cmd8() ||
   103f2:	f54d                	bnez	a0,1039c <main+0x14e>
	dputs("CMD58");
   103f4:	00000517          	auipc	a0,0x0
   103f8:	42450513          	addi	a0,a0,1060 # 10818 <kprintf+0x1a6>
   103fc:	238000ef          	jal	ra,10634 <kputs>
	rc = (sd_cmd(0x7A, 0, 0xFD) != 0x00);
   10400:	0fd00613          	li	a2,253
   10404:	4581                	li	a1,0
   10406:	07a00513          	li	a0,122
   1040a:	d83ff0ef          	jal	ra,1018c <sd_cmd>
	REG32(spi, SPI_REG_TXFIFO) = d;
   1040e:	0ff00793          	li	a5,255
	rc = (sd_cmd(0x7A, 0, 0xFD) != 0x00);
   10412:	00a03633          	snez	a2,a0
	REG32(spi, SPI_REG_TXFIFO) = d;
   10416:	c4bc                	sw	a5,72(s1)
		r = REG32(spi, SPI_REG_RXFIFO);
   10418:	640016b7          	lui	a3,0x64001
   1041c:	46fc                	lw	a5,76(a3)
   1041e:	0007871b          	sext.w	a4,a5
	} while (r < 0);
   10422:	fe07cde3          	bltz	a5,1041c <main+0x1ce>
	rc |= ((sd_dummy() & 0x80) != 0x80); /* Power up status */
   10426:	4077579b          	sraiw	a5,a4,0x7
   1042a:	0017c793          	xori	a5,a5,1
   1042e:	8b85                	andi	a5,a5,1
   10430:	8e5d                	or	a2,a2,a5
	REG32(spi, SPI_REG_TXFIFO) = d;
   10432:	0ff00793          	li	a5,255
   10436:	c6bc                	sw	a5,72(a3)
		r = REG32(spi, SPI_REG_RXFIFO);
   10438:	64001737          	lui	a4,0x64001
   1043c:	477c                	lw	a5,76(a4)
	} while (r < 0);
   1043e:	fe07cfe3          	bltz	a5,1043c <main+0x1ee>
	REG32(spi, SPI_REG_TXFIFO) = d;
   10442:	0ff00793          	li	a5,255
   10446:	c73c                	sw	a5,72(a4)
		r = REG32(spi, SPI_REG_RXFIFO);
   10448:	64001737          	lui	a4,0x64001
   1044c:	477c                	lw	a5,76(a4)
	} while (r < 0);
   1044e:	fe07cfe3          	bltz	a5,1044c <main+0x1fe>
	REG32(spi, SPI_REG_TXFIFO) = d;
   10452:	0ff00793          	li	a5,255
   10456:	c73c                	sw	a5,72(a4)
		r = REG32(spi, SPI_REG_RXFIFO);
   10458:	64001737          	lui	a4,0x64001
   1045c:	477c                	lw	a5,76(a4)
	} while (r < 0);
   1045e:	fe07cfe3          	bltz	a5,1045c <main+0x20e>
	REG32(spi, SPI_REG_TXFIFO) = d;
   10462:	0ff00793          	li	a5,255
   10466:	c73c                	sw	a5,72(a4)
		r = REG32(spi, SPI_REG_RXFIFO);
   10468:	640014b7          	lui	s1,0x64001
   1046c:	44fc                	lw	a5,76(s1)
	} while (r < 0);
   1046e:	fe07cfe3          	bltz	a5,1046c <main+0x21e>
	REG32(spi, SPI_REG_CSMODE) = SPI_CSMODE_AUTO;
   10472:	0004ac23          	sw	zero,24(s1) # 64001018 <dtb+0x63ff0750>
	 		sd_acmd41() ||
   10476:	f21d                	bnez	a2,1039c <main+0x14e>
	dputs("CMD16");
   10478:	00000517          	auipc	a0,0x0
   1047c:	3a850513          	addi	a0,a0,936 # 10820 <kprintf+0x1ae>
   10480:	1b4000ef          	jal	ra,10634 <kputs>
	rc = (sd_cmd(0x50, 0x200, 0x15) != 0x00);
   10484:	4655                	li	a2,21
   10486:	20000593          	li	a1,512
   1048a:	05000513          	li	a0,80
   1048e:	cffff0ef          	jal	ra,1018c <sd_cmd>
	REG32(spi, SPI_REG_TXFIFO) = d;
   10492:	0ff00793          	li	a5,255
   10496:	c4bc                	sw	a5,72(s1)
	rc = (sd_cmd(0x50, 0x200, 0x15) != 0x00);
   10498:	872a                	mv	a4,a0
		r = REG32(spi, SPI_REG_RXFIFO);
   1049a:	640014b7          	lui	s1,0x64001
   1049e:	44fc                	lw	a5,76(s1)
	} while (r < 0);
   104a0:	fe07cfe3          	bltz	a5,1049e <main+0x250>
	REG32(spi, SPI_REG_CSMODE) = SPI_CSMODE_AUTO;
   104a4:	0004ac23          	sw	zero,24(s1) # 64001018 <dtb+0x63ff0750>
	 		sd_cmd58() ||
   104a8:	ee071ae3          	bnez	a4,1039c <main+0x14e>
	dputs("CMD18");
   104ac:	00000517          	auipc	a0,0x0
   104b0:	37c50513          	addi	a0,a0,892 # 10828 <kprintf+0x1b6>
   104b4:	180000ef          	jal	ra,10634 <kputs>
	kprintf("LOADING  ");
   104b8:	00000517          	auipc	a0,0x0
   104bc:	37850513          	addi	a0,a0,888 # 10830 <kprintf+0x1be>
   104c0:	1b2000ef          	jal	ra,10672 <kprintf>
	REG32(spi, SPI_REG_SCKDIV) = (F_CLK / FDIV);
   104c4:	6795                	lui	a5,0x5
   104c6:	e2078793          	addi	a5,a5,-480 # 4e20 <_prog_start-0xb1e0>
	if (sd_cmd(0x52, BBL_PARTITION_START_SECTOR, 0x51) != 0x00) {
   104ca:	6585                	lui	a1,0x1
	REG32(spi, SPI_REG_SCKDIV) = (F_CLK / FDIV);
   104cc:	c09c                	sw	a5,0(s1)
	if (sd_cmd(0x52, BBL_PARTITION_START_SECTOR, 0x51) != 0x00) {
   104ce:	05100613          	li	a2,81
   104d2:	80058593          	addi	a1,a1,-2048 # 800 <_prog_start-0xf800>
   104d6:	05200513          	li	a0,82
   104da:	cb3ff0ef          	jal	ra,1018c <sd_cmd>
   104de:	14051063          	bnez	a0,1061e <main+0x3d0>
	} while (--i > 0);
   104e2:	00100eb7          	lui	t4,0x100
	volatile uint8_t *p = (void *)(PAYLOAD_DEST);
   104e6:	4805                	li	a6,1
	crc ^= (crc & 0xff) << 5;
   104e8:	6889                	lui	a7,0x2
	} while (--i > 0);
   104ea:	0e85                	addi	t4,t4,1 # 100001 <dtb+0xef739>
	volatile uint8_t *p = (void *)(PAYLOAD_DEST);
   104ec:	087e                	slli	a6,a6,0x1f
	REG32(spi, SPI_REG_TXFIFO) = d;
   104ee:	640016b7          	lui	a3,0x64001
   104f2:	0ff00f13          	li	t5,255
   104f6:	0ff00513          	li	a0,255
		while (sd_dummy() != 0xFE);
   104fa:	0fe00e13          	li	t3,254
		r = REG32(spi, SPI_REG_RXFIFO);
   104fe:	64001fb7          	lui	t6,0x64001
	crc ^= (crc & 0xff) << 5;
   10502:	1881                	addi	a7,a7,-32 # 1fe0 <_prog_start-0xe020>
	} while (--i > 0);
   10504:	0eae                	slli	t4,t4,0xb
	REG32(spi, SPI_REG_TXFIFO) = d;
   10506:	04868613          	addi	a2,a3,72 # 64001048 <dtb+0x63ff0780>
   1050a:	c208                	sw	a0,0(a2)
		r = REG32(spi, SPI_REG_RXFIFO);
   1050c:	46fc                	lw	a5,76(a3)
   1050e:	0007871b          	sext.w	a4,a5
	} while (r < 0);
   10512:	fe07cde3          	bltz	a5,1050c <main+0x2be>
		while (sd_dummy() != 0xFE);
   10516:	0ff77713          	zext.b	a4,a4
   1051a:	ffc718e3          	bne	a4,t3,1050a <main+0x2bc>
   1051e:	85c2                	mv	a1,a6
		crc = 0;
   10520:	4601                	li	a2,0
   10522:	20080813          	addi	a6,a6,512
	REG32(spi, SPI_REG_TXFIFO) = d;
   10526:	04868313          	addi	t1,a3,72
   1052a:	00a32023          	sw	a0,0(t1)
		r = REG32(spi, SPI_REG_RXFIFO);
   1052e:	46fc                	lw	a5,76(a3)
   10530:	0007871b          	sext.w	a4,a5
	} while (r < 0);
   10534:	fe07cde3          	bltz	a5,1052e <main+0x2e0>
	return r;
   10538:	0086179b          	slliw	a5,a2,0x8
   1053c:	0086561b          	srliw	a2,a2,0x8
   10540:	8fd1                	or	a5,a5,a2
   10542:	17c2                	slli	a5,a5,0x30
   10544:	0ff77713          	zext.b	a4,a4
			*p++ = x;
   10548:	93c1                	srli	a5,a5,0x30
	crc ^= data;
   1054a:	8fb9                	xor	a5,a5,a4
	crc ^= (uint8_t)(crc >> 4) & 0xf;
   1054c:	0047d61b          	srliw	a2,a5,0x4
   10550:	8a3d                	andi	a2,a2,15
   10552:	8fb1                	xor	a5,a5,a2
	crc ^= crc << 12;
   10554:	00c7961b          	slliw	a2,a5,0xc
   10558:	8fb1                	xor	a5,a5,a2
	crc ^= (crc & 0xff) << 5;
   1055a:	0107961b          	slliw	a2,a5,0x10
   1055e:	0106561b          	srliw	a2,a2,0x10
   10562:	0056161b          	slliw	a2,a2,0x5
   10566:	00c8f633          	and	a2,a7,a2
   1056a:	8fb1                	xor	a5,a5,a2
   1056c:	03079613          	slli	a2,a5,0x30
			*p++ = x;
   10570:	00158293          	addi	t0,a1,1
   10574:	00e58023          	sb	a4,0(a1)
	crc ^= (crc & 0xff) << 5;
   10578:	9241                	srli	a2,a2,0x30
		} while (--n > 0);
   1057a:	01028463          	beq	t0,a6,10582 <main+0x334>
			*p++ = x;
   1057e:	8596                	mv	a1,t0
   10580:	b76d                	j	1052a <main+0x2dc>
	REG32(spi, SPI_REG_TXFIFO) = d;
   10582:	05efa423          	sw	t5,72(t6) # 64001048 <dtb+0x63ff0780>
		r = REG32(spi, SPI_REG_RXFIFO);
   10586:	46fc                	lw	a5,76(a3)
   10588:	0007871b          	sext.w	a4,a5
	} while (r < 0);
   1058c:	fe07cde3          	bltz	a5,10586 <main+0x338>
		crc_exp = ((uint16_t)sd_dummy() << 8);
   10590:	0ff77713          	zext.b	a4,a4
   10594:	0087171b          	slliw	a4,a4,0x8
   10598:	1742                	slli	a4,a4,0x30
   1059a:	9341                	srli	a4,a4,0x30
	REG32(spi, SPI_REG_TXFIFO) = d;
   1059c:	05e6a423          	sw	t5,72(a3)
		r = REG32(spi, SPI_REG_RXFIFO);
   105a0:	46fc                	lw	a5,76(a3)
   105a2:	0007859b          	sext.w	a1,a5
	} while (r < 0);
   105a6:	fe07cde3          	bltz	a5,105a0 <main+0x352>
		crc_exp |= sd_dummy();
   105aa:	0ff5f793          	zext.b	a5,a1
		if (crc != crc_exp) {
   105ae:	8fd9                	or	a5,a5,a4
   105b0:	04c79f63          	bne	a5,a2,1060e <main+0x3c0>
	} while (--i > 0);
   105b4:	f5d299e3          	bne	t0,t4,10506 <main+0x2b8>
	REG32(spi, SPI_REG_TXFIFO) = d;
   105b8:	640017b7          	lui	a5,0x64001
   105bc:	0ff00713          	li	a4,255
   105c0:	c7b8                	sw	a4,72(a5)
		r = REG32(spi, SPI_REG_RXFIFO);
   105c2:	640014b7          	lui	s1,0x64001
   105c6:	44fc                	lw	a5,76(s1)
	} while (r < 0);
   105c8:	fe07cfe3          	bltz	a5,105c6 <main+0x378>
	REG32(spi, SPI_REG_CSMODE) = SPI_CSMODE_AUTO;
   105cc:	0004ac23          	sw	zero,24(s1) # 64001018 <dtb+0x63ff0750>
	sd_cmd(0x4C, 0, 0x01);
   105d0:	4605                	li	a2,1
   105d2:	4581                	li	a1,0
   105d4:	04c00513          	li	a0,76
   105d8:	bb5ff0ef          	jal	ra,1018c <sd_cmd>
	REG32(spi, SPI_REG_TXFIFO) = d;
   105dc:	0ff00793          	li	a5,255
   105e0:	c4bc                	sw	a5,72(s1)
		r = REG32(spi, SPI_REG_RXFIFO);
   105e2:	640017b7          	lui	a5,0x64001
   105e6:	47f8                	lw	a4,76(a5)
	} while (r < 0);
   105e8:	fe074fe3          	bltz	a4,105e6 <main+0x398>
	REG32(spi, SPI_REG_CSMODE) = SPI_CSMODE_AUTO;
   105ec:	0007ac23          	sw	zero,24(a5) # 64001018 <dtb+0x63ff0750>
	kputs("\b ");
   105f0:	00000517          	auipc	a0,0x0
   105f4:	26850513          	addi	a0,a0,616 # 10858 <kprintf+0x1e6>
   105f8:	03c000ef          	jal	ra,10634 <kputs>
	 		sd_cmd16() ||
   105fc:	da0410e3          	bnez	s0,1039c <main+0x14e>
	 	kputs("FINISH");
   10600:	00000517          	auipc	a0,0x0
   10604:	26850513          	addi	a0,a0,616 # 10868 <kprintf+0x1f6>
   10608:	02c000ef          	jal	ra,10634 <kputs>
   1060c:	b9b9                	j	1026a <main+0x1c>
			kputs("\b- CRC mismatch ");
   1060e:	00000517          	auipc	a0,0x0
   10612:	23250513          	addi	a0,a0,562 # 10840 <kprintf+0x1ce>
   10616:	01e000ef          	jal	ra,10634 <kputs>
			rc = 1;
   1061a:	4405                	li	s0,1
			break;
   1061c:	bf71                	j	105b8 <main+0x36a>
	REG32(spi, SPI_REG_TXFIFO) = d;
   1061e:	0ff00793          	li	a5,255
   10622:	c4bc                	sw	a5,72(s1)
		r = REG32(spi, SPI_REG_RXFIFO);
   10624:	640017b7          	lui	a5,0x64001
   10628:	47f8                	lw	a4,76(a5)
	} while (r < 0);
   1062a:	fe074fe3          	bltz	a4,10628 <main+0x3da>
	REG32(spi, SPI_REG_CSMODE) = SPI_CSMODE_AUTO;
   1062e:	0007ac23          	sw	zero,24(a5) # 64001018 <dtb+0x63ff0750>
		return 1;
   10632:	b3ad                	j	1039c <main+0x14e>

0000000000010634 <kputs>:
#include "kprintf.h"

static inline void _kputs(const char *s)
{
	char c;
	for (; (c = *s) != '\0'; s++)
   10634:	00054683          	lbu	a3,0(a0)
   10638:	ce81                	beqz	a3,10650 <kputs+0x1c>
{
	volatile uint32_t *tx = &REG32(uart, UART_REG_TXFIFO);
#ifdef __riscv_atomic
	int32_t r;
	do {
		__asm__ __volatile__ (
   1063a:	64000737          	lui	a4,0x64000
   1063e:	40d727af          	amoor.w	a5,a3,(a4)
   10642:	2781                	sext.w	a5,a5
			"amoor.w %0, %2, %1\n"
			: "=r" (r), "+A" (*tx)
			: "r" (c));
	} while (r < 0);
   10644:	fe07cde3          	bltz	a5,1063e <kputs+0xa>
   10648:	00154683          	lbu	a3,1(a0)
   1064c:	0505                	addi	a0,a0,1
   1064e:	fae5                	bnez	a3,1063e <kputs+0xa>
		__asm__ __volatile__ (
   10650:	64000737          	lui	a4,0x64000
   10654:	46b5                	li	a3,13
   10656:	40d727af          	amoor.w	a5,a3,(a4)
   1065a:	2781                	sext.w	a5,a5
	} while (r < 0);
   1065c:	fe07cde3          	bltz	a5,10656 <kputs+0x22>
		__asm__ __volatile__ (
   10660:	64000737          	lui	a4,0x64000
   10664:	46a9                	li	a3,10
   10666:	40d727af          	amoor.w	a5,a3,(a4)
   1066a:	2781                	sext.w	a5,a5
	} while (r < 0);
   1066c:	fe07cde3          	bltz	a5,10666 <kputs+0x32>
void kputs(const char *s)
{
	_kputs(s);
	kputc('\r');
	kputc('\n');
}
   10670:	8082                	ret

0000000000010672 <kprintf>:

void kprintf(const char *fmt, ...)
{
   10672:	715d                	addi	sp,sp,-80

	va_start(vl, fmt);
	is_format = false;
	is_long = false;
	is_char = false;
	while ((c = *fmt++) != '\0') {
   10674:	00054303          	lbu	t1,0(a0)
{
   10678:	fc3e                	sd	a5,56(sp)
	va_start(vl, fmt);
   1067a:	083c                	addi	a5,sp,24
{
   1067c:	ec2e                	sd	a1,24(sp)
   1067e:	f032                	sd	a2,32(sp)
   10680:	f436                	sd	a3,40(sp)
   10682:	f83a                	sd	a4,48(sp)
   10684:	e0c2                	sd	a6,64(sp)
   10686:	e4c6                	sd	a7,72(sp)
	va_start(vl, fmt);
   10688:	e43e                	sd	a5,8(sp)
	while ((c = *fmt++) != '\0') {
   1068a:	06030163          	beqz	t1,106ec <kprintf+0x7a>
   1068e:	00150593          	addi	a1,a0,1
   10692:	4e81                	li	t4,0
   10694:	4681                	li	a3,0
   10696:	4701                	li	a4,0
				break;
			}
			is_format = false;
			is_long = false;
			is_char = false;
		} else if (c == '%') {
   10698:	02500e13          	li	t3,37
		__asm__ __volatile__ (
   1069c:	64000637          	lui	a2,0x64000
			switch (c) {
   106a0:	48d5                	li	a7,21
   106a2:	00000817          	auipc	a6,0x0
   106a6:	1ce80813          	addi	a6,a6,462 # 10870 <kprintf+0x1fe>
		if (is_format) {
   106aa:	c755                	beqz	a4,10756 <kprintf+0xe4>
			switch (c) {
   106ac:	f9d3031b          	addiw	t1,t1,-99
   106b0:	0ff37313          	zext.b	t1,t1
   106b4:	0268e463          	bltu	a7,t1,106dc <kprintf+0x6a>
   106b8:	030a                	slli	t1,t1,0x2
   106ba:	9342                	add	t1,t1,a6
   106bc:	00032783          	lw	a5,0(t1)
   106c0:	97c2                	add	a5,a5,a6
   106c2:	8782                	jr	a5
				kputc(va_arg(vl, int));
   106c4:	67a2                	ld	a5,8(sp)
   106c6:	64000737          	lui	a4,0x64000
   106ca:	0007c683          	lbu	a3,0(a5)
   106ce:	07a1                	addi	a5,a5,8
   106d0:	e43e                	sd	a5,8(sp)
   106d2:	40d727af          	amoor.w	a5,a3,(a4)
   106d6:	2781                	sext.w	a5,a5
	} while (r < 0);
   106d8:	fe07cde3          	bltz	a5,106d2 <kprintf+0x60>
			is_char = false;
   106dc:	4e81                	li	t4,0
			is_long = false;
   106de:	4681                	li	a3,0
			is_format = false;
   106e0:	4701                	li	a4,0
	while ((c = *fmt++) != '\0') {
   106e2:	0005c303          	lbu	t1,0(a1)
   106e6:	0585                	addi	a1,a1,1
   106e8:	fc0311e3          	bnez	t1,106aa <kprintf+0x38>
		} else {
			kputc(c);
		}
	}
	va_end(vl);
   106ec:	6161                	addi	sp,sp,80
   106ee:	8082                	ret
					n = va_arg(vl, unsigned long);
   106f0:	67a2                	ld	a5,8(sp)
   106f2:	00878713          	addi	a4,a5,8
				if (is_long) {
   106f6:	cebd                	beqz	a3,10774 <kprintf+0x102>
					n = va_arg(vl, unsigned long);
   106f8:	0007bf83          	ld	t6,0(a5)
   106fc:	e43a                	sd	a4,8(sp)
					i = (sizeof(unsigned long) << 3) - 4;
   106fe:	03c00513          	li	a0,60
					kputc(d < 10 ? '0' + d : 'a' + d - 10);
   10702:	4f25                	li	t5,9
		__asm__ __volatile__ (
   10704:	64000737          	lui	a4,0x64000
				for (; i >= 0; i -= 4) {
   10708:	5ef1                	li	t4,-4
					d = (n >> i) & 0xF;
   1070a:	00afd7b3          	srl	a5,t6,a0
					kputc(d < 10 ? '0' + d : 'a' + d - 10);
   1070e:	00f7f313          	andi	t1,a5,15
   10712:	05730693          	addi	a3,t1,87
   10716:	006f6463          	bltu	t5,t1,1071e <kprintf+0xac>
   1071a:	03030693          	addi	a3,t1,48
   1071e:	40d727af          	amoor.w	a5,a3,(a4)
   10722:	2781                	sext.w	a5,a5
	} while (r < 0);
   10724:	fe07cde3          	bltz	a5,1071e <kprintf+0xac>
				for (; i >= 0; i -= 4) {
   10728:	1571                	addi	a0,a0,-4
   1072a:	ffd510e3          	bne	a0,t4,1070a <kprintf+0x98>
   1072e:	b77d                	j	106dc <kprintf+0x6a>
				_kputs(va_arg(vl, const char *));
   10730:	67a2                	ld	a5,8(sp)
   10732:	6388                	ld	a0,0(a5)
   10734:	07a1                	addi	a5,a5,8
   10736:	e43e                	sd	a5,8(sp)
	for (; (c = *s) != '\0'; s++)
   10738:	00054683          	lbu	a3,0(a0)
   1073c:	d2c5                	beqz	a3,106dc <kprintf+0x6a>
		__asm__ __volatile__ (
   1073e:	64000737          	lui	a4,0x64000
   10742:	40d727af          	amoor.w	a5,a3,(a4)
   10746:	2781                	sext.w	a5,a5
	} while (r < 0);
   10748:	fe07cde3          	bltz	a5,10742 <kprintf+0xd0>
   1074c:	00154683          	lbu	a3,1(a0)
   10750:	0505                	addi	a0,a0,1
   10752:	fae5                	bnez	a3,10742 <kprintf+0xd0>
   10754:	b761                	j	106dc <kprintf+0x6a>
		} else if (c == '%') {
   10756:	01c31463          	bne	t1,t3,1075e <kprintf+0xec>
			is_format = true;
   1075a:	4705                	li	a4,1
   1075c:	b759                	j	106e2 <kprintf+0x70>
		__asm__ __volatile__ (
   1075e:	406627af          	amoor.w	a5,t1,(a2)
   10762:	2781                	sext.w	a5,a5
	} while (r < 0);
   10764:	f607dfe3          	bgez	a5,106e2 <kprintf+0x70>
		__asm__ __volatile__ (
   10768:	406627af          	amoor.w	a5,t1,(a2)
   1076c:	2781                	sext.w	a5,a5
	} while (r < 0);
   1076e:	fe07c8e3          	bltz	a5,1075e <kprintf+0xec>
   10772:	bf85                	j	106e2 <kprintf+0x70>
					n = va_arg(vl, unsigned int);
   10774:	e43a                	sd	a4,8(sp)
   10776:	0007ef83          	lwu	t6,0(a5)
					i = is_char ? 4 : (sizeof(unsigned int) << 3) - 4;
   1077a:	4571                	li	a0,28
   1077c:	f80e83e3          	beqz	t4,10702 <kprintf+0x90>
   10780:	4511                	li	a0,4
   10782:	b741                	j	10702 <kprintf+0x90>
			switch (c) {
   10784:	8eba                	mv	t4,a4
   10786:	bfb1                	j	106e2 <kprintf+0x70>
				is_long = true;
   10788:	86ba                	mv	a3,a4
   1078a:	bfa1                	j	106e2 <kprintf+0x70>
	...

Disassembly of section .rodata:

00000000000107d0 <dtb-0xf8>:
   107d0:	635f6473          	csrrsi	s0,0x635,30
   107d4:	646d                	lui	s0,0x1b
   107d6:	203a                	fld	ft0,392(sp)
   107d8:	6974                	ld	a3,208(a0)
   107da:	656d                	lui	a0,0x1b
   107dc:	0074756f          	jal	a0,57fe2 <dtb+0x4771a>
   107e0:	65726f43          	.4byte	0x65726f43
   107e4:	3020                	fld	fs0,96(s0)
   107e6:	203a                	fld	ft0,392(sp)
   107e8:	455a                	lw	a0,148(sp)
   107ea:	4f52                	lw	t5,20(sp)
   107ec:	5320                	lw	s0,96(a4)
   107ee:	4154                	lw	a3,4(a0)
   107f0:	42204547          	fmsub.d	fa0,ft0,ft2,fs0,rmm
   107f4:	2e544f4f          	.4byte	0x2e544f4f
   107f8:	002e                	c.slli	zero,0xb
   107fa:	0000                	unimp
   107fc:	0000                	unimp
   107fe:	0000                	unimp
   10800:	30444d43          	fmadd.s	fs10,fs0,ft4,ft6,rmm
   10804:	0000                	unimp
   10806:	0000                	unimp
   10808:	38444d43          	fmadd.s	fs10,fs0,ft4,ft7,rmm
   1080c:	0000                	unimp
   1080e:	0000                	unimp
   10810:	4341                	li	t1,16
   10812:	444d                	li	s0,19
   10814:	3134                	fld	fa3,96(a0)
   10816:	0000                	unimp
   10818:	35444d43          	.4byte	0x35444d43
   1081c:	0038                	addi	a4,sp,8
   1081e:	0000                	unimp
   10820:	31444d43          	fmadd.s	fs10,fs0,fs4,ft6,rmm
   10824:	0036                	c.slli	zero,0xd
   10826:	0000                	unimp
   10828:	31444d43          	fmadd.s	fs10,fs0,fs4,ft6,rmm
   1082c:	0038                	addi	a4,sp,8
   1082e:	0000                	unimp
   10830:	4f4c                	lw	a1,28(a4)
   10832:	4441                	li	s0,16
   10834:	4e49                	li	t3,18
   10836:	00202047          	fmsub.s	ft0,ft0,ft2,ft0,rdn
   1083a:	0000                	unimp
   1083c:	0000                	unimp
   1083e:	0000                	unimp
   10840:	2d08                	fld	fa0,24(a0)
   10842:	4320                	lw	s0,64(a4)
   10844:	4352                	lw	t1,20(sp)
   10846:	6d20                	ld	s0,88(a0)
   10848:	7369                	lui	t1,0xffffa
   1084a:	616d                	addi	sp,sp,240
   1084c:	6374                	ld	a3,192(a4)
   1084e:	2068                	fld	fa0,192(s0)
	...
   10858:	2008                	fld	fa0,0(s0)
   1085a:	0000                	unimp
   1085c:	0000                	unimp
   1085e:	0000                	unimp
   10860:	5245                	li	tp,-15
   10862:	4f52                	lw	t5,20(sp)
   10864:	0052                	c.slli	zero,0x14
   10866:	0000                	unimp
   10868:	4946                	lw	s2,80(sp)
   1086a:	494e                	lw	s2,208(sp)
   1086c:	00004853          	fadd.s	fa6,ft0,ft0,rmm
   10870:	fe54                	sd	a3,184(a2)
   10872:	ffff                	.2byte	0xffff
   10874:	fe6c                	sd	a1,248(a2)
   10876:	ffff                	.2byte	0xffff
   10878:	fe6c                	sd	a1,248(a2)
   1087a:	ffff                	.2byte	0xffff
   1087c:	fe6c                	sd	a1,248(a2)
   1087e:	ffff                	.2byte	0xffff
   10880:	fe6c                	sd	a1,248(a2)
   10882:	ffff                	.2byte	0xffff
   10884:	ff14                	sd	a3,56(a4)
   10886:	ffff                	.2byte	0xffff
   10888:	fe6c                	sd	a1,248(a2)
   1088a:	ffff                	.2byte	0xffff
   1088c:	fe6c                	sd	a1,248(a2)
   1088e:	ffff                	.2byte	0xffff
   10890:	fe6c                	sd	a1,248(a2)
   10892:	ffff                	.2byte	0xffff
   10894:	ff18                	sd	a4,56(a4)
   10896:	ffff                	.2byte	0xffff
   10898:	fe6c                	sd	a1,248(a2)
   1089a:	ffff                	.2byte	0xffff
   1089c:	fe6c                	sd	a1,248(a2)
   1089e:	ffff                	.2byte	0xffff
   108a0:	fe6c                	sd	a1,248(a2)
   108a2:	ffff                	.2byte	0xffff
   108a4:	fe6c                	sd	a1,248(a2)
   108a6:	ffff                	.2byte	0xffff
   108a8:	fe6c                	sd	a1,248(a2)
   108aa:	ffff                	.2byte	0xffff
   108ac:	fe6c                	sd	a1,248(a2)
   108ae:	ffff                	.2byte	0xffff
   108b0:	fec0                	sd	s0,184(a3)
   108b2:	ffff                	.2byte	0xffff
   108b4:	fe6c                	sd	a1,248(a2)
   108b6:	ffff                	.2byte	0xffff
   108b8:	fe6c                	sd	a1,248(a2)
   108ba:	ffff                	.2byte	0xffff
   108bc:	fe6c                	sd	a1,248(a2)
   108be:	ffff                	.2byte	0xffff
   108c0:	fe6c                	sd	a1,248(a2)
   108c2:	ffff                	.2byte	0xffff
   108c4:	fe80                	sd	s0,56(a3)
   108c6:	ffff                	.2byte	0xffff

Disassembly of section .riscv.attributes:

0000000000000000 <.riscv.attributes>:
   0:	3841                	addiw	a6,a6,-16
   2:	0000                	unimp
   4:	7200                	ld	s0,32(a2)
   6:	7369                	lui	t1,0xffffa
   8:	01007663          	bgeu	zero,a6,14 <_prog_start-0xffec>
   c:	002e                	c.slli	zero,0xb
   e:	0000                	unimp
  10:	1004                	addi	s1,sp,32
  12:	7205                	lui	tp,0xfffe1
  14:	3676                	fld	fa2,376(sp)
  16:	6934                	ld	a3,80(a0)
  18:	7032                	.2byte	0x7032
  1a:	5f30                	lw	a2,120(a4)
  1c:	326d                	addiw	tp,tp,-5 # fffffffffffe0ffb <_sp+0xffffffff7fee0ffb>
  1e:	3070                	fld	fa2,224(s0)
  20:	615f 7032 5f30      	.byte	0x5f, 0x61, 0x32, 0x70, 0x30, 0x5f
  26:	3266                	fld	ft4,120(sp)
  28:	3070                	fld	fa2,224(s0)
  2a:	645f 7032 5f30      	.byte	0x5f, 0x64, 0x32, 0x70, 0x30, 0x5f
  30:	30703263          	.4byte	0x30703263
  34:	0800                	addi	s0,sp,16
  36:	0a01                	addi	s4,s4,0
  38:	0b              	Address 0x0000000000000038 is out of bounds.


Disassembly of section .comment:

0000000000000000 <.comment>:
   0:	3a434347          	fmsub.d	ft6,ft6,ft4,ft7,rmm
   4:	2820                	fld	fs0,80(s0)
   6:	65653267          	.4byte	0x65653267
   a:	6535                	lui	a0,0xd
   c:	3334                	fld	fa3,96(a4)
   e:	3030                	fld	fa2,96(s0)
  10:	3831                	addiw	a6,a6,-20
  12:	2029                	.2byte	0x2029
  14:	3231                	addiw	tp,tp,-20 # ffffffffffffffec <_sp+0xffffffff7fefffec>
  16:	322e                	fld	ft4,232(sp)
  18:	302e                	fld	ft0,232(sp)
	...

Disassembly of section .debug_line:

0000000000000000 <.debug_line>:
       0:	0224                	addi	s1,sp,264
       2:	0000                	unimp
       4:	0005                	c.nop	1
       6:	0008                	.2byte	0x8
       8:	002a                	c.slli	zero,0xa
       a:	0000                	unimp
       c:	0101                	addi	sp,sp,0
       e:	fb01                	bnez	a4,ffffffffffffff1e <_sp+0xffffffff7fefff1e>
      10:	0d0e                	slli	s10,s10,0x3
      12:	0100                	addi	s0,sp,128
      14:	0101                	addi	sp,sp,0
      16:	0001                	nop
      18:	0000                	unimp
      1a:	0001                	nop
      1c:	0100                	addi	s0,sp,128
      1e:	0101                	addi	sp,sp,0
      20:	011f 0000 0000      	.byte	0x1f, 0x01, 0x00, 0x00, 0x00, 0x00
      26:	0102                	c.slli64	sp
      28:	021f 020f 005e      	.byte	0x1f, 0x02, 0x0f, 0x02, 0x5e, 0x00
      2e:	0000                	unimp
      30:	5e00                	lw	s0,56(a2)
      32:	0000                	unimp
      34:	0000                	unimp
      36:	0900                	addi	s0,sp,144
      38:	0002                	c.slli64	zero
      3a:	0100                	addi	s0,sp,128
      3c:	0000                	unimp
      3e:	0000                	unimp
      40:	1900                	addi	s0,sp,176
      42:	04090103          	lb	sp,64(s2)
      46:	0100                	addi	s0,sp,128
      48:	04090203          	lb	tp,64(s2)
      4c:	0100                	addi	s0,sp,128
      4e:	04090103          	lb	sp,64(s2)
      52:	0100                	addi	s0,sp,128
      54:	04090103          	lb	sp,64(s2)
      58:	0100                	addi	s0,sp,128
      5a:	04090103          	lb	sp,64(s2)
      5e:	0100                	addi	s0,sp,128
      60:	04090203          	lb	tp,64(s2)
      64:	0100                	addi	s0,sp,128
      66:	04090103          	lb	sp,64(s2)
      6a:	0100                	addi	s0,sp,128
      6c:	04090203          	lb	tp,64(s2)
      70:	0100                	addi	s0,sp,128
      72:	04090103          	lb	sp,64(s2)
      76:	0100                	addi	s0,sp,128
      78:	04090203          	lb	tp,64(s2)
      7c:	0100                	addi	s0,sp,128
      7e:	08090103          	lb	sp,128(s2)
      82:	0100                	addi	s0,sp,128
      84:	04090103          	lb	sp,64(s2)
      88:	0100                	addi	s0,sp,128
      8a:	04090103          	lb	sp,64(s2)
      8e:	0100                	addi	s0,sp,128
      90:	04090203          	lb	tp,64(s2)
      94:	0100                	addi	s0,sp,128
      96:	04090103          	lb	sp,64(s2)
      9a:	0100                	addi	s0,sp,128
      9c:	04090203          	lb	tp,64(s2)
      a0:	0100                	addi	s0,sp,128
      a2:	08090103          	lb	sp,128(s2)
      a6:	0100                	addi	s0,sp,128
      a8:	04090103          	lb	sp,64(s2)
      ac:	0100                	addi	s0,sp,128
      ae:	04090103          	lb	sp,64(s2)
      b2:	0100                	addi	s0,sp,128
      b4:	04090203          	lb	tp,64(s2)
      b8:	0100                	addi	s0,sp,128
      ba:	04090103          	lb	sp,64(s2)
      be:	0100                	addi	s0,sp,128
      c0:	04090103          	lb	sp,64(s2)
      c4:	0100                	addi	s0,sp,128
      c6:	08090103          	lb	sp,128(s2)
      ca:	0100                	addi	s0,sp,128
      cc:	04090103          	lb	sp,64(s2)
      d0:	0100                	addi	s0,sp,128
      d2:	04090103          	lb	sp,64(s2)
      d6:	0100                	addi	s0,sp,128
      d8:	04090203          	lb	tp,64(s2)
      dc:	0100                	addi	s0,sp,128
      de:	04090103          	lb	sp,64(s2)
      e2:	0100                	addi	s0,sp,128
      e4:	04090103          	lb	sp,64(s2)
      e8:	0100                	addi	s0,sp,128
      ea:	08090103          	lb	sp,128(s2)
      ee:	0100                	addi	s0,sp,128
      f0:	04090103          	lb	sp,64(s2)
      f4:	0100                	addi	s0,sp,128
      f6:	04090103          	lb	sp,64(s2)
      fa:	0100                	addi	s0,sp,128
      fc:	04090203          	lb	tp,64(s2)
     100:	0100                	addi	s0,sp,128
     102:	04090103          	lb	sp,64(s2)
     106:	0100                	addi	s0,sp,128
     108:	04090103          	lb	sp,64(s2)
     10c:	0100                	addi	s0,sp,128
     10e:	08090103          	lb	sp,128(s2)
     112:	0100                	addi	s0,sp,128
     114:	04090103          	lb	sp,64(s2)
     118:	0100                	addi	s0,sp,128
     11a:	04090103          	lb	sp,64(s2)
     11e:	0100                	addi	s0,sp,128
     120:	04090203          	lb	tp,64(s2)
     124:	0100                	addi	s0,sp,128
     126:	04090103          	lb	sp,64(s2)
     12a:	0100                	addi	s0,sp,128
     12c:	04090103          	lb	sp,64(s2)
     130:	0100                	addi	s0,sp,128
     132:	08090103          	lb	sp,128(s2)
     136:	0100                	addi	s0,sp,128
     138:	04090103          	lb	sp,64(s2)
     13c:	0100                	addi	s0,sp,128
     13e:	04090103          	lb	sp,64(s2)
     142:	0100                	addi	s0,sp,128
     144:	04090203          	lb	tp,64(s2)
     148:	0100                	addi	s0,sp,128
     14a:	08090103          	lb	sp,128(s2)
     14e:	0100                	addi	s0,sp,128
     150:	04090103          	lb	sp,64(s2)
     154:	0100                	addi	s0,sp,128
     156:	04090103          	lb	sp,64(s2)
     15a:	0100                	addi	s0,sp,128
     15c:	04090203          	lb	tp,64(s2)
     160:	0100                	addi	s0,sp,128
     162:	0c090103          	lb	sp,192(s2)
     166:	0100                	addi	s0,sp,128
     168:	04090103          	lb	sp,64(s2)
     16c:	0100                	addi	s0,sp,128
     16e:	04090103          	lb	sp,64(s2)
     172:	0100                	addi	s0,sp,128
     174:	04090203          	lb	tp,64(s2)
     178:	0100                	addi	s0,sp,128
     17a:	08090103          	lb	sp,128(s2)
     17e:	0100                	addi	s0,sp,128
     180:	04090103          	lb	sp,64(s2)
     184:	0100                	addi	s0,sp,128
     186:	04090103          	lb	sp,64(s2)
     18a:	0100                	addi	s0,sp,128
     18c:	08090103          	lb	sp,128(s2)
     190:	0100                	addi	s0,sp,128
     192:	04090103          	lb	sp,64(s2)
     196:	0100                	addi	s0,sp,128
     198:	04090103          	lb	sp,64(s2)
     19c:	0100                	addi	s0,sp,128
     19e:	08090103          	lb	sp,128(s2)
     1a2:	0100                	addi	s0,sp,128
     1a4:	04090103          	lb	sp,64(s2)
     1a8:	0100                	addi	s0,sp,128
     1aa:	04090103          	lb	sp,64(s2)
     1ae:	0100                	addi	s0,sp,128
     1b0:	08090103          	lb	sp,128(s2)
     1b4:	0100                	addi	s0,sp,128
     1b6:	04090103          	lb	sp,64(s2)
     1ba:	0100                	addi	s0,sp,128
     1bc:	04090103          	lb	sp,64(s2)
     1c0:	0100                	addi	s0,sp,128
     1c2:	08090103          	lb	sp,128(s2)
     1c6:	0100                	addi	s0,sp,128
     1c8:	04090103          	lb	sp,64(s2)
     1cc:	0100                	addi	s0,sp,128
     1ce:	04090103          	lb	sp,64(s2)
     1d2:	0100                	addi	s0,sp,128
     1d4:	08090103          	lb	sp,128(s2)
     1d8:	0100                	addi	s0,sp,128
     1da:	04090103          	lb	sp,64(s2)
     1de:	0100                	addi	s0,sp,128
     1e0:	04090103          	lb	sp,64(s2)
     1e4:	0100                	addi	s0,sp,128
     1e6:	08090103          	lb	sp,128(s2)
     1ea:	0100                	addi	s0,sp,128
     1ec:	04090103          	lb	sp,64(s2)
     1f0:	0100                	addi	s0,sp,128
     1f2:	04090203          	lb	tp,64(s2)
     1f6:	0100                	addi	s0,sp,128
     1f8:	04090103          	lb	sp,64(s2)
     1fc:	0100                	addi	s0,sp,128
     1fe:	04090103          	lb	sp,64(s2)
     202:	0100                	addi	s0,sp,128
     204:	04090103          	lb	sp,64(s2)
     208:	0100                	addi	s0,sp,128
     20a:	08090103          	lb	sp,128(s2)
     20e:	0100                	addi	s0,sp,128
     210:	08090103          	lb	sp,128(s2)
     214:	0100                	addi	s0,sp,128
     216:	04090103          	lb	sp,64(s2)
     21a:	0100                	addi	s0,sp,128
     21c:	04090203          	lb	tp,64(s2)
     220:	0100                	addi	s0,sp,128
     222:	0409                	addi	s0,s0,2 # 1b002 <dtb+0xa73a>
     224:	0000                	unimp
     226:	0101                	addi	sp,sp,0
     228:	0ffd                	addi	t6,t6,31
     22a:	0000                	unimp
     22c:	0005                	c.nop	1
     22e:	0008                	.2byte	0x8
     230:	0041                	c.nop	16
     232:	0000                	unimp
     234:	0101                	addi	sp,sp,0
     236:	fb01                	bnez	a4,146 <_prog_start-0xfeba>
     238:	0d0e                	slli	s10,s10,0x3
     23a:	0100                	addi	s0,sp,128
     23c:	0101                	addi	sp,sp,0
     23e:	0001                	nop
     240:	0000                	unimp
     242:	0001                	nop
     244:	0100                	addi	s0,sp,128
     246:	0101                	addi	sp,sp,0
     248:	031f 0000 0000      	.byte	0x1f, 0x03, 0x00, 0x00, 0x00, 0x00
     24e:	006a                	c.slli	zero,0x1a
     250:	0000                	unimp
     252:	000000d7          	.4byte	0xd7
     256:	0102                	c.slli64	sp
     258:	021f 050f 0065      	.byte	0x1f, 0x02, 0x0f, 0x05, 0x65, 0x00
     25e:	0000                	unimp
     260:	6500                	ld	s0,8(a0)
     262:	0000                	unimp
     264:	0000                	unimp
     266:	0140                	addi	s0,sp,132
     268:	0000                	unimp
     26a:	5101                	li	sp,-32
     26c:	0001                	nop
     26e:	0200                	addi	s0,sp,256
     270:	0000015b          	.4byte	0x15b
     274:	0500                	addi	s0,sp,640
     276:	0001                	nop
     278:	0209                	addi	tp,tp,2 # 2 <_prog_start-0xfffe>
     27a:	018c                	addi	a1,sp,192
     27c:	0001                	nop
     27e:	0000                	unimp
     280:	0000                	unimp
     282:	05013303          	ld	t1,80(sp)
     286:	0302                	c.slli64	t1
     288:	0901                	addi	s2,s2,0
     28a:	0000                	unimp
     28c:	0301                	addi	t1,t1,0 # ffffffffffffa000 <_sp+0xffffffff7fefa000>
     28e:	0901                	addi	s2,s2,0
     290:	0000                	unimp
     292:	0301                	addi	t1,t1,0
     294:	0902                	c.slli64	s2
     296:	0000                	unimp
     298:	0501                	addi	a0,a0,0 # d000 <_prog_start-0x3000>
     29a:	0601                	addi	a2,a2,0 # 64000000 <dtb+0x63fef738>
     29c:	00097c03          	.4byte	0x97c03
     2a0:	0100                	addi	s0,sp,128
     2a2:	1d05                	addi	s10,s10,-31
     2a4:	06090403          	lb	s0,96(s2)
     2a8:	0100                	addi	s0,sp,128
     2aa:	0205                	addi	tp,tp,1 # 1 <_prog_start-0xffff>
     2ac:	0306                	slli	t1,t1,0x1
     2ae:	0901                	addi	s2,s2,0
     2b0:	0008                	.2byte	0x8
     2b2:	0301                	addi	t1,t1,0
     2b4:	00000977          	.4byte	0x977
     2b8:	0301                	addi	t1,t1,0
     2ba:	0975                	addi	s2,s2,29
     2bc:	0000                	unimp
     2be:	0301                	addi	t1,t1,0
     2c0:	0902                	c.slli64	s2
     2c2:	0000                	unimp
     2c4:	0501                	addi	a0,a0,0
     2c6:	061d                	addi	a2,a2,7
     2c8:	00090003          	lb	zero,0(s2)
     2cc:	0100                	addi	s0,sp,128
     2ce:	0705                	addi	a4,a4,1 # 64000001 <dtb+0x63fef739>
     2d0:	06090203          	lb	tp,96(s2)
     2d4:	0100                	addi	s0,sp,128
     2d6:	0205                	addi	tp,tp,1 # 1 <_prog_start-0xffff>
     2d8:	0306                	slli	t1,t1,0x1
     2da:	097f                	.2byte	0x97f
     2dc:	0004                	.2byte	0x4
     2de:	0501                	addi	a0,a0,0
     2e0:	09010303          	lb	t1,144(sp)
     2e4:	0000                	unimp
     2e6:	0501                	addi	a0,a0,0
     2e8:	00030607          	.4byte	0x30607
     2ec:	0009                	c.nop	2
     2ee:	0100                	addi	s0,sp,128
     2f0:	0d05                	addi	s10,s10,1
     2f2:	0306                	slli	t1,t1,0x1
     2f4:	0901                	addi	s2,s2,0
     2f6:	0002                	c.slli64	zero
     2f8:	0501                	addi	a0,a0,0
     2fa:	0302                	c.slli64	t1
     2fc:	0901                	addi	s2,s2,0
     2fe:	0004                	.2byte	0x4
     300:	0301                	addi	t1,t1,0
     302:	0000090f          	.4byte	0x90f
     306:	0301                	addi	t1,t1,0
     308:	0000096b          	.4byte	0x96b
     30c:	0301                	addi	t1,t1,0
     30e:	0902                	c.slli64	s2
     310:	0000                	unimp
     312:	0501                	addi	a0,a0,0
     314:	061d                	addi	a2,a2,7
     316:	00090003          	lb	zero,0(s2)
     31a:	0100                	addi	s0,sp,128
     31c:	0705                	addi	a4,a4,1
     31e:	04090203          	lb	tp,64(s2)
     322:	0100                	addi	s0,sp,128
     324:	0205                	addi	tp,tp,1 # 1 <_prog_start-0xffff>
     326:	0306                	slli	t1,t1,0x1
     328:	097f                	.2byte	0x97f
     32a:	0004                	.2byte	0x4
     32c:	0501                	addi	a0,a0,0
     32e:	09010303          	lb	t1,144(sp)
     332:	0000                	unimp
     334:	0501                	addi	a0,a0,0
     336:	00030607          	.4byte	0x30607
     33a:	0009                	c.nop	2
     33c:	0100                	addi	s0,sp,128
     33e:	0d05                	addi	s10,s10,1
     340:	0306                	slli	t1,t1,0x1
     342:	0901                	addi	s2,s2,0
     344:	0002                	c.slli64	zero
     346:	0501                	addi	a0,a0,0
     348:	0302                	c.slli64	t1
     34a:	0901                	addi	s2,s2,0
     34c:	0004                	.2byte	0x4
     34e:	0301                	addi	t1,t1,0
     350:	0910                	addi	a2,sp,144
     352:	0000                	unimp
     354:	0501                	addi	a0,a0,0
     356:	0003060f          	.4byte	0x3060f
     35a:	0009                	c.nop	2
     35c:	0100                	addi	s0,sp,128
     35e:	0205                	addi	tp,tp,1 # 1 <_prog_start-0xffff>
     360:	0306                	slli	t1,t1,0x1
     362:	096a                	slli	s2,s2,0x1a
     364:	0004                	.2byte	0x4
     366:	0301                	addi	t1,t1,0
     368:	0902                	c.slli64	s2
     36a:	0000                	unimp
     36c:	0501                	addi	a0,a0,0
     36e:	061d                	addi	a2,a2,7
     370:	00090003          	lb	zero,0(s2)
     374:	0100                	addi	s0,sp,128
     376:	0705                	addi	a4,a4,1
     378:	02090203          	lb	tp,32(s2)
     37c:	0100                	addi	s0,sp,128
     37e:	0205                	addi	tp,tp,1 # 1 <_prog_start-0xffff>
     380:	0306                	slli	t1,t1,0x1
     382:	097f                	.2byte	0x97f
     384:	0004                	.2byte	0x4
     386:	0501                	addi	a0,a0,0
     388:	09010303          	lb	t1,144(sp)
     38c:	0000                	unimp
     38e:	0501                	addi	a0,a0,0
     390:	00030607          	.4byte	0x30607
     394:	0009                	c.nop	2
     396:	0100                	addi	s0,sp,128
     398:	0d05                	addi	s10,s10,1
     39a:	0306                	slli	t1,t1,0x1
     39c:	0901                	addi	s2,s2,0
     39e:	0002                	c.slli64	zero
     3a0:	0501                	addi	a0,a0,0
     3a2:	0302                	c.slli64	t1
     3a4:	0901                	addi	s2,s2,0
     3a6:	0004                	.2byte	0x4
     3a8:	0301                	addi	t1,t1,0
     3aa:	0911                	addi	s2,s2,4
     3ac:	0000                	unimp
     3ae:	0301                	addi	t1,t1,0
     3b0:	0969                	addi	s2,s2,26
     3b2:	0000                	unimp
     3b4:	0301                	addi	t1,t1,0
     3b6:	0902                	c.slli64	s2
     3b8:	0000                	unimp
     3ba:	0501                	addi	a0,a0,0
     3bc:	061d                	addi	a2,a2,7
     3be:	00090003          	lb	zero,0(s2)
     3c2:	0100                	addi	s0,sp,128
     3c4:	0705                	addi	a4,a4,1
     3c6:	04090203          	lb	tp,64(s2)
     3ca:	0100                	addi	s0,sp,128
     3cc:	0205                	addi	tp,tp,1 # 1 <_prog_start-0xffff>
     3ce:	0306                	slli	t1,t1,0x1
     3d0:	097f                	.2byte	0x97f
     3d2:	0004                	.2byte	0x4
     3d4:	0501                	addi	a0,a0,0
     3d6:	09010303          	lb	t1,144(sp)
     3da:	0000                	unimp
     3dc:	0501                	addi	a0,a0,0
     3de:	00030607          	.4byte	0x30607
     3e2:	0009                	c.nop	2
     3e4:	0100                	addi	s0,sp,128
     3e6:	0d05                	addi	s10,s10,1
     3e8:	0306                	slli	t1,t1,0x1
     3ea:	0901                	addi	s2,s2,0
     3ec:	0002                	c.slli64	zero
     3ee:	0501                	addi	a0,a0,0
     3f0:	0302                	c.slli64	t1
     3f2:	0901                	addi	s2,s2,0
     3f4:	0004                	.2byte	0x4
     3f6:	0301                	addi	t1,t1,0
     3f8:	0912                	slli	s2,s2,0x4
     3fa:	0000                	unimp
     3fc:	0301                	addi	t1,t1,0
     3fe:	0968                	addi	a0,sp,156
     400:	0000                	unimp
     402:	0301                	addi	t1,t1,0
     404:	0902                	c.slli64	s2
     406:	0000                	unimp
     408:	0501                	addi	a0,a0,0
     40a:	1603060f          	.4byte	0x1603060f
     40e:	0009                	c.nop	2
     410:	0100                	addi	s0,sp,128
     412:	1d05                	addi	s10,s10,-31
     414:	08096a03          	lwu	s4,128(s2)
     418:	0100                	addi	s0,sp,128
     41a:	0705                	addi	a4,a4,1
     41c:	02090203          	lb	tp,32(s2)
     420:	0100                	addi	s0,sp,128
     422:	0205                	addi	tp,tp,1 # 1 <_prog_start-0xffff>
     424:	0306                	slli	t1,t1,0x1
     426:	097f                	.2byte	0x97f
     428:	0004                	.2byte	0x4
     42a:	0501                	addi	a0,a0,0
     42c:	09010303          	lb	t1,144(sp)
     430:	0000                	unimp
     432:	0501                	addi	a0,a0,0
     434:	00030607          	.4byte	0x30607
     438:	0009                	c.nop	2
     43a:	0100                	addi	s0,sp,128
     43c:	0d05                	addi	s10,s10,1
     43e:	0306                	slli	t1,t1,0x1
     440:	0901                	addi	s2,s2,0
     442:	0002                	c.slli64	zero
     444:	0501                	addi	a0,a0,0
     446:	0302                	c.slli64	t1
     448:	0901                	addi	s2,s2,0
     44a:	0004                	.2byte	0x4
     44c:	0301                	addi	t1,t1,0
     44e:	00000913          	li	s2,0
     452:	0301                	addi	t1,t1,0
     454:	00000967          	jalr	s2,zero # 0 <_prog_start-0x10000>
     458:	0301                	addi	t1,t1,0
     45a:	0902                	c.slli64	s2
     45c:	0000                	unimp
     45e:	0501                	addi	a0,a0,0
     460:	061d                	addi	a2,a2,7
     462:	04090003          	lb	zero,64(s2)
     466:	0100                	addi	s0,sp,128
     468:	0705                	addi	a4,a4,1
     46a:	02090203          	lb	tp,32(s2)
     46e:	0100                	addi	s0,sp,128
     470:	0205                	addi	tp,tp,1 # 1 <_prog_start-0xffff>
     472:	0306                	slli	t1,t1,0x1
     474:	097f                	.2byte	0x97f
     476:	0004                	.2byte	0x4
     478:	0501                	addi	a0,a0,0
     47a:	09010303          	lb	t1,144(sp)
     47e:	0000                	unimp
     480:	0501                	addi	a0,a0,0
     482:	00030607          	.4byte	0x30607
     486:	0009                	c.nop	2
     488:	0100                	addi	s0,sp,128
     48a:	0d05                	addi	s10,s10,1
     48c:	0306                	slli	t1,t1,0x1
     48e:	0901                	addi	s2,s2,0
     490:	0002                	c.slli64	zero
     492:	0501                	addi	a0,a0,0
     494:	0302                	c.slli64	t1
     496:	0901                	addi	s2,s2,0
     498:	0004                	.2byte	0x4
     49a:	0301                	addi	t1,t1,0
     49c:	0914                	addi	a3,sp,144
     49e:	0000                	unimp
     4a0:	0301                	addi	t1,t1,0
     4a2:	0966                	slli	s2,s2,0x19
     4a4:	0000                	unimp
     4a6:	0301                	addi	t1,t1,0
     4a8:	0902                	c.slli64	s2
     4aa:	0000                	unimp
     4ac:	0501                	addi	a0,a0,0
     4ae:	061d                	addi	a2,a2,7
     4b0:	00090003          	lb	zero,0(s2)
     4b4:	0100                	addi	s0,sp,128
     4b6:	0705                	addi	a4,a4,1
     4b8:	06090203          	lb	tp,96(s2)
     4bc:	0100                	addi	s0,sp,128
     4be:	0205                	addi	tp,tp,1 # 1 <_prog_start-0xffff>
     4c0:	0306                	slli	t1,t1,0x1
     4c2:	097f                	.2byte	0x97f
     4c4:	0004                	.2byte	0x4
     4c6:	0501                	addi	a0,a0,0
     4c8:	09010303          	lb	t1,144(sp)
     4cc:	0000                	unimp
     4ce:	0501                	addi	a0,a0,0
     4d0:	00030607          	.4byte	0x30607
     4d4:	0009                	c.nop	2
     4d6:	0100                	addi	s0,sp,128
     4d8:	0d05                	addi	s10,s10,1
     4da:	0306                	slli	t1,t1,0x1
     4dc:	0901                	addi	s2,s2,0
     4de:	0002                	c.slli64	zero
     4e0:	0501                	addi	a0,a0,0
     4e2:	061d                	addi	a2,a2,7
     4e4:	04097d03          	.4byte	0x4097d03
     4e8:	0100                	addi	s0,sp,128
     4ea:	0205                	addi	tp,tp,1 # 1 <_prog_start-0xffff>
     4ec:	0306                	slli	t1,t1,0x1
     4ee:	0010091b          	addiw	s2,zero,1
     4f2:	0501                	addi	a0,a0,0
     4f4:	09010303          	lb	t1,144(sp)
     4f8:	0000                	unimp
     4fa:	0501                	addi	a0,a0,0
     4fc:	0302                	c.slli64	t1
     4fe:	096d                	addi	s2,s2,27
     500:	0000                	unimp
     502:	0301                	addi	t1,t1,0
     504:	0975                	addi	s2,s2,29
     506:	0000                	unimp
     508:	0301                	addi	t1,t1,0
     50a:	0902                	c.slli64	s2
     50c:	0000                	unimp
     50e:	0501                	addi	a0,a0,0
     510:	061d                	addi	a2,a2,7
     512:	00090003          	lb	zero,0(s2)
     516:	0100                	addi	s0,sp,128
     518:	0205                	addi	tp,tp,1 # 1 <_prog_start-0xffff>
     51a:	0306                	slli	t1,t1,0x1
     51c:	0901                	addi	s2,s2,0
     51e:	0002                	c.slli64	zero
     520:	0501                	addi	a0,a0,0
     522:	09010303          	lb	t1,144(sp)
     526:	0000                	unimp
     528:	0501                	addi	a0,a0,0
     52a:	00030607          	.4byte	0x30607
     52e:	0009                	c.nop	2
     530:	0100                	addi	s0,sp,128
     532:	0d05                	addi	s10,s10,1
     534:	0306                	slli	t1,t1,0x1
     536:	0901                	addi	s2,s2,0
     538:	0006                	c.slli	zero,0x1
     53a:	0501                	addi	a0,a0,0
     53c:	0302                	c.slli64	t1
     53e:	0901                	addi	s2,s2,0
     540:	0004                	.2byte	0x4
     542:	0501                	addi	a0,a0,0
     544:	09190303          	lb	t1,145(s2)
     548:	0000                	unimp
     54a:	0501                	addi	a0,a0,0
     54c:	0606                	slli	a2,a2,0x1
     54e:	00090003          	lb	zero,0(s2)
     552:	0100                	addi	s0,sp,128
     554:	0f05                	addi	t5,t5,1
     556:	0306                	slli	t1,t1,0x1
     558:	0904                	addi	s1,sp,144
     55a:	000c                	.2byte	0xc
     55c:	0501                	addi	a0,a0,0
     55e:	0302                	c.slli64	t1
     560:	0901                	addi	s2,s2,0
     562:	0004                	.2byte	0x4
     564:	0301                	addi	t1,t1,0
     566:	0902                	c.slli64	s2
     568:	000c                	.2byte	0xc
     56a:	0501                	addi	a0,a0,0
     56c:	0601                	addi	a2,a2,0
     56e:	00090103          	lb	sp,0(s2)
     572:	0100                	addi	s0,sp,128
     574:	0c09                	addi	s8,s8,2
     576:	0000                	unimp
     578:	0101                	addi	sp,sp,0
     57a:	0105                	addi	sp,sp,1
     57c:	0900                	addi	s0,sp,144
     57e:	4e02                	lw	t3,0(sp)
     580:	0102                	c.slli64	sp
     582:	0000                	unimp
     584:	0000                	unimp
     586:	0300                	addi	s0,sp,384
     588:	01e9                	addi	gp,gp,26
     58a:	0501                	addi	a0,a0,0
     58c:	0302                	c.slli64	t1
     58e:	0901                	addi	s2,s2,0
     590:	0000                	unimp
     592:	0501                	addi	a0,a0,0
     594:	0601                	addi	a2,a2,0
     596:	00097f03          	.4byte	0x97f03
     59a:	0100                	addi	s0,sp,128
     59c:	1f05                	addi	t5,t5,-31
     59e:	0c090103          	lb	sp,192(s2)
     5a2:	0100                	addi	s0,sp,128
     5a4:	0205                	addi	tp,tp,1 # 1 <_prog_start-0xffff>
     5a6:	0306                	slli	t1,t1,0x1
     5a8:	0902                	c.slli64	s2
     5aa:	0008                	.2byte	0x8
     5ac:	0501                	addi	a0,a0,0
     5ae:	0310                	addi	a2,sp,384
     5b0:	0900                	addi	s0,sp,144
     5b2:	0000                	unimp
     5b4:	0301                	addi	t1,t1,0
     5b6:	0900                	addi	s0,sp,144
     5b8:	0000                	unimp
     5ba:	0301                	addi	t1,t1,0
     5bc:	0900                	addi	s0,sp,144
     5be:	0004                	.2byte	0x4
     5c0:	0501                	addi	a0,a0,0
     5c2:	0606                	slli	a2,a2,0x1
     5c4:	00090003          	lb	zero,0(s2)
     5c8:	0100                	addi	s0,sp,128
     5ca:	0205                	addi	tp,tp,1 # 1 <_prog_start-0xffff>
     5cc:	0306                	slli	t1,t1,0x1
     5ce:	0902                	c.slli64	s2
     5d0:	0002                	c.slli64	zero
     5d2:	0501                	addi	a0,a0,0
     5d4:	0605                	addi	a2,a2,1
     5d6:	00090003          	lb	zero,0(s2)
     5da:	0100                	addi	s0,sp,128
     5dc:	0205                	addi	tp,tp,1 # 1 <_prog_start-0xffff>
     5de:	0306                	slli	t1,t1,0x1
     5e0:	0910                	addi	a2,sp,144
     5e2:	0002                	c.slli64	zero
     5e4:	0301                	addi	t1,t1,0
     5e6:	0902                	c.slli64	s2
     5e8:	0004                	.2byte	0x4
     5ea:	0501                	addi	a0,a0,0
     5ec:	0609                	addi	a2,a2,2
     5ee:	00090003          	lb	zero,0(s2)
     5f2:	0100                	addi	s0,sp,128
     5f4:	0105                	addi	sp,sp,1
     5f6:	02090103          	lb	sp,32(s2)
     5fa:	0100                	addi	s0,sp,128
     5fc:	0305                	addi	t1,t1,1
     5fe:	0306                	slli	t1,t1,0x1
     600:	096e                	slli	s2,s2,0x1b
     602:	000e                	c.slli	zero,0x3
     604:	0301                	addi	t1,t1,0
     606:	0901                	addi	s2,s2,0
     608:	000c                	.2byte	0xc
     60a:	0501                	addi	a0,a0,0
     60c:	0304                	addi	s1,sp,384
     60e:	0901                	addi	s2,s2,0
     610:	000c                	.2byte	0xc
     612:	0501                	addi	a0,a0,0
     614:	0302                	c.slli64	t1
     616:	7ee5                	lui	t4,0xffff9
     618:	0009                	c.nop	2
     61a:	0100                	addi	s0,sp,128
     61c:	00090103          	lb	sp,0(s2)
     620:	0100                	addi	s0,sp,128
     622:	1d05                	addi	s10,s10,-31
     624:	0306                	slli	t1,t1,0x1
     626:	0900                	addi	s0,sp,144
     628:	0000                	unimp
     62a:	0501                	addi	a0,a0,0
     62c:	0602                	c.slli64	a2
     62e:	0c090103          	lb	sp,192(s2)
     632:	0100                	addi	s0,sp,128
     634:	1d05                	addi	s10,s10,-31
     636:	0306                	slli	t1,t1,0x1
     638:	094e                	slli	s2,s2,0x13
     63a:	0000                	unimp
     63c:	0301                	addi	t1,t1,0
     63e:	0932                	slli	s2,s2,0xc
     640:	0004                	.2byte	0x4
     642:	0501                	addi	a0,a0,0
     644:	0602                	c.slli64	a2
     646:	04090103          	lb	sp,64(s2)
     64a:	0100                	addi	s0,sp,128
     64c:	1105                	addi	sp,sp,-31
     64e:	00090003          	lb	zero,0(s2)
     652:	0100                	addi	s0,sp,128
     654:	1d05                	addi	s10,s10,-31
     656:	0306                	slli	t1,t1,0x1
     658:	094d                	addi	s2,s2,19
     65a:	0000                	unimp
     65c:	0301                	addi	t1,t1,0
     65e:	0932                	slli	s2,s2,0xc
     660:	0004                	.2byte	0x4
     662:	0301                	addi	t1,t1,0
     664:	094e                	slli	s2,s2,0x13
     666:	0002                	c.slli64	zero
     668:	0501                	addi	a0,a0,0
     66a:	34030603          	lb	a2,832(t1)
     66e:	0409                	addi	s0,s0,2
     670:	0100                	addi	s0,sp,128
     672:	0205                	addi	tp,tp,1 # 1 <_prog_start-0xffff>
     674:	00095503          	lhu	a0,0(s2)
     678:	0100                	addi	s0,sp,128
     67a:	00097503          	.4byte	0x97503
     67e:	0100                	addi	s0,sp,128
     680:	00090203          	lb	tp,0(s2)
     684:	0100                	addi	s0,sp,128
     686:	1d05                	addi	s10,s10,-31
     688:	0306                	slli	t1,t1,0x1
     68a:	0900                	addi	s0,sp,144
     68c:	0000                	unimp
     68e:	0501                	addi	a0,a0,0
     690:	0602                	c.slli64	a2
     692:	02090103          	lb	sp,32(s2)
     696:	0100                	addi	s0,sp,128
     698:	0305                	addi	t1,t1,1
     69a:	00090103          	lb	sp,0(s2)
     69e:	0100                	addi	s0,sp,128
     6a0:	0705                	addi	a4,a4,1
     6a2:	0306                	slli	t1,t1,0x1
     6a4:	0900                	addi	s0,sp,144
     6a6:	0000                	unimp
     6a8:	0501                	addi	a0,a0,0
     6aa:	060d                	addi	a2,a2,3
     6ac:	02090103          	lb	sp,32(s2)
     6b0:	0100                	addi	s0,sp,128
     6b2:	0205                	addi	tp,tp,1 # 1 <_prog_start-0xffff>
     6b4:	04090103          	lb	sp,64(s2)
     6b8:	0100                	addi	s0,sp,128
     6ba:	1705                	addi	a4,a4,-31
     6bc:	00092f03          	lw	t5,0(s2)
     6c0:	0100                	addi	s0,sp,128
     6c2:	1105                	addi	sp,sp,-31
     6c4:	00090003          	lb	zero,0(s2)
     6c8:	0100                	addi	s0,sp,128
     6ca:	0205                	addi	tp,tp,1 # 1 <_prog_start-0xffff>
     6cc:	04090303          	lb	t1,64(s2)
     6d0:	0100                	addi	s0,sp,128
     6d2:	0306                	slli	t1,t1,0x1
     6d4:	00000907          	.4byte	0x907
     6d8:	0501                	addi	a0,a0,0
     6da:	031d                	addi	t1,t1,7
     6dc:	0979                	addi	s2,s2,30
     6de:	0008                	.2byte	0x8
     6e0:	0501                	addi	a0,a0,0
     6e2:	0604                	addi	s1,sp,768
     6e4:	09019603          	lh	a2,144(gp)
     6e8:	0004                	.2byte	0x4
     6ea:	0501                	addi	a0,a0,0
     6ec:	0302                	c.slli64	t1
     6ee:	7ef0                	ld	a2,248(a3)
     6f0:	0009                	c.nop	2
     6f2:	0100                	addi	s0,sp,128
     6f4:	00090103          	lb	sp,0(s2)
     6f8:	0100                	addi	s0,sp,128
     6fa:	04090103          	lb	sp,64(s2)
     6fe:	0100                	addi	s0,sp,128
     700:	0805                	addi	a6,a6,1
     702:	0306                	slli	t1,t1,0x1
     704:	0900                	addi	s0,sp,144
     706:	0000                	unimp
     708:	0501                	addi	a0,a0,0
     70a:	0602                	c.slli64	a2
     70c:	0e090103          	lb	sp,224(s2)
     710:	0100                	addi	s0,sp,128
     712:	00096a03          	lwu	s4,0(s2)
     716:	0100                	addi	s0,sp,128
     718:	00096003          	lwu	zero,0(s2)
     71c:	0100                	addi	s0,sp,128
     71e:	00097503          	.4byte	0x97503
     722:	0100                	addi	s0,sp,128
     724:	00090203          	lb	tp,0(s2)
     728:	0100                	addi	s0,sp,128
     72a:	1d05                	addi	s10,s10,-31
     72c:	0306                	slli	t1,t1,0x1
     72e:	0900                	addi	s0,sp,144
     730:	0000                	unimp
     732:	0501                	addi	a0,a0,0
     734:	09020307          	.4byte	0x9020307
     738:	0006                	c.slli	zero,0x1
     73a:	0501                	addi	a0,a0,0
     73c:	0602                	c.slli64	a2
     73e:	04097f03          	.4byte	0x4097f03
     742:	0100                	addi	s0,sp,128
     744:	0305                	addi	t1,t1,1
     746:	00090103          	lb	sp,0(s2)
     74a:	0100                	addi	s0,sp,128
     74c:	0705                	addi	a4,a4,1
     74e:	0306                	slli	t1,t1,0x1
     750:	0900                	addi	s0,sp,144
     752:	0000                	unimp
     754:	0501                	addi	a0,a0,0
     756:	060d                	addi	a2,a2,3
     758:	02090103          	lb	sp,32(s2)
     75c:	0100                	addi	s0,sp,128
     75e:	0205                	addi	tp,tp,1 # 1 <_prog_start-0xffff>
     760:	04090103          	lb	sp,64(s2)
     764:	0100                	addi	s0,sp,128
     766:	00092603          	lw	a2,0(s2)
     76a:	0100                	addi	s0,sp,128
     76c:	1d05                	addi	s10,s10,-31
     76e:	0306                	slli	t1,t1,0x1
     770:	0900                	addi	s0,sp,144
     772:	0000                	unimp
     774:	0501                	addi	a0,a0,0
     776:	0602                	c.slli64	a2
     778:	04091603          	lh	a2,64(s2)
     77c:	0100                	addi	s0,sp,128
     77e:	0705                	addi	a4,a4,1
     780:	0306                	slli	t1,t1,0x1
     782:	018c                	addi	a1,sp,192
     784:	0009                	c.nop	2
     786:	0100                	addi	s0,sp,128
     788:	0205                	addi	tp,tp,1 # 1 <_prog_start-0xffff>
     78a:	0306                	slli	t1,t1,0x1
     78c:	7efa                	ld	t4,440(sp)
     78e:	0609                	addi	a2,a2,2
     790:	0100                	addi	s0,sp,128
     792:	00090103          	lb	sp,0(s2)
     796:	0100                	addi	s0,sp,128
     798:	0c090103          	lb	sp,192(s2)
     79c:	0100                	addi	s0,sp,128
     79e:	0805                	addi	a6,a6,1
     7a0:	0306                	slli	t1,t1,0x1
     7a2:	0900                	addi	s0,sp,144
     7a4:	0000                	unimp
     7a6:	0501                	addi	a0,a0,0
     7a8:	09000327          	.4byte	0x9000327
     7ac:	0010                	.2byte	0x10
     7ae:	0501                	addi	a0,a0,0
     7b0:	031d                	addi	t1,t1,7
     7b2:	7fb8                	ld	a4,120(a5)
     7b4:	0609                	addi	a2,a2,2
     7b6:	0100                	addi	s0,sp,128
     7b8:	2705                	addiw	a4,a4,1
     7ba:	0900c803          	lbu	a6,144(ra)
     7be:	0004                	.2byte	0x4
     7c0:	0501                	addi	a0,a0,0
     7c2:	0602                	c.slli64	a2
     7c4:	04090103          	lb	sp,64(s2)
     7c8:	0100                	addi	s0,sp,128
     7ca:	00094003          	lbu	zero,0(s2)
     7ce:	0100                	addi	s0,sp,128
     7d0:	00097503          	.4byte	0x97503
     7d4:	0100                	addi	s0,sp,128
     7d6:	00090203          	lb	tp,0(s2)
     7da:	0100                	addi	s0,sp,128
     7dc:	1d05                	addi	s10,s10,-31
     7de:	0306                	slli	t1,t1,0x1
     7e0:	0900                	addi	s0,sp,144
     7e2:	0000                	unimp
     7e4:	0501                	addi	a0,a0,0
     7e6:	09020307          	.4byte	0x9020307
     7ea:	0002                	c.slli64	zero
     7ec:	0501                	addi	a0,a0,0
     7ee:	0602                	c.slli64	a2
     7f0:	04097f03          	.4byte	0x4097f03
     7f4:	0100                	addi	s0,sp,128
     7f6:	0305                	addi	t1,t1,1
     7f8:	00090103          	lb	sp,0(s2)
     7fc:	0100                	addi	s0,sp,128
     7fe:	0705                	addi	a4,a4,1
     800:	0306                	slli	t1,t1,0x1
     802:	0900                	addi	s0,sp,144
     804:	0000                	unimp
     806:	0501                	addi	a0,a0,0
     808:	060d                	addi	a2,a2,3
     80a:	02090103          	lb	sp,32(s2)
     80e:	0100                	addi	s0,sp,128
     810:	0205                	addi	tp,tp,1 # 1 <_prog_start-0xffff>
     812:	04090103          	lb	sp,64(s2)
     816:	0100                	addi	s0,sp,128
     818:	0900c603          	lbu	a2,144(ra)
     81c:	0000                	unimp
     81e:	0301                	addi	t1,t1,0
     820:	00097fbf 75030100 	.8byte	0x7503010000097fbf
     828:	0009                	c.nop	2
     82a:	0100                	addi	s0,sp,128
     82c:	00090203          	lb	tp,0(s2)
     830:	0100                	addi	s0,sp,128
     832:	1d05                	addi	s10,s10,-31
     834:	0306                	slli	t1,t1,0x1
     836:	0900                	addi	s0,sp,144
     838:	0000                	unimp
     83a:	0501                	addi	a0,a0,0
     83c:	09020307          	.4byte	0x9020307
     840:	0006                	c.slli	zero,0x1
     842:	0501                	addi	a0,a0,0
     844:	0602                	c.slli64	a2
     846:	04097f03          	.4byte	0x4097f03
     84a:	0100                	addi	s0,sp,128
     84c:	0305                	addi	t1,t1,1
     84e:	00090103          	lb	sp,0(s2)
     852:	0100                	addi	s0,sp,128
     854:	0705                	addi	a4,a4,1
     856:	0306                	slli	t1,t1,0x1
     858:	0900                	addi	s0,sp,144
     85a:	0000                	unimp
     85c:	0501                	addi	a0,a0,0
     85e:	060d                	addi	a2,a2,3
     860:	02090103          	lb	sp,32(s2)
     864:	0100                	addi	s0,sp,128
     866:	0205                	addi	tp,tp,1 # 1 <_prog_start-0xffff>
     868:	04090103          	lb	sp,64(s2)
     86c:	0100                	addi	s0,sp,128
     86e:	0900c703          	lbu	a4,144(ra)
     872:	0000                	unimp
     874:	0301                	addi	t1,t1,0
     876:	7fbe                	ld	t6,488(sp)
     878:	0009                	c.nop	2
     87a:	0100                	addi	s0,sp,128
     87c:	00097503          	.4byte	0x97503
     880:	0100                	addi	s0,sp,128
     882:	00090203          	lb	tp,0(s2)
     886:	0100                	addi	s0,sp,128
     888:	1d05                	addi	s10,s10,-31
     88a:	0306                	slli	t1,t1,0x1
     88c:	0900                	addi	s0,sp,144
     88e:	0000                	unimp
     890:	0501                	addi	a0,a0,0
     892:	09020307          	.4byte	0x9020307
     896:	0006                	c.slli	zero,0x1
     898:	0501                	addi	a0,a0,0
     89a:	0602                	c.slli64	a2
     89c:	04097f03          	.4byte	0x4097f03
     8a0:	0100                	addi	s0,sp,128
     8a2:	0305                	addi	t1,t1,1
     8a4:	00090103          	lb	sp,0(s2)
     8a8:	0100                	addi	s0,sp,128
     8aa:	0705                	addi	a4,a4,1
     8ac:	0306                	slli	t1,t1,0x1
     8ae:	0900                	addi	s0,sp,144
     8b0:	0000                	unimp
     8b2:	0501                	addi	a0,a0,0
     8b4:	060d                	addi	a2,a2,3
     8b6:	06090103          	lb	sp,96(s2)
     8ba:	0100                	addi	s0,sp,128
     8bc:	0205                	addi	tp,tp,1 # 1 <_prog_start-0xffff>
     8be:	04090103          	lb	sp,64(s2)
     8c2:	0100                	addi	s0,sp,128
     8c4:	1c05                	addi	s8,s8,-31
     8c6:	0306                	slli	t1,t1,0x1
     8c8:	000900c7          	fmsub.s	ft1,fs2,ft0,ft0,rne
     8cc:	0100                	addi	s0,sp,128
     8ce:	0205                	addi	tp,tp,1 # 1 <_prog_start-0xffff>
     8d0:	0306                	slli	t1,t1,0x1
     8d2:	0901                	addi	s2,s2,0
     8d4:	000a                	c.slli	zero,0x2
     8d6:	0301                	addi	t1,t1,0
     8d8:	7fbd                	lui	t6,0xfffef
     8da:	0009                	c.nop	2
     8dc:	0100                	addi	s0,sp,128
     8de:	00097503          	.4byte	0x97503
     8e2:	0100                	addi	s0,sp,128
     8e4:	00090203          	lb	tp,0(s2)
     8e8:	0100                	addi	s0,sp,128
     8ea:	1d05                	addi	s10,s10,-31
     8ec:	0306                	slli	t1,t1,0x1
     8ee:	0900                	addi	s0,sp,144
     8f0:	0000                	unimp
     8f2:	0501                	addi	a0,a0,0
     8f4:	09020307          	.4byte	0x9020307
     8f8:	0006                	c.slli	zero,0x1
     8fa:	0501                	addi	a0,a0,0
     8fc:	0602                	c.slli64	a2
     8fe:	04097f03          	.4byte	0x4097f03
     902:	0100                	addi	s0,sp,128
     904:	0305                	addi	t1,t1,1
     906:	00090103          	lb	sp,0(s2)
     90a:	0100                	addi	s0,sp,128
     90c:	0705                	addi	a4,a4,1
     90e:	0306                	slli	t1,t1,0x1
     910:	0900                	addi	s0,sp,144
     912:	0000                	unimp
     914:	0501                	addi	a0,a0,0
     916:	060d                	addi	a2,a2,3
     918:	06090103          	lb	sp,96(s2)
     91c:	0100                	addi	s0,sp,128
     91e:	0205                	addi	tp,tp,1 # 1 <_prog_start-0xffff>
     920:	04090103          	lb	sp,64(s2)
     924:	0100                	addi	s0,sp,128
     926:	1405                	addi	s0,s0,-31
     928:	0306                	slli	t1,t1,0x1
     92a:	00c8                	addi	a0,sp,68
     92c:	0009                	c.nop	2
     92e:	0100                	addi	s0,sp,128
     930:	1d05                	addi	s10,s10,-31
     932:	097fb403          	ld	s0,151(t6) # fffffffffffef097 <_sp+0xffffffff7feef097>
     936:	0012                	c.slli	zero,0x4
     938:	0501                	addi	a0,a0,0
     93a:	0602                	c.slli64	a2
     93c:	0900cd03          	lbu	s10,144(ra)
     940:	0008                	.2byte	0x8
     942:	0301                	addi	t1,t1,0
     944:	095c                	addi	a5,sp,148
     946:	0000                	unimp
     948:	0301                	addi	t1,t1,0
     94a:	0960                	addi	s0,sp,156
     94c:	0000                	unimp
     94e:	0301                	addi	t1,t1,0
     950:	0975                	addi	s2,s2,29
     952:	0000                	unimp
     954:	0301                	addi	t1,t1,0
     956:	0902                	c.slli64	s2
     958:	0000                	unimp
     95a:	0501                	addi	a0,a0,0
     95c:	061d                	addi	a2,a2,7
     95e:	00090003          	lb	zero,0(s2)
     962:	0100                	addi	s0,sp,128
     964:	0705                	addi	a4,a4,1
     966:	02090203          	lb	tp,32(s2)
     96a:	0100                	addi	s0,sp,128
     96c:	0205                	addi	tp,tp,1 # 1 <_prog_start-0xffff>
     96e:	0306                	slli	t1,t1,0x1
     970:	097f                	.2byte	0x97f
     972:	0004                	.2byte	0x4
     974:	0501                	addi	a0,a0,0
     976:	09010303          	lb	t1,144(sp)
     97a:	0000                	unimp
     97c:	0501                	addi	a0,a0,0
     97e:	00030607          	.4byte	0x30607
     982:	0009                	c.nop	2
     984:	0100                	addi	s0,sp,128
     986:	0d05                	addi	s10,s10,1
     988:	0306                	slli	t1,t1,0x1
     98a:	0901                	addi	s2,s2,0
     98c:	0002                	c.slli64	zero
     98e:	0501                	addi	a0,a0,0
     990:	0302                	c.slli64	t1
     992:	0901                	addi	s2,s2,0
     994:	0004                	.2byte	0x4
     996:	0301                	addi	t1,t1,0
     998:	0926                	slli	s2,s2,0x9
     99a:	0000                	unimp
     99c:	0501                	addi	a0,a0,0
     99e:	061d                	addi	a2,a2,7
     9a0:	00090003          	lb	zero,0(s2)
     9a4:	0100                	addi	s0,sp,128
     9a6:	0205                	addi	tp,tp,1 # 1 <_prog_start-0xffff>
     9a8:	0306                	slli	t1,t1,0x1
     9aa:	0924                	addi	s1,sp,152
     9ac:	0004                	.2byte	0x4
     9ae:	0501                	addi	a0,a0,0
     9b0:	0612                	slli	a2,a2,0x4
     9b2:	0900fe03          	.4byte	0x900fe03
     9b6:	0000                	unimp
     9b8:	0501                	addi	a0,a0,0
     9ba:	0605                	addi	a2,a2,1
     9bc:	02090603          	lb	a2,32(s2)
     9c0:	0100                	addi	s0,sp,128
     9c2:	0c090103          	lb	sp,192(s2)
     9c6:	0100                	addi	s0,sp,128
     9c8:	0c05                	addi	s8,s8,1
     9ca:	0306                	slli	t1,t1,0x1
     9cc:	0900                	addi	s0,sp,144
     9ce:	0000                	unimp
     9d0:	0501                	addi	a0,a0,0
     9d2:	0602                	c.slli64	a2
     9d4:	097f8803          	lb	a6,151(t6)
     9d8:	0004                	.2byte	0x4
     9da:	0301                	addi	t1,t1,0
     9dc:	0901                	addi	s2,s2,0
     9de:	0000                	unimp
     9e0:	0501                	addi	a0,a0,0
     9e2:	061d                	addi	a2,a2,7
     9e4:	097fa403          	lw	s0,151(t6)
     9e8:	000c                	.2byte	0xc
     9ea:	0501                	addi	a0,a0,0
     9ec:	030d                	addi	t1,t1,3
     9ee:	00e0                	addi	s0,sp,76
     9f0:	0809                	addi	a6,a6,2
     9f2:	0100                	addi	s0,sp,128
     9f4:	0205                	addi	tp,tp,1 # 1 <_prog_start-0xffff>
     9f6:	0306                	slli	t1,t1,0x1
     9f8:	097d                	addi	s2,s2,31
     9fa:	0002                	c.slli64	zero
     9fc:	0501                	addi	a0,a0,0
     9fe:	09010303          	lb	t1,144(sp)
     a02:	0000                	unimp
     a04:	0501                	addi	a0,a0,0
     a06:	0302                	c.slli64	t1
     a08:	0976                	slli	s2,s2,0x1d
     a0a:	0000                	unimp
     a0c:	0301                	addi	t1,t1,0
     a0e:	0901                	addi	s2,s2,0
     a10:	000e                	c.slli	zero,0x3
     a12:	0301                	addi	t1,t1,0
     a14:	0954                	addi	a3,sp,148
     a16:	0000                	unimp
     a18:	0301                	addi	t1,t1,0
     a1a:	0960                	addi	s0,sp,156
     a1c:	0000                	unimp
     a1e:	0301                	addi	t1,t1,0
     a20:	0975                	addi	s2,s2,29
     a22:	0000                	unimp
     a24:	0301                	addi	t1,t1,0
     a26:	0902                	c.slli64	s2
     a28:	0000                	unimp
     a2a:	0501                	addi	a0,a0,0
     a2c:	061d                	addi	a2,a2,7
     a2e:	00090003          	lb	zero,0(s2)
     a32:	0100                	addi	s0,sp,128
     a34:	0205                	addi	tp,tp,1 # 1 <_prog_start-0xffff>
     a36:	0306                	slli	t1,t1,0x1
     a38:	0901                	addi	s2,s2,0
     a3a:	0004                	.2byte	0x4
     a3c:	0501                	addi	a0,a0,0
     a3e:	09010303          	lb	t1,144(sp)
     a42:	0000                	unimp
     a44:	0501                	addi	a0,a0,0
     a46:	00030607          	.4byte	0x30607
     a4a:	0009                	c.nop	2
     a4c:	0100                	addi	s0,sp,128
     a4e:	0d05                	addi	s10,s10,1
     a50:	0306                	slli	t1,t1,0x1
     a52:	0901                	addi	s2,s2,0
     a54:	0002                	c.slli64	zero
     a56:	0501                	addi	a0,a0,0
     a58:	0302                	c.slli64	t1
     a5a:	0901                	addi	s2,s2,0
     a5c:	0004                	.2byte	0x4
     a5e:	0301                	addi	t1,t1,0
     a60:	0926                	slli	s2,s2,0x9
     a62:	0000                	unimp
     a64:	0501                	addi	a0,a0,0
     a66:	061d                	addi	a2,a2,7
     a68:	00090003          	lb	zero,0(s2)
     a6c:	0100                	addi	s0,sp,128
     a6e:	0305                	addi	t1,t1,1
     a70:	0306                	slli	t1,t1,0x1
     a72:	0935                	addi	s2,s2,13
     a74:	0004                	.2byte	0x4
     a76:	0501                	addi	a0,a0,0
     a78:	00030607          	.4byte	0x30607
     a7c:	0009                	c.nop	2
     a7e:	0100                	addi	s0,sp,128
     a80:	0d05                	addi	s10,s10,1
     a82:	0306                	slli	t1,t1,0x1
     a84:	0901                	addi	s2,s2,0
     a86:	0010                	.2byte	0x10
     a88:	0501                	addi	a0,a0,0
     a8a:	0302                	c.slli64	t1
     a8c:	0901                	addi	s2,s2,0
     a8e:	0004                	.2byte	0x4
     a90:	0501                	addi	a0,a0,0
     a92:	ec03060f          	.4byte	0xec03060f
     a96:	0900                	addi	s0,sp,144
     a98:	0000                	unimp
     a9a:	0501                	addi	a0,a0,0
     a9c:	0602                	c.slli64	a2
     a9e:	097f9a03          	lh	s4,151(t6)
     aa2:	0002                	c.slli64	zero
     aa4:	0301                	addi	t1,t1,0
     aa6:	0901                	addi	s2,s2,0
     aa8:	0000                	unimp
     aaa:	0301                	addi	t1,t1,0
     aac:	0901                	addi	s2,s2,0
     aae:	000c                	.2byte	0xc
     ab0:	0501                	addi	a0,a0,0
     ab2:	0608                	addi	a0,sp,768
     ab4:	00090003          	lb	zero,0(s2)
     ab8:	0100                	addi	s0,sp,128
     aba:	1d05                	addi	s10,s10,-31
     abc:	097f9703          	lh	a4,151(t6)
     ac0:	000e                	c.slli	zero,0x3
     ac2:	0501                	addi	a0,a0,0
     ac4:	031e                	slli	t1,t1,0x7
     ac6:	00e9                	addi	ra,ra,26
     ac8:	0409                	addi	s0,s0,2
     aca:	0100                	addi	s0,sp,128
     acc:	0205                	addi	tp,tp,1 # 1 <_prog_start-0xffff>
     ace:	0306                	slli	t1,t1,0x1
     ad0:	0901                	addi	s2,s2,0
     ad2:	0004                	.2byte	0x4
     ad4:	0301                	addi	t1,t1,0
     ad6:	7f9f 0009 0100      	.byte	0x9f, 0x7f, 0x09, 0x00, 0x00, 0x01
     adc:	00097503          	.4byte	0x97503
     ae0:	0100                	addi	s0,sp,128
     ae2:	00090203          	lb	tp,0(s2)
     ae6:	0100                	addi	s0,sp,128
     ae8:	1d05                	addi	s10,s10,-31
     aea:	0306                	slli	t1,t1,0x1
     aec:	0900                	addi	s0,sp,144
     aee:	0000                	unimp
     af0:	0501                	addi	a0,a0,0
     af2:	09020307          	.4byte	0x9020307
     af6:	0002                	c.slli64	zero
     af8:	0501                	addi	a0,a0,0
     afa:	0602                	c.slli64	a2
     afc:	04097f03          	.4byte	0x4097f03
     b00:	0100                	addi	s0,sp,128
     b02:	0305                	addi	t1,t1,1
     b04:	00090103          	lb	sp,0(s2)
     b08:	0100                	addi	s0,sp,128
     b0a:	0705                	addi	a4,a4,1
     b0c:	0306                	slli	t1,t1,0x1
     b0e:	0900                	addi	s0,sp,144
     b10:	0000                	unimp
     b12:	0501                	addi	a0,a0,0
     b14:	060d                	addi	a2,a2,3
     b16:	06090103          	lb	sp,96(s2)
     b1a:	0100                	addi	s0,sp,128
     b1c:	0205                	addi	tp,tp,1 # 1 <_prog_start-0xffff>
     b1e:	04090103          	lb	sp,64(s2)
     b22:	0100                	addi	s0,sp,128
     b24:	1d05                	addi	s10,s10,-31
     b26:	0306                	slli	t1,t1,0x1
     b28:	00e6                	slli	ra,ra,0x19
     b2a:	0009                	c.nop	2
     b2c:	0100                	addi	s0,sp,128
     b2e:	0205                	addi	tp,tp,1 # 1 <_prog_start-0xffff>
     b30:	0306                	slli	t1,t1,0x1
     b32:	0901                	addi	s2,s2,0
     b34:	000c                	.2byte	0xc
     b36:	0301                	addi	t1,t1,0
     b38:	7f9e                	ld	t6,480(sp)
     b3a:	0009                	c.nop	2
     b3c:	0100                	addi	s0,sp,128
     b3e:	00097503          	.4byte	0x97503
     b42:	0100                	addi	s0,sp,128
     b44:	00090203          	lb	tp,0(s2)
     b48:	0100                	addi	s0,sp,128
     b4a:	1d05                	addi	s10,s10,-31
     b4c:	0306                	slli	t1,t1,0x1
     b4e:	0900                	addi	s0,sp,144
     b50:	0000                	unimp
     b52:	0501                	addi	a0,a0,0
     b54:	09020307          	.4byte	0x9020307
     b58:	0006                	c.slli	zero,0x1
     b5a:	0501                	addi	a0,a0,0
     b5c:	0602                	c.slli64	a2
     b5e:	04097f03          	.4byte	0x4097f03
     b62:	0100                	addi	s0,sp,128
     b64:	0305                	addi	t1,t1,1
     b66:	00090103          	lb	sp,0(s2)
     b6a:	0100                	addi	s0,sp,128
     b6c:	0705                	addi	a4,a4,1
     b6e:	0306                	slli	t1,t1,0x1
     b70:	0900                	addi	s0,sp,144
     b72:	0000                	unimp
     b74:	0501                	addi	a0,a0,0
     b76:	060d                	addi	a2,a2,3
     b78:	02090103          	lb	sp,32(s2)
     b7c:	0100                	addi	s0,sp,128
     b7e:	0205                	addi	tp,tp,1 # 1 <_prog_start-0xffff>
     b80:	04090103          	lb	sp,64(s2)
     b84:	0100                	addi	s0,sp,128
     b86:	0900e803          	lwu	a6,144(ra)
     b8a:	0000                	unimp
     b8c:	0301                	addi	t1,t1,0
     b8e:	7f9d                	lui	t6,0xfffe7
     b90:	0009                	c.nop	2
     b92:	0100                	addi	s0,sp,128
     b94:	00097503          	.4byte	0x97503
     b98:	0100                	addi	s0,sp,128
     b9a:	00090203          	lb	tp,0(s2)
     b9e:	0100                	addi	s0,sp,128
     ba0:	1d05                	addi	s10,s10,-31
     ba2:	0306                	slli	t1,t1,0x1
     ba4:	0900                	addi	s0,sp,144
     ba6:	0000                	unimp
     ba8:	0501                	addi	a0,a0,0
     baa:	09020307          	.4byte	0x9020307
     bae:	0006                	c.slli	zero,0x1
     bb0:	0501                	addi	a0,a0,0
     bb2:	0602                	c.slli64	a2
     bb4:	04097f03          	.4byte	0x4097f03
     bb8:	0100                	addi	s0,sp,128
     bba:	0305                	addi	t1,t1,1
     bbc:	00090103          	lb	sp,0(s2)
     bc0:	0100                	addi	s0,sp,128
     bc2:	0705                	addi	a4,a4,1
     bc4:	0306                	slli	t1,t1,0x1
     bc6:	0900                	addi	s0,sp,144
     bc8:	0000                	unimp
     bca:	0501                	addi	a0,a0,0
     bcc:	060d                	addi	a2,a2,3
     bce:	02090103          	lb	sp,32(s2)
     bd2:	0100                	addi	s0,sp,128
     bd4:	0205                	addi	tp,tp,1 # 1 <_prog_start-0xffff>
     bd6:	04090103          	lb	sp,64(s2)
     bda:	0100                	addi	s0,sp,128
     bdc:	0900e903          	lwu	s2,144(ra)
     be0:	0000                	unimp
     be2:	0301                	addi	t1,t1,0
     be4:	7f9c                	ld	a5,56(a5)
     be6:	0009                	c.nop	2
     be8:	0100                	addi	s0,sp,128
     bea:	00097503          	.4byte	0x97503
     bee:	0100                	addi	s0,sp,128
     bf0:	00090203          	lb	tp,0(s2)
     bf4:	0100                	addi	s0,sp,128
     bf6:	1d05                	addi	s10,s10,-31
     bf8:	0306                	slli	t1,t1,0x1
     bfa:	0900                	addi	s0,sp,144
     bfc:	0000                	unimp
     bfe:	0501                	addi	a0,a0,0
     c00:	09020307          	.4byte	0x9020307
     c04:	0006                	c.slli	zero,0x1
     c06:	0501                	addi	a0,a0,0
     c08:	0602                	c.slli64	a2
     c0a:	04097f03          	.4byte	0x4097f03
     c0e:	0100                	addi	s0,sp,128
     c10:	0305                	addi	t1,t1,1
     c12:	00090103          	lb	sp,0(s2)
     c16:	0100                	addi	s0,sp,128
     c18:	0705                	addi	a4,a4,1
     c1a:	0306                	slli	t1,t1,0x1
     c1c:	0900                	addi	s0,sp,144
     c1e:	0000                	unimp
     c20:	0501                	addi	a0,a0,0
     c22:	060d                	addi	a2,a2,3
     c24:	02090103          	lb	sp,32(s2)
     c28:	0100                	addi	s0,sp,128
     c2a:	0205                	addi	tp,tp,1 # 1 <_prog_start-0xffff>
     c2c:	04090103          	lb	sp,64(s2)
     c30:	0100                	addi	s0,sp,128
     c32:	0900ea03          	lwu	s4,144(ra)
     c36:	0000                	unimp
     c38:	0301                	addi	t1,t1,0
     c3a:	00097fbb          	.4byte	0x97fbb
     c3e:	0100                	addi	s0,sp,128
     c40:	00096003          	lwu	zero,0(s2)
     c44:	0100                	addi	s0,sp,128
     c46:	00097503          	.4byte	0x97503
     c4a:	0100                	addi	s0,sp,128
     c4c:	00090203          	lb	tp,0(s2)
     c50:	0100                	addi	s0,sp,128
     c52:	1d05                	addi	s10,s10,-31
     c54:	0306                	slli	t1,t1,0x1
     c56:	0900                	addi	s0,sp,144
     c58:	0000                	unimp
     c5a:	0501                	addi	a0,a0,0
     c5c:	09020307          	.4byte	0x9020307
     c60:	0006                	c.slli	zero,0x1
     c62:	0501                	addi	a0,a0,0
     c64:	0602                	c.slli64	a2
     c66:	04097f03          	.4byte	0x4097f03
     c6a:	0100                	addi	s0,sp,128
     c6c:	0305                	addi	t1,t1,1
     c6e:	00090103          	lb	sp,0(s2)
     c72:	0100                	addi	s0,sp,128
     c74:	0705                	addi	a4,a4,1
     c76:	0306                	slli	t1,t1,0x1
     c78:	0900                	addi	s0,sp,144
     c7a:	0000                	unimp
     c7c:	0501                	addi	a0,a0,0
     c7e:	060d                	addi	a2,a2,3
     c80:	02090103          	lb	sp,32(s2)
     c84:	0100                	addi	s0,sp,128
     c86:	0205                	addi	tp,tp,1 # 1 <_prog_start-0xffff>
     c88:	04090103          	lb	sp,64(s2)
     c8c:	0100                	addi	s0,sp,128
     c8e:	00092603          	lw	a2,0(s2)
     c92:	0100                	addi	s0,sp,128
     c94:	1d05                	addi	s10,s10,-31
     c96:	0306                	slli	t1,t1,0x1
     c98:	0900                	addi	s0,sp,144
     c9a:	0000                	unimp
     c9c:	0501                	addi	a0,a0,0
     c9e:	0602                	c.slli64	a2
     ca0:	0900c503          	lbu	a0,144(ra)
     ca4:	0004                	.2byte	0x4
     ca6:	0501                	addi	a0,a0,0
     ca8:	0611                	addi	a2,a2,4
     caa:	0900df03          	lhu	t5,144(ra)
     cae:	0000                	unimp
     cb0:	0501                	addi	a0,a0,0
     cb2:	0602                	c.slli64	a2
     cb4:	097fa703          	lw	a4,151(t6) # fffffffffffe7097 <_sp+0xffffffff7fee7097>
     cb8:	0002                	c.slli64	zero
     cba:	0301                	addi	t1,t1,0
     cbc:	0901                	addi	s2,s2,0
     cbe:	0000                	unimp
     cc0:	0301                	addi	t1,t1,0
     cc2:	0901                	addi	s2,s2,0
     cc4:	000c                	.2byte	0xc
     cc6:	0501                	addi	a0,a0,0
     cc8:	0608                	addi	a0,sp,768
     cca:	00090003          	lb	zero,0(s2)
     cce:	0100                	addi	s0,sp,128
     cd0:	1d05                	addi	s10,s10,-31
     cd2:	097f8903          	lb	s2,151(t6)
     cd6:	000e                	c.slli	zero,0x3
     cd8:	0501                	addi	a0,a0,0
     cda:	0308                	addi	a0,sp,384
     cdc:	060900f7          	.4byte	0x60900f7
     ce0:	0100                	addi	s0,sp,128
     ce2:	0205                	addi	tp,tp,1 # 1 <_prog_start-0xffff>
     ce4:	0306                	slli	t1,t1,0x1
     ce6:	0901                	addi	s2,s2,0
     ce8:	0002                	c.slli64	zero
     cea:	0301                	addi	t1,t1,0
     cec:	7fb1                	lui	t6,0xfffec
     cee:	0009                	c.nop	2
     cf0:	0100                	addi	s0,sp,128
     cf2:	00096003          	lwu	zero,0(s2)
     cf6:	0100                	addi	s0,sp,128
     cf8:	00097503          	.4byte	0x97503
     cfc:	0100                	addi	s0,sp,128
     cfe:	00090203          	lb	tp,0(s2)
     d02:	0100                	addi	s0,sp,128
     d04:	0705                	addi	a4,a4,1
     d06:	0306                	slli	t1,t1,0x1
     d08:	0902                	c.slli64	s2
     d0a:	0000                	unimp
     d0c:	0501                	addi	a0,a0,0
     d0e:	0602                	c.slli64	a2
     d10:	04097f03          	.4byte	0x4097f03
     d14:	0100                	addi	s0,sp,128
     d16:	0305                	addi	t1,t1,1
     d18:	00090103          	lb	sp,0(s2)
     d1c:	0100                	addi	s0,sp,128
     d1e:	0705                	addi	a4,a4,1
     d20:	0306                	slli	t1,t1,0x1
     d22:	0900                	addi	s0,sp,144
     d24:	0000                	unimp
     d26:	0501                	addi	a0,a0,0
     d28:	060d                	addi	a2,a2,3
     d2a:	02090103          	lb	sp,32(s2)
     d2e:	0100                	addi	s0,sp,128
     d30:	0205                	addi	tp,tp,1 # 1 <_prog_start-0xffff>
     d32:	04090103          	lb	sp,64(s2)
     d36:	0100                	addi	s0,sp,128
     d38:	00092603          	lw	a2,0(s2)
     d3c:	0100                	addi	s0,sp,128
     d3e:	1d05                	addi	s10,s10,-31
     d40:	0306                	slli	t1,t1,0x1
     d42:	0900                	addi	s0,sp,144
     d44:	0000                	unimp
     d46:	0501                	addi	a0,a0,0
     d48:	0602                	c.slli64	a2
     d4a:	0900cf03          	lbu	t5,144(ra)
     d4e:	0004                	.2byte	0x4
     d50:	0501                	addi	a0,a0,0
     d52:	0610                	addi	a2,sp,768
     d54:	0900d603          	lhu	a2,144(ra)
     d58:	0000                	unimp
     d5a:	0501                	addi	a0,a0,0
     d5c:	0602                	c.slli64	a2
     d5e:	097fbe03          	ld	t3,151(t6) # fffffffffffec097 <_sp+0xffffffff7feec097>
     d62:	0004                	.2byte	0x4
     d64:	0301                	addi	t1,t1,0
     d66:	0901                	addi	s2,s2,0
     d68:	0000                	unimp
     d6a:	0301                	addi	t1,t1,0
     d6c:	0901                	addi	s2,s2,0
     d6e:	0000                	unimp
     d70:	0301                	addi	t1,t1,0
     d72:	0902                	c.slli64	s2
     d74:	0000                	unimp
     d76:	0301                	addi	t1,t1,0
     d78:	000c0903          	lb	s2,0(s8)
     d7c:	0301                	addi	t1,t1,0
     d7e:	0904                	addi	s1,sp,144
     d80:	000c                	.2byte	0xc
     d82:	0501                	addi	a0,a0,0
     d84:	061d                	addi	a2,a2,7
     d86:	00090003          	lb	zero,0(s2)
     d8a:	0100                	addi	s0,sp,128
     d8c:	0605                	addi	a2,a2,1
     d8e:	06090203          	lb	tp,96(s2)
     d92:	0100                	addi	s0,sp,128
     d94:	1d05                	addi	s10,s10,-31
     d96:	02097e03          	.4byte	0x2097e03
     d9a:	0100                	addi	s0,sp,128
     d9c:	0205                	addi	tp,tp,1 # 1 <_prog_start-0xffff>
     d9e:	0306                	slli	t1,t1,0x1
     da0:	0902                	c.slli64	s2
     da2:	0002                	c.slli64	zero
     da4:	0501                	addi	a0,a0,0
     da6:	0606                	slli	a2,a2,0x1
     da8:	00090003          	lb	zero,0(s2)
     dac:	0100                	addi	s0,sp,128
     dae:	0505                	addi	a0,a0,1
     db0:	10090003          	lb	zero,256(s2)
     db4:	0100                	addi	s0,sp,128
     db6:	0f05                	addi	t5,t5,1
     db8:	04091e03          	lh	t3,64(s2)
     dbc:	0100                	addi	s0,sp,128
     dbe:	1405                	addi	s0,s0,-31
     dc0:	04095503          	lhu	a0,64(s2)
     dc4:	0100                	addi	s0,sp,128
     dc6:	1605                	addi	a2,a2,-31
     dc8:	02097403          	.4byte	0x2097403
     dcc:	0100                	addi	s0,sp,128
     dce:	0f05                	addi	t5,t5,1
     dd0:	02093703          	ld	a4,32(s2)
     dd4:	0100                	addi	s0,sp,128
     dd6:	1405                	addi	s0,s0,-31
     dd8:	02095503          	lhu	a0,32(s2)
     ddc:	0100                	addi	s0,sp,128
     dde:	1d05                	addi	s10,s10,-31
     de0:	097ef303          	.4byte	0x97ef303
     de4:	0002                	c.slli64	zero
     de6:	0501                	addi	a0,a0,0
     de8:	0315                	addi	t1,t1,5
     dea:	01a4                	addi	s1,sp,200
     dec:	0c09                	addi	s8,s8,2
     dee:	0100                	addi	s0,sp,128
     df0:	0705                	addi	a4,a4,1
     df2:	097ede03          	lhu	t3,151(t4) # ffffffffffff9097 <_sp+0xffffffff7fef9097>
     df6:	0004                	.2byte	0x4
     df8:	0501                	addi	a0,a0,0
     dfa:	0316                	slli	t1,t1,0x5
     dfc:	00ff                	.2byte	0xff
     dfe:	0409                	addi	s0,s0,2
     e00:	0100                	addi	s0,sp,128
     e02:	0f05                	addi	t5,t5,1
     e04:	02093703          	ld	a4,32(s2)
     e08:	0100                	addi	s0,sp,128
     e0a:	0205                	addi	tp,tp,1 # 1 <_prog_start-0xffff>
     e0c:	0306                	slli	t1,t1,0x1
     e0e:	0966                	slli	s2,s2,0x19
     e10:	0002                	c.slli64	zero
     e12:	0501                	addi	a0,a0,0
     e14:	09010303          	lb	t1,144(sp)
     e18:	0000                	unimp
     e1a:	0301                	addi	t1,t1,0
     e1c:	0901                	addi	s2,s2,0
     e1e:	0000                	unimp
     e20:	0301                	addi	t1,t1,0
     e22:	0902                	c.slli64	s2
     e24:	0000                	unimp
     e26:	0301                	addi	t1,t1,0
     e28:	0901                	addi	s2,s2,0
     e2a:	0000                	unimp
     e2c:	0301                	addi	t1,t1,0
     e2e:	0901                	addi	s2,s2,0
     e30:	0000                	unimp
     e32:	0501                	addi	a0,a0,0
     e34:	061d                	addi	a2,a2,7
     e36:	097edc03          	lhu	s8,151(t4)
     e3a:	0000                	unimp
     e3c:	0501                	addi	a0,a0,0
     e3e:	0615                	addi	a2,a2,5
     e40:	0901a403          	lw	s0,144(gp)
     e44:	0004                	.2byte	0x4
     e46:	0501                	addi	a0,a0,0
     e48:	0302                	c.slli64	t1
     e4a:	7ee5                	lui	t4,0xffff9
     e4c:	0009                	c.nop	2
     e4e:	0100                	addi	s0,sp,128
     e50:	00097503          	.4byte	0x97503
     e54:	0100                	addi	s0,sp,128
     e56:	00090203          	lb	tp,0(s2)
     e5a:	0100                	addi	s0,sp,128
     e5c:	1d05                	addi	s10,s10,-31
     e5e:	0306                	slli	t1,t1,0x1
     e60:	0900                	addi	s0,sp,144
     e62:	0000                	unimp
     e64:	0501                	addi	a0,a0,0
     e66:	0602                	c.slli64	a2
     e68:	02090103          	lb	sp,32(s2)
     e6c:	0100                	addi	s0,sp,128
     e6e:	0305                	addi	t1,t1,1
     e70:	00090103          	lb	sp,0(s2)
     e74:	0100                	addi	s0,sp,128
     e76:	0705                	addi	a4,a4,1
     e78:	0306                	slli	t1,t1,0x1
     e7a:	0900                	addi	s0,sp,144
     e7c:	0000                	unimp
     e7e:	0501                	addi	a0,a0,0
     e80:	060d                	addi	a2,a2,3
     e82:	06090103          	lb	sp,96(s2)
     e86:	0100                	addi	s0,sp,128
     e88:	0205                	addi	tp,tp,1 # 1 <_prog_start-0xffff>
     e8a:	04090103          	lb	sp,64(s2)
     e8e:	0100                	addi	s0,sp,128
     e90:	1505                	addi	a0,a0,-31
     e92:	0306                	slli	t1,t1,0x1
     e94:	01a0                	addi	s0,sp,200
     e96:	0009                	c.nop	2
     e98:	0100                	addi	s0,sp,128
     e9a:	0705                	addi	a4,a4,1
     e9c:	0a097e03          	.4byte	0xa097e03
     ea0:	0100                	addi	s0,sp,128
     ea2:	1d05                	addi	s10,s10,-31
     ea4:	097ede03          	lhu	t3,151(t4) # ffffffffffff9097 <_sp+0xffffffff7fef9097>
     ea8:	0006                	c.slli	zero,0x1
     eaa:	0501                	addi	a0,a0,0
     eac:	a5030603          	lb	a2,-1456(t1)
     eb0:	0901                	addi	s2,s2,0
     eb2:	0004                	.2byte	0x4
     eb4:	0501                	addi	a0,a0,0
     eb6:	0304                	addi	s1,sp,384
     eb8:	0901                	addi	s2,s2,0
     eba:	0000                	unimp
     ebc:	0501                	addi	a0,a0,0
     ebe:	0302                	c.slli64	t1
     ec0:	00097ee3          	bgeu	s2,zero,16dc <_prog_start-0xe924>
     ec4:	0100                	addi	s0,sp,128
     ec6:	00097503          	.4byte	0x97503
     eca:	0100                	addi	s0,sp,128
     ecc:	00090203          	lb	tp,0(s2)
     ed0:	0100                	addi	s0,sp,128
     ed2:	1d05                	addi	s10,s10,-31
     ed4:	0306                	slli	t1,t1,0x1
     ed6:	0900                	addi	s0,sp,144
     ed8:	0000                	unimp
     eda:	0501                	addi	a0,a0,0
     edc:	0602                	c.slli64	a2
     ede:	04090103          	lb	sp,64(s2)
     ee2:	0100                	addi	s0,sp,128
     ee4:	0305                	addi	t1,t1,1
     ee6:	00090103          	lb	sp,0(s2)
     eea:	0100                	addi	s0,sp,128
     eec:	0705                	addi	a4,a4,1
     eee:	0306                	slli	t1,t1,0x1
     ef0:	0900                	addi	s0,sp,144
     ef2:	0000                	unimp
     ef4:	0501                	addi	a0,a0,0
     ef6:	060d                	addi	a2,a2,3
     ef8:	06090103          	lb	sp,96(s2)
     efc:	0100                	addi	s0,sp,128
     efe:	0205                	addi	tp,tp,1 # 1 <_prog_start-0xffff>
     f00:	04090103          	lb	sp,64(s2)
     f04:	0100                	addi	s0,sp,128
     f06:	0905                	addi	s2,s2,1
     f08:	0306                	slli	t1,t1,0x1
     f0a:	0900                	addi	s0,sp,144
     f0c:	000c                	.2byte	0xc
     f0e:	0501                	addi	a0,a0,0
     f10:	0604                	addi	s1,sp,768
     f12:	0901a303          	lw	t1,144(gp)
     f16:	0004                	.2byte	0x4
     f18:	0501                	addi	a0,a0,0
     f1a:	0606                	slli	a2,a2,0x1
     f1c:	02095703          	lhu	a4,32(s2)
     f20:	0100                	addi	s0,sp,128
     f22:	0905                	addi	s2,s2,1
     f24:	02090103          	lb	sp,32(s2)
     f28:	0100                	addi	s0,sp,128
     f2a:	0d05                	addi	s10,s10,1
     f2c:	08090103          	lb	sp,128(s2)
     f30:	0100                	addi	s0,sp,128
     f32:	0605                	addi	a2,a2,1
     f34:	04090003          	lb	zero,64(s2)
     f38:	0100                	addi	s0,sp,128
     f3a:	1605                	addi	a2,a2,-31
     f3c:	02090103          	lb	sp,32(s2)
     f40:	0100                	addi	s0,sp,128
     f42:	0605                	addi	a2,a2,1
     f44:	10090003          	lb	zero,256(s2)
     f48:	0100                	addi	s0,sp,128
     f4a:	06092603          	lw	a2,96(s2)
     f4e:	0100                	addi	s0,sp,128
     f50:	0905                	addi	s2,s2,1
     f52:	04090003          	lb	zero,64(s2)
     f56:	0100                	addi	s0,sp,128
     f58:	0405                	addi	s0,s0,1
     f5a:	0306                	slli	t1,t1,0x1
     f5c:	0901                	addi	s2,s2,0
     f5e:	0004                	.2byte	0x4
     f60:	0501                	addi	a0,a0,0
     f62:	0302                	c.slli64	t1
     f64:	0955                	addi	s2,s2,21
     f66:	0000                	unimp
     f68:	0301                	addi	t1,t1,0
     f6a:	0901                	addi	s2,s2,0
     f6c:	0000                	unimp
     f6e:	0301                	addi	t1,t1,0
     f70:	0901                	addi	s2,s2,0
     f72:	0000                	unimp
     f74:	0301                	addi	t1,t1,0
     f76:	0901                	addi	s2,s2,0
     f78:	0000                	unimp
     f7a:	0301                	addi	t1,t1,0
     f7c:	0901                	addi	s2,s2,0
     f7e:	0000                	unimp
     f80:	0501                	addi	a0,a0,0
     f82:	0606                	slli	a2,a2,0x1
     f84:	00090003          	lb	zero,0(s2)
     f88:	0100                	addi	s0,sp,128
     f8a:	0205                	addi	tp,tp,1 # 1 <_prog_start-0xffff>
     f8c:	0306                	slli	t1,t1,0x1
     f8e:	0901                	addi	s2,s2,0
     f90:	0002                	c.slli64	zero
     f92:	0501                	addi	a0,a0,0
     f94:	0310                	addi	a2,sp,384
     f96:	00000927          	.4byte	0x927
     f9a:	0501                	addi	a0,a0,0
     f9c:	0606                	slli	a2,a2,0x1
     f9e:	04097e03          	.4byte	0x4097e03
     fa2:	0100                	addi	s0,sp,128
     fa4:	0305                	addi	t1,t1,1
     fa6:	0306                	slli	t1,t1,0x1
     fa8:	0904                	addi	s1,sp,144
     faa:	0004                	.2byte	0x4
     fac:	0501                	addi	a0,a0,0
     fae:	0302                	c.slli64	t1
     fb0:	7ede                	ld	t4,496(sp)
     fb2:	0009                	c.nop	2
     fb4:	0100                	addi	s0,sp,128
     fb6:	00097503          	.4byte	0x97503
     fba:	0100                	addi	s0,sp,128
     fbc:	00090203          	lb	tp,0(s2)
     fc0:	0100                	addi	s0,sp,128
     fc2:	1d05                	addi	s10,s10,-31
     fc4:	0306                	slli	t1,t1,0x1
     fc6:	0900                	addi	s0,sp,144
     fc8:	0000                	unimp
     fca:	0501                	addi	a0,a0,0
     fcc:	0602                	c.slli64	a2
     fce:	04090103          	lb	sp,64(s2)
     fd2:	0100                	addi	s0,sp,128
     fd4:	0305                	addi	t1,t1,1
     fd6:	00090103          	lb	sp,0(s2)
     fda:	0100                	addi	s0,sp,128
     fdc:	0705                	addi	a4,a4,1
     fde:	0306                	slli	t1,t1,0x1
     fe0:	0900                	addi	s0,sp,144
     fe2:	0000                	unimp
     fe4:	0501                	addi	a0,a0,0
     fe6:	060d                	addi	a2,a2,3
     fe8:	06090103          	lb	sp,96(s2)
     fec:	0100                	addi	s0,sp,128
     fee:	0205                	addi	tp,tp,1 # 1 <_prog_start-0xffff>
     ff0:	04090103          	lb	sp,64(s2)
     ff4:	0100                	addi	s0,sp,128
     ff6:	1805                	addi	a6,a6,-31
     ff8:	0306                	slli	t1,t1,0x1
     ffa:	000901a7          	.4byte	0x901a7
     ffe:	0100                	addi	s0,sp,128
    1000:	0b05                	addi	s6,s6,1
    1002:	04090003          	lb	zero,64(s2)
    1006:	0100                	addi	s0,sp,128
    1008:	0305                	addi	t1,t1,1
    100a:	0306                	slli	t1,t1,0x1
    100c:	0901                	addi	s2,s2,0
    100e:	0008                	.2byte	0x8
    1010:	0501                	addi	a0,a0,0
    1012:	0302                	c.slli64	t1
    1014:	7edd                	lui	t4,0xffff7
    1016:	0009                	c.nop	2
    1018:	0100                	addi	s0,sp,128
    101a:	00097503          	.4byte	0x97503
    101e:	0100                	addi	s0,sp,128
    1020:	00090203          	lb	tp,0(s2)
    1024:	0100                	addi	s0,sp,128
    1026:	1d05                	addi	s10,s10,-31
    1028:	0306                	slli	t1,t1,0x1
    102a:	0900                	addi	s0,sp,144
    102c:	0000                	unimp
    102e:	0501                	addi	a0,a0,0
    1030:	0602                	c.slli64	a2
    1032:	04090103          	lb	sp,64(s2)
    1036:	0100                	addi	s0,sp,128
    1038:	0305                	addi	t1,t1,1
    103a:	00090103          	lb	sp,0(s2)
    103e:	0100                	addi	s0,sp,128
    1040:	0705                	addi	a4,a4,1
    1042:	0306                	slli	t1,t1,0x1
    1044:	0900                	addi	s0,sp,144
    1046:	0000                	unimp
    1048:	0501                	addi	a0,a0,0
    104a:	060d                	addi	a2,a2,3
    104c:	06090103          	lb	sp,96(s2)
    1050:	0100                	addi	s0,sp,128
    1052:	0205                	addi	tp,tp,1 # 1 <_prog_start-0xffff>
    1054:	04090103          	lb	sp,64(s2)
    1058:	0100                	addi	s0,sp,128
    105a:	0305                	addi	t1,t1,1
    105c:	0901aa03          	lw	s4,144(gp)
    1060:	0000                	unimp
    1062:	0501                	addi	a0,a0,0
    1064:	7e03060b          	.4byte	0x7e03060b
    1068:	0009                	c.nop	2
    106a:	0100                	addi	s0,sp,128
    106c:	0605                	addi	a2,a2,1
    106e:	04090203          	lb	tp,64(s2)
    1072:	0100                	addi	s0,sp,128
    1074:	0305                	addi	t1,t1,1
    1076:	0306                	slli	t1,t1,0x1
    1078:	0906                	slli	s2,s2,0x1
    107a:	0006                	c.slli	zero,0x1
    107c:	0501                	addi	a0,a0,0
    107e:	0904030f          	.4byte	0x904030f
    1082:	0000                	unimp
    1084:	0501                	addi	a0,a0,0
    1086:	0302                	c.slli64	t1
    1088:	0901                	addi	s2,s2,0
    108a:	0004                	.2byte	0x4
    108c:	0301                	addi	t1,t1,0
    108e:	7ef0                	ld	a2,248(a3)
    1090:	0009                	c.nop	2
    1092:	0100                	addi	s0,sp,128
    1094:	00096003          	lwu	zero,0(s2)
    1098:	0100                	addi	s0,sp,128
    109a:	00097503          	.4byte	0x97503
    109e:	0100                	addi	s0,sp,128
    10a0:	00090203          	lb	tp,0(s2)
    10a4:	0100                	addi	s0,sp,128
    10a6:	1d05                	addi	s10,s10,-31
    10a8:	0306                	slli	t1,t1,0x1
    10aa:	0900                	addi	s0,sp,144
    10ac:	0000                	unimp
    10ae:	0501                	addi	a0,a0,0
    10b0:	09020307          	.4byte	0x9020307
    10b4:	000a                	c.slli	zero,0x2
    10b6:	0501                	addi	a0,a0,0
    10b8:	0602                	c.slli64	a2
    10ba:	04097f03          	.4byte	0x4097f03
    10be:	0100                	addi	s0,sp,128
    10c0:	0305                	addi	t1,t1,1
    10c2:	00090103          	lb	sp,0(s2)
    10c6:	0100                	addi	s0,sp,128
    10c8:	0705                	addi	a4,a4,1
    10ca:	0306                	slli	t1,t1,0x1
    10cc:	0900                	addi	s0,sp,144
    10ce:	0000                	unimp
    10d0:	0501                	addi	a0,a0,0
    10d2:	060d                	addi	a2,a2,3
    10d4:	02090103          	lb	sp,32(s2)
    10d8:	0100                	addi	s0,sp,128
    10da:	0205                	addi	tp,tp,1 # 1 <_prog_start-0xffff>
    10dc:	04090103          	lb	sp,64(s2)
    10e0:	0100                	addi	s0,sp,128
    10e2:	00092603          	lw	a2,0(s2)
    10e6:	0100                	addi	s0,sp,128
    10e8:	1d05                	addi	s10,s10,-31
    10ea:	0306                	slli	t1,t1,0x1
    10ec:	0900                	addi	s0,sp,144
    10ee:	0000                	unimp
    10f0:	0501                	addi	a0,a0,0
    10f2:	0602                	c.slli64	a2
    10f4:	09019203          	lh	tp,144(gp)
    10f8:	0004                	.2byte	0x4
    10fa:	0301                	addi	t1,t1,0
    10fc:	0901                	addi	s2,s2,0
    10fe:	000c                	.2byte	0xc
    1100:	0301                	addi	t1,t1,0
    1102:	7eec                	ld	a1,248(a3)
    1104:	0009                	c.nop	2
    1106:	0100                	addi	s0,sp,128
    1108:	00096003          	lwu	zero,0(s2)
    110c:	0100                	addi	s0,sp,128
    110e:	00097503          	.4byte	0x97503
    1112:	0100                	addi	s0,sp,128
    1114:	00090203          	lb	tp,0(s2)
    1118:	0100                	addi	s0,sp,128
    111a:	1d05                	addi	s10,s10,-31
    111c:	0306                	slli	t1,t1,0x1
    111e:	0900                	addi	s0,sp,144
    1120:	0000                	unimp
    1122:	0501                	addi	a0,a0,0
    1124:	09020307          	.4byte	0x9020307
    1128:	0006                	c.slli	zero,0x1
    112a:	0501                	addi	a0,a0,0
    112c:	0602                	c.slli64	a2
    112e:	04097f03          	.4byte	0x4097f03
    1132:	0100                	addi	s0,sp,128
    1134:	0305                	addi	t1,t1,1
    1136:	00090103          	lb	sp,0(s2)
    113a:	0100                	addi	s0,sp,128
    113c:	0705                	addi	a4,a4,1
    113e:	0306                	slli	t1,t1,0x1
    1140:	0900                	addi	s0,sp,144
    1142:	0000                	unimp
    1144:	0501                	addi	a0,a0,0
    1146:	060d                	addi	a2,a2,3
    1148:	02090103          	lb	sp,32(s2)
    114c:	0100                	addi	s0,sp,128
    114e:	0205                	addi	tp,tp,1 # 1 <_prog_start-0xffff>
    1150:	04090103          	lb	sp,64(s2)
    1154:	0100                	addi	s0,sp,128
    1156:	00092603          	lw	a2,0(s2)
    115a:	0100                	addi	s0,sp,128
    115c:	1d05                	addi	s10,s10,-31
    115e:	0306                	slli	t1,t1,0x1
    1160:	0900                	addi	s0,sp,144
    1162:	0000                	unimp
    1164:	0501                	addi	a0,a0,0
    1166:	0602                	c.slli64	a2
    1168:	09019403          	lh	s0,144(gp)
    116c:	0004                	.2byte	0x4
    116e:	0301                	addi	t1,t1,0
    1170:	0901                	addi	s2,s2,0
    1172:	000c                	.2byte	0xc
    1174:	0501                	addi	a0,a0,0
    1176:	0610                	addi	a2,sp,768
    1178:	00091103          	lh	sp,0(s2)
    117c:	0100                	addi	s0,sp,128
    117e:	0405                	addi	s0,s0,1
    1180:	0306                	slli	t1,t1,0x1
    1182:	0905                	addi	s2,s2,1
    1184:	0004                	.2byte	0x4
    1186:	0301                	addi	t1,t1,0
    1188:	095a                	slli	s2,s2,0x16
    118a:	000e                	c.slli	zero,0x3
    118c:	0301                	addi	t1,t1,0
    118e:	0901                	addi	s2,s2,0
    1190:	000c                	.2byte	0xc
    1192:	0301                	addi	t1,t1,0
    1194:	0901                	addi	s2,s2,0
    1196:	0000                	unimp
    1198:	0501                	addi	a0,a0,0
    119a:	7f030607          	.4byte	0x7f030607
    119e:	0009                	c.nop	2
    11a0:	0100                	addi	s0,sp,128
    11a2:	0405                	addi	s0,s0,1
    11a4:	02090103          	lb	sp,32(s2)
    11a8:	0100                	addi	s0,sp,128
    11aa:	0305                	addi	t1,t1,1
    11ac:	0306                	slli	t1,t1,0x1
    11ae:	096a                	slli	s2,s2,0x1a
    11b0:	0002                	c.slli64	zero
    11b2:	0501                	addi	a0,a0,0
    11b4:	0302                	c.slli64	t1
    11b6:	7f8e                	ld	t6,224(sp)
    11b8:	0009                	c.nop	2
    11ba:	0100                	addi	s0,sp,128
    11bc:	00096003          	lwu	zero,0(s2)
    11c0:	0100                	addi	s0,sp,128
    11c2:	00097503          	.4byte	0x97503
    11c6:	0100                	addi	s0,sp,128
    11c8:	00090203          	lb	tp,0(s2)
    11cc:	0100                	addi	s0,sp,128
    11ce:	1d05                	addi	s10,s10,-31
    11d0:	0306                	slli	t1,t1,0x1
    11d2:	0900                	addi	s0,sp,144
    11d4:	0000                	unimp
    11d6:	0501                	addi	a0,a0,0
    11d8:	09020307          	.4byte	0x9020307
    11dc:	0006                	c.slli	zero,0x1
    11de:	0501                	addi	a0,a0,0
    11e0:	0602                	c.slli64	a2
    11e2:	04097f03          	.4byte	0x4097f03
    11e6:	0100                	addi	s0,sp,128
    11e8:	0305                	addi	t1,t1,1
    11ea:	00090103          	lb	sp,0(s2)
    11ee:	0100                	addi	s0,sp,128
    11f0:	0705                	addi	a4,a4,1
    11f2:	0306                	slli	t1,t1,0x1
    11f4:	0900                	addi	s0,sp,144
    11f6:	0000                	unimp
    11f8:	0501                	addi	a0,a0,0
    11fa:	060d                	addi	a2,a2,3
    11fc:	02090103          	lb	sp,32(s2)
    1200:	0100                	addi	s0,sp,128
    1202:	0205                	addi	tp,tp,1 # 1 <_prog_start-0xffff>
    1204:	04090103          	lb	sp,64(s2)
    1208:	0100                	addi	s0,sp,128
    120a:	00092603          	lw	a2,0(s2)
    120e:	0100                	addi	s0,sp,128
    1210:	1d05                	addi	s10,s10,-31
    1212:	0306                	slli	t1,t1,0x1
    1214:	0900                	addi	s0,sp,144
    1216:	0000                	unimp
    1218:	0501                	addi	a0,a0,0
    121a:	f2030603          	lb	a2,-224(t1)
    121e:	0900                	addi	s0,sp,144
    1220:	0004                	.2byte	0x4
    1222:	0901                	addi	s2,s2,0
    1224:	0002                	c.slli64	zero
    1226:	0100                	addi	s0,sp,128
    1228:	8301                	c.srli64	a4
    122a:	0004                	.2byte	0x4
    122c:	0500                	addi	s0,sp,640
    122e:	0800                	addi	s0,sp,16
    1230:	4a00                	lw	s0,16(a2)
    1232:	0000                	unimp
    1234:	0100                	addi	s0,sp,128
    1236:	0101                	addi	sp,sp,0
    1238:	000d0efb          	.4byte	0xd0efb
    123c:	0101                	addi	sp,sp,0
    123e:	0101                	addi	sp,sp,0
    1240:	0000                	unimp
    1242:	0100                	addi	s0,sp,128
    1244:	0000                	unimp
    1246:	0101                	addi	sp,sp,0
    1248:	1f01                	addi	t5,t5,-32
    124a:	0004                	.2byte	0x4
    124c:	0000                	unimp
    124e:	6f00                	ld	s0,24(a4)
    1250:	0001                	nop
    1252:	6a00                	ld	s0,16(a2)
    1254:	0000                	unimp
    1256:	d700                	sw	s0,40(a4)
    1258:	0000                	unimp
    125a:	0200                	addi	s0,sp,256
    125c:	1f01                	addi	t5,t5,-32
    125e:	0f02                	c.slli64	t5
    1260:	6506                	ld	a0,64(sp)
    1262:	0001                	nop
    1264:	0000                	unimp
    1266:	0165                	addi	sp,sp,25
    1268:	0000                	unimp
    126a:	5b00                	lw	s0,48(a4)
    126c:	0001                	nop
    126e:	0000                	unimp
    1270:	000001e3          	beqz	zero,1a72 <_prog_start-0xe58e>
    1274:	4001                	c.li	zero,0
    1276:	0001                	nop
    1278:	0200                	addi	s0,sp,256
    127a:	0151                	addi	sp,sp,20
    127c:	0000                	unimp
    127e:	00010503          	lb	a0,0(sp)
    1282:	0209                	addi	tp,tp,2 # 2 <_prog_start-0xfffe>
    1284:	0634                	addi	a3,sp,776
    1286:	0001                	nop
    1288:	0000                	unimp
    128a:	0000                	unimp
    128c:	05010f03          	lb	t5,80(sp)
    1290:	0302                	c.slli64	t1
    1292:	0901                	addi	s2,s2,0
    1294:	0000                	unimp
    1296:	0301                	addi	t1,t1,0
    1298:	0979                	addi	s2,s2,30
    129a:	0000                	unimp
    129c:	0301                	addi	t1,t1,0
    129e:	0901                	addi	s2,s2,0
    12a0:	0000                	unimp
    12a2:	0501                	addi	a0,a0,0
    12a4:	0312                	slli	t1,t1,0x4
    12a6:	0900                	addi	s0,sp,144
    12a8:	0000                	unimp
    12aa:	0501                	addi	a0,a0,0
    12ac:	060c                	addi	a1,sp,768
    12ae:	00090003          	lb	zero,0(s2)
    12b2:	0100                	addi	s0,sp,128
    12b4:	1205                	addi	tp,tp,-31 # ffffffffffffffe1 <_sp+0xffffffff7fefffe1>
    12b6:	04090003          	lb	zero,64(s2)
    12ba:	0100                	addi	s0,sp,128
    12bc:	0204                	addi	s1,sp,256
    12be:	0305                	addi	t1,t1,1
    12c0:	02091003          	lh	zero,32(s2)
    12c4:	0100                	addi	s0,sp,128
    12c6:	0205                	addi	tp,tp,1 # 1 <_prog_start-0xffff>
    12c8:	0306                	slli	t1,t1,0x1
    12ca:	097e                	slli	s2,s2,0x1f
    12cc:	0004                	.2byte	0x4
    12ce:	0301                	addi	t1,t1,0
    12d0:	0901                	addi	s2,s2,0
    12d2:	0000                	unimp
    12d4:	0501                	addi	a0,a0,0
    12d6:	09010303          	lb	t1,144(sp)
    12da:	0000                	unimp
    12dc:	0501                	addi	a0,a0,0
    12de:	030d                	addi	t1,t1,3
    12e0:	0904                	addi	s1,sp,144
    12e2:	0006                	c.slli	zero,0x1
    12e4:	0401                	addi	s0,s0,0
    12e6:	0501                	addi	a0,a0,0
    12e8:	031c                	addi	a5,sp,384
    12ea:	096c                	addi	a1,sp,156
    12ec:	0004                	.2byte	0x4
    12ee:	0501                	addi	a0,a0,0
    12f0:	060c                	addi	a1,sp,768
    12f2:	00090003          	lb	zero,0(s2)
    12f6:	0100                	addi	s0,sp,128
    12f8:	1c05                	addi	s8,s8,-31
    12fa:	04090003          	lb	zero,64(s2)
    12fe:	0100                	addi	s0,sp,128
    1300:	1205                	addi	tp,tp,-31 # ffffffffffffffe1 <_sp+0xffffffff7fefffe1>
    1302:	0306                	slli	t1,t1,0x1
    1304:	0900                	addi	s0,sp,144
    1306:	0002                	c.slli64	zero
    1308:	0401                	addi	s0,s0,0
    130a:	0502                	c.slli64	a0
    130c:	10030603          	lb	a2,256(t1)
    1310:	0209                	addi	tp,tp,2 # 2 <_prog_start-0xfffe>
    1312:	0100                	addi	s0,sp,128
    1314:	0205                	addi	tp,tp,1 # 1 <_prog_start-0xffff>
    1316:	0306                	slli	t1,t1,0x1
    1318:	097e                	slli	s2,s2,0x1f
    131a:	0006                	c.slli	zero,0x1
    131c:	0301                	addi	t1,t1,0
    131e:	0901                	addi	s2,s2,0
    1320:	0000                	unimp
    1322:	0501                	addi	a0,a0,0
    1324:	09010303          	lb	t1,144(sp)
    1328:	0000                	unimp
    132a:	0501                	addi	a0,a0,0
    132c:	030d                	addi	t1,t1,3
    132e:	0904                	addi	s1,sp,144
    1330:	0006                	c.slli	zero,0x1
    1332:	0501                	addi	a0,a0,0
    1334:	7c030603          	lb	a2,1984(t1)
    1338:	0409                	addi	s0,s0,2
    133a:	0100                	addi	s0,sp,128
    133c:	0205                	addi	tp,tp,1 # 1 <_prog_start-0xffff>
    133e:	0306                	slli	t1,t1,0x1
    1340:	097e                	slli	s2,s2,0x1f
    1342:	0006                	c.slli	zero,0x1
    1344:	0301                	addi	t1,t1,0
    1346:	0901                	addi	s2,s2,0
    1348:	0000                	unimp
    134a:	0501                	addi	a0,a0,0
    134c:	09010303          	lb	t1,144(sp)
    1350:	0000                	unimp
    1352:	0501                	addi	a0,a0,0
    1354:	030d                	addi	t1,t1,3
    1356:	0904                	addi	s1,sp,144
    1358:	0006                	c.slli	zero,0x1
    135a:	0401                	addi	s0,s0,0
    135c:	0501                	addi	a0,a0,0
    135e:	0601                	addi	a2,a2,0
    1360:	04097503          	.4byte	0x4097503
    1364:	0100                	addi	s0,sp,128
    1366:	0306                	slli	t1,t1,0x1
    1368:	00020903          	lb	s2,0(tp) # 0 <_prog_start-0x10000>
    136c:	0501                	addi	a0,a0,0
    136e:	0302                	c.slli64	t1
    1370:	0901                	addi	s2,s2,0
    1372:	0000                	unimp
    1374:	0301                	addi	t1,t1,0
    1376:	0901                	addi	s2,s2,0
    1378:	0000                	unimp
    137a:	0301                	addi	t1,t1,0
    137c:	0901                	addi	s2,s2,0
    137e:	0000                	unimp
    1380:	0301                	addi	t1,t1,0
    1382:	0902                	c.slli64	s2
    1384:	0000                	unimp
    1386:	0501                	addi	a0,a0,0
    1388:	0601                	addi	a2,a2,0
    138a:	00097b03          	.4byte	0x97b03
    138e:	0100                	addi	s0,sp,128
    1390:	0c05                	addi	s8,s8,1
    1392:	02090903          	lb	s2,32(s2)
    1396:	0100                	addi	s0,sp,128
    1398:	0105                	addi	sp,sp,1
    139a:	04097703          	.4byte	0x4097703
    139e:	0100                	addi	s0,sp,128
    13a0:	0205                	addi	tp,tp,1 # 1 <_prog_start-0xffff>
    13a2:	02090503          	lb	a0,32(s2)
    13a6:	0100                	addi	s0,sp,128
    13a8:	0105                	addi	sp,sp,1
    13aa:	02097b03          	.4byte	0x2097b03
    13ae:	0100                	addi	s0,sp,128
    13b0:	0205                	addi	tp,tp,1 # 1 <_prog_start-0xffff>
    13b2:	0c090503          	lb	a0,192(s2)
    13b6:	0100                	addi	s0,sp,128
    13b8:	0306                	slli	t1,t1,0x1
    13ba:	0901                	addi	s2,s2,0
    13bc:	0002                	c.slli64	zero
    13be:	0301                	addi	t1,t1,0
    13c0:	0901                	addi	s2,s2,0
    13c2:	0000                	unimp
    13c4:	0301                	addi	t1,t1,0
    13c6:	0901                	addi	s2,s2,0
    13c8:	0000                	unimp
    13ca:	0301                	addi	t1,t1,0
    13cc:	0901                	addi	s2,s2,0
    13ce:	0000                	unimp
    13d0:	0501                	addi	a0,a0,0
    13d2:	0316                	slli	t1,t1,0x5
    13d4:	0900                	addi	s0,sp,144
    13d6:	0000                	unimp
    13d8:	0501                	addi	a0,a0,0
    13da:	060d                	addi	a2,a2,3
    13dc:	0e092403          	lw	s0,224(s2)
    13e0:	0100                	addi	s0,sp,128
    13e2:	0204                	addi	s1,sp,256
    13e4:	0305                	addi	t1,t1,1
    13e6:	04095703          	lhu	a4,64(s2)
    13ea:	0100                	addi	s0,sp,128
    13ec:	0104                	addi	s1,sp,128
    13ee:	0405                	addi	s0,s0,1
    13f0:	04090703          	lb	a4,64(s2)
    13f4:	0100                	addi	s0,sp,128
    13f6:	0305                	addi	t1,t1,1
    13f8:	0306                	slli	t1,t1,0x1
    13fa:	097f                	.2byte	0x97f
    13fc:	000a                	c.slli	zero,0x2
    13fe:	0501                	addi	a0,a0,0
    1400:	0606                	slli	a2,a2,0x1
    1402:	00090003          	lb	zero,0(s2)
    1406:	0100                	addi	s0,sp,128
    1408:	0405                	addi	s0,s0,1
    140a:	0306                	slli	t1,t1,0x1
    140c:	0901                	addi	s2,s2,0
    140e:	0002                	c.slli64	zero
    1410:	0501                	addi	a0,a0,0
    1412:	0305                	addi	t1,t1,1
    1414:	091c                	addi	a5,sp,144
    1416:	0018                	.2byte	0x18
    1418:	0501                	addi	a0,a0,0
    141a:	0003060b          	.4byte	0x3060b
    141e:	0009                	c.nop	2
    1420:	0100                	addi	s0,sp,128
    1422:	0204                	addi	s1,sp,256
    1424:	0305                	addi	t1,t1,1
    1426:	02095d03          	lhu	s10,32(s2)
    142a:	0100                	addi	s0,sp,128
    142c:	0104                	addi	s1,sp,128
    142e:	0505                	addi	a0,a0,1
    1430:	04092303          	lw	t1,64(s2)
    1434:	0100                	addi	s0,sp,128
    1436:	0204                	addi	s1,sp,256
    1438:	0205                	addi	tp,tp,1 # 1 <_prog_start-0xffff>
    143a:	0306                	slli	t1,t1,0x1
    143c:	0959                	addi	s2,s2,22
    143e:	0004                	.2byte	0x4
    1440:	0401                	addi	s0,s0,0
    1442:	0501                	addi	a0,a0,0
    1444:	2703060b          	.4byte	0x2703060b
    1448:	0009                	c.nop	2
    144a:	0100                	addi	s0,sp,128
    144c:	0204                	addi	s1,sp,256
    144e:	0205                	addi	tp,tp,1 # 1 <_prog_start-0xffff>
    1450:	0306                	slli	t1,t1,0x1
    1452:	0004095b          	.4byte	0x4095b
    1456:	0301                	addi	t1,t1,0
    1458:	0901                	addi	s2,s2,0
    145a:	0000                	unimp
    145c:	0501                	addi	a0,a0,0
    145e:	09010303          	lb	t1,144(sp)
    1462:	0000                	unimp
    1464:	0501                	addi	a0,a0,0
    1466:	030d                	addi	t1,t1,3
    1468:	0904                	addi	s1,sp,144
    146a:	0006                	c.slli	zero,0x1
    146c:	0401                	addi	s0,s0,0
    146e:	0501                	addi	a0,a0,0
    1470:	060c                	addi	a1,sp,768
    1472:	04092403          	lw	s0,64(s2)
    1476:	0100                	addi	s0,sp,128
    1478:	02097f03          	.4byte	0x2097f03
    147c:	0100                	addi	s0,sp,128
    147e:	0e05                	addi	t3,t3,1
    1480:	02097f03          	.4byte	0x2097f03
    1484:	0100                	addi	s0,sp,128
    1486:	1605                	addi	a2,a2,-31
    1488:	0306                	slli	t1,t1,0x1
    148a:	095f 0002 0501      	.byte	0x5f, 0x09, 0x02, 0x00, 0x01, 0x05
    1490:	060c                	addi	a1,sp,768
    1492:	00090003          	lb	zero,0(s2)
    1496:	0100                	addi	s0,sp,128
    1498:	1205                	addi	tp,tp,-31 # ffffffffffffffe1 <_sp+0xffffffff7fefffe1>
    149a:	04090003          	lb	zero,64(s2)
    149e:	0100                	addi	s0,sp,128
    14a0:	1605                	addi	a2,a2,-31
    14a2:	02090003          	lb	zero,32(s2)
    14a6:	0100                	addi	s0,sp,128
    14a8:	0105                	addi	sp,sp,1
    14aa:	04092b03          	lw	s6,64(s2)
    14ae:	0100                	addi	s0,sp,128
    14b0:	0505                	addi	a0,a0,1
    14b2:	0306                	slli	t1,t1,0x1
    14b4:	095f 0004 0301      	.byte	0x5f, 0x09, 0x04, 0x00, 0x01, 0x03
    14ba:	0901                	addi	s2,s2,0
    14bc:	0000                	unimp
    14be:	0301                	addi	t1,t1,0
    14c0:	0901                	addi	s2,s2,0
    14c2:	0000                	unimp
    14c4:	0501                	addi	a0,a0,0
    14c6:	0608                	addi	a0,sp,768
    14c8:	00090103          	lb	sp,0(s2)
    14cc:	0100                	addi	s0,sp,128
    14ce:	06097f03          	.4byte	0x6097f03
    14d2:	0100                	addi	s0,sp,128
    14d4:	0605                	addi	a2,a2,1
    14d6:	0306                	slli	t1,t1,0x1
    14d8:	0901                	addi	s2,s2,0
    14da:	0002                	c.slli64	zero
    14dc:	0501                	addi	a0,a0,0
    14de:	0608                	addi	a0,sp,768
    14e0:	00090003          	lb	zero,0(s2)
    14e4:	0100                	addi	s0,sp,128
    14e6:	0605                	addi	a2,a2,1
    14e8:	0306                	slli	t1,t1,0x1
    14ea:	0901                	addi	s2,s2,0
    14ec:	0004                	.2byte	0x4
    14ee:	0501                	addi	a0,a0,0
    14f0:	030e                	slli	t1,t1,0x3
    14f2:	0905                	addi	s2,s2,1
    14f4:	0000                	unimp
    14f6:	0501                	addi	a0,a0,0
    14f8:	0608                	addi	a0,sp,768
    14fa:	00097a03          	.4byte	0x97a03
    14fe:	0100                	addi	s0,sp,128
    1500:	02090103          	lb	sp,32(s2)
    1504:	0100                	addi	s0,sp,128
    1506:	0605                	addi	a2,a2,1
    1508:	04090803          	lb	a6,64(s2)
    150c:	0100                	addi	s0,sp,128
    150e:	0204                	addi	s1,sp,256
    1510:	0305                	addi	t1,t1,1
    1512:	02096503          	lwu	a0,32(s2)
    1516:	0100                	addi	s0,sp,128
    1518:	0104                	addi	s1,sp,128
    151a:	0e05                	addi	t3,t3,1
    151c:	04091803          	lh	a6,64(s2)
    1520:	0100                	addi	s0,sp,128
    1522:	0605                	addi	a2,a2,1
    1524:	0306                	slli	t1,t1,0x1
    1526:	0901                	addi	s2,s2,0
    1528:	0002                	c.slli64	zero
    152a:	0301                	addi	t1,t1,0
    152c:	0901                	addi	s2,s2,0
    152e:	0000                	unimp
    1530:	0501                	addi	a0,a0,0
    1532:	060d                	addi	a2,a2,3
    1534:	00090003          	lb	zero,0(s2)
    1538:	0100                	addi	s0,sp,128
    153a:	1905                	addi	s2,s2,-31
    153c:	04090103          	lb	sp,64(s2)
    1540:	0100                	addi	s0,sp,128
    1542:	0605                	addi	a2,a2,1
    1544:	0306                	slli	t1,t1,0x1
    1546:	0900                	addi	s0,sp,144
    1548:	0004                	.2byte	0x4
    154a:	0001                	nop
    154c:	0402                	c.slli64	s0
    154e:	0601                	addi	a2,a2,0
    1550:	08090003          	lb	zero,128(s2)
    1554:	0100                	addi	s0,sp,128
    1556:	0204                	addi	s1,sp,256
    1558:	0205                	addi	tp,tp,1 # 1 <_prog_start-0xffff>
    155a:	0306                	slli	t1,t1,0x1
    155c:	00040963          	beqz	s0,156e <_prog_start-0xea92>
    1560:	0301                	addi	t1,t1,0
    1562:	0901                	addi	s2,s2,0
    1564:	0000                	unimp
    1566:	0501                	addi	a0,a0,0
    1568:	09010303          	lb	t1,144(sp)
    156c:	0000                	unimp
    156e:	0501                	addi	a0,a0,0
    1570:	030d                	addi	t1,t1,3
    1572:	0904                	addi	s1,sp,144
    1574:	0006                	c.slli	zero,0x1
    1576:	0401                	addi	s0,s0,0
    1578:	0501                	addi	a0,a0,0
    157a:	0016                	c.slli	zero,0x5
    157c:	0402                	c.slli64	s0
    157e:	0304                	addi	s1,sp,384
    1580:	0914                	addi	a3,sp,144
    1582:	0004                	.2byte	0x4
    1584:	0501                	addi	a0,a0,0
    1586:	000e                	c.slli	zero,0x3
    1588:	0402                	c.slli64	s0
    158a:	0304                	addi	s1,sp,384
    158c:	0900                	addi	s0,sp,144
    158e:	0002                	c.slli64	zero
    1590:	0501                	addi	a0,a0,0
    1592:	0305                	addi	t1,t1,1
    1594:	0908                	addi	a0,sp,144
    1596:	0006                	c.slli	zero,0x1
    1598:	0501                	addi	a0,a0,0
    159a:	0302                	c.slli64	t1
    159c:	0004094f          	fnmadd.s	fs2,fs0,ft0,ft0,rne
    15a0:	0301                	addi	t1,t1,0
    15a2:	0901                	addi	s2,s2,0
    15a4:	0000                	unimp
    15a6:	0501                	addi	a0,a0,0
    15a8:	0312                	slli	t1,t1,0x4
    15aa:	0900                	addi	s0,sp,144
    15ac:	0000                	unimp
    15ae:	0501                	addi	a0,a0,0
    15b0:	0605                	addi	a2,a2,1
    15b2:	00093003          	ld	zero,0(s2)
    15b6:	0100                	addi	s0,sp,128
    15b8:	0c05                	addi	s8,s8,1
    15ba:	04095003          	lhu	zero,64(s2)
    15be:	0100                	addi	s0,sp,128
    15c0:	1205                	addi	tp,tp,-31 # ffffffffffffffe1 <_sp+0xffffffff7fefffe1>
    15c2:	04090003          	lb	zero,64(s2)
    15c6:	0100                	addi	s0,sp,128
    15c8:	0204                	addi	s1,sp,256
    15ca:	0305                	addi	t1,t1,1
    15cc:	02091003          	lh	zero,32(s2)
    15d0:	0100                	addi	s0,sp,128
    15d2:	0205                	addi	tp,tp,1 # 1 <_prog_start-0xffff>
    15d4:	0306                	slli	t1,t1,0x1
    15d6:	097e                	slli	s2,s2,0x1f
    15d8:	0004                	.2byte	0x4
    15da:	0301                	addi	t1,t1,0
    15dc:	0901                	addi	s2,s2,0
    15de:	0000                	unimp
    15e0:	0501                	addi	a0,a0,0
    15e2:	09010303          	lb	t1,144(sp)
    15e6:	0000                	unimp
    15e8:	0501                	addi	a0,a0,0
    15ea:	030d                	addi	t1,t1,3
    15ec:	0904                	addi	s1,sp,144
    15ee:	0006                	c.slli	zero,0x1
    15f0:	0401                	addi	s0,s0,0
    15f2:	0501                	addi	a0,a0,0
    15f4:	031c                	addi	a5,sp,384
    15f6:	096c                	addi	a1,sp,156
    15f8:	0004                	.2byte	0x4
    15fa:	0501                	addi	a0,a0,0
    15fc:	060c                	addi	a1,sp,768
    15fe:	00090003          	lb	zero,0(s2)
    1602:	0100                	addi	s0,sp,128
    1604:	1c05                	addi	s8,s8,-31
    1606:	04090003          	lb	zero,64(s2)
    160a:	0100                	addi	s0,sp,128
    160c:	1205                	addi	tp,tp,-31 # ffffffffffffffe1 <_sp+0xffffffff7fefffe1>
    160e:	0306                	slli	t1,t1,0x1
    1610:	0900                	addi	s0,sp,144
    1612:	0002                	c.slli64	zero
    1614:	0501                	addi	a0,a0,0
    1616:	030a                	slli	t1,t1,0x2
    1618:	0939                	addi	s2,s2,14
    161a:	0004                	.2byte	0x4
    161c:	0501                	addi	a0,a0,0
    161e:	060d                	addi	a2,a2,3
    1620:	00090003          	lb	zero,0(s2)
    1624:	0100                	addi	s0,sp,128
    1626:	0e05                	addi	t3,t3,1
    1628:	04090103          	lb	sp,64(s2)
    162c:	0100                	addi	s0,sp,128
    162e:	0204                	addi	s1,sp,256
    1630:	0205                	addi	tp,tp,1 # 1 <_prog_start-0xffff>
    1632:	0306                	slli	t1,t1,0x1
    1634:	0954                	addi	a3,sp,148
    1636:	0004                	.2byte	0x4
    1638:	0301                	addi	t1,t1,0
    163a:	0901                	addi	s2,s2,0
    163c:	0000                	unimp
    163e:	0501                	addi	a0,a0,0
    1640:	09010303          	lb	t1,144(sp)
    1644:	0000                	unimp
    1646:	0501                	addi	a0,a0,0
    1648:	030d                	addi	t1,t1,3
    164a:	0904                	addi	s1,sp,144
    164c:	0006                	c.slli	zero,0x1
    164e:	0501                	addi	a0,a0,0
    1650:	0302                	c.slli64	t1
    1652:	097a                	slli	s2,s2,0x1e
    1654:	0004                	.2byte	0x4
    1656:	0301                	addi	t1,t1,0
    1658:	0901                	addi	s2,s2,0
    165a:	0000                	unimp
    165c:	0501                	addi	a0,a0,0
    165e:	09010303          	lb	t1,144(sp)
    1662:	0000                	unimp
    1664:	0501                	addi	a0,a0,0
    1666:	030d                	addi	t1,t1,3
    1668:	0904                	addi	s1,sp,144
    166a:	0006                	c.slli	zero,0x1
    166c:	0401                	addi	s0,s0,0
    166e:	0501                	addi	a0,a0,0
    1670:	0306                	slli	t1,t1,0x1
    1672:	0911                	addi	s2,s2,4
    1674:	0006                	c.slli	zero,0x1
    1676:	0501                	addi	a0,a0,0
    1678:	060a                	slli	a2,a2,0x2
    167a:	00090003          	lb	zero,0(s2)
    167e:	0100                	addi	s0,sp,128
    1680:	0805                	addi	a6,a6,1
    1682:	02090003          	lb	zero,32(s2)
    1686:	0100                	addi	s0,sp,128
    1688:	0605                	addi	a2,a2,1
    168a:	0306                	slli	t1,t1,0x1
    168c:	0901                	addi	s2,s2,0
    168e:	0004                	.2byte	0x4
    1690:	0501                	addi	a0,a0,0
    1692:	0616                	slli	a2,a2,0x5
    1694:	00090003          	lb	zero,0(s2)
    1698:	0100                	addi	s0,sp,128
    169a:	0405                	addi	s0,s0,1
    169c:	0a097103          	.4byte	0xa097103
    16a0:	0100                	addi	s0,sp,128
    16a2:	0d05                	addi	s10,s10,1
    16a4:	04090203          	lb	tp,64(s2)
    16a8:	0100                	addi	s0,sp,128
    16aa:	0409                	addi	s0,s0,2
    16ac:	0000                	unimp
    16ae:	0101                	addi	sp,sp,0

Disassembly of section .debug_line_str:

0000000000000000 <.debug_line_str>:
   0:	6d6f682f          	.4byte	0x6d6f682f
   4:	2f65                	addiw	t5,t5,25
   6:	6962                	ld	s2,24(sp)
   8:	686e                	ld	a6,216(sp)
   a:	7565696b          	.4byte	0x7565696b
   e:	6f64                	ld	s1,216(a4)
  10:	726f572f          	.4byte	0x726f572f
  14:	6170736b          	.4byte	0x6170736b
  18:	502f6563          	bltu	t5,sp,522 <_prog_start-0xfade>
  1c:	4468                	lw	a0,76(s0)
  1e:	6854                	ld	a3,144(s0)
  20:	7365                	lui	t1,0xffff9
  22:	7369                	lui	t1,0xffffa
  24:	77654e2f          	.4byte	0x77654e2f
  28:	7246                	ld	tp,112(sp)
  2a:	6d61                	lui	s10,0x18
  2c:	7765                	lui	a4,0xffff9
  2e:	2f6b726f          	jal	tp,b7324 <dtb+0xa6a5c>
  32:	7266                	ld	tp,120(sp)
  34:	6d61                	lui	s10,0x18
  36:	7765                	lui	a4,0xffff9
  38:	2f6b726f          	jal	tp,b732e <dtb+0xa6a66>
  3c:	2f637273          	csrrci	tp,0x2f6,6
  40:	616d                	addi	sp,sp,240
  42:	6e69                	lui	t3,0x1a
  44:	7365722f          	.4byte	0x7365722f
  48:	6372756f          	jal	a0,27e7e <dtb+0x175b6>
  4c:	7365                	lui	t1,0xffff9
  4e:	6f6f622f          	.4byte	0x6f6f622f
  52:	5274                	lw	a3,100(a2)
  54:	4d2f4d4f          	.4byte	0x4d2f4d4f
  58:	4254                	lw	a3,4(a2)
  5a:	00746f6f          	jal	t5,46860 <dtb+0x35f98>
  5e:	6568                	ld	a0,200(a0)
  60:	6461                	lui	s0,0x18
  62:	532e                	lw	t1,232(sp)
  64:	7300                	ld	s0,32(a4)
  66:	2e64                	fld	fs1,216(a2)
  68:	682f0063          	beq	t5,sp,6e8 <_prog_start-0xf918>
  6c:	2f656d6f          	jal	s10,56362 <dtb+0x45a9a>
  70:	6962                	ld	s2,24(sp)
  72:	686e                	ld	a6,216(sp)
  74:	7565696b          	.4byte	0x7565696b
  78:	6f64                	ld	s1,216(a4)
  7a:	726f572f          	.4byte	0x726f572f
  7e:	6170736b          	.4byte	0x6170736b
  82:	502f6563          	bltu	t5,sp,58c <_prog_start-0xfa74>
  86:	4468                	lw	a0,76(s0)
  88:	6854                	ld	a3,144(s0)
  8a:	7365                	lui	t1,0xffff9
  8c:	7369                	lui	t1,0xffffa
  8e:	77654e2f          	.4byte	0x77654e2f
  92:	7246                	ld	tp,112(sp)
  94:	6d61                	lui	s10,0x18
  96:	7765                	lui	a4,0xffff9
  98:	2f6b726f          	jal	tp,b738e <dtb+0xa6ac6>
  9c:	632e                	ld	t1,200(sp)
  9e:	61646e6f          	jal	t3,466b4 <dtb+0x35dec>
  a2:	652d                	lui	a0,0xb
  a4:	766e                	ld	a2,248(sp)
  a6:	7369722f          	.4byte	0x7369722f
  aa:	742d7663          	bgeu	s10,sp,7f6 <_prog_start-0xf80a>
  ae:	736c6f6f          	jal	t5,c67e4 <dtb+0xb5f1c>
  b2:	7369722f          	.4byte	0x7369722f
  b6:	34367663          	bgeu	a2,gp,402 <_prog_start-0xfbfe>
  ba:	752d                	lui	a0,0xfffeb
  bc:	6b6e                	ld	s6,216(sp)
  be:	6f6e                	ld	t5,216(sp)
  c0:	652d6e77          	.4byte	0x652d6e77
  c4:	666c                	ld	a1,200(a2)
  c6:	636e692f          	.4byte	0x636e692f
  ca:	756c                	ld	a1,232(a0)
  cc:	6564                	ld	s1,200(a0)
  ce:	63616d2f          	.4byte	0x63616d2f
  d2:	6968                	ld	a0,208(a0)
  d4:	656e                	ld	a0,216(sp)
  d6:	2f00                	fld	fs0,24(a4)
  d8:	6f68                	ld	a0,216(a4)
  da:	656d                	lui	a0,0x1b
  dc:	6e69622f          	.4byte	0x6e69622f
  e0:	6b68                	ld	a0,208(a4)
  e2:	6569                	lui	a0,0x1a
  e4:	6475                	lui	s0,0x1d
  e6:	6f572f6f          	jal	t5,72fda <dtb+0x62712>
  ea:	6b72                	ld	s6,280(sp)
  ec:	63617073          	csrci	0x636,2
  f0:	2f65                	addiw	t5,t5,25
  f2:	6850                	ld	a2,144(s0)
  f4:	5444                	lw	s1,44(s0)
  f6:	6568                	ld	a0,200(a0)
  f8:	2f736973          	csrrsi	s2,0x2f7,6
  fc:	654e                	ld	a0,208(sp)
  fe:	61724677          	.4byte	0x61724677
 102:	656d                	lui	a0,0x1b
 104:	6b726f77          	.4byte	0x6b726f77
 108:	6f632e2f          	.4byte	0x6f632e2f
 10c:	646e                	ld	s0,216(sp)
 10e:	2d61                	addiw	s10,s10,24 # 18018 <dtb+0x7750>
 110:	6e65                	lui	t3,0x19
 112:	2f76                	fld	ft10,344(sp)
 114:	6972                	ld	s2,280(sp)
 116:	2d766373          	csrrsi	t1,0x2d7,12
 11a:	6f74                	ld	a3,216(a4)
 11c:	2f736c6f          	jal	s8,36c12 <dtb+0x2634a>
 120:	6972                	ld	s2,280(sp)
 122:	36766373          	csrrsi	t1,0x367,12
 126:	2d34                	fld	fa3,88(a0)
 128:	6e75                	lui	t3,0x1d
 12a:	776f6e6b          	.4byte	0x776f6e6b
 12e:	2d6e                	fld	fs10,216(sp)
 130:	6c65                	lui	s8,0x19
 132:	2f66                	fld	ft10,88(sp)
 134:	6e69                	lui	t3,0x1a
 136:	64756c63          	bltu	a0,t2,78e <_prog_start-0xf872>
 13a:	2f65                	addiw	t5,t5,25
 13c:	00737973          	csrrci	s2,0x7,6
 140:	645f 6665 7561      	.byte	0x5f, 0x64, 0x65, 0x66, 0x61, 0x75
 146:	746c                	ld	a1,232(s0)
 148:	745f 7079 7365      	.byte	0x5f, 0x74, 0x79, 0x70, 0x65, 0x73
 14e:	682e                	ld	a6,200(sp)
 150:	5f00                	lw	s0,56(a4)
 152:	69647473          	csrrci	s0,0x696,8
 156:	746e                	ld	s0,248(sp)
 158:	682e                	ld	a6,200(sp)
 15a:	6b00                	ld	s0,16(a4)
 15c:	7270                	ld	a2,224(a2)
 15e:	6e69                	lui	t3,0x1a
 160:	6674                	ld	a3,200(a2)
 162:	682e                	ld	a6,200(sp)
 164:	6b00                	ld	s0,16(a4)
 166:	7270                	ld	a2,224(a2)
 168:	6e69                	lui	t3,0x1a
 16a:	6674                	ld	a3,200(a2)
 16c:	632e                	ld	t1,200(sp)
 16e:	2f00                	fld	fs0,24(a4)
 170:	6f68                	ld	a0,216(a4)
 172:	656d                	lui	a0,0x1b
 174:	6e69622f          	.4byte	0x6e69622f
 178:	6b68                	ld	a0,208(a4)
 17a:	6569                	lui	a0,0x1a
 17c:	6475                	lui	s0,0x1d
 17e:	6f572f6f          	jal	t5,73072 <dtb+0x627aa>
 182:	6b72                	ld	s6,280(sp)
 184:	63617073          	csrci	0x636,2
 188:	2f65                	addiw	t5,t5,25
 18a:	6850                	ld	a2,144(s0)
 18c:	5444                	lw	s1,44(s0)
 18e:	6568                	ld	a0,200(a0)
 190:	2f736973          	csrrsi	s2,0x2f7,6
 194:	654e                	ld	a0,208(sp)
 196:	61724677          	.4byte	0x61724677
 19a:	656d                	lui	a0,0x1b
 19c:	6b726f77          	.4byte	0x6b726f77
 1a0:	6f632e2f          	.4byte	0x6f632e2f
 1a4:	646e                	ld	s0,216(sp)
 1a6:	2d61                	addiw	s10,s10,24
 1a8:	6e65                	lui	t3,0x19
 1aa:	2f76                	fld	ft10,344(sp)
 1ac:	6972                	ld	s2,280(sp)
 1ae:	2d766373          	csrrsi	t1,0x2d7,12
 1b2:	6f74                	ld	a3,216(a4)
 1b4:	2f736c6f          	jal	s8,36caa <dtb+0x263e2>
 1b8:	696c                	ld	a1,208(a0)
 1ba:	2f62                	fld	ft10,24(sp)
 1bc:	2f636367          	.4byte	0x2f636367
 1c0:	6972                	ld	s2,280(sp)
 1c2:	36766373          	csrrsi	t1,0x367,12
 1c6:	2d34                	fld	fa3,88(a0)
 1c8:	6e75                	lui	t3,0x1d
 1ca:	776f6e6b          	.4byte	0x776f6e6b
 1ce:	2d6e                	fld	fs10,216(sp)
 1d0:	6c65                	lui	s8,0x19
 1d2:	2f66                	fld	ft10,88(sp)
 1d4:	3231                	addiw	tp,tp,-20 # ffffffffffffffec <_sp+0xffffffff7fefffec>
 1d6:	322e                	fld	ft4,232(sp)
 1d8:	302e                	fld	ft0,232(sp)
 1da:	636e692f          	.4byte	0x636e692f
 1de:	756c                	ld	a1,232(a0)
 1e0:	6564                	ld	s1,200(a0)
 1e2:	7300                	ld	s0,32(a4)
 1e4:	6474                	ld	a3,200(s0)
 1e6:	7261                	lui	tp,0xffff8
 1e8:	00682e67          	.4byte	0x682e67

Disassembly of section .debug_info:

0000000000000000 <.debug_info>:
       0:	0025                	c.nop	9
       2:	0000                	unimp
       4:	0005                	c.nop	1
       6:	0801                	addi	a6,a6,0
       8:	0000                	unimp
       a:	0000                	unimp
       c:	0001                	nop
       e:	0000                	unimp
      10:	0000                	unimp
      12:	0100                	addi	s0,sp,128
      14:	0000                	unimp
      16:	0000                	unimp
      18:	9000                	.2byte	0x9000
      1a:	00000003          	lb	zero,0(zero) # 0 <_prog_start-0x10000>
      1e:	0700                	addi	s0,sp,896
      20:	0000                	unimp
      22:	6500                	ld	s0,8(a0)
      24:	0000                	unimp
      26:	0100                	addi	s0,sp,128
      28:	2e80                	fld	fs0,24(a3)
      2a:	0010                	.2byte	0x10
      2c:	0500                	addi	s0,sp,640
      2e:	0100                	addi	s0,sp,128
      30:	1408                	addi	a0,sp,544
      32:	0000                	unimp
      34:	1b00                	addi	s0,sp,432
      36:	0084                	addi	s1,sp,64
      38:	0000                	unimp
      3a:	651d                	lui	a0,0x7
      3c:	0000                	unimp
      3e:	0000                	unimp
      40:	0000                	unimp
      42:	b700                	fsd	fs0,40(a4)
      44:	00000003          	lb	zero,0(zero) # 0 <_prog_start-0x10000>
      48:	0000                	unimp
      4a:	0000                	unimp
      4c:	0000                	unimp
      4e:	2800                	fld	fs0,16(s0)
      50:	0002                	c.slli64	zero
      52:	0b00                	addi	s0,sp,400
      54:	0601                	addi	a2,a2,0
      56:	0139                	addi	sp,sp,14
      58:	0000                	unimp
      5a:	710d                	addi	sp,sp,-352
      5c:	0000                	unimp
      5e:	0200                	addi	s0,sp,256
      60:	003d182b          	.4byte	0x3d182b
      64:	0000                	unimp
      66:	3708010b          	.4byte	0x3708010b
      6a:	0001                	nop
      6c:	0b00                	addi	s0,sp,400
      6e:	0502                	c.slli64	a0
      70:	01d4                	addi	a3,sp,196
      72:	0000                	unimp
      74:	de0d                	beqz	a2,ffffffffffffffae <_sp+0xffffffff7fefffae>
      76:	0001                	nop
      78:	0200                	addi	s0,sp,256
      7a:	1939                	addi	s2,s2,-18
      7c:	00000057          	.4byte	0x57
      80:	4e07020b          	.4byte	0x4e07020b
      84:	0001                	nop
      86:	0d00                	addi	s0,sp,656
      88:	0104                	addi	s1,sp,128
      8a:	0000                	unimp
      8c:	4d02                	lw	s10,0(sp)
      8e:	6a18                	ld	a4,16(a2)
      90:	0000                	unimp
      92:	1c00                	addi	s0,sp,560
      94:	0504                	addi	s1,sp,640
      96:	6e69                	lui	t3,0x1a
      98:	0074                	addi	a3,sp,12
      9a:	6f0d                	lui	t5,0x3
      9c:	0001                	nop
      9e:	0200                	addi	s0,sp,256
      a0:	007d194f          	fnmadd.s	fs2,fs10,ft7,ft0,rtz
      a4:	0000                	unimp
      a6:	9c07040b          	.4byte	0x9c07040b
      aa:	0001                	nop
      ac:	0b00                	addi	s0,sp,400
      ae:	0508                	addi	a0,sp,640
      b0:	000001cb          	fnmsub.s	ft3,ft0,ft0,ft0,rne
      b4:	9707080b          	.4byte	0x9707080b
      b8:	0001                	nop
      ba:	0d00                	addi	s0,sp,656
      bc:	00000073          	ecall
      c0:	31131803          	lh	a6,785(t1) # ffffffffffffa311 <_sp+0xffffffff7fefa311>
      c4:	0000                	unimp
      c6:	1300                	addi	s0,sp,416
      c8:	0092                	slli	ra,ra,0x4
      ca:	0000                	unimp
      cc:	e00d                	bnez	s0,ee <_prog_start-0xff12>
      ce:	0001                	nop
      d0:	0300                	addi	s0,sp,384
      d2:	1424                	addi	s1,sp,552
      d4:	0000004b          	fnmsub.s	ft0,ft0,ft0,ft0,rne
      d8:	060d                	addi	a2,a2,3
      da:	0001                	nop
      dc:	0300                	addi	s0,sp,384
      de:	132c                	addi	a1,sp,424
      e0:	005e                	c.slli	zero,0x17
      e2:	0000                	unimp
      e4:	710d                	addi	sp,sp,-352
      e6:	0001                	nop
      e8:	0300                	addi	s0,sp,384
      ea:	1430                	addi	a2,sp,552
      ec:	0071                	c.nop	28
      ee:	0000                	unimp
      f0:	0000bb13          	sltiu	s6,ra,0
      f4:	0b00                	addi	s0,sp,400
      f6:	0508                	addi	a0,sp,640
      f8:	01c6                	slli	gp,gp,0x11
      fa:	0000                	unimp
      fc:	0604100b          	.4byte	0x604100b
     100:	0002                	c.slli64	zero
     102:	0f00                	addi	s0,sp,912
     104:	00df 0000 010b      	.byte	0xdf, 0x00, 0x00, 0x00, 0x0b, 0x01
     10a:	4008                	lw	a0,0(s0)
     10c:	0001                	nop
     10e:	1000                	addi	s0,sp,32
     110:	00df 0000 e60f      	.byte	0xdf, 0x00, 0x00, 0x00, 0x0f, 0xe6
     116:	0000                	unimp
     118:	0b00                	addi	s0,sp,400
     11a:	0708                	addi	a0,sp,896
     11c:	0192                	slli	gp,gp,0x4
     11e:	0000                	unimp
     120:	f91d                	bnez	a0,56 <_prog_start-0xffaa>
     122:	0001                	nop
     124:	0400                	addi	s0,sp,512
     126:	010c2213          	slti	tp,s8,16
     12a:	0000                	unimp
     12c:	0000                	unimp
     12e:	6400                	ld	s0,8(s0)
     130:	0000c70f          	.4byte	0xc70f
     134:	1000                	addi	s0,sp,32
     136:	00000107          	.4byte	0x107
     13a:	731e                	ld	t1,480(sp)
     13c:	6970                	ld	a2,208(a0)
     13e:	0100                	addi	s0,sp,128
     140:	2221                	addiw	tp,tp,8 # ffffffffffff8008 <_sp+0xffffffff7fef8008>
     142:	010c                	addi	a1,sp,128
     144:	0000                	unimp
     146:	1000                	addi	s0,sp,32
     148:	6400                	ld	s0,8(s0)
     14a:	e61f 0000 3100      	.byte	0x1f, 0xe6, 0x00, 0x00, 0x00, 0x31
     150:	0001                	nop
     152:	2000                	fld	fs0,0(s0)
     154:	0000008b          	.4byte	0x8b
     158:	21100003          	lb	zero,529(zero) # 211 <_prog_start-0xfdef>
     15c:	0001                	nop
     15e:	2100                	fld	fs0,0(a0)
     160:	017f                	.2byte	0x17f
     162:	0000                	unimp
     164:	b001                	j	fffffffffffff964 <_sp+0xffffffff7feff964>
     166:	00013113          	sltiu	sp,sp,0
     16a:	0400                	addi	s0,sp,512
     16c:	2f2d                	addiw	t5,t5,11 # 300b <_prog_start-0xcff5>
     16e:	5c7c                	lw	a5,124(s0)
     170:	fe14                	sd	a3,56(a2)
     172:	0001                	nop
     174:	2700                	fld	fs0,8(a4)
     176:	0158                	addi	a4,sp,132
     178:	0000                	unimp
     17a:	eb15                	bnez	a4,1ae <_prog_start-0xfe52>
     17c:	0000                	unimp
     17e:	2200                	fld	fs0,0(a2)
     180:	1400                	addi	s0,sp,544
     182:	026a                	slli	tp,tp,0x1a
     184:	0000                	unimp
     186:	6826                	ld	a6,72(sp)
     188:	0001                	nop
     18a:	1500                	addi	s0,sp,672
     18c:	000000eb          	.4byte	0xeb
     190:	2300                	fld	fs0,0(a4)
     192:	017a                	slli	sp,sp,0x1e
     194:	0000                	unimp
     196:	e901                	bnez	a0,1a6 <_prog_start-0xfe5a>
     198:	6a05                	lui	s4,0x1
     19a:	0000                	unimp
     19c:	4e00                	lw	s0,24(a2)
     19e:	0102                	c.slli64	sp
     1a0:	0000                	unimp
     1a2:	0000                	unimp
     1a4:	e600                	sd	s0,8(a2)
     1a6:	00000003          	lb	zero,0(zero) # 0 <_prog_start-0x10000>
     1aa:	0000                	unimp
     1ac:	0100                	addi	s0,sp,128
     1ae:	5e9c                	lw	a5,56(a3)
     1b0:	000c                	.2byte	0xc
     1b2:	1600                	addi	s0,sp,800
     1b4:	01e9                	addi	gp,gp,26
     1b6:	0000                	unimp
     1b8:	0ee9                	addi	t4,t4,26 # ffffffffffff701a <_sp+0xffffffff7fef701a>
     1ba:	006a                	c.slli	zero,0x1a
     1bc:	0000                	unimp
     1be:	000c                	.2byte	0xc
     1c0:	0000                	unimp
     1c2:	ba16                	fsd	ft5,304(sp)
     1c4:	0001                	nop
     1c6:	e900                	sd	s0,16(a0)
     1c8:	000c5e1b          	srliw	t3,s8,0x0
     1cc:	5f00                	lw	s0,56(a4)
     1ce:	0000                	unimp
     1d0:	1700                	addi	s0,sp,928
     1d2:	0221                	addi	tp,tp,8 # 8 <_prog_start-0xfff8>
     1d4:	0000                	unimp
     1d6:	06ed                	addi	a3,a3,27
     1d8:	006a                	c.slli	zero,0x1a
     1da:	0000                	unimp
     1dc:	00b2                	slli	ra,ra,0xc
     1de:	0000                	unimp
     1e0:	6224                	ld	s1,64(a2)
     1e2:	0102                	c.slli64	sp
     1e4:	0000                	unimp
     1e6:	0000                	unimp
     1e8:	0400                	addi	s0,sp,512
     1ea:	0000                	unimp
     1ec:	0000                	unimp
     1ee:	0000                	unimp
     1f0:	dc00                	sw	s0,56(s0)
     1f2:	0001                	nop
     1f4:	1700                	addi	s0,sp,928
     1f6:	0169                	addi	sp,sp,26
     1f8:	0000                	unimp
     1fa:	10ed                	addi	ra,ra,-5
     1fc:	0000008b          	.4byte	0x8b
     200:	0112                	slli	sp,sp,0x4
     202:	0000                	unimp
     204:	0700                	addi	s0,sp,896
     206:	0d84                	addi	s1,sp,720
     208:	0000                	unimp
     20a:	0296                	slli	t0,t0,0x5
     20c:	0001                	nop
     20e:	0000                	unimp
     210:	0000                	unimp
     212:	0086                	slli	ra,ra,0x1
     214:	0000                	unimp
     216:	04f2                	slli	s1,s1,0x1c
     218:	00000243          	fmadd.s	ft4,ft0,ft0,ft0,rne
     21c:	8608                	.2byte	0x8608
     21e:	0000                	unimp
     220:	0100                	addi	s0,sp,128
     222:	0d91                	addi	s11,s11,4
     224:	0000                	unimp
     226:	0126                	slli	sp,sp,0x9
     228:	0000                	unimp
     22a:	d609                	beqz	a2,134 <_prog_start-0xfecc>
     22c:	a200000f          	.4byte	0xa200000f
     230:	0102                	c.slli64	sp
     232:	0000                	unimp
     234:	0000                	unimp
     236:	a900                	fsd	fs0,16(a0)
     238:	0000                	unimp
     23a:	5b00                	lw	s0,48(a4)
     23c:	0fe30903          	lb	s2,254(t1)
     240:	0000                	unimp
     242:	02a2                	slli	t0,t0,0x8
     244:	0001                	nop
     246:	0000                	unimp
     248:	0000                	unimp
     24a:	00a9                	addi	ra,ra,10
     24c:	0000                	unimp
     24e:	0930                	addi	a2,sp,152
     250:	000ff303          	.4byte	0xff303
     254:	3b00                	fld	fs0,48(a4)
     256:	0001                	nop
     258:	0800                	addi	s0,sp,16
     25a:	00a9                	addi	ra,ra,10
     25c:	0000                	unimp
     25e:	fd01                	bnez	a0,176 <_prog_start-0xfe8a>
     260:	5100000f          	.4byte	0x5100000f
     264:	0001                	nop
     266:	0000                	unimp
     268:	0000                	unimp
     26a:	0000                	unimp
     26c:	000d6807          	.4byte	0xd6807
     270:	c000                	sw	s0,0(s0)
     272:	0102                	c.slli64	sp
     274:	0000                	unimp
     276:	0000                	unimp
     278:	ee00                	sd	s0,24(a2)
     27a:	0000                	unimp
     27c:	f300                	sd	s0,32(a4)
     27e:	0608                	addi	a0,sp,768
     280:	08000003          	lb	zero,128(zero) # 80 <_prog_start-0xff80>
     284:	00ee                	slli	ra,ra,0x1b
     286:	0000                	unimp
     288:	7801                	lui	a6,0xfffe0
     28a:	000d                	c.nop	3
     28c:	6500                	ld	s0,8(a0)
     28e:	0001                	nop
     290:	0400                	addi	s0,sp,512
     292:	0d9c                	addi	a5,sp,720
     294:	0000                	unimp
     296:	02de                	slli	t0,t0,0x17
     298:	0001                	nop
     29a:	0000                	unimp
     29c:	0000                	unimp
     29e:	0014                	.2byte	0x14
     2a0:	0000                	unimp
     2a2:	0000                	unimp
     2a4:	0000                	unimp
     2a6:	0266                	slli	tp,tp,0x19
     2a8:	02c6                	slli	t0,t0,0x11
     2aa:	0000                	unimp
     2ac:	d605                	beqz	a2,1d4 <_prog_start-0xfe2c>
     2ae:	de00000f          	.4byte	0xde00000f
     2b2:	0102                	c.slli64	sp
     2b4:	0000                	unimp
     2b6:	0000                	unimp
     2b8:	1000                	addi	s0,sp,32
     2ba:	0000                	unimp
     2bc:	0000                	unimp
     2be:	0000                	unimp
     2c0:	5000                	lw	s0,32(s0)
     2c2:	0502                	c.slli64	a0
     2c4:	00000fe3          	beqz	zero,ae2 <_prog_start-0xf51e>
     2c8:	02de                	slli	t0,t0,0x17
     2ca:	0001                	nop
     2cc:	0000                	unimp
     2ce:	0000                	unimp
     2d0:	0010                	.2byte	0x10
     2d2:	0000                	unimp
     2d4:	0000                	unimp
     2d6:	0000                	unimp
     2d8:	0930                	addi	a2,sp,152
     2da:	000ff303          	.4byte	0xff303
     2de:	8300                	.2byte	0x8300
     2e0:	0001                	nop
     2e2:	0100                	addi	s0,sp,128
     2e4:	0ffd                	addi	t6,t6,31
     2e6:	0000                	unimp
     2e8:	0199                	addi	gp,gp,6
     2ea:	0000                	unimp
     2ec:	0000                	unimp
     2ee:	0a00                	addi	s0,sp,272
     2f0:	02d0                	addi	a2,sp,324
     2f2:	0001                	nop
     2f4:	0000                	unimp
     2f6:	0000                	unimp
     2f8:	0158                	addi	a4,sp,132
     2fa:	0000                	unimp
     2fc:	02e5                	addi	t0,t0,25
     2fe:	0000                	unimp
     300:	0102                	c.slli64	sp
     302:	095a                	slli	s2,s2,0x16
     304:	01080003          	lb	zero,16(a6) # fffffffffffe0010 <_sp+0xffffffff7fee0010>
     308:	0000                	unimp
     30a:	0000                	unimp
     30c:	0000                	unimp
     30e:	de0c                	sw	a1,56(a2)
     310:	0102                	c.slli64	sp
     312:	0000                	unimp
     314:	0000                	unimp
     316:	a400                	fsd	fs0,8(s0)
     318:	000d                	c.nop	3
     31a:	0200                	addi	s0,sp,256
     31c:	5a01                	li	s4,-32
     31e:	0802                	c.slli64	a6
     320:	0240                	addi	s0,sp,260
     322:	5b01                	li	s6,-32
     324:	3001                	.2byte	0x3001
     326:	0102                	c.slli64	sp
     328:	025c                	addi	a5,sp,260
     32a:	9509                	srai	a0,a0,0x22
     32c:	0000                	unimp
     32e:	0400                	addi	s0,sp,512
     330:	0d4c                	addi	a1,sp,660
     332:	0000                	unimp
     334:	02f8                	addi	a4,sp,332
     336:	0001                	nop
     338:	0000                	unimp
     33a:	0000                	unimp
     33c:	00a2                	slli	ra,ra,0x8
     33e:	0000                	unimp
     340:	0000                	unimp
     342:	0000                	unimp
     344:	05f4                	addi	a3,sp,716
     346:	04d9                	addi	s1,s1,22
     348:	0000                	unimp
     34a:	5c01                	li	s8,-32
     34c:	000d                	c.nop	3
     34e:	ad00                	fsd	fs0,24(a0)
     350:	0001                	nop
     352:	0700                	addi	s0,sp,896
     354:	0fd6                	slli	t6,t6,0x15
     356:	0000                	unimp
     358:	031a                	slli	t1,t1,0x6
     35a:	0001                	nop
     35c:	0000                	unimp
     35e:	0000                	unimp
     360:	0111                	addi	sp,sp,4
     362:	0000                	unimp
     364:	0270                	addi	a2,sp,268
     366:	036e                	slli	t1,t1,0x1b
     368:	0000                	unimp
     36a:	e309                	bnez	a4,36c <_prog_start-0xfc94>
     36c:	1a00000f          	.4byte	0x1a00000f
     370:	00000103          	lb	sp,0(zero) # 0 <_prog_start-0x10000>
     374:	0000                	unimp
     376:	1100                	addi	s0,sp,160
     378:	0001                	nop
     37a:	3000                	fld	fs0,32(s0)
     37c:	0309                	addi	t1,t1,2
     37e:	00000ff3          	.4byte	0xff3
     382:	01f9                	addi	gp,gp,30
     384:	0000                	unimp
     386:	1108                	addi	a0,sp,160
     388:	0001                	nop
     38a:	0100                	addi	s0,sp,128
     38c:	0ffd                	addi	t6,t6,31
     38e:	0000                	unimp
     390:	0000020f          	.4byte	0x20f
     394:	0000                	unimp
     396:	0400                	addi	s0,sp,512
     398:	0fd6                	slli	t6,t6,0x15
     39a:	0000                	unimp
     39c:	032e                	slli	t1,t1,0xb
     39e:	0001                	nop
     3a0:	0000                	unimp
     3a2:	0000                	unimp
     3a4:	0010                	.2byte	0x10
     3a6:	0000                	unimp
     3a8:	0000                	unimp
     3aa:	0000                	unimp
     3ac:	0271                	addi	tp,tp,28 # 1c <_prog_start-0xffe4>
     3ae:	03b4                	addi	a3,sp,456
     3b0:	0000                	unimp
     3b2:	e305                	bnez	a4,3d2 <_prog_start-0xfc2e>
     3b4:	2e00000f          	.4byte	0x2e00000f
     3b8:	00000103          	lb	sp,0(zero) # 0 <_prog_start-0x10000>
     3bc:	0000                	unimp
     3be:	1000                	addi	s0,sp,32
     3c0:	0000                	unimp
     3c2:	0000                	unimp
     3c4:	0000                	unimp
     3c6:	3000                	fld	fs0,32(s0)
     3c8:	0309                	addi	t1,t1,2
     3ca:	00000ff3          	.4byte	0xff3
     3ce:	00000223          	sb	zero,4(zero) # 4 <_prog_start-0xfffc>
     3d2:	fd01                	bnez	a0,2ea <_prog_start-0xfd16>
     3d4:	3900000f          	.4byte	0x3900000f
     3d8:	0002                	c.slli64	zero
     3da:	0000                	unimp
     3dc:	0400                	addi	s0,sp,512
     3de:	0fd6                	slli	t6,t6,0x15
     3e0:	0000                	unimp
     3e2:	033e                	slli	t1,t1,0xf
     3e4:	0001                	nop
     3e6:	0000                	unimp
     3e8:	0000                	unimp
     3ea:	0014                	.2byte	0x14
     3ec:	0000                	unimp
     3ee:	0000                	unimp
     3f0:	0000                	unimp
     3f2:	0a72                	slli	s4,s4,0x1c
     3f4:	03fa                	slli	t2,t2,0x1e
     3f6:	0000                	unimp
     3f8:	e305                	bnez	a4,418 <_prog_start-0xfbe8>
     3fa:	3e00000f          	.4byte	0x3e00000f
     3fe:	00000103          	lb	sp,0(zero) # 0 <_prog_start-0x10000>
     402:	0000                	unimp
     404:	1400                	addi	s0,sp,544
     406:	0000                	unimp
     408:	0000                	unimp
     40a:	0000                	unimp
     40c:	3000                	fld	fs0,32(s0)
     40e:	0309                	addi	t1,t1,2
     410:	00000ff3          	.4byte	0xff3
     414:	024d                	addi	tp,tp,19 # 13 <_prog_start-0xffed>
     416:	0000                	unimp
     418:	fd01                	bnez	a0,330 <_prog_start-0xfcd0>
     41a:	6300000f          	.4byte	0x6300000f
     41e:	0002                	c.slli64	zero
     420:	0000                	unimp
     422:	0400                	addi	s0,sp,512
     424:	0fd6                	slli	t6,t6,0x15
     426:	0000                	unimp
     428:	035c                	addi	a5,sp,388
     42a:	0001                	nop
     42c:	0000                	unimp
     42e:	0000                	unimp
     430:	0014                	.2byte	0x14
     432:	0000                	unimp
     434:	0000                	unimp
     436:	0000                	unimp
     438:	04400973          	.4byte	0x4400973
     43c:	0000                	unimp
     43e:	e305                	bnez	a4,45e <_prog_start-0xfba2>
     440:	5c00000f          	.4byte	0x5c00000f
     444:	00000103          	lb	sp,0(zero) # 0 <_prog_start-0x10000>
     448:	0000                	unimp
     44a:	1400                	addi	s0,sp,544
     44c:	0000                	unimp
     44e:	0000                	unimp
     450:	0000                	unimp
     452:	3000                	fld	fs0,32(s0)
     454:	0309                	addi	t1,t1,2
     456:	00000ff3          	.4byte	0xff3
     45a:	00000277          	.4byte	0x277
     45e:	fd01                	bnez	a0,376 <_prog_start-0xfc8a>
     460:	8d00000f          	.4byte	0x8d00000f
     464:	0002                	c.slli64	zero
     466:	0000                	unimp
     468:	0700                	addi	s0,sp,896
     46a:	0d9c                	addi	a5,sp,720
     46c:	0000                	unimp
     46e:	0382                	c.slli64	t2
     470:	0001                	nop
     472:	0000                	unimp
     474:	0000                	unimp
     476:	0134                	addi	a3,sp,136
     478:	0000                	unimp
     47a:	0274                	addi	a3,sp,268
     47c:	0498                	addi	a4,sp,576
     47e:	0000                	unimp
     480:	d609                	beqz	a2,38a <_prog_start-0xfc76>
     482:	8200000f          	.4byte	0x8200000f
     486:	00000103          	lb	sp,0(zero) # 0 <_prog_start-0x10000>
     48a:	0000                	unimp
     48c:	5700                	lw	s0,40(a4)
     48e:	0001                	nop
     490:	5000                	lw	s0,32(s0)
     492:	0902                	c.slli64	s2
     494:	00000fe3          	beqz	zero,cb2 <_prog_start-0xf34e>
     498:	0382                	c.slli64	t2
     49a:	0001                	nop
     49c:	0000                	unimp
     49e:	0000                	unimp
     4a0:	00000157          	.4byte	0x157
     4a4:	0930                	addi	a2,sp,152
     4a6:	000ff303          	.4byte	0xff303
     4aa:	a100                	fsd	fs0,0(a0)
     4ac:	0002                	c.slli64	zero
     4ae:	0800                	addi	s0,sp,16
     4b0:	00000157          	.4byte	0x157
     4b4:	fd01                	bnez	a0,3cc <_prog_start-0xfc34>
     4b6:	b700000f          	.4byte	0xb700000f
     4ba:	0002                	c.slli64	zero
     4bc:	0000                	unimp
     4be:	0000                	unimp
     4c0:	0a00                	addi	s0,sp,272
     4c2:	0304                	addi	s1,sp,384
     4c4:	0001                	nop
     4c6:	0000                	unimp
     4c8:	0000                	unimp
     4ca:	0158                	addi	a4,sp,132
     4cc:	0000                	unimp
     4ce:	000004b7          	lui	s1,0x0
     4d2:	0102                	c.slli64	sp
     4d4:	095a                	slli	s2,s2,0x16
     4d6:	01080803          	lb	a6,16(a6)
     4da:	0000                	unimp
     4dc:	0000                	unimp
     4de:	0000                	unimp
     4e0:	140c                	addi	a1,sp,544
     4e2:	00000103          	lb	sp,0(zero) # 0 <_prog_start-0x10000>
     4e6:	0000                	unimp
     4e8:	a400                	fsd	fs0,8(s0)
     4ea:	000d                	c.nop	3
     4ec:	0200                	addi	s0,sp,256
     4ee:	5a01                	li	s4,-32
     4f0:	0802                	c.slli64	a6
     4f2:	0248                	addi	a0,sp,260
     4f4:	5b01                	li	s6,-32
     4f6:	01aa0a03          	lb	s4,26(s4) # 101a <_prog_start-0xefe6>
     4fa:	0102                	c.slli64	sp
     4fc:	025c                	addi	a5,sp,260
     4fe:	8709                	srai	a4,a4,0x2
     500:	0000                	unimp
     502:	2904                	fld	fs1,16(a0)
     504:	000d                	c.nop	3
     506:	ac00                	fsd	fs0,24(s0)
     508:	00000103          	lb	sp,0(zero) # 0 <_prog_start-0x10000>
     50c:	0000                	unimp
     50e:	4600                	lw	s0,8(a2)
     510:	0000                	unimp
     512:	0000                	unimp
     514:	0000                	unimp
     516:	f500                	sd	s0,40(a0)
     518:	cd05                	beqz	a0,550 <_prog_start-0xfab0>
     51a:	0005                	c.nop	1
     51c:	0100                	addi	s0,sp,128
     51e:	0d39                	addi	s10,s10,14
     520:	0000                	unimp
     522:	000002cb          	fnmsub.s	ft5,ft0,ft0,ft0,rne
     526:	000d4407          	.4byte	0xd4407
     52a:	b800                	fsd	fs0,48(s0)
     52c:	00000103          	lb	sp,0(zero) # 0 <_prog_start-0x10000>
     530:	0000                	unimp
     532:	7a00                	ld	s0,48(a2)
     534:	0001                	nop
     536:	8500                	.2byte	0x8500
     538:	00058c03          	lb	s8,0(a1)
     53c:	0700                	addi	s0,sp,896
     53e:	0d9c                	addi	a5,sp,720
     540:	0000                	unimp
     542:	03b8                	addi	a4,sp,456
     544:	0001                	nop
     546:	0000                	unimp
     548:	0000                	unimp
     54a:	019d                	addi	gp,gp,7
     54c:	0000                	unimp
     54e:	027c                	addi	a5,sp,268
     550:	056c                	addi	a1,sp,652
     552:	0000                	unimp
     554:	d609                	beqz	a2,45e <_prog_start-0xfba2>
     556:	b800000f          	.4byte	0xb800000f
     55a:	00000103          	lb	sp,0(zero) # 0 <_prog_start-0x10000>
     55e:	0000                	unimp
     560:	c000                	sw	s0,0(s0)
     562:	0001                	nop
     564:	5000                	lw	s0,32(s0)
     566:	0902                	c.slli64	s2
     568:	00000fe3          	beqz	zero,d86 <_prog_start-0xf27a>
     56c:	03b8                	addi	a4,sp,456
     56e:	0001                	nop
     570:	0000                	unimp
     572:	0000                	unimp
     574:	01c0                	addi	s0,sp,196
     576:	0000                	unimp
     578:	0930                	addi	a2,sp,152
     57a:	000ff303          	.4byte	0xff303
     57e:	df00                	sw	s0,56(a4)
     580:	0002                	c.slli64	zero
     582:	0800                	addi	s0,sp,16
     584:	01c0                	addi	s0,sp,196
     586:	0000                	unimp
     588:	fd01                	bnez	a0,4a0 <_prog_start-0xfb60>
     58a:	f500000f          	.4byte	0xf500000f
     58e:	0002                	c.slli64	zero
     590:	0000                	unimp
     592:	0000                	unimp
     594:	0c00                	addi	s0,sp,528
     596:	03d0                	addi	a2,sp,452
     598:	0001                	nop
     59a:	0000                	unimp
     59c:	0000                	unimp
     59e:	0da4                	addi	s1,sp,728
     5a0:	0000                	unimp
     5a2:	0102                	c.slli64	sp
     5a4:	025a                	slli	tp,tp,0x16
     5a6:	7708                	ld	a0,40(a4)
     5a8:	0102                	c.slli64	sp
     5aa:	0230015b          	.4byte	0x230015b
     5ae:	5c01                	li	s8,-32
     5b0:	0802                	c.slli64	a6
     5b2:	0065                	c.nop	25
     5b4:	0a00                	addi	s0,sp,272
     5b6:	03b8                	addi	a4,sp,456
     5b8:	0001                	nop
     5ba:	0000                	unimp
     5bc:	0000                	unimp
     5be:	0158                	addi	a4,sp,132
     5c0:	0000                	unimp
     5c2:	000005ab          	.4byte	0x5ab
     5c6:	0102                	c.slli64	sp
     5c8:	095a                	slli	s2,s2,0x16
     5ca:	01081003          	lh	zero,16(a6)
     5ce:	0000                	unimp
     5d0:	0000                	unimp
     5d2:	0000                	unimp
     5d4:	ee0c                	sd	a1,24(a2)
     5d6:	00000103          	lb	sp,0(zero) # 0 <_prog_start-0x10000>
     5da:	0000                	unimp
     5dc:	a400                	fsd	fs0,8(s0)
     5de:	000d                	c.nop	3
     5e0:	0200                	addi	s0,sp,256
     5e2:	5a01                	li	s4,-32
     5e4:	0802                	c.slli64	a6
     5e6:	0269                	addi	tp,tp,26 # 1a <_prog_start-0xffe6>
     5e8:	5b01                	li	s6,-32
     5ea:	244a4003          	lbu	zero,580(s4)
     5ee:	0102                	c.slli64	sp
     5f0:	025c                	addi	a5,sp,260
     5f2:	7708                	ld	a0,40(a4)
     5f4:	0000                	unimp
     5f6:	0d04                	addi	s1,sp,656
     5f8:	000d                	c.nop	3
     5fa:	f400                	sd	s0,40(s0)
     5fc:	00000103          	lb	sp,0(zero) # 0 <_prog_start-0x10000>
     600:	0000                	unimp
     602:	8200                	.2byte	0x8200
     604:	0000                	unimp
     606:	0000                	unimp
     608:	0000                	unimp
     60a:	f600                	sd	s0,40(a2)
     60c:	a405                	j	82c <_prog_start-0xf7d4>
     60e:	01000007          	.4byte	0x1000007
     612:	0d1d                	addi	s10,s10,7
     614:	0000                	unimp
     616:	0309                	addi	t1,t1,2
     618:	0000                	unimp
     61a:	000fd607          	.4byte	0xfd607
     61e:	0e00                	addi	s0,sp,784
     620:	0104                	addi	s1,sp,128
     622:	0000                	unimp
     624:	0000                	unimp
     626:	e300                	sd	s0,0(a4)
     628:	0001                	nop
     62a:	9100                	.2byte	0x9100
     62c:	350a                	fld	fa0,160(sp)
     62e:	0006                	c.slli	zero,0x1
     630:	0900                	addi	s0,sp,144
     632:	00000fe3          	beqz	zero,e50 <_prog_start-0xf1b0>
     636:	040e                	slli	s0,s0,0x3
     638:	0001                	nop
     63a:	0000                	unimp
     63c:	0000                	unimp
     63e:	000001e3          	beqz	zero,e40 <_prog_start-0xf1c0>
     642:	0930                	addi	a2,sp,152
     644:	000ff303          	.4byte	0xff303
     648:	2200                	fld	fs0,0(a2)
     64a:	08000003          	lb	zero,128(zero) # 80 <_prog_start-0xff80>
     64e:	000001e3          	beqz	zero,e50 <_prog_start-0xf1b0>
     652:	fd01                	bnez	a0,56a <_prog_start-0xfa96>
     654:	3800000f          	.4byte	0x3800000f
     658:	00000003          	lb	zero,0(zero) # 0 <_prog_start-0x10000>
     65c:	0000                	unimp
     65e:	d604                	sw	s1,40(a2)
     660:	3200000f          	.4byte	0x3200000f
     664:	0104                	addi	s1,sp,128
     666:	0000                	unimp
     668:	0000                	unimp
     66a:	1000                	addi	s0,sp,32
     66c:	0000                	unimp
     66e:	0000                	unimp
     670:	0000                	unimp
     672:	9200                	.2byte	0x9200
     674:	7b02                	ld	s6,32(sp)
     676:	0006                	c.slli	zero,0x1
     678:	0500                	addi	s0,sp,640
     67a:	00000fe3          	beqz	zero,e98 <_prog_start-0xf168>
     67e:	0432                	slli	s0,s0,0xc
     680:	0001                	nop
     682:	0000                	unimp
     684:	0000                	unimp
     686:	0010                	.2byte	0x10
     688:	0000                	unimp
     68a:	0000                	unimp
     68c:	0000                	unimp
     68e:	0930                	addi	a2,sp,152
     690:	000ff303          	.4byte	0xff303
     694:	4c00                	lw	s0,24(s0)
     696:	01000003          	lb	zero,16(zero) # 10 <_prog_start-0xfff0>
     69a:	0ffd                	addi	t6,t6,31
     69c:	0000                	unimp
     69e:	0362                	slli	t1,t1,0x18
     6a0:	0000                	unimp
     6a2:	0000                	unimp
     6a4:	d604                	sw	s1,40(a2)
     6a6:	4200000f          	.4byte	0x4200000f
     6aa:	0104                	addi	s1,sp,128
     6ac:	0000                	unimp
     6ae:	0000                	unimp
     6b0:	1000                	addi	s0,sp,32
     6b2:	0000                	unimp
     6b4:	0000                	unimp
     6b6:	0000                	unimp
     6b8:	9300                	.2byte	0x9300
     6ba:	c102                	sw	zero,128(sp)
     6bc:	0006                	c.slli	zero,0x1
     6be:	0500                	addi	s0,sp,640
     6c0:	00000fe3          	beqz	zero,ede <_prog_start-0xf122>
     6c4:	0442                	slli	s0,s0,0x10
     6c6:	0001                	nop
     6c8:	0000                	unimp
     6ca:	0000                	unimp
     6cc:	0010                	.2byte	0x10
     6ce:	0000                	unimp
     6d0:	0000                	unimp
     6d2:	0000                	unimp
     6d4:	0930                	addi	a2,sp,152
     6d6:	000ff303          	.4byte	0xff303
     6da:	7600                	ld	s0,40(a2)
     6dc:	01000003          	lb	zero,16(zero) # 10 <_prog_start-0xfff0>
     6e0:	0ffd                	addi	t6,t6,31
     6e2:	0000                	unimp
     6e4:	038c                	addi	a1,sp,448
     6e6:	0000                	unimp
     6e8:	0000                	unimp
     6ea:	d604                	sw	s1,40(a2)
     6ec:	5200000f          	.4byte	0x5200000f
     6f0:	0104                	addi	s1,sp,128
     6f2:	0000                	unimp
     6f4:	0000                	unimp
     6f6:	1000                	addi	s0,sp,32
     6f8:	0000                	unimp
     6fa:	0000                	unimp
     6fc:	0000                	unimp
     6fe:	9400                	.2byte	0x9400
     700:	0702                	c.slli64	a4
     702:	05000007          	.4byte	0x5000007
     706:	00000fe3          	beqz	zero,f24 <_prog_start-0xf0dc>
     70a:	0452                	slli	s0,s0,0x14
     70c:	0001                	nop
     70e:	0000                	unimp
     710:	0000                	unimp
     712:	0010                	.2byte	0x10
     714:	0000                	unimp
     716:	0000                	unimp
     718:	0000                	unimp
     71a:	0930                	addi	a2,sp,152
     71c:	000ff303          	.4byte	0xff303
     720:	a000                	fsd	fs0,0(s0)
     722:	01000003          	lb	zero,16(zero) # 10 <_prog_start-0xfff0>
     726:	0ffd                	addi	t6,t6,31
     728:	0000                	unimp
     72a:	03b6                	slli	t2,t2,0xd
     72c:	0000                	unimp
     72e:	0000                	unimp
     730:	9c04                	.2byte	0x9c04
     732:	000d                	c.nop	3
     734:	6200                	ld	s0,0(a2)
     736:	0104                	addi	s1,sp,128
     738:	0000                	unimp
     73a:	0000                	unimp
     73c:	1400                	addi	s0,sp,544
     73e:	0000                	unimp
     740:	0000                	unimp
     742:	0000                	unimp
     744:	9500                	.2byte	0x9500
     746:	6502                	ld	a0,0(sp)
     748:	05000007          	.4byte	0x5000007
     74c:	0fd6                	slli	t6,t6,0x15
     74e:	0000                	unimp
     750:	0462                	slli	s0,s0,0x18
     752:	0001                	nop
     754:	0000                	unimp
     756:	0000                	unimp
     758:	0010                	.2byte	0x10
     75a:	0000                	unimp
     75c:	0000                	unimp
     75e:	0000                	unimp
     760:	0250                	addi	a2,sp,260
     762:	e305                	bnez	a4,782 <_prog_start-0xf87e>
     764:	6200000f          	.4byte	0x6200000f
     768:	0104                	addi	s1,sp,128
     76a:	0000                	unimp
     76c:	0000                	unimp
     76e:	1000                	addi	s0,sp,32
     770:	0000                	unimp
     772:	0000                	unimp
     774:	0000                	unimp
     776:	3000                	fld	fs0,32(s0)
     778:	0309                	addi	t1,t1,2
     77a:	00000ff3          	.4byte	0xff3
     77e:	03ca                	slli	t2,t2,0x12
     780:	0000                	unimp
     782:	fd01                	bnez	a0,69a <_prog_start-0xf966>
     784:	e000000f          	.4byte	0xe000000f
     788:	00000003          	lb	zero,0(zero) # 0 <_prog_start-0x10000>
     78c:	0000                	unimp
     78e:	000a                	c.slli	zero,0x2
     790:	0104                	addi	s1,sp,128
     792:	0000                	unimp
     794:	0000                	unimp
     796:	5800                	lw	s0,48(s0)
     798:	0001                	nop
     79a:	8400                	.2byte	0x8400
     79c:	02000007          	.4byte	0x2000007
     7a0:	5a01                	li	s4,-32
     7a2:	0309                	addi	t1,t1,2
     7a4:	0818                	addi	a4,sp,16
     7a6:	0001                	nop
     7a8:	0000                	unimp
     7aa:	0000                	unimp
     7ac:	0c00                	addi	s0,sp,528
     7ae:	040e                	slli	s0,s0,0x3
     7b0:	0001                	nop
     7b2:	0000                	unimp
     7b4:	0000                	unimp
     7b6:	0da4                	addi	s1,sp,728
     7b8:	0000                	unimp
     7ba:	0102                	c.slli64	sp
     7bc:	025a                	slli	tp,tp,0x16
     7be:	7a08                	ld	a0,48(a2)
     7c0:	0102                	c.slli64	sp
     7c2:	0230015b          	.4byte	0x230015b
     7c6:	5c01                	li	s8,-32
     7c8:	0902                	c.slli64	s2
     7ca:	00fd                	addi	ra,ra,31
     7cc:	0400                	addi	s0,sp,512
     7ce:	0cf1                	addi	s9,s9,28
     7d0:	0000                	unimp
     7d2:	0478                	addi	a4,sp,524
     7d4:	0001                	nop
     7d6:	0000                	unimp
     7d8:	0000                	unimp
     7da:	0030                	addi	a2,sp,8
     7dc:	0000                	unimp
     7de:	0000                	unimp
     7e0:	0000                	unimp
     7e2:	086005f7          	.4byte	0x86005f7
     7e6:	0000                	unimp
     7e8:	0101                	addi	sp,sp,0
     7ea:	000d                	c.nop	3
     7ec:	f400                	sd	s0,40(s0)
     7ee:	07000003          	lb	zero,112(zero) # 70 <_prog_start-0xff90>
     7f2:	0d9c                	addi	a5,sp,720
     7f4:	0000                	unimp
     7f6:	0492                	slli	s1,s1,0x4
     7f8:	0001                	nop
     7fa:	0000                	unimp
     7fc:	0000                	unimp
     7fe:	0206                	slli	tp,tp,0x1
     800:	0000                	unimp
     802:	029f 0820 0000      	.byte	0x9f, 0x02, 0x20, 0x08, 0x00, 0x00
     808:	d609                	beqz	a2,712 <_prog_start-0xf8ee>
     80a:	9200000f          	.4byte	0x9200000f
     80e:	0104                	addi	s1,sp,128
     810:	0000                	unimp
     812:	0000                	unimp
     814:	2900                	fld	fs0,16(a0)
     816:	0002                	c.slli64	zero
     818:	5000                	lw	s0,32(s0)
     81a:	0902                	c.slli64	s2
     81c:	00000fe3          	beqz	zero,103a <_prog_start-0xefc6>
     820:	0492                	slli	s1,s1,0x4
     822:	0001                	nop
     824:	0000                	unimp
     826:	0000                	unimp
     828:	0229                	addi	tp,tp,10 # a <_prog_start-0xfff6>
     82a:	0000                	unimp
     82c:	0930                	addi	a2,sp,152
     82e:	000ff303          	.4byte	0xff303
     832:	1200                	addi	s0,sp,288
     834:	0004                	.2byte	0x4
     836:	0800                	addi	s0,sp,16
     838:	0229                	addi	tp,tp,10 # a <_prog_start-0xfff6>
     83a:	0000                	unimp
     83c:	fd01                	bnez	a0,754 <_prog_start-0xf8ac>
     83e:	2800000f          	.4byte	0x2800000f
     842:	0004                	.2byte	0x4
     844:	0000                	unimp
     846:	0000                	unimp
     848:	0a00                	addi	s0,sp,272
     84a:	0484                	addi	s1,sp,576
     84c:	0001                	nop
     84e:	0000                	unimp
     850:	0000                	unimp
     852:	0158                	addi	a4,sp,132
     854:	0000                	unimp
     856:	0000083f 095a0102 	.8byte	0x95a01020000083f
     85e:	01082003          	lw	zero,16(a6)
     862:	0000                	unimp
     864:	0000                	unimp
     866:	0000                	unimp
     868:	920c                	.2byte	0x920c
     86a:	0104                	addi	s1,sp,128
     86c:	0000                	unimp
     86e:	0000                	unimp
     870:	a400                	fsd	fs0,8(s0)
     872:	000d                	c.nop	3
     874:	0200                	addi	s0,sp,256
     876:	5a01                	li	s4,-32
     878:	0802                	c.slli64	a6
     87a:	0250                	addi	a2,sp,260
     87c:	5b01                	li	s6,-32
     87e:	02000a03          	lb	s4,32(zero) # 20 <_prog_start-0xffe0>
     882:	0102                	c.slli64	sp
     884:	015c                	addi	a5,sp,132
     886:	0045                	c.nop	17
     888:	0700                	addi	s0,sp,896
     88a:	00000c63          	beqz	zero,8a2 <_prog_start-0xf75e>
     88e:	04ac                	addi	a1,sp,584
     890:	0001                	nop
     892:	0000                	unimp
     894:	0000                	unimp
     896:	024c                	addi	a1,sp,260
     898:	0000                	unimp
     89a:	05f8                	addi	a4,sp,716
     89c:	0be5                	addi	s7,s7,25
     89e:	0000                	unimp
     8a0:	4c08                	lw	a0,24(s0)
     8a2:	0002                	c.slli64	zero
     8a4:	0100                	addi	s0,sp,128
     8a6:	00000c73          	.4byte	0xc73
     8aa:	043c                	addi	a5,sp,520
     8ac:	0000                	unimp
     8ae:	7d01                	lui	s10,0xfffe0
     8b0:	000c                	.2byte	0xc
     8b2:	b500                	fsd	fs0,40(a0)
     8b4:	0004                	.2byte	0x4
     8b6:	0100                	addi	s0,sp,128
     8b8:	00000c87          	.4byte	0xc87
     8bc:	04de                	slli	s1,s1,0x17
     8be:	0000                	unimp
     8c0:	9218                	.2byte	0x9218
     8c2:	000c                	.2byte	0xc
     8c4:	6f00                	ld	s0,24(a4)
     8c6:	0002                	c.slli64	zero
     8c8:	2800                	fld	fs0,16(s0)
     8ca:	000a                	c.slli	zero,0x2
     8cc:	0100                	addi	s0,sp,128
     8ce:	00000c93          	li	s9,0
     8d2:	0542                	slli	a0,a0,0x10
     8d4:	0000                	unimp
     8d6:	9f01                	subw	a4,a4,s0
     8d8:	000c                	.2byte	0xc
     8da:	9000                	.2byte	0x9000
     8dc:	0005                	c.nop	1
     8de:	0100                	addi	s0,sp,128
     8e0:	00000cab          	.4byte	0xcab
     8e4:	05da                	slli	a1,a1,0x16
     8e6:	0000                	unimp
     8e8:	b518                	fsd	fa4,40(a0)
     8ea:	000c                	.2byte	0xc
     8ec:	b400                	fsd	fs0,40(s0)
     8ee:	0002                	c.slli64	zero
     8f0:	3c00                	fld	fs0,56(s0)
     8f2:	0009                	c.nop	2
     8f4:	0100                	addi	s0,sp,128
     8f6:	0cb6                	slli	s9,s9,0xd
     8f8:	0000                	unimp
     8fa:	05f1                	addi	a1,a1,28
     8fc:	0000                	unimp
     8fe:	000cc807          	.4byte	0xcc807
     902:	e800                	sd	s0,16(s0)
     904:	0104                	addi	s1,sp,128
     906:	0000                	unimp
     908:	0000                	unimp
     90a:	0a00                	addi	s0,sp,272
     90c:	cf000003          	lb	zero,-784(zero) # fffffffffffffcf0 <_sp+0xffffffff7feffcf0>
     910:	fb0a                	sd	sp,432(sp)
     912:	0008                	.2byte	0x8
     914:	0300                	addi	s0,sp,384
     916:	0ce4                	addi	s1,sp,604
     918:	0000                	unimp
     91a:	0605                	addi	a2,a2,1
     91c:	0000                	unimp
     91e:	d825                	beqz	s0,88e <_prog_start-0xf772>
     920:	000c                	.2byte	0xc
     922:	0000                	unimp
     924:	d609                	beqz	a2,82e <_prog_start-0xf7d2>
     926:	2600000f          	.4byte	0x2600000f
     92a:	0105                	addi	sp,sp,1
     92c:	0000                	unimp
     92e:	0000                	unimp
     930:	4f00                	lw	s0,24(a4)
     932:	cd000003          	lb	zero,-816(zero) # fffffffffffffcd0 <_sp+0xffffffff7feffcd0>
     936:	0910                	addi	a2,sp,144
     938:	00000fe3          	beqz	zero,1156 <_prog_start-0xeeaa>
     93c:	0526                	slli	a0,a0,0x9
     93e:	0001                	nop
     940:	0000                	unimp
     942:	0000                	unimp
     944:	0000034f          	fnmadd.s	ft6,ft0,ft0,ft0,rne
     948:	0930                	addi	a2,sp,152
     94a:	000ff303          	.4byte	0xff303
     94e:	1900                	addi	s0,sp,176
     950:	0006                	c.slli	zero,0x1
     952:	0800                	addi	s0,sp,16
     954:	0000034f          	fnmadd.s	ft6,ft0,ft0,ft0,rne
     958:	fd01                	bnez	a0,870 <_prog_start-0xf790>
     95a:	2f00000f          	.4byte	0x2f00000f
     95e:	0006                	c.slli	zero,0x1
     960:	0000                	unimp
     962:	0000                	unimp
     964:	0700                	addi	s0,sp,896
     966:	0fd6                	slli	t6,t6,0x15
     968:	0000                	unimp
     96a:	04ee                	slli	s1,s1,0x1b
     96c:	0001                	nop
     96e:	0000                	unimp
     970:	0000                	unimp
     972:	0372                	slli	t1,t1,0x1c
     974:	0000                	unimp
     976:	09800acb          	fnmsub.s	fs5,ft0,fs8,ft1,rne
     97a:	0000                	unimp
     97c:	e309                	bnez	a4,97e <_prog_start-0xf682>
     97e:	ee00000f          	.4byte	0xee00000f
     982:	0104                	addi	s1,sp,128
     984:	0000                	unimp
     986:	0000                	unimp
     988:	7200                	ld	s0,32(a2)
     98a:	30000003          	lb	zero,768(zero) # 300 <_prog_start-0xfd00>
     98e:	0309                	addi	t1,t1,2
     990:	00000ff3          	.4byte	0xff3
     994:	00000643          	fmadd.s	fa2,ft0,ft0,ft0,rne
     998:	7208                	ld	a0,32(a2)
     99a:	01000003          	lb	zero,16(zero) # 10 <_prog_start-0xfff0>
     99e:	0ffd                	addi	t6,t6,31
     9a0:	0000                	unimp
     9a2:	0659                	addi	a2,a2,22
     9a4:	0000                	unimp
     9a6:	0000                	unimp
     9a8:	0400                	addi	s0,sp,512
     9aa:	0fd6                	slli	t6,t6,0x15
     9ac:	0000                	unimp
     9ae:	0582                	c.slli64	a1
     9b0:	0001                	nop
     9b2:	0000                	unimp
     9b4:	0000                	unimp
     9b6:	000e                	c.slli	zero,0x3
     9b8:	0000                	unimp
     9ba:	0000                	unimp
     9bc:	0000                	unimp
     9be:	18d2                	slli	a7,a7,0x34
     9c0:	09c6                	slli	s3,s3,0x11
     9c2:	0000                	unimp
     9c4:	e305                	bnez	a4,9e4 <_prog_start-0xf61c>
     9c6:	8200000f          	.4byte	0x8200000f
     9ca:	0105                	addi	sp,sp,1
     9cc:	0000                	unimp
     9ce:	0000                	unimp
     9d0:	0e00                	addi	s0,sp,784
     9d2:	0000                	unimp
     9d4:	0000                	unimp
     9d6:	0000                	unimp
     9d8:	3000                	fld	fs0,32(s0)
     9da:	0309                	addi	t1,t1,2
     9dc:	00000ff3          	.4byte	0xff3
     9e0:	066d                	addi	a2,a2,27
     9e2:	0000                	unimp
     9e4:	fd01                	bnez	a0,8fc <_prog_start-0xf704>
     9e6:	8300000f          	.4byte	0x8300000f
     9ea:	0006                	c.slli	zero,0x1
     9ec:	0000                	unimp
     9ee:	0400                	addi	s0,sp,512
     9f0:	0fd6                	slli	t6,t6,0x15
     9f2:	0000                	unimp
     9f4:	059c                	addi	a5,sp,704
     9f6:	0001                	nop
     9f8:	0000                	unimp
     9fa:	0000                	unimp
     9fc:	000e                	c.slli	zero,0x3
     9fe:	0000                	unimp
     a00:	0000                	unimp
     a02:	0000                	unimp
     a04:	0a0c0ed3          	fsub.d	ft9,fs8,ft0,rne
     a08:	0000                	unimp
     a0a:	e305                	bnez	a4,a2a <_prog_start-0xf5d6>
     a0c:	9c00000f          	.4byte	0x9c00000f
     a10:	0105                	addi	sp,sp,1
     a12:	0000                	unimp
     a14:	0000                	unimp
     a16:	0e00                	addi	s0,sp,784
     a18:	0000                	unimp
     a1a:	0000                	unimp
     a1c:	0000                	unimp
     a1e:	3000                	fld	fs0,32(s0)
     a20:	0309                	addi	t1,t1,2
     a22:	00000ff3          	.4byte	0xff3
     a26:	00000697          	auipc	a3,0x0
     a2a:	fd01                	bnez	a0,942 <_prog_start-0xf6be>
     a2c:	ad00000f          	.4byte	0xad00000f
     a30:	0006                	c.slli	zero,0x1
     a32:	0000                	unimp
     a34:	0c00                	addi	s0,sp,528
     a36:	061a                	slli	a2,a2,0x6
     a38:	0001                	nop
     a3a:	0000                	unimp
     a3c:	0000                	unimp
     a3e:	0158                	addi	a4,sp,132
     a40:	0000                	unimp
     a42:	0102                	c.slli64	sp
     a44:	095a                	slli	s2,s2,0x16
     a46:	01084003          	lbu	zero,16(a6)
     a4a:	0000                	unimp
     a4c:	0000                	unimp
     a4e:	0000                	unimp
     a50:	0400                	addi	s0,sp,512
     a52:	0d9c                	addi	a5,sp,720
     a54:	0000                	unimp
     a56:	05b8                	addi	a4,sp,712
     a58:	0001                	nop
     a5a:	0000                	unimp
     a5c:	0000                	unimp
     a5e:	0018                	.2byte	0x18
     a60:	0000                	unimp
     a62:	0000                	unimp
     a64:	0000                	unimp
     a66:	02e0                	addi	s0,sp,332
     a68:	0a86                	slli	s5,s5,0x1
     a6a:	0000                	unimp
     a6c:	d605                	beqz	a2,994 <_prog_start-0xf66c>
     a6e:	b800000f          	.4byte	0xb800000f
     a72:	0105                	addi	sp,sp,1
     a74:	0000                	unimp
     a76:	0000                	unimp
     a78:	1400                	addi	s0,sp,544
     a7a:	0000                	unimp
     a7c:	0000                	unimp
     a7e:	0000                	unimp
     a80:	5000                	lw	s0,32(s0)
     a82:	0502                	c.slli64	a0
     a84:	00000fe3          	beqz	zero,12a2 <_prog_start-0xed5e>
     a88:	05b8                	addi	a4,sp,712
     a8a:	0001                	nop
     a8c:	0000                	unimp
     a8e:	0000                	unimp
     a90:	0014                	.2byte	0x14
     a92:	0000                	unimp
     a94:	0000                	unimp
     a96:	0000                	unimp
     a98:	0930                	addi	a2,sp,152
     a9a:	000ff303          	.4byte	0xff303
     a9e:	c100                	sw	s0,0(a0)
     aa0:	0006                	c.slli	zero,0x1
     aa2:	0100                	addi	s0,sp,128
     aa4:	0ffd                	addi	t6,t6,31
     aa6:	0000                	unimp
     aa8:	000006d7          	.4byte	0x6d7
     aac:	0000                	unimp
     aae:	0400                	addi	s0,sp,512
     ab0:	0d9c                	addi	a5,sp,720
     ab2:	0000                	unimp
     ab4:	05dc                	addi	a5,sp,708
     ab6:	0001                	nop
     ab8:	0000                	unimp
     aba:	0000                	unimp
     abc:	0014                	.2byte	0x14
     abe:	0000                	unimp
     ac0:	0000                	unimp
     ac2:	0000                	unimp
     ac4:	02e4                	addi	s1,sp,332
     ac6:	0ae4                	addi	s1,sp,348
     ac8:	0000                	unimp
     aca:	d605                	beqz	a2,9f2 <_prog_start-0xf60e>
     acc:	dc00000f          	.4byte	0xdc00000f
     ad0:	0105                	addi	sp,sp,1
     ad2:	0000                	unimp
     ad4:	0000                	unimp
     ad6:	1000                	addi	s0,sp,32
     ad8:	0000                	unimp
     ada:	0000                	unimp
     adc:	0000                	unimp
     ade:	5000                	lw	s0,32(s0)
     ae0:	0502                	c.slli64	a0
     ae2:	00000fe3          	beqz	zero,1300 <_prog_start-0xed00>
     ae6:	05dc                	addi	a5,sp,708
     ae8:	0001                	nop
     aea:	0000                	unimp
     aec:	0000                	unimp
     aee:	0010                	.2byte	0x10
     af0:	0000                	unimp
     af2:	0000                	unimp
     af4:	0000                	unimp
     af6:	0930                	addi	a2,sp,152
     af8:	000ff303          	.4byte	0xff303
     afc:	eb00                	sd	s0,16(a4)
     afe:	0006                	c.slli	zero,0x1
     b00:	0100                	addi	s0,sp,128
     b02:	0ffd                	addi	t6,t6,31
     b04:	0000                	unimp
     b06:	0701                	addi	a4,a4,0 # ffffffffffff9000 <_sp+0xffffffff7fef9000>
     b08:	0000                	unimp
     b0a:	0000                	unimp
     b0c:	0400                	addi	s0,sp,512
     b0e:	0d9c                	addi	a5,sp,720
     b10:	0000                	unimp
     b12:	061e                	slli	a2,a2,0x7
     b14:	0001                	nop
     b16:	0000                	unimp
     b18:	0000                	unimp
     b1a:	0014                	.2byte	0x14
     b1c:	0000                	unimp
     b1e:	0000                	unimp
     b20:	0000                	unimp
     b22:	03c2                	slli	t2,t2,0x10
     b24:	0b42                	slli	s6,s6,0x10
     b26:	0000                	unimp
     b28:	d605                	beqz	a2,a50 <_prog_start-0xf5b0>
     b2a:	1e00000f          	.4byte	0x1e00000f
     b2e:	0106                	slli	sp,sp,0x1
     b30:	0000                	unimp
     b32:	0000                	unimp
     b34:	1000                	addi	s0,sp,32
     b36:	0000                	unimp
     b38:	0000                	unimp
     b3a:	0000                	unimp
     b3c:	5000                	lw	s0,32(s0)
     b3e:	0502                	c.slli64	a0
     b40:	00000fe3          	beqz	zero,135e <_prog_start-0xeca2>
     b44:	061e                	slli	a2,a2,0x7
     b46:	0001                	nop
     b48:	0000                	unimp
     b4a:	0000                	unimp
     b4c:	0010                	.2byte	0x10
     b4e:	0000                	unimp
     b50:	0000                	unimp
     b52:	0000                	unimp
     b54:	0930                	addi	a2,sp,152
     b56:	000ff303          	.4byte	0xff303
     b5a:	1500                	addi	s0,sp,672
     b5c:	01000007          	.4byte	0x1000007
     b60:	0ffd                	addi	t6,t6,31
     b62:	0000                	unimp
     b64:	0000072b          	.4byte	0x72b
     b68:	0000                	unimp
     b6a:	0a00                	addi	s0,sp,272
     b6c:	04b8                	addi	a4,sp,584
     b6e:	0001                	nop
     b70:	0000                	unimp
     b72:	0000                	unimp
     b74:	0158                	addi	a4,sp,132
     b76:	0000                	unimp
     b78:	0b61                	addi	s6,s6,24
     b7a:	0000                	unimp
     b7c:	0102                	c.slli64	sp
     b7e:	095a                	slli	s2,s2,0x16
     b80:	01082803          	lw	a6,16(a6)
     b84:	0000                	unimp
     b86:	0000                	unimp
     b88:	0000                	unimp
     b8a:	c40a                	sw	sp,8(sp)
     b8c:	0104                	addi	s1,sp,128
     b8e:	0000                	unimp
     b90:	0000                	unimp
     b92:	4700                	lw	s0,8(a4)
     b94:	0001                	nop
     b96:	8000                	.2byte	0x8000
     b98:	0200000b          	.4byte	0x200000b
     b9c:	5a01                	li	s4,-32
     b9e:	0309                	addi	t1,t1,2
     ba0:	0830                	addi	a2,sp,24
     ba2:	0001                	nop
     ba4:	0000                	unimp
     ba6:	0000                	unimp
     ba8:	0a00                	addi	s0,sp,272
     baa:	04de                	slli	s1,s1,0x17
     bac:	0001                	nop
     bae:	0000                	unimp
     bb0:	0000                	unimp
     bb2:	0da4                	addi	s1,sp,728
     bb4:	0000                	unimp
     bb6:	0ba5                	addi	s7,s7,9
     bb8:	0000                	unimp
     bba:	0102                	c.slli64	sp
     bbc:	025a                	slli	tp,tp,0x16
     bbe:	5208                	lw	a0,32(a2)
     bc0:	0102                	c.slli64	sp
     bc2:	000a035b          	.4byte	0xa035b
     bc6:	0208                	addi	a0,sp,256
     bc8:	5c01                	li	s8,-32
     bca:	0802                	c.slli64	a6
     bcc:	0051                	c.nop	20
     bce:	dc0a                	sw	sp,56(sp)
     bd0:	0105                	addi	sp,sp,1
     bd2:	0000                	unimp
     bd4:	0000                	unimp
     bd6:	a400                	fsd	fs0,8(s0)
     bd8:	000d                	c.nop	3
     bda:	c800                	sw	s0,16(s0)
     bdc:	0200000b          	.4byte	0x200000b
     be0:	5a01                	li	s4,-32
     be2:	0802                	c.slli64	a6
     be4:	024c                	addi	a1,sp,260
     be6:	5b01                	li	s6,-32
     be8:	3001                	.2byte	0x3001
     bea:	0102                	c.slli64	sp
     bec:	025c                	addi	a5,sp,260
     bee:	0082                	c.slli64	ra
     bf0:	0c00                	addi	s0,sp,528
     bf2:	05fc                	addi	a5,sp,716
     bf4:	0001                	nop
     bf6:	0000                	unimp
     bf8:	0000                	unimp
     bfa:	0158                	addi	a4,sp,132
     bfc:	0000                	unimp
     bfe:	0102                	c.slli64	sp
     c00:	095a                	slli	s2,s2,0x16
     c02:	01085803          	lhu	a6,16(a6)
	...
     c0e:	8a0a                	mv	s4,sp
     c10:	0102                	c.slli64	sp
     c12:	0000                	unimp
     c14:	0000                	unimp
     c16:	5800                	lw	s0,48(s0)
     c18:	0001                	nop
     c1a:	0400                	addi	s0,sp,512
     c1c:	000c                	.2byte	0xc
     c1e:	0200                	addi	s0,sp,256
     c20:	5a01                	li	s4,-32
     c22:	0309                	addi	t1,t1,2
     c24:	0850                	addi	a2,sp,20
     c26:	0001                	nop
     c28:	0000                	unimp
     c2a:	0000                	unimp
     c2c:	0a00                	addi	s0,sp,272
     c2e:	0296                	slli	t0,t0,0x5
     c30:	0001                	nop
     c32:	0000                	unimp
     c34:	0000                	unimp
     c36:	0158                	addi	a4,sp,132
     c38:	0000                	unimp
     c3a:	00000c23          	sb	zero,24(zero) # 18 <_prog_start-0xffe8>
     c3e:	0102                	c.slli64	sp
     c40:	095a                	slli	s2,s2,0x16
     c42:	0107e003          	lwu	zero,16(a5)
     c46:	0000                	unimp
     c48:	0000                	unimp
     c4a:	0000                	unimp
     c4c:	a80a                	fsd	ft2,16(sp)
     c4e:	00000103          	lb	sp,0(zero) # 0 <_prog_start-0x10000>
     c52:	0000                	unimp
     c54:	5800                	lw	s0,48(s0)
     c56:	0001                	nop
     c58:	4200                	lw	s0,0(a2)
     c5a:	000c                	.2byte	0xc
     c5c:	0200                	addi	s0,sp,256
     c5e:	5a01                	li	s4,-32
     c60:	0309                	addi	t1,t1,2
     c62:	0860                	addi	s0,sp,28
     c64:	0001                	nop
     c66:	0000                	unimp
     c68:	0000                	unimp
     c6a:	0c00                	addi	s0,sp,528
     c6c:	060c                	addi	a1,sp,768
     c6e:	0001                	nop
     c70:	0000                	unimp
     c72:	0000                	unimp
     c74:	0158                	addi	a4,sp,132
     c76:	0000                	unimp
     c78:	0102                	c.slli64	sp
     c7a:	095a                	slli	s2,s2,0x16
     c7c:	01086803          	lwu	a6,16(a6)
     c80:	0000                	unimp
     c82:	0000                	unimp
     c84:	0000                	unimp
     c86:	0f00                	addi	s0,sp,912
     c88:	00da                	slli	ra,ra,0x16
     c8a:	0000                	unimp
     c8c:	a90e                	fsd	ft3,144(sp)
     c8e:	0001                	nop
     c90:	b200                	fsd	fs0,32(a2)
     c92:	6a0c                	ld	a1,16(a2)
     c94:	0000                	unimp
     c96:	0100                	addi	s0,sp,128
     c98:	00000cc3          	fmadd.s	fs9,ft0,ft0,ft0,rne
     c9c:	7006                	.2byte	0x7006
     c9e:	0100                	addi	s0,sp,128
     ca0:	14b4                	addi	a3,sp,616
     ca2:	00000cc3          	fmadd.s	fs9,ft0,ft0,ft0,rne
     ca6:	6906                	ld	s2,64(sp)
     ca8:	0100                	addi	s0,sp,128
     caa:	07b5                	addi	a5,a5,13
     cac:	0084                	addi	s1,sp,64
     cae:	0000                	unimp
     cb0:	7206                	ld	tp,96(sp)
     cb2:	b6010063          	beqz	sp,12 <_prog_start-0xffee>
     cb6:	6a06                	ld	s4,64(sp)
     cb8:	0000                	unimp
     cba:	1900                	addi	s0,sp,176
     cbc:	6306                	ld	t1,64(sp)
     cbe:	6372                	ld	t1,280(sp)
     cc0:	0100                	addi	s0,sp,128
     cc2:	0cc6                	slli	s9,s9,0x11
     cc4:	000000a3          	sb	zero,1(zero) # 1 <_prog_start-0xffff>
     cc8:	6126                	ld	sp,72(sp)
     cca:	0001                	nop
     ccc:	0100                	addi	s0,sp,128
     cce:	11c6                	slli	gp,gp,0x31
     cd0:	000000a3          	sb	zero,1(zero) # 1 <_prog_start-0xffff>
     cd4:	6e06                	ld	t3,64(sp)
     cd6:	0100                	addi	s0,sp,128
     cd8:	008408c7          	fmsub.s	fa7,fs0,fs0,ft0,rne
     cdc:	0000                	unimp
     cde:	0619                	addi	a2,a2,6
     ce0:	0078                	addi	a4,sp,12
     ce2:	cd01                	beqz	a0,cfa <_prog_start-0xf306>
     ce4:	920c                	.2byte	0x920c
     ce6:	0000                	unimp
     ce8:	0000                	unimp
     cea:	0000                	unimp
     cec:	00009e0f          	.4byte	0x9e0f
     cf0:	0e00                	addi	s0,sp,784
     cf2:	01ae                	slli	gp,gp,0xb
     cf4:	0000                	unimp
     cf6:	00a311a3          	sh	a0,3(t1)
     cfa:	0000                	unimp
     cfc:	f101                	bnez	a0,bfc <_prog_start-0xf404>
     cfe:	000c                	.2byte	0xc
     d00:	1100                	addi	s0,sp,160
     d02:	00637263          	bgeu	t1,t1,d06 <_prog_start-0xf2fa>
     d06:	a301                	j	1206 <_prog_start-0xedfa>
     d08:	a326                	fsd	fs1,384(sp)
     d0a:	0000                	unimp
     d0c:	2700                	fld	fs0,8(a4)
     d0e:	0129                	addi	sp,sp,10
     d10:	0000                	unimp
     d12:	a301                	j	1212 <_prog_start-0xedee>
     d14:	00009233          	sll	tp,ra,zero
     d18:	0000                	unimp
     d1a:	180e                	slli	a6,a6,0x23
     d1c:	0002                	c.slli64	zero
     d1e:	9a00                	.2byte	0x9a00
     d20:	6a0c                	ld	a1,16(a2)
     d22:	0000                	unimp
     d24:	0100                	addi	s0,sp,128
     d26:	0d0d                	addi	s10,s10,3 # fffffffffffe0003 <_sp+0xffffffff7fee0003>
     d28:	0000                	unimp
     d2a:	7206                	ld	tp,96(sp)
     d2c:	9c010063          	beqz	sp,fffffffffffffeec <_sp+0xffffffff7feffeec>
     d30:	6a06                	ld	s4,64(sp)
     d32:	0000                	unimp
     d34:	0000                	unimp
     d36:	450e                	lw	a0,192(sp)
     d38:	0001                	nop
     d3a:	8c00                	.2byte	0x8c00
     d3c:	6a0c                	ld	a1,16(a2)
     d3e:	0000                	unimp
     d40:	0100                	addi	s0,sp,128
     d42:	0d29                	addi	s10,s10,10
     d44:	0000                	unimp
     d46:	7206                	ld	tp,96(sp)
     d48:	8e010063          	beqz	sp,fffffffffffffe28 <_sp+0xffffffff7feffe28>
     d4c:	6a06                	ld	s4,64(sp)
     d4e:	0000                	unimp
     d50:	0000                	unimp
     d52:	1f0e                	slli	t5,t5,0x23
     d54:	0001                	nop
     d56:	8000                	.2byte	0x8000
     d58:	6a0c                	ld	a1,16(a2)
     d5a:	0000                	unimp
     d5c:	0100                	addi	s0,sp,128
     d5e:	0d44                	addi	s1,sp,660
     d60:	0000                	unimp
     d62:	7206                	ld	tp,96(sp)
     d64:	0100                	addi	s0,sp,128
     d66:	0a82                	c.slli64	s5
     d68:	0092                	slli	ra,ra,0x4
     d6a:	0000                	unimp
     d6c:	1a00                	addi	s0,sp,304
     d6e:	012e                	slli	sp,sp,0xb
     d70:	0000                	unimp
     d72:	0d79                	addi	s10,s10,30
     d74:	0e01                	addi	t3,t3,0 # 1a000 <dtb+0x9738>
     d76:	010e                	slli	sp,sp,0x3
     d78:	0000                	unimp
     d7a:	006a0c6b          	.4byte	0x6a0c6b
     d7e:	0000                	unimp
     d80:	6801                	.2byte	0x6801
     d82:	000d                	c.nop	3
     d84:	0600                	addi	s0,sp,768
     d86:	6372                	ld	t1,280(sp)
     d88:	0100                	addi	s0,sp,128
     d8a:	066d                	addi	a2,a2,27
     d8c:	006a                	c.slli	zero,0x1a
     d8e:	0000                	unimp
     d90:	0e00                	addi	s0,sp,784
     d92:	00fc                	addi	a5,sp,76
     d94:	0000                	unimp
     d96:	0c61                	addi	s8,s8,24 # 19018 <dtb+0x8750>
     d98:	006a                	c.slli	zero,0x1a
     d9a:	0000                	unimp
     d9c:	8401                	c.srai64	s0
     d9e:	000d                	c.nop	3
     da0:	0600                	addi	s0,sp,768
     da2:	6372                	ld	t1,280(sp)
     da4:	0100                	addi	s0,sp,128
     da6:	006a0663          	beq	s4,t1,db2 <_prog_start-0xf24e>
     daa:	0000                	unimp
     dac:	2800                	fld	fs0,16(s0)
     dae:	00000187          	.4byte	0x187
     db2:	5501                	li	a0,-32
     db4:	010d                	addi	sp,sp,3
     db6:	0d9c                	addi	a5,sp,720
     db8:	0000                	unimp
     dba:	6906                	ld	s2,64(sp)
     dbc:	0100                	addi	s0,sp,128
     dbe:	00840757          	.4byte	0x840757
     dc2:	0000                	unimp
     dc4:	1a00                	addi	s0,sp,304
     dc6:	01ee                	slli	gp,gp,0x1b
     dc8:	0000                	unimp
     dca:	144e                	slli	s0,s0,0x33
     dcc:	01bf2903          	lw	s2,27(t5)
     dd0:	0000                	unimp
     dd2:	3301                	addiw	t1,t1,-32
     dd4:	9210                	.2byte	0x9210
     dd6:	0000                	unimp
     dd8:	8c00                	.2byte	0x8c00
     dda:	0101                	addi	sp,sp,0
     ddc:	0000                	unimp
     dde:	0000                	unimp
     de0:	c200                	sw	s0,0(a2)
     de2:	0000                	unimp
     de4:	0000                	unimp
     de6:	0000                	unimp
     de8:	0100                	addi	s0,sp,128
     dea:	d69c                	sw	a5,40(a3)
     dec:	1200000f          	.4byte	0x1200000f
     df0:	00646d63          	bltu	s0,t1,e0a <_prog_start-0xf1f6>
     df4:	921f 0000 3f00      	.byte	0x1f, 0x92, 0x00, 0x00, 0x00, 0x3f
     dfa:	12000007          	.4byte	0x12000007
     dfe:	7261                	lui	tp,0xffff8
     e00:	bb2d0067          	jr	-1102(s10)
     e04:	0000                	unimp
     e06:	6900                	ld	s0,16(a0)
     e08:	12000007          	.4byte	0x12000007
     e0c:	00637263          	bgeu	t1,t1,e10 <_prog_start-0xf1f0>
     e10:	923a                	add	tp,tp,a4
     e12:	0000                	unimp
     e14:	9300                	.2byte	0x9300
     e16:	06000007          	.4byte	0x6000007
     e1a:	006e                	c.slli	zero,0x1b
     e1c:	3501                	addiw	a0,a0,-32 # 6fe0 <_prog_start-0x9020>
     e1e:	8b10                	.2byte	0x8b10
     e20:	0000                	unimp
     e22:	2a00                	fld	fs0,16(a2)
     e24:	0072                	c.slli	zero,0x1c
     e26:	3601                	addiw	a2,a2,-32
     e28:	920a                	add	tp,tp,sp
     e2a:	0000                	unimp
     e2c:	bd00                	fsd	fs0,56(a0)
     e2e:	2b000007          	.4byte	0x2b000007
     e32:	0229                	addi	tp,tp,10 # ffffffffffff800a <_sp+0xffffffff7fef800a>
     e34:	0000                	unimp
     e36:	4a01                	li	s4,0
     e38:	4201                	li	tp,0
     e3a:	0102                	c.slli64	sp
     e3c:	0000                	unimp
     e3e:	0000                	unimp
     e40:	0400                	addi	s0,sp,512
     e42:	0fd6                	slli	t6,t6,0x15
     e44:	0000                	unimp
     e46:	019a                	slli	gp,gp,0x6
     e48:	0001                	nop
     e4a:	0000                	unimp
     e4c:	0000                	unimp
     e4e:	0010                	.2byte	0x10
     e50:	0000                	unimp
     e52:	0000                	unimp
     e54:	0000                	unimp
     e56:	0239                	addi	tp,tp,14 # e <_prog_start-0xfff2>
     e58:	0e5e                	slli	t3,t3,0x17
     e5a:	0000                	unimp
     e5c:	e305                	bnez	a4,e7c <_prog_start-0xf184>
     e5e:	9a00000f          	.4byte	0x9a00000f
     e62:	0101                	addi	sp,sp,0
     e64:	0000                	unimp
     e66:	0000                	unimp
     e68:	1000                	addi	s0,sp,32
     e6a:	0000                	unimp
     e6c:	0000                	unimp
     e6e:	0000                	unimp
     e70:	3000                	fld	fs0,32(s0)
     e72:	0309                	addi	t1,t1,2
     e74:	00000ff3          	.4byte	0xff3
     e78:	07e4                	addi	s1,sp,972
     e7a:	0000                	unimp
     e7c:	fd01                	bnez	a0,d94 <_prog_start-0xf26c>
     e7e:	fa00000f          	.4byte	0xfa00000f
     e82:	00000007          	.4byte	0x7
     e86:	0400                	addi	s0,sp,512
     e88:	00000fe3          	beqz	zero,16a6 <_prog_start-0xe95a>
     e8c:	01aa                	slli	gp,gp,0xa
     e8e:	0001                	nop
     e90:	0000                	unimp
     e92:	0000                	unimp
     e94:	000e                	c.slli	zero,0x3
     e96:	0000                	unimp
     e98:	0000                	unimp
     e9a:	0000                	unimp
     e9c:	023a                	slli	tp,tp,0xe
     e9e:	0e8c                	addi	a1,sp,848
     ea0:	0000                	unimp
     ea2:	000ff303          	.4byte	0xff303
     ea6:	0e00                	addi	s0,sp,784
     ea8:	0008                	.2byte	0x8
     eaa:	0100                	addi	s0,sp,128
     eac:	0ffd                	addi	t6,t6,31
     eae:	0000                	unimp
     eb0:	0838                	addi	a4,sp,24
     eb2:	0000                	unimp
     eb4:	0400                	addi	s0,sp,512
     eb6:	00000fe3          	beqz	zero,16d4 <_prog_start-0xe92c>
     eba:	01bc                	addi	a5,sp,200
     ebc:	0001                	nop
     ebe:	0000                	unimp
     ec0:	0000                	unimp
     ec2:	000c                	.2byte	0xc
     ec4:	0000                	unimp
     ec6:	0000                	unimp
     ec8:	0000                	unimp
     eca:	0eba023b          	.4byte	0xeba023b
     ece:	0000                	unimp
     ed0:	000ff303          	.4byte	0xff303
     ed4:	4c00                	lw	s0,24(s0)
     ed6:	0008                	.2byte	0x8
     ed8:	0100                	addi	s0,sp,128
     eda:	0ffd                	addi	t6,t6,31
     edc:	0000                	unimp
     ede:	0875                	addi	a6,a6,29
     ee0:	0000                	unimp
     ee2:	0400                	addi	s0,sp,512
     ee4:	00000fe3          	beqz	zero,1702 <_prog_start-0xe8fe>
     ee8:	01c8                	addi	a0,sp,196
     eea:	0001                	nop
     eec:	0000                	unimp
     eee:	0000                	unimp
     ef0:	000e                	c.slli	zero,0x3
     ef2:	0000                	unimp
     ef4:	0000                	unimp
     ef6:	0000                	unimp
     ef8:	023c                	addi	a5,sp,264
     efa:	0ee8                	addi	a0,sp,860
     efc:	0000                	unimp
     efe:	000ff303          	.4byte	0xff303
     f02:	8900                	.2byte	0x8900
     f04:	0008                	.2byte	0x8
     f06:	0100                	addi	s0,sp,128
     f08:	0ffd                	addi	t6,t6,31
     f0a:	0000                	unimp
     f0c:	08a1                	addi	a7,a7,8
     f0e:	0000                	unimp
     f10:	0700                	addi	s0,sp,896
     f12:	00000fe3          	beqz	zero,1730 <_prog_start-0xe8d0>
     f16:	01d6                	slli	gp,gp,0x15
     f18:	0001                	nop
     f1a:	0000                	unimp
     f1c:	0000                	unimp
     f1e:	000c                	.2byte	0xc
     f20:	0000                	unimp
     f22:	023d                	addi	tp,tp,15 # f <_prog_start-0xfff1>
     f24:	0f18                	addi	a4,sp,912
     f26:	0000                	unimp
     f28:	000ff303          	.4byte	0xff303
     f2c:	b500                	fsd	fs0,40(a0)
     f2e:	0008                	.2byte	0x8
     f30:	0800                	addi	s0,sp,16
     f32:	000c                	.2byte	0xc
     f34:	0000                	unimp
     f36:	fd01                	bnez	a0,e4e <_prog_start-0xf1b2>
     f38:	cd00000f          	.4byte	0xcd00000f
     f3c:	0008                	.2byte	0x8
     f3e:	0000                	unimp
     f40:	0400                	addi	s0,sp,512
     f42:	00000fe3          	beqz	zero,1760 <_prog_start-0xe8a0>
     f46:	01ea                	slli	gp,gp,0x1a
     f48:	0001                	nop
     f4a:	0000                	unimp
     f4c:	0000                	unimp
     f4e:	0010                	.2byte	0x10
     f50:	0000                	unimp
     f52:	0000                	unimp
     f54:	0000                	unimp
     f56:	023e                	slli	tp,tp,0xf
     f58:	0f46                	slli	t5,t5,0x11
     f5a:	0000                	unimp
     f5c:	000ff303          	.4byte	0xff303
     f60:	e100                	sd	s0,0(a0)
     f62:	0008                	.2byte	0x8
     f64:	0100                	addi	s0,sp,128
     f66:	0ffd                	addi	t6,t6,31
     f68:	0000                	unimp
     f6a:	08f5                	addi	a7,a7,29
     f6c:	0000                	unimp
     f6e:	0700                	addi	s0,sp,896
     f70:	00000fe3          	beqz	zero,178e <_prog_start-0xe872>
     f74:	01fa                	slli	gp,gp,0x1e
     f76:	0001                	nop
     f78:	0000                	unimp
     f7a:	0000                	unimp
     f7c:	0000002f          	.4byte	0x2f
     f80:	0f76023f f3030000 	.8byte	0xf30300000f76023f
     f88:	0900000f          	fence	iw,unknown
     f8c:	0009                	c.nop	2
     f8e:	0800                	addi	s0,sp,16
     f90:	0000002f          	.4byte	0x2f
     f94:	fd01                	bnez	a0,eac <_prog_start-0xf154>
     f96:	1d00000f          	.4byte	0x1d00000f
     f9a:	0009                	c.nop	2
     f9c:	0000                	unimp
     f9e:	0700                	addi	s0,sp,896
     fa0:	0fd6                	slli	t6,t6,0x15
     fa2:	0000                	unimp
     fa4:	020a                	slli	tp,tp,0x2
     fa6:	0001                	nop
     fa8:	0000                	unimp
     faa:	0000                	unimp
     fac:	0052                	c.slli	zero,0x14
     fae:	0000                	unimp
     fb0:	0fba0743          	.4byte	0xfba0743
     fb4:	0000                	unimp
     fb6:	e309                	bnez	a4,fb8 <_prog_start-0xf048>
     fb8:	0a00000f          	fence	ir,unknown
     fbc:	0102                	c.slli64	sp
     fbe:	0000                	unimp
     fc0:	0000                	unimp
     fc2:	5200                	lw	s0,32(a2)
     fc4:	0000                	unimp
     fc6:	3000                	fld	fs0,32(s0)
     fc8:	0309                	addi	t1,t1,2
     fca:	00000ff3          	.4byte	0xff3
     fce:	0931                	addi	s2,s2,12
     fd0:	0000                	unimp
     fd2:	5208                	lw	a0,32(a2)
     fd4:	0000                	unimp
     fd6:	0100                	addi	s0,sp,128
     fd8:	0ffd                	addi	t6,t6,31
     fda:	0000                	unimp
     fdc:	00000947          	fmsub.s	fs2,ft0,ft0,ft0,rne
     fe0:	0000                	unimp
     fe2:	0c00                	addi	s0,sp,528
     fe4:	0242                	slli	tp,tp,0x10
     fe6:	0001                	nop
     fe8:	0000                	unimp
     fea:	0000                	unimp
     fec:	0158                	addi	a4,sp,132
     fee:	0000                	unimp
     ff0:	0102                	c.slli64	sp
     ff2:	095a                	slli	s2,s2,0x16
     ff4:	0107d003          	lhu	zero,16(a5)
     ff8:	0000                	unimp
     ffa:	0000                	unimp
     ffc:	0000                	unimp
     ffe:	2c00                	fld	fs0,24(s0)
    1000:	0116                	slli	sp,sp,0x5
    1002:	0000                	unimp
    1004:	2e01                	sext.w	t3,t3
    1006:	00009217          	auipc	tp,0x9
    100a:	0300                	addi	s0,sp,384
    100c:	7b0e                	ld	s6,224(sp)
    100e:	0000                	unimp
    1010:	2300                	fld	fs0,0(a4)
    1012:	00009217          	auipc	tp,0x9
    1016:	0300                	addi	s0,sp,384
    1018:	1008                	addi	a0,sp,32
    101a:	0000                	unimp
    101c:	6411                	lui	s0,0x4
    101e:	0100                	addi	s0,sp,128
    1020:	00922823          	sw	s1,16(tp) # a022 <_prog_start-0x5fde>
    1024:	0000                	unimp
    1026:	7206                	ld	tp,96(sp)
    1028:	0100                	addi	s0,sp,128
    102a:	0a25                	addi	s4,s4,9
    102c:	000000af          	.4byte	0xaf
    1030:	2d00                	fld	fs0,24(a0)
    1032:	0212                	slli	tp,tp,0x4
    1034:	0000                	unimp
    1036:	1504                	addi	s1,sp,672
    1038:	0314                	addi	a3,sp,384
    103a:	6311                	lui	t1,0x4
    103c:	0400                	addi	s0,sp,512
    103e:	1f15                	addi	t5,t5,-27
    1040:	00df 0000 7406      	.byte	0xdf, 0x00, 0x00, 0x00, 0x06, 0x74
    1046:	0078                	addi	a4,sp,12
    1048:	1704                	addi	s1,sp,928
    104a:	0715                	addi	a4,a4,5
    104c:	0001                	nop
    104e:	0600                	addi	s0,sp,768
    1050:	0072                	c.slli	zero,0x1c
    1052:	1904                	addi	s1,sp,176
    1054:	af0a                	fsd	ft2,408(sp)
    1056:	0000                	unimp
    1058:	0000                	unimp
    105a:	a400                	fsd	fs0,8(s0)
    105c:	05000003          	lb	zero,80(zero) # 50 <_prog_start-0xffb0>
    1060:	0100                	addi	s0,sp,128
    1062:	9b08                	.2byte	0x9b08
    1064:	0002                	c.slli64	zero
    1066:	1400                	addi	s0,sp,544
    1068:	0084                	addi	s1,sp,64
    106a:	0000                	unimp
    106c:	651d                	lui	a0,0x7
    106e:	0001                	nop
    1070:	0000                	unimp
    1072:	0000                	unimp
    1074:	3400                	fld	fs0,40(s0)
    1076:	0106                	slli	sp,sp,0x1
    1078:	0000                	unimp
    107a:	0000                	unimp
    107c:	5800                	lw	s0,48(s0)
    107e:	0001                	nop
    1080:	0000                	unimp
    1082:	0000                	unimp
    1084:	2900                	fld	fs0,16(a0)
    1086:	0012                	c.slli	zero,0x4
    1088:	0300                	addi	s0,sp,384
    108a:	0250                	addi	a2,sp,260
    108c:	0000                	unimp
    108e:	3a1b2803          	lw	a6,929(s6)
    1092:	0000                	unimp
    1094:	1500                	addi	s0,sp,672
    1096:	3608                	fld	fa0,40(a2)
    1098:	0002                	c.slli64	zero
    109a:	0300                	addi	s0,sp,384
    109c:	00000257          	.4byte	0x257
    10a0:	2e186303          	lwu	t1,737(a6)
    10a4:	0000                	unimp
    10a6:	0100                	addi	s0,sp,128
    10a8:	0601                	addi	a2,a2,0
    10aa:	0139                	addi	sp,sp,14
    10ac:	0000                	unimp
    10ae:	0101                	addi	sp,sp,0
    10b0:	3708                	fld	fa0,40(a4)
    10b2:	0001                	nop
    10b4:	0100                	addi	s0,sp,128
    10b6:	0502                	c.slli64	a0
    10b8:	01d4                	addi	a3,sp,196
    10ba:	0000                	unimp
    10bc:	0201                	addi	tp,tp,0 # 0 <_prog_start-0x10000>
    10be:	00014e07          	.4byte	0x14e07
    10c2:	0300                	addi	s0,sp,384
    10c4:	0104                	addi	s1,sp,128
    10c6:	0000                	unimp
    10c8:	4d04                	lw	s1,24(a0)
    10ca:	7418                	ld	a4,40(s0)
    10cc:	0000                	unimp
    10ce:	1600                	addi	s0,sp,800
    10d0:	0504                	addi	s1,sp,640
    10d2:	6e69                	lui	t3,0x1a
    10d4:	0074                	addi	a3,sp,12
    10d6:	00016f03          	lwu	t5,0(sp)
    10da:	0400                	addi	s0,sp,512
    10dc:	0087194f          	fnmadd.s	fs2,fa4,fs0,ft0,rtz
    10e0:	0000                	unimp
    10e2:	0401                	addi	s0,s0,0 # 4000 <_prog_start-0xc000>
    10e4:	00019c07          	.4byte	0x19c07
    10e8:	0100                	addi	s0,sp,128
    10ea:	0508                	addi	a0,sp,640
    10ec:	000001cb          	fnmsub.s	ft3,ft0,ft0,ft0,rne
    10f0:	0801                	addi	a6,a6,0
    10f2:	00019707          	.4byte	0x19707
    10f6:	0300                	addi	s0,sp,384
    10f8:	0106                	slli	sp,sp,0x1
    10fa:	0000                	unimp
    10fc:	2c05                	addiw	s8,s8,1
    10fe:	00006813          	ori	a6,zero,0
    1102:	0300                	addi	s0,sp,384
    1104:	0171                	addi	sp,sp,28
    1106:	0000                	unimp
    1108:	3005                	.2byte	0x3005
    110a:	7b14                	ld	a3,48(a4)
    110c:	0000                	unimp
    110e:	1700                	addi	s0,sp,928
    1110:	00a8                	addi	a0,sp,72
    1112:	0000                	unimp
    1114:	f918                	sd	a4,48(a0)
    1116:	0001                	nop
    1118:	0200                	addi	s0,sp,256
    111a:	00ce2213          	slti	tp,t3,12
    111e:	0000                	unimp
    1120:	0000                	unimp
    1122:	6400                	ld	s0,8(s0)
    1124:	b40c                	fsd	fa1,40(s0)
    1126:	0000                	unimp
    1128:	0d00                	addi	s0,sp,656
    112a:	00c9                	addi	ra,ra,18
    112c:	0000                	unimp
    112e:	fe0e                	sd	gp,312(sp)
    1130:	0001                	nop
    1132:	1600                	addi	s0,sp,800
    1134:	0672                	slli	a2,a2,0x1c
    1136:	0001                	nop
    1138:	0000                	unimp
    113a:	0000                	unimp
    113c:	011a                	slli	sp,sp,0x6
    113e:	0000                	unimp
    1140:	0000                	unimp
    1142:	0000                	unimp
    1144:	9c01                	subw	s0,s0,s0
    1146:	0000026b          	.4byte	0x26b
    114a:	746d660f          	.4byte	0x746d660f
    114e:	1600                	addi	s0,sp,800
    1150:	6b1a                	ld	s6,384(sp)
    1152:	0002                	c.slli64	zero
    1154:	6700                	ld	s0,8(a4)
    1156:	0009                	c.nop	2
    1158:	1900                	addi	s0,sp,176
    115a:	761a                	ld	a2,416(sp)
    115c:	006c                	addi	a1,sp,12
    115e:	1801                	addi	a6,a6,-32
    1160:	400a                	.2byte	0x400a
    1162:	0000                	unimp
    1164:	0300                	addi	s0,sp,384
    1166:	b891                	j	9ba <_prog_start-0xf646>
    1168:	087f                	.2byte	0x87f
    116a:	025f 0000 7c07      	.byte	0x5f, 0x02, 0x00, 0x00, 0x07, 0x7c
    1170:	0002                	c.slli64	zero
    1172:	b600                	fsd	fs0,40(a2)
    1174:	0009                	c.nop	2
    1176:	0800                	addi	s0,sp,16
    1178:	0248                	addi	a0,sp,260
    117a:	0000                	unimp
    117c:	7c12                	ld	s8,288(sp)
    117e:	0002                	c.slli64	zero
    1180:	3e00                	fld	fs0,56(a2)
    1182:	000a                	c.slli	zero,0x2
    1184:	0800                	addi	s0,sp,16
    1186:	022e                	slli	tp,tp,0xb
    1188:	0000                	unimp
    118a:	00027c1b          	.4byte	0x27c1b
    118e:	b200                	fsd	fs0,32(a2)
    1190:	000a                	c.slli	zero,0x2
    1192:	0700                	addi	s0,sp,896
    1194:	071a0063          	beq	s4,a7,11f4 <_prog_start-0xee0c>
    1198:	0270                	addi	a2,sp,268
    119a:	0000                	unimp
    119c:	0b26                	slli	s6,s6,0x9
    119e:	0000                	unimp
    11a0:	00043d1b          	.4byte	0x43d1b
    11a4:	a900                	fsd	fs0,16(a0)
    11a6:	0001                	nop
    11a8:	0700                	addi	s0,sp,896
    11aa:	006e                	c.slli	zero,0x1b
    11ac:	132a                	slli	t1,t1,0x2a
    11ae:	0095                	addi	ra,ra,5
    11b0:	0000                	unimp
    11b2:	0b60                	addi	s0,sp,412
    11b4:	0000                	unimp
    11b6:	2b006907          	.4byte	0x2b006907
    11ba:	8e0a                	mv	t3,sp
    11bc:	0000                	unimp
    11be:	9a00                	.2byte	0x9a00
    11c0:	0600000b          	.4byte	0x600000b
    11c4:	0460                	addi	s0,sp,524
    11c6:	0000                	unimp
    11c8:	34006407          	.4byte	0x34006407
    11cc:	00008e0b          	.4byte	0x8e0b
    11d0:	c300                	sw	s0,0(a4)
    11d2:	1000000b          	.4byte	0x1000000b
    11d6:	037e                	slli	t1,t1,0x1f
    11d8:	0000                	unimp
    11da:	0704                	addi	s1,sp,896
    11dc:	0001                	nop
    11de:	0000                	unimp
    11e0:	0000                	unimp
    11e2:	00000483          	lb	s1,0(zero) # 0 <_prog_start-0x10000>
    11e6:	0636                	slli	a2,a2,0xd
    11e8:	8704                	.2byte	0x8704
    11ea:	06000003          	lb	zero,96(zero) # 60 <_prog_start-0xffa0>
    11ee:	00000483          	lb	s1,0(zero) # 0 <_prog_start-0x10000>
    11f2:	9105                	srli	a0,a0,0x21
    11f4:	02000003          	lb	zero,32(zero) # 20 <_prog_start-0xffe0>
    11f8:	039c                	addi	a5,sp,448
    11fa:	0000                	unimp
    11fc:	00000bd7          	.4byte	0xbd7
    1200:	0000                	unimp
    1202:	0000                	unimp
    1204:	7e11                	lui	t3,0xfffe4
    1206:	9c000003          	lb	zero,-1600(zero) # fffffffffffff9c0 <_sp+0xffffffff7feff9c0>
    120a:	0106                	slli	sp,sp,0x1
    120c:	0000                	unimp
    120e:	0000                	unimp
    1210:	e600                	sd	s0,8(a2)
    1212:	47000003          	lb	zero,1136(zero) # 470 <_prog_start-0xfb90>
    1216:	da04                	sw	s1,48(a2)
    1218:	0001                	nop
    121a:	0400                	addi	s0,sp,512
    121c:	00000387          	.4byte	0x387
    1220:	e606                	sd	ra,264(sp)
    1222:	05000003          	lb	zero,80(zero) # 50 <_prog_start-0xffb0>
    1226:	0391                	addi	t2,t2,4
    1228:	0000                	unimp
    122a:	9c02                	jalr	s8
    122c:	eb000003          	lb	zero,-336(zero) # fffffffffffffeb0 <_sp+0xffffffff7feffeb0>
    1230:	0000000b          	.4byte	0xb
    1234:	1100                	addi	s0,sp,160
    1236:	037e                	slli	t1,t1,0x1f
    1238:	0000                	unimp
    123a:	06c6                	slli	a3,a3,0x11
    123c:	0001                	nop
    123e:	0000                	unimp
    1240:	0000                	unimp
    1242:	0409                	addi	s0,s0,2
    1244:	0000                	unimp
    1246:	053e                	slli	a0,a0,0xf
    1248:	00000213          	li	tp,0
    124c:	8709                	srai	a4,a4,0x2
    124e:	12000003          	lb	zero,288(zero) # 120 <_prog_start-0xfee0>
    1252:	000c                	.2byte	0xc
    1254:	0600                	addi	s0,sp,768
    1256:	0409                	addi	s0,s0,2
    1258:	0000                	unimp
    125a:	9102                	jalr	sp
    125c:	26000003          	lb	zero,608(zero) # 260 <_prog_start-0xfda0>
    1260:	000c                	.2byte	0xc
    1262:	0200                	addi	s0,sp,256
    1264:	039c                	addi	a5,sp,448
    1266:	0000                	unimp
    1268:	0c3d                	addi	s8,s8,15
    126a:	0000                	unimp
    126c:	0000                	unimp
    126e:	5c10                	lw	a2,56(s0)
    1270:	34000003          	lb	zero,832(zero) # 340 <_prog_start-0xfcc0>
    1274:	00000107          	.4byte	0x107
    1278:	0000                	unimp
    127a:	a600                	fsd	fs0,8(a2)
    127c:	0004                	.2byte	0x4
    127e:	3b00                	fld	fs0,48(a4)
    1280:	0905                	addi	s2,s2,1
    1282:	0369                	addi	t1,t1,26 # 401a <_prog_start-0xbfe6>
    1284:	0000                	unimp
    1286:	0c51                	addi	s8,s8,20
    1288:	0000                	unimp
    128a:	a606                	fsd	ft1,264(sp)
    128c:	0004                	.2byte	0x4
    128e:	0200                	addi	s0,sp,256
    1290:	00000373          	.4byte	0x373
    1294:	0c65                	addi	s8,s8,25
    1296:	0000                	unimp
    1298:	7e0a                	ld	t3,160(sp)
    129a:	3e000003          	lb	zero,992(zero) # 3e0 <_prog_start-0xfc20>
    129e:	00000107          	.4byte	0x107
    12a2:	0000                	unimp
    12a4:	0e00                	addi	s0,sp,784
    12a6:	0000                	unimp
    12a8:	0000                	unimp
    12aa:	0000                	unimp
    12ac:	0c00                	addi	s0,sp,528
    12ae:	03870403          	lb	s0,56(a4)
    12b2:	0000                	unimp
    12b4:	9105                	srli	a0,a0,0x21
    12b6:	02000003          	lb	zero,32(zero) # 20 <_prog_start-0xffe0>
    12ba:	039c                	addi	a5,sp,448
    12bc:	0000                	unimp
    12be:	0c8c                	addi	a1,sp,592
    12c0:	0000                	unimp
    12c2:	0000                	unimp
    12c4:	0000                	unimp
    12c6:	770c                	ld	a1,40(a4)
    12c8:	0002                	c.slli64	zero
    12ca:	0100                	addi	s0,sp,128
    12cc:	0801                	addi	a6,a6,0
    12ce:	0140                	addi	s0,sp,132
    12d0:	0000                	unimp
    12d2:	700d                	c.lui	zero,0xfffe3
    12d4:	0002                	c.slli64	zero
    12d6:	0100                	addi	s0,sp,128
    12d8:	0201                	addi	tp,tp,0 # 0 <_prog_start-0x10000>
    12da:	0270                	addi	a2,sp,268
    12dc:	0000                	unimp
    12de:	6a0e                	ld	s4,192(sp)
    12e0:	0002                	c.slli64	zero
    12e2:	0f00                	addi	s0,sp,912
    12e4:	0634                	addi	a3,sp,776
    12e6:	0001                	nop
    12e8:	0000                	unimp
    12ea:	0000                	unimp
    12ec:	003e                	c.slli	zero,0xf
    12ee:	0000                	unimp
    12f0:	0000                	unimp
    12f2:	0000                	unimp
    12f4:	9c01                	subw	s0,s0,s0
    12f6:	035c                	addi	a5,sp,388
    12f8:	0000                	unimp
    12fa:	0f00730f          	.4byte	0xf00730f
    12fe:	6b18                	ld	a4,16(a4)
    1300:	0002                	c.slli64	zero
    1302:	a000                	fsd	fs0,0(s0)
    1304:	000c                	.2byte	0xc
    1306:	1200                	addi	s0,sp,288
    1308:	035c                	addi	a5,sp,388
    130a:	0000                	unimp
    130c:	0634                	addi	a3,sp,776
    130e:	0001                	nop
    1310:	0000                	unimp
    1312:	0000                	unimp
    1314:	001c                	.2byte	0x1c
    1316:	0000                	unimp
    1318:	0000                	unimp
    131a:	0000                	unimp
    131c:	0411                	addi	s0,s0,4
    131e:	09000003          	lb	zero,144(zero) # 90 <_prog_start-0xff70>
    1322:	0369                	addi	t1,t1,26
    1324:	0000                	unimp
    1326:	0cca                	slli	s9,s9,0x12
    1328:	0000                	unimp
    132a:	7302                	ld	t1,32(sp)
    132c:	de000003          	lb	zero,-544(zero) # fffffffffffffde0 <_sp+0xffffffff7feffde0>
    1330:	000c                	.2byte	0xc
    1332:	0a00                	addi	s0,sp,272
    1334:	037e                	slli	t1,t1,0x1f
    1336:	0000                	unimp
    1338:	063a                	slli	a2,a2,0xe
    133a:	0001                	nop
    133c:	0000                	unimp
    133e:	0000                	unimp
    1340:	000e                	c.slli	zero,0x3
    1342:	0000                	unimp
    1344:	0000                	unimp
    1346:	0000                	unimp
    1348:	030c                	addi	a1,sp,384
    134a:	8704                	.2byte	0x8704
    134c:	05000003          	lb	zero,80(zero) # 50 <_prog_start-0xffb0>
    1350:	0391                	addi	t2,t2,4
    1352:	0000                	unimp
    1354:	9c02                	jalr	s8
    1356:	05000003          	lb	zero,80(zero) # 50 <_prog_start-0xffb0>
    135a:	000d                	c.nop	3
    135c:	0000                	unimp
    135e:	1200                	addi	s0,sp,288
    1360:	037e                	slli	t1,t1,0x1f
    1362:	0000                	unimp
    1364:	0650                	addi	a2,sp,772
    1366:	0001                	nop
    1368:	0000                	unimp
    136a:	0000                	unimp
    136c:	0010                	.2byte	0x10
    136e:	0000                	unimp
    1370:	0000                	unimp
    1372:	0000                	unimp
    1374:	3212                	fld	ft4,288(sp)
    1376:	04000003          	lb	zero,64(zero) # 40 <_prog_start-0xffc0>
    137a:	00000387          	.4byte	0x387
    137e:	9105                	srli	a0,a0,0x21
    1380:	02000003          	lb	zero,32(zero) # 20 <_prog_start-0xffe0>
    1384:	039c                	addi	a5,sp,448
    1386:	0000                	unimp
    1388:	0d19                	addi	s10,s10,6
    138a:	0000                	unimp
    138c:	0a00                	addi	s0,sp,272
    138e:	037e                	slli	t1,t1,0x1f
    1390:	0000                	unimp
    1392:	0660                	addi	s0,sp,780
    1394:	0001                	nop
    1396:	0000                	unimp
    1398:	0000                	unimp
    139a:	0010                	.2byte	0x10
    139c:	0000                	unimp
    139e:	0000                	unimp
    13a0:	0000                	unimp
    13a2:	87040213          	addi	tp,s0,-1936
    13a6:	05000003          	lb	zero,80(zero) # 50 <_prog_start-0xffb0>
    13aa:	0391                	addi	t2,t2,4
    13ac:	0000                	unimp
    13ae:	9c1c                	.2byte	0x9c1c
    13b0:	01000003          	lb	zero,16(zero) # 10 <_prog_start-0xfff0>
    13b4:	005f 1d00 0269      	.byte	0x5f, 0x00, 0x00, 0x1d, 0x69, 0x02
    13ba:	0000                	unimp
    13bc:	0801                	addi	a6,a6,0
    13be:	0314                	addi	a3,sp,384
    13c0:	037e                	slli	t1,t1,0x1f
    13c2:	0000                	unimp
    13c4:	01007313          	andi	t1,zero,16
    13c8:	2708                	fld	fa0,8(a4)
    13ca:	0000026b          	.4byte	0x26b
    13ce:	0100630b          	.4byte	0x100630b
    13d2:	070a                	slli	a4,a4,0x2
    13d4:	0270                	addi	a2,sp,268
    13d6:	0000                	unimp
    13d8:	1e00                	addi	s0,sp,816
    13da:	0212                	slli	tp,tp,0x4
    13dc:	0000                	unimp
    13de:	1502                	slli	a0,a0,0x20
    13e0:	0314                	addi	a3,sp,384
    13e2:	02006313          	ori	t1,zero,32
    13e6:	1f15                	addi	t5,t5,-27
    13e8:	0270                	addi	a2,sp,268
    13ea:	0000                	unimp
    13ec:	0078740b          	.4byte	0x78740b
    13f0:	1702                	slli	a4,a4,0x20
    13f2:	c915                	beqz	a0,1426 <_prog_start-0xebda>
    13f4:	0000                	unimp
    13f6:	0b00                	addi	s0,sp,400
    13f8:	0072                	c.slli	zero,0x1c
    13fa:	1902                	slli	s2,s2,0x20
    13fc:	9c0a                	add	s8,s8,sp
    13fe:	0000                	unimp
    1400:	0000                	unimp
	...

Disassembly of section .debug_abbrev:

0000000000000000 <.debug_abbrev>:
   0:	1101                	addi	sp,sp,-32
   2:	1000                	addi	s0,sp,32
   4:	12011117          	auipc	sp,0x12011
   8:	1b0e030f          	.4byte	0x1b0e030f
   c:	250e                	fld	fa0,192(sp)
   e:	130e                	slli	t1,t1,0x23
  10:	0005                	c.nop	1
  12:	0000                	unimp
  14:	3401                	addiw	s0,s0,-32
  16:	3100                	fld	fs0,32(a0)
  18:	00170213          	addi	tp,a4,1
  1c:	0200                	addi	s0,sp,256
  1e:	0049                	c.nop	18
  20:	1802                	slli	a6,a6,0x20
  22:	187e                	slli	a6,a6,0x3f
  24:	0000                	unimp
  26:	31000503          	lb	a0,784(zero) # 310 <_prog_start-0xfcf0>
  2a:	00170213          	addi	tp,a4,1
  2e:	0400                	addi	s0,sp,512
  30:	011d                	addi	sp,sp,7 # 1201100b <dtb+0x12000743>
  32:	1331                	addi	t1,t1,-20
  34:	0111                	addi	sp,sp,4
  36:	0712                	slli	a4,a4,0x4
  38:	2158                	fld	fa4,128(a0)
  3a:	5901                	li	s2,-32
  3c:	010b570b          	.4byte	0x10b570b
  40:	05000013          	li	zero,80
  44:	011d                	addi	sp,sp,7
  46:	1331                	addi	t1,t1,-20
  48:	0111                	addi	sp,sp,4
  4a:	0712                	slli	a4,a4,0x4
  4c:	2158                	fld	fa4,128(a0)
  4e:	5901                	li	s2,-32
  50:	000b570b          	.4byte	0xb570b
  54:	0600                	addi	s0,sp,768
  56:	0034                	addi	a3,sp,8
  58:	0b3a0803          	lb	a6,179(s4)
  5c:	0b390b3b          	.4byte	0xb390b3b
  60:	1349                	addi	t1,t1,-14
  62:	0000                	unimp
  64:	31011d07          	.4byte	0x31011d07
  68:	55015213          	.4byte	0x55015213
  6c:	01215817          	auipc	a6,0x1215
  70:	0b59                	addi	s6,s6,22
  72:	13010b57          	.4byte	0x13010b57
  76:	0000                	unimp
  78:	0b08                	addi	a0,sp,400
  7a:	5501                	li	a0,-32
  7c:	09000017          	auipc	zero,0x9000
  80:	011d                	addi	sp,sp,7
  82:	1331                	addi	t1,t1,-20
  84:	0152                	slli	sp,sp,0x14
  86:	1755                	addi	a4,a4,-11
  88:	2158                	fld	fa4,128(a0)
  8a:	5901                	li	s2,-32
  8c:	000b570b          	.4byte	0xb570b
  90:	0a00                	addi	s0,sp,272
  92:	0148                	addi	a0,sp,132
  94:	017d                	addi	sp,sp,31
  96:	137f                	.2byte	0x137f
  98:	1301                	addi	t1,t1,-32
  9a:	0000                	unimp
  9c:	0b00240b          	.4byte	0xb00240b
  a0:	030b3e0b          	.4byte	0x30b3e0b
  a4:	000e                	c.slli	zero,0x3
  a6:	0c00                	addi	s0,sp,528
  a8:	0148                	addi	a0,sp,132
  aa:	017d                	addi	sp,sp,31
  ac:	137f                	.2byte	0x137f
  ae:	0000                	unimp
  b0:	160d                	addi	a2,a2,-29
  b2:	0300                	addi	s0,sp,384
  b4:	3a0e                	fld	fs4,224(sp)
  b6:	390b3b0b          	.4byte	0x390b3b0b
  ba:	0013490b          	.4byte	0x13490b
  be:	0e00                	addi	s0,sp,784
  c0:	012e                	slli	sp,sp,0xb
  c2:	213a0e03          	lb	t3,531(s4)
  c6:	3b01                	addiw	s6,s6,-32
  c8:	270b390b          	.4byte	0x270b390b
  cc:	4919                	li	s2,6
  ce:	010b2013          	slti	zero,s6,16
  d2:	0f000013          	li	zero,240
  d6:	210b000f          	.4byte	0x210b000f
  da:	4908                	lw	a0,16(a0)
  dc:	10000013          	li	zero,256
  e0:	0026                	c.slli	zero,0x9
  e2:	1349                	addi	t1,t1,-14
  e4:	0000                	unimp
  e6:	0511                	addi	a0,a0,4 # 7004 <_prog_start-0x8ffc>
  e8:	0300                	addi	s0,sp,384
  ea:	3a08                	fld	fa0,48(a2)
  ec:	390b3b0b          	.4byte	0x390b3b0b
  f0:	0013490b          	.4byte	0x13490b
  f4:	1200                	addi	s0,sp,288
  f6:	0005                	c.nop	1
  f8:	213a0803          	lb	a6,531(s4)
  fc:	3b01                	addiw	s6,s6,-32
  fe:	3321                	addiw	t1,t1,-24
 100:	0b39                	addi	s6,s6,14
 102:	1349                	addi	t1,t1,-14
 104:	1702                	slli	a4,a4,0x20
 106:	0000                	unimp
 108:	49003513          	sltiu	a0,zero,1168
 10c:	14000013          	li	zero,320
 110:	012e                	slli	sp,sp,0xb
 112:	0e03193f 3b04213a 	.8byte	0x3b04213a0e03193f
 11a:	0d21390b          	.4byte	0xd21390b
 11e:	193c1927          	.4byte	0x193c1927
 122:	1301                	addi	t1,t1,-32
 124:	0000                	unimp
 126:	0515                	addi	a0,a0,5
 128:	4900                	lw	s0,16(a0)
 12a:	16000013          	li	zero,352
 12e:	0005                	c.nop	1
 130:	213a0e03          	lb	t3,531(s4)
 134:	3b01                	addiw	s6,s6,-32
 136:	490b390b          	.4byte	0x490b390b
 13a:	00170213          	addi	tp,a4,1
 13e:	1700                	addi	s0,sp,928
 140:	0034                	addi	a3,sp,8
 142:	213a0e03          	lb	t3,531(s4)
 146:	3b01                	addiw	s6,s6,-32
 148:	490b390b          	.4byte	0x490b390b
 14c:	00170213          	addi	tp,a4,1
 150:	1800                	addi	s0,sp,48
 152:	1331010b          	.4byte	0x1331010b
 156:	1755                	addi	a4,a4,-11
 158:	1301                	addi	t1,t1,-32
 15a:	0000                	unimp
 15c:	0b19                	addi	s6,s6,6
 15e:	0001                	nop
 160:	1a00                	addi	s0,sp,304
 162:	002e                	c.slli	zero,0xb
 164:	213a0e03          	lb	t3,531(s4)
 168:	3b01                	addiw	s6,s6,-32
 16a:	270b390b          	.4byte	0x270b390b
 16e:	2019                	.2byte	0x2019
 170:	1b00000b          	.4byte	0x1b00000b
 174:	0111                	addi	sp,sp,4
 176:	0e25                	addi	t3,t3,9 # fffffffffffe4009 <_sp+0xffffffff7fee4009>
 178:	1f030b13          	addi	s6,t1,496
 17c:	17551f1b          	.4byte	0x17551f1b
 180:	0111                	addi	sp,sp,4
 182:	1710                	addi	a2,sp,928
 184:	0000                	unimp
 186:	241c                	fld	fa5,8(s0)
 188:	0b00                	addi	s0,sp,400
 18a:	030b3e0b          	.4byte	0x30b3e0b
 18e:	0008                	.2byte	0x8
 190:	1d00                	addi	s0,sp,688
 192:	0034                	addi	a3,sp,8
 194:	0b3a0e03          	lb	t3,179(s4)
 198:	0b390b3b          	.4byte	0xb390b3b
 19c:	1349                	addi	t1,t1,-14
 19e:	061c                	addi	a5,sp,768
 1a0:	0000                	unimp
 1a2:	341e                	fld	fs0,480(sp)
 1a4:	0300                	addi	s0,sp,384
 1a6:	3a08                	fld	fa0,48(a2)
 1a8:	390b3b0b          	.4byte	0x390b3b0b
 1ac:	1c13490b          	.4byte	0x1c13490b
 1b0:	0006                	c.slli	zero,0x1
 1b2:	1f00                	addi	s0,sp,944
 1b4:	0101                	addi	sp,sp,0
 1b6:	1349                	addi	t1,t1,-14
 1b8:	1301                	addi	t1,t1,-32
 1ba:	0000                	unimp
 1bc:	2120                	fld	fs0,64(a0)
 1be:	4900                	lw	s0,16(a0)
 1c0:	000b2f13          	slti	t5,s6,0
 1c4:	2100                	fld	fs0,0(a0)
 1c6:	0034                	addi	a3,sp,8
 1c8:	0b3a0e03          	lb	t3,179(s4)
 1cc:	0b390b3b          	.4byte	0xb390b3b
 1d0:	1349                	addi	t1,t1,-14
 1d2:	0a1c                	addi	a5,sp,272
 1d4:	0000                	unimp
 1d6:	1822                	slli	a6,a6,0x28
 1d8:	0000                	unimp
 1da:	2300                	fld	fs0,0(a4)
 1dc:	012e                	slli	sp,sp,0xb
 1de:	0e03193f 0b3b0b3a 	.8byte	0xb3b0b3a0e03193f
 1e6:	0b39                	addi	s6,s6,14
 1e8:	13491927          	.4byte	0x13491927
 1ec:	0111                	addi	sp,sp,4
 1ee:	0712                	slli	a4,a4,0x4
 1f0:	1840                	addi	s0,sp,52
 1f2:	197a                	slli	s2,s2,0x3e
 1f4:	1301                	addi	t1,t1,-32
 1f6:	0000                	unimp
 1f8:	0b24                	addi	s1,sp,408
 1fa:	1101                	addi	sp,sp,-32
 1fc:	1201                	addi	tp,tp,-32 # ffffffffffffffe0 <_sp+0xffffffff7fefffe0>
 1fe:	00130107          	.4byte	0x130107
 202:	2500                	fld	fs0,8(a0)
 204:	0005                	c.nop	1
 206:	1331                	addi	t1,t1,-20
 208:	0000                	unimp
 20a:	3426                	fld	fs0,104(sp)
 20c:	0300                	addi	s0,sp,384
 20e:	3a0e                	fld	fs4,224(sp)
 210:	390b3b0b          	.4byte	0x390b3b0b
 214:	0013490b          	.4byte	0x13490b
 218:	2700                	fld	fs0,8(a4)
 21a:	0005                	c.nop	1
 21c:	0b3a0e03          	lb	t3,179(s4)
 220:	0b390b3b          	.4byte	0xb390b3b
 224:	1349                	addi	t1,t1,-14
 226:	0000                	unimp
 228:	2e28                	fld	fa0,88(a2)
 22a:	0301                	addi	t1,t1,0
 22c:	3a0e                	fld	fs4,224(sp)
 22e:	390b3b0b          	.4byte	0x390b3b0b
 232:	2019270b          	.4byte	0x2019270b
 236:	0013010b          	.4byte	0x13010b
 23a:	2900                	fld	fs0,16(a0)
 23c:	012e                	slli	sp,sp,0xb
 23e:	0b3a0e03          	lb	t3,179(s4)
 242:	0b390b3b          	.4byte	0xb390b3b
 246:	13491927          	.4byte	0x13491927
 24a:	0111                	addi	sp,sp,4
 24c:	0712                	slli	a4,a4,0x4
 24e:	1840                	addi	s0,sp,52
 250:	197a                	slli	s2,s2,0x3e
 252:	1301                	addi	t1,t1,-32
 254:	0000                	unimp
 256:	342a                	fld	fs0,168(sp)
 258:	0300                	addi	s0,sp,384
 25a:	3a08                	fld	fa0,48(a2)
 25c:	390b3b0b          	.4byte	0x390b3b0b
 260:	0213490b          	.4byte	0x213490b
 264:	2b000017          	auipc	zero,0x2b000
 268:	000a                	c.slli	zero,0x2
 26a:	0b3a0e03          	lb	t3,179(s4)
 26e:	0b390b3b          	.4byte	0xb390b3b
 272:	0111                	addi	sp,sp,4
 274:	0000                	unimp
 276:	2e2c                	fld	fa1,88(a2)
 278:	0300                	addi	s0,sp,384
 27a:	3a0e                	fld	fs4,224(sp)
 27c:	390b3b0b          	.4byte	0x390b3b0b
 280:	4919270b          	.4byte	0x4919270b
 284:	000b2013          	slti	zero,s6,0
 288:	2d00                	fld	fs0,24(a0)
 28a:	012e                	slli	sp,sp,0xb
 28c:	0b3a0e03          	lb	t3,179(s4)
 290:	0b390b3b          	.4byte	0xb390b3b
 294:	0b201927          	.4byte	0xb201927
 298:	0000                	unimp
 29a:	0100                	addi	s0,sp,128
 29c:	0024                	addi	s1,sp,8
 29e:	0b3e0b0b          	.4byte	0xb3e0b0b
 2a2:	00000e03          	lb	t3,0(zero) # 0 <_prog_start-0x10000>
 2a6:	3402                	fld	fs0,32(sp)
 2a8:	3100                	fld	fs0,32(a0)
 2aa:	00170213          	addi	tp,a4,1
 2ae:	0300                	addi	s0,sp,384
 2b0:	0016                	c.slli	zero,0x5
 2b2:	0b3a0e03          	lb	t3,179(s4)
 2b6:	0b390b3b          	.4byte	0xb390b3b
 2ba:	1349                	addi	t1,t1,-14
 2bc:	0000                	unimp
 2be:	0504                	addi	s1,sp,640
 2c0:	3100                	fld	fs0,32(a0)
 2c2:	05000013          	li	zero,80
 2c6:	0034                	addi	a3,sp,8
 2c8:	1331                	addi	t1,t1,-20
 2ca:	0000                	unimp
 2cc:	0b06                	slli	s6,s6,0x1
 2ce:	5501                	li	a0,-32
 2d0:	07000017          	auipc	zero,0x7000
 2d4:	0034                	addi	a3,sp,8
 2d6:	213a0803          	lb	a6,531(s4)
 2da:	3b01                	addiw	s6,s6,-32
 2dc:	490b390b          	.4byte	0x490b390b
 2e0:	00170213          	addi	tp,a4,1
 2e4:	0800                	addi	s0,sp,16
 2e6:	0034                	addi	a3,sp,8
 2e8:	213a0e03          	lb	t3,531(s4)
 2ec:	3b01                	addiw	s6,s6,-32
 2ee:	1921                	addi	s2,s2,-24
 2f0:	0b39                	addi	s6,s6,14
 2f2:	1349                	addi	t1,t1,-14
 2f4:	1702                	slli	a4,a4,0x20
 2f6:	0000                	unimp
 2f8:	0509                	addi	a0,a0,2
 2fa:	3100                	fld	fs0,32(a0)
 2fc:	00170213          	addi	tp,a4,1
 300:	0a00                	addi	s0,sp,272
 302:	011d                	addi	sp,sp,7
 304:	1331                	addi	t1,t1,-20
 306:	0111                	addi	sp,sp,4
 308:	0712                	slli	a4,a4,0x4
 30a:	2158                	fld	fa4,128(a0)
 30c:	5901                	li	s2,-32
 30e:	000b570b          	.4byte	0xb570b
 312:	0b00                	addi	s0,sp,400
 314:	0034                	addi	a3,sp,8
 316:	0b3a0803          	lb	a6,179(s4)
 31a:	0b390b3b          	.4byte	0xb390b3b
 31e:	1349                	addi	t1,t1,-14
 320:	0000                	unimp
 322:	0f0c                	addi	a1,sp,912
 324:	0b00                	addi	s0,sp,400
 326:	0821                	addi	a6,a6,8 # 1215074 <dtb+0x12047ac>
 328:	1349                	addi	t1,t1,-14
 32a:	0000                	unimp
 32c:	260d                	addiw	a2,a2,3
 32e:	4900                	lw	s0,16(a0)
 330:	0e000013          	li	zero,224
 334:	012e                	slli	sp,sp,0xb
 336:	0e03193f 3b01213a 	.8byte	0x3b01213a0e03193f
 33e:	0621390b          	.4byte	0x621390b
 342:	01111927          	.4byte	0x1111927
 346:	0712                	slli	a4,a4,0x4
 348:	1840                	addi	s0,sp,52
 34a:	197a                	slli	s2,s2,0x3e
 34c:	1301                	addi	t1,t1,-32
 34e:	0000                	unimp
 350:	0300050f          	.4byte	0x300050f
 354:	3a08                	fld	fa0,48(a2)
 356:	0121                	addi	sp,sp,8
 358:	0b390b3b          	.4byte	0xb390b3b
 35c:	1349                	addi	t1,t1,-14
 35e:	1702                	slli	a4,a4,0x20
 360:	0000                	unimp
 362:	1d10                	addi	a2,sp,688
 364:	3101                	addiw	sp,sp,-32
 366:	55015213          	.4byte	0x55015213
 36a:	01215817          	auipc	a6,0x1215
 36e:	0b59                	addi	s6,s6,22
 370:	00000b57          	.4byte	0xb57
 374:	1d11                	addi	s10,s10,-28
 376:	3101                	addiw	sp,sp,-32
 378:	55015213          	.4byte	0x55015213
 37c:	01215817          	auipc	a6,0x1215
 380:	0b59                	addi	s6,s6,22
 382:	13010b57          	.4byte	0x13010b57
 386:	0000                	unimp
 388:	1d12                	slli	s10,s10,0x24
 38a:	3101                	addiw	sp,sp,-32
 38c:	12011113          	.4byte	0x12011113
 390:	01215807          	.4byte	0x1215807
 394:	0b59                	addi	s6,s6,22
 396:	01022157          	.4byte	0x1022157
 39a:	13000013          	li	zero,304
 39e:	0005                	c.nop	1
 3a0:	0b3a0803          	lb	a6,179(s4)
 3a4:	0b390b3b          	.4byte	0xb390b3b
 3a8:	1349                	addi	t1,t1,-14
 3aa:	0000                	unimp
 3ac:	1114                	addi	a3,sp,160
 3ae:	2501                	sext.w	a0,a0
 3b0:	130e                	slli	t1,t1,0x23
 3b2:	1b1f030b          	.4byte	0x1b1f030b
 3b6:	111f 1201 1007      	.byte	0x1f, 0x11, 0x01, 0x12, 0x07, 0x10
 3bc:	15000017          	auipc	zero,0x15000
 3c0:	0b0b000f          	.4byte	0xb0b000f
 3c4:	00000e03          	lb	t3,0(zero) # 0 <_prog_start-0x10000>
 3c8:	2416                	fld	fs0,320(sp)
 3ca:	0b00                	addi	s0,sp,400
 3cc:	030b3e0b          	.4byte	0x30b3e0b
 3d0:	0008                	.2byte	0x8
 3d2:	1700                	addi	s0,sp,928
 3d4:	0035                	c.nop	13
 3d6:	1349                	addi	t1,t1,-14
 3d8:	0000                	unimp
 3da:	3418                	fld	fa4,40(s0)
 3dc:	0300                	addi	s0,sp,384
 3de:	3a0e                	fld	fs4,224(sp)
 3e0:	390b3b0b          	.4byte	0x390b3b0b
 3e4:	1c13490b          	.4byte	0x1c13490b
 3e8:	0006                	c.slli	zero,0x1
 3ea:	1900                	addi	s0,sp,176
 3ec:	0018                	.2byte	0x18
 3ee:	0000                	unimp
 3f0:	341a                	fld	fs0,416(sp)
 3f2:	0300                	addi	s0,sp,384
 3f4:	3a08                	fld	fa0,48(a2)
 3f6:	390b3b0b          	.4byte	0x390b3b0b
 3fa:	0213490b          	.4byte	0x213490b
 3fe:	0018                	.2byte	0x18
 400:	1b00                	addi	s0,sp,432
 402:	1755010b          	.4byte	0x1755010b
 406:	1301                	addi	t1,t1,-32
 408:	0000                	unimp
 40a:	341c                	fld	fa5,40(s0)
 40c:	3100                	fld	fs0,32(a0)
 40e:	00180213          	addi	tp,a6,1 # 121537d <dtb+0x1204ab5>
 412:	1d00                	addi	s0,sp,688
 414:	012e                	slli	sp,sp,0xb
 416:	0b3a0e03          	lb	t3,179(s4)
 41a:	0b390b3b          	.4byte	0xb390b3b
 41e:	0b201927          	.4byte	0xb201927
 422:	1301                	addi	t1,t1,-32
 424:	0000                	unimp
 426:	2e1e                	fld	ft8,448(sp)
 428:	0301                	addi	t1,t1,0
 42a:	3a0e                	fld	fs4,224(sp)
 42c:	390b3b0b          	.4byte	0x390b3b0b
 430:	2019270b          	.4byte	0x2019270b
 434:	0000000b          	.4byte	0xb

Disassembly of section .debug_aranges:

0000000000000000 <.debug_aranges>:
   0:	002c                	addi	a1,sp,8
   2:	0000                	unimp
   4:	0002                	c.slli64	zero
   6:	0000                	unimp
   8:	0000                	unimp
   a:	0008                	.2byte	0x8
   c:	0000                	unimp
   e:	0000                	unimp
  10:	0000                	unimp
  12:	0001                	nop
  14:	0000                	unimp
  16:	0000                	unimp
  18:	018c                	addi	a1,sp,192
	...
  2e:	0000                	unimp
  30:	003c                	addi	a5,sp,8
  32:	0000                	unimp
  34:	0002                	c.slli64	zero
  36:	0029                	c.nop	10
  38:	0000                	unimp
  3a:	0008                	.2byte	0x8
  3c:	0000                	unimp
  3e:	0000                	unimp
  40:	018c                	addi	a1,sp,192
  42:	0001                	nop
  44:	0000                	unimp
  46:	0000                	unimp
  48:	00c2                	slli	ra,ra,0x10
  4a:	0000                	unimp
  4c:	0000                	unimp
  4e:	0000                	unimp
  50:	024e                	slli	tp,tp,0x13
  52:	0001                	nop
  54:	0000                	unimp
  56:	0000                	unimp
  58:	03e6                	slli	t2,t2,0x19
	...
  6e:	0000                	unimp
  70:	002c                	addi	a1,sp,8
  72:	0000                	unimp
  74:	0002                	c.slli64	zero
  76:	0000105b          	.4byte	0x105b
  7a:	0008                	.2byte	0x8
  7c:	0000                	unimp
  7e:	0000                	unimp
  80:	0634                	addi	a3,sp,776
  82:	0001                	nop
  84:	0000                	unimp
  86:	0000                	unimp
  88:	0158                	addi	a4,sp,132
	...

Disassembly of section .debug_str:

0000000000000000 <.debug_str>:
   0:	6568                	ld	a0,200(a0)
   2:	6461                	lui	s0,0x18
   4:	532e                	lw	t1,232(sp)
   6:	2f00                	fld	fs0,24(a4)
   8:	6f68                	ld	a0,216(a4)
   a:	656d                	lui	a0,0x1b
   c:	6e69622f          	.4byte	0x6e69622f
  10:	6b68                	ld	a0,208(a4)
  12:	6569                	lui	a0,0x1a
  14:	6475                	lui	s0,0x1d
  16:	6f572f6f          	jal	t5,72f0a <dtb+0x62642>
  1a:	6b72                	ld	s6,280(sp)
  1c:	63617073          	csrci	0x636,2
  20:	2f65                	addiw	t5,t5,25
  22:	6850                	ld	a2,144(s0)
  24:	5444                	lw	s1,44(s0)
  26:	6568                	ld	a0,200(a0)
  28:	2f736973          	csrrsi	s2,0x2f7,6
  2c:	654e                	ld	a0,208(sp)
  2e:	61724677          	.4byte	0x61724677
  32:	656d                	lui	a0,0x1b
  34:	6b726f77          	.4byte	0x6b726f77
  38:	6172662f          	.4byte	0x6172662f
  3c:	656d                	lui	a0,0x1b
  3e:	6b726f77          	.4byte	0x6b726f77
  42:	6372732f          	.4byte	0x6372732f
  46:	69616d2f          	.4byte	0x69616d2f
  4a:	2f6e                	fld	ft10,216(sp)
  4c:	6572                	ld	a0,280(sp)
  4e:	72756f73          	csrrsi	t5,mhpmevent7h,10
  52:	2f736563          	bltu	t1,s7,33c <_prog_start-0xfcc4>
  56:	6f62                	ld	t5,24(sp)
  58:	4f52746f          	jal	s0,27d4c <dtb+0x17484>
  5c:	2f4d                	addiw	t5,t5,19
  5e:	544d                	li	s0,-13
  60:	6f42                	ld	t5,16(sp)
  62:	4700746f          	jal	s0,74d2 <_prog_start-0x8b2e>
  66:	554e                	lw	a0,240(sp)
  68:	4120                	lw	s0,64(a0)
  6a:	2e322053          	.4byte	0x2e322053
  6e:	5f003933          	.4byte	0x5f003933
  72:	755f 6e69 3874      	.byte	0x5f, 0x75, 0x69, 0x6e, 0x74, 0x38
  78:	745f 7300 6970      	.byte	0x5f, 0x74, 0x00, 0x73, 0x70, 0x69
  7e:	785f 6566 0072      	.byte	0x5f, 0x78, 0x66, 0x65, 0x72, 0x00
  84:	20554e47          	fmsub.s	ft8,fa0,ft5,ft4,rmm
  88:	20313143          	fmadd.s	ft2,ft2,ft3,ft4,rup
  8c:	3231                	addiw	tp,tp,-20 # ffffffffffffffec <_sp+0xffffffff7fefffec>
  8e:	322e                	fld	ft4,232(sp)
  90:	302e                	fld	ft0,232(sp)
  92:	2d20                	fld	fs0,88(a0)
  94:	616d                	addi	sp,sp,240
  96:	6962                	ld	s2,24(sp)
  98:	6c3d                	lui	s8,0xf
  9a:	3670                	fld	fa2,232(a2)
  9c:	6434                	ld	a3,72(s0)
  9e:	2d20                	fld	fs0,88(a0)
  a0:	636d                	lui	t1,0x1b
  a2:	6f6d                	lui	t5,0x1b
  a4:	6564                	ld	s1,200(a0)
  a6:	3d6c                	fld	fa1,248(a0)
  a8:	656d                	lui	a0,0x1b
  aa:	6164                	ld	s1,192(a0)
  ac:	796e                	ld	s2,248(sp)
  ae:	2d20                	fld	fs0,88(a0)
  b0:	746d                	lui	s0,0xffffb
  b2:	6e75                	lui	t3,0x1d
  b4:	3d65                	addiw	s10,s10,-7
  b6:	6f72                	ld	t5,280(sp)
  b8:	74656b63          	bltu	a0,t1,80e <_prog_start-0xf7f2>
  bc:	2d20                	fld	fs0,88(a0)
  be:	696d                	lui	s2,0x1b
  c0:	732d6173          	csrrsi	sp,mhpmevent18h,26
  c4:	6570                	ld	a2,200(a0)
  c6:	2e323d63          	.4byte	0x2e323d63
  ca:	2032                	fld	ft0,264(sp)
  cc:	6d2d                	lui	s10,0xb
  ce:	7261                	lui	tp,0xffff8
  d0:	723d6863          	bltu	s10,gp,800 <_prog_start-0xf800>
  d4:	3676                	fld	fa2,376(sp)
  d6:	6934                	ld	a3,80(a0)
  d8:	616d                	addi	sp,sp,240
  da:	6466                	ld	s0,88(sp)
  dc:	672d2063          	.4byte	0x672d2063
  e0:	2d20                	fld	fs0,88(a0)
  e2:	2d20324f          	.4byte	0x2d20324f
  e6:	3d647473          	csrrci	s0,0x3d6,8
  ea:	31756e67          	.4byte	0x31756e67
  ee:	2031                	.2byte	0x2031
  f0:	662d                	lui	a2,0xb
  f2:	6f6e                	ld	t5,216(sp)
  f4:	632d                	lui	t1,0xb
  f6:	6f6d6d6f          	jal	s10,d67ec <dtb+0xc5f24>
  fa:	006e                	c.slli	zero,0x1b
  fc:	635f6473          	csrrsi	s0,0x635,30
 100:	646d                	lui	s0,0x1b
 102:	0030                	addi	a2,sp,8
 104:	5f5f 6e69 3374      	.byte	0x5f, 0x5f, 0x69, 0x6e, 0x74, 0x33
 10a:	5f32                	lw	t5,44(sp)
 10c:	0074                	addi	a3,sp,12
 10e:	635f6473          	csrrsi	s0,0x635,30
 112:	646d                	lui	s0,0x1b
 114:	0038                	addi	a4,sp,8
 116:	645f6473          	csrrsi	s0,hvip,30
 11a:	6d75                	lui	s10,0x1d
 11c:	796d                	lui	s2,0xffffb
 11e:	7300                	ld	s0,32(a4)
 120:	5f64                	lw	s1,124(a4)
 122:	6361                	lui	t1,0x18
 124:	646d                	lui	s0,0x1b
 126:	3134                	fld	fa3,96(a0)
 128:	6400                	ld	s0,8(s0)
 12a:	7461                	lui	s0,0xffff8
 12c:	0061                	c.nop	24
 12e:	635f6473          	csrrsi	s0,0x635,30
 132:	646d                	lui	s0,0x1b
 134:	3535                	addiw	a0,a0,-19 # 1afed <dtb+0xa725>
 136:	7500                	ld	s0,40(a0)
 138:	736e                	ld	t1,248(sp)
 13a:	6769                	lui	a4,0x1a
 13c:	656e                	ld	a0,216(sp)
 13e:	2064                	fld	fs1,192(s0)
 140:	72616863          	bltu	sp,t1,870 <_prog_start-0xf790>
 144:	7300                	ld	s0,32(a4)
 146:	5f64                	lw	s1,124(a4)
 148:	35646d63          	bltu	s0,s6,4a2 <_prog_start-0xfb5e>
 14c:	0038                	addi	a4,sp,8
 14e:	726f6873          	csrrsi	a6,mhpmevent6h,30
 152:	2074                	fld	fa3,192(s0)
 154:	6e75                	lui	t3,0x1d
 156:	6e676973          	csrrsi	s2,0x6e6,14
 15a:	6465                	lui	s0,0x19
 15c:	6920                	ld	s0,80(a0)
 15e:	746e                	ld	s0,248(sp)
 160:	6300                	ld	s0,0(a4)
 162:	6372                	ld	t1,280(sp)
 164:	655f 7078 5f00      	.byte	0x5f, 0x65, 0x78, 0x70, 0x00, 0x5f
 16a:	745f 706d 5f00      	.byte	0x5f, 0x74, 0x6d, 0x70, 0x00, 0x5f
 170:	755f 6e69 3374      	.byte	0x5f, 0x75, 0x69, 0x6e, 0x74, 0x33
 176:	5f32                	lw	t5,44(sp)
 178:	0074                	addi	a3,sp,12
 17a:	616d                	addi	sp,sp,240
 17c:	6e69                	lui	t3,0x1a
 17e:	7300                	ld	s0,32(a4)
 180:	6970                	ld	a2,208(a0)
 182:	6e6e                	ld	t3,216(sp)
 184:	7265                	lui	tp,0xffff9
 186:	7300                	ld	s0,32(a4)
 188:	5f64                	lw	s1,124(a4)
 18a:	6f70                	ld	a2,216(a4)
 18c:	6f726577          	.4byte	0x6f726577
 190:	006e                	c.slli	zero,0x1b
 192:	6f6c                	ld	a1,216(a4)
 194:	676e                	ld	a4,216(sp)
 196:	6c20                	ld	s0,88(s0)
 198:	20676e6f          	jal	t3,7639e <dtb+0x65ad6>
 19c:	6e75                	lui	t3,0x1d
 19e:	6e676973          	csrrsi	s2,0x6e6,14
 1a2:	6465                	lui	s0,0x19
 1a4:	6920                	ld	s0,80(a0)
 1a6:	746e                	ld	s0,248(sp)
 1a8:	6300                	ld	s0,0(a4)
 1aa:	0079706f          	j	979b0 <dtb+0x870e8>
 1ae:	31637263          	bgeu	t1,s6,4b2 <_prog_start-0xfb4e>
 1b2:	5f36                	lw	t5,108(sp)
 1b4:	6f72                	ld	t5,280(sp)
 1b6:	6e75                	lui	t3,0x1d
 1b8:	0064                	addi	s1,sp,12
 1ba:	7564                	ld	s1,232(a0)
 1bc:	706d                	c.lui	zero,0xffffb
 1be:	7300                	ld	s0,32(a4)
 1c0:	5f64                	lw	s1,124(a4)
 1c2:	00646d63          	bltu	s0,t1,1dc <_prog_start-0xfe24>
 1c6:	6f6c                	ld	a1,216(a4)
 1c8:	676e                	ld	a4,216(sp)
 1ca:	6c20                	ld	s0,88(s0)
 1cc:	20676e6f          	jal	t3,763d2 <dtb+0x65b0a>
 1d0:	6e69                	lui	t3,0x1a
 1d2:	0074                	addi	a3,sp,12
 1d4:	726f6873          	csrrsi	a6,mhpmevent6h,30
 1d8:	2074                	fld	fa3,192(s0)
 1da:	6e69                	lui	t3,0x1a
 1dc:	0074                	addi	a3,sp,12
 1de:	5f5f 6975 746e      	.byte	0x5f, 0x5f, 0x75, 0x69, 0x6e, 0x74
 1e4:	3631                	addiw	a2,a2,-20 # afec <_prog_start-0x5014>
 1e6:	745f 6100 6772      	.byte	0x5f, 0x74, 0x00, 0x61, 0x72, 0x67
 1ec:	64730063          	beq	t1,t2,82c <_prog_start-0xf7d4>
 1f0:	635f 646d 655f      	.byte	0x5f, 0x63, 0x6d, 0x64, 0x5f, 0x65
 1f6:	646e                	ld	s0,216(sp)
 1f8:	7500                	ld	s0,40(a0)
 1fa:	7261                	lui	tp,0xffff8
 1fc:	0074                	addi	a3,sp,12
 1fe:	6972706b          	.4byte	0x6972706b
 202:	746e                	ld	s0,248(sp)
 204:	0066                	c.slli	zero,0x19
 206:	6f6c                	ld	a1,216(a4)
 208:	676e                	ld	a4,216(sp)
 20a:	6420                	ld	s0,72(s0)
 20c:	6c62756f          	jal	a0,278d2 <dtb+0x1700a>
 210:	0065                	c.nop	25
 212:	7475706b          	.4byte	0x7475706b
 216:	64730063          	beq	t1,t2,856 <_prog_start-0xf7aa>
 21a:	635f 646d 3631      	.byte	0x5f, 0x63, 0x6d, 0x64, 0x31, 0x36
 220:	6d00                	ld	s0,24(a0)
 222:	6168                	ld	a0,192(a0)
 224:	7472                	ld	s0,312(sp)
 226:	6469                	lui	s0,0x1a
 228:	6400                	ld	s0,8(s0)
 22a:	00656e6f          	jal	t3,56230 <dtb+0x45968>
 22e:	7369                	lui	t1,0xffffa
 230:	635f 6168 0072      	.byte	0x5f, 0x63, 0x68, 0x61, 0x72, 0x00
 236:	5f5f 7562 6c69      	.byte	0x5f, 0x5f, 0x62, 0x75, 0x69, 0x6c
 23c:	6974                	ld	a3,208(a0)
 23e:	5f6e                	lw	t5,248(sp)
 240:	6176                	ld	sp,344(sp)
 242:	6c5f 7369 0074      	.byte	0x5f, 0x6c, 0x69, 0x73, 0x74, 0x00
 248:	7369                	lui	t1,0xffffa
 24a:	6c5f 6e6f 0067      	.byte	0x5f, 0x6c, 0x6f, 0x6e, 0x67, 0x00
 250:	5f5f 6e67 6375      	.byte	0x5f, 0x5f, 0x67, 0x6e, 0x75, 0x63
 256:	765f 5f61 696c      	.byte	0x5f, 0x76, 0x61, 0x5f, 0x6c, 0x69
 25c:	69007473          	csrrci	s0,0x690,0
 260:	6f665f73          	csrrwi	t5,0x6f6,12
 264:	6d72                	ld	s10,280(sp)
 266:	7461                	lui	s0,0xffff8
 268:	5f00                	lw	s0,56(a4)
 26a:	7475706b          	.4byte	0x7475706b
 26e:	425f0073          	.4byte	0x425f0073
 272:	006c6f6f          	jal	t5,c6278 <dtb+0xb59b0>

Disassembly of section .debug_loclists:

0000000000000000 <.debug_loclists>:
   0:	00000957          	.4byte	0x957
   4:	0005                	c.nop	1
   6:	0008                	.2byte	0x8
   8:	0000                	unimp
   a:	0000                	unimp
   c:	01024e07          	.4byte	0x1024e07
  10:	0000                	unimp
  12:	0000                	unimp
  14:	6a00                	ld	s0,16(a2)
  16:	0102                	c.slli64	sp
  18:	0000                	unimp
  1a:	0000                	unimp
  1c:	0100                	addi	s0,sp,128
  1e:	075a                	slli	a4,a4,0x16
  20:	026a                	slli	tp,tp,0x1a
  22:	0001                	nop
  24:	0000                	unimp
  26:	0000                	unimp
  28:	027e                	slli	tp,tp,0x1f
  2a:	0001                	nop
  2c:	0000                	unimp
  2e:	0000                	unimp
  30:	a304                	fsd	fs1,0(a4)
  32:	5a01                	li	s4,-32
  34:	079f 027e 0001      	.byte	0x9f, 0x07, 0x7e, 0x02, 0x01, 0x00
  3a:	0000                	unimp
  3c:	0000                	unimp
  3e:	0286                	slli	t0,t0,0x1
  40:	0001                	nop
  42:	0000                	unimp
  44:	0000                	unimp
  46:	5a01                	li	s4,-32
  48:	01028607          	.4byte	0x1028607
  4c:	0000                	unimp
  4e:	0000                	unimp
  50:	3400                	fld	fs0,40(s0)
  52:	0106                	slli	sp,sp,0x1
  54:	0000                	unimp
  56:	0000                	unimp
  58:	0400                	addi	s0,sp,512
  5a:	9f5a01a3          	sb	s5,-1565(s4)
  5e:	0700                	addi	s0,sp,896
  60:	024e                	slli	tp,tp,0x13
  62:	0001                	nop
  64:	0000                	unimp
  66:	0000                	unimp
  68:	026a                	slli	tp,tp,0x1a
  6a:	0001                	nop
  6c:	0000                	unimp
  6e:	0000                	unimp
  70:	5b01                	li	s6,-32
  72:	01026a07          	.4byte	0x1026a07
  76:	0000                	unimp
  78:	0000                	unimp
  7a:	7e00                	ld	s0,56(a2)
  7c:	0102                	c.slli64	sp
  7e:	0000                	unimp
  80:	0000                	unimp
  82:	0400                	addi	s0,sp,512
  84:	9f5b01a3          	sb	s5,-1565(s6)
  88:	01027e07          	.4byte	0x1027e07
  8c:	0000                	unimp
  8e:	0000                	unimp
  90:	8900                	.2byte	0x8900
  92:	0102                	c.slli64	sp
  94:	0000                	unimp
  96:	0000                	unimp
  98:	0100                	addi	s0,sp,128
  9a:	0289075b          	.4byte	0x289075b
  9e:	0001                	nop
  a0:	0000                	unimp
  a2:	0000                	unimp
  a4:	0634                	addi	a3,sp,776
  a6:	0001                	nop
  a8:	0000                	unimp
  aa:	0000                	unimp
  ac:	a304                	fsd	fs1,0(a4)
  ae:	5b01                	li	s6,-32
  b0:	009f 6807 0102      	.byte	0x9f, 0x00, 0x07, 0x68, 0x02, 0x01
  b6:	0000                	unimp
  b8:	0000                	unimp
  ba:	6a00                	ld	s0,16(a2)
  bc:	0102                	c.slli64	sp
  be:	0000                	unimp
  c0:	0000                	unimp
  c2:	0100                	addi	s0,sp,128
  c4:	0758                	addi	a4,sp,900
  c6:	027e                	slli	tp,tp,0x1f
  c8:	0001                	nop
  ca:	0000                	unimp
  cc:	0000                	unimp
  ce:	039c                	addi	a5,sp,448
  d0:	0001                	nop
  d2:	0000                	unimp
  d4:	0000                	unimp
  d6:	5801                	li	a6,-32
  d8:	0103ac07          	flw	fs8,16(t2)
  dc:	0000                	unimp
  de:	0000                	unimp
  e0:	b800                	fsd	fs0,48(s0)
  e2:	0105                	addi	sp,sp,1
  e4:	0000                	unimp
  e6:	0000                	unimp
  e8:	0100                	addi	s0,sp,128
  ea:	0758                	addi	a4,sp,900
  ec:	060e                	slli	a2,a2,0x3
  ee:	0001                	nop
  f0:	0000                	unimp
  f2:	0000                	unimp
  f4:	061c                	addi	a5,sp,768
  f6:	0001                	nop
  f8:	0000                	unimp
  fa:	0000                	unimp
  fc:	5801                	li	a6,-32
  fe:	01061e07          	.4byte	0x1061e07
 102:	0000                	unimp
 104:	0000                	unimp
 106:	3400                	fld	fs0,40(s0)
 108:	0106                	slli	sp,sp,0x1
 10a:	0000                	unimp
 10c:	0000                	unimp
 10e:	0100                	addi	s0,sp,128
 110:	0058                	addi	a4,sp,4
 112:	01026607          	.4byte	0x1026607
 116:	0000                	unimp
 118:	0000                	unimp
 11a:	6800                	ld	s0,16(s0)
 11c:	0102                	c.slli64	sp
 11e:	0000                	unimp
 120:	0000                	unimp
 122:	0100                	addi	s0,sp,128
 124:	0058                	addi	a4,sp,4
 126:	0102aa07          	flw	fs4,16(t0)
 12a:	0000                	unimp
 12c:	0000                	unimp
 12e:	b400                	fsd	fs0,40(s0)
 130:	0102                	c.slli64	sp
 132:	0000                	unimp
 134:	0000                	unimp
 136:	0200                	addi	s0,sp,256
 138:	9f3a                	add	t5,t5,a4
 13a:	0700                	addi	s0,sp,896
 13c:	02b4                	addi	a3,sp,328
 13e:	0001                	nop
 140:	0000                	unimp
 142:	0000                	unimp
 144:	02bc                	addi	a5,sp,328
 146:	0001                	nop
 148:	0000                	unimp
 14a:	0000                	unimp
 14c:	9fff0903          	lb	s2,-1537(t5) # 1a9ff <dtb+0xa137>
 150:	0700                	addi	s0,sp,896
 152:	02b8                	addi	a4,sp,328
 154:	0001                	nop
 156:	0000                	unimp
 158:	0000                	unimp
 15a:	02bc                	addi	a5,sp,328
 15c:	0001                	nop
 15e:	0000                	unimp
 160:	0000                	unimp
 162:	5f01                	li	t5,-32
 164:	0700                	addi	s0,sp,896
 166:	02de                	slli	t0,t0,0x17
 168:	0001                	nop
 16a:	0000                	unimp
 16c:	0000                	unimp
 16e:	02f2                	slli	t0,t0,0x1c
 170:	0001                	nop
 172:	0000                	unimp
 174:	0000                	unimp
 176:	08007a0b          	.4byte	0x8007a0b
 17a:	1aff                	.2byte	0x1aff
 17c:	2e31                	addiw	t3,t3,12 # 1a00c <dtb+0x9744>
 17e:	ff08                	sd	a0,56(a4)
 180:	9f1a                	add	t5,t5,t1
 182:	0700                	addi	s0,sp,896
 184:	02de                	slli	t0,t0,0x17
 186:	0001                	nop
 188:	0000                	unimp
 18a:	0000                	unimp
 18c:	02ee                	slli	t0,t0,0x1b
 18e:	0001                	nop
 190:	0000                	unimp
 192:	0000                	unimp
 194:	9fff0903          	lb	s2,-1537(t5)
 198:	0700                	addi	s0,sp,896
 19a:	02ea                	slli	t0,t0,0x1a
 19c:	0001                	nop
 19e:	0000                	unimp
 1a0:	0000                	unimp
 1a2:	02ee                	slli	t0,t0,0x1b
 1a4:	0001                	nop
 1a6:	0000                	unimp
 1a8:	0000                	unimp
 1aa:	5f01                	li	t5,-32
 1ac:	0700                	addi	s0,sp,896
 1ae:	0322                	slli	t1,t1,0x8
 1b0:	0001                	nop
 1b2:	0000                	unimp
 1b4:	0000                	unimp
 1b6:	035c                	addi	a5,sp,388
 1b8:	0001                	nop
 1ba:	0000                	unimp
 1bc:	0000                	unimp
 1be:	7c06                	ld	s8,96(sp)
 1c0:	0800                	addi	s0,sp,16
 1c2:	1aff                	.2byte	0x1aff
 1c4:	079f 035c 0001      	.byte	0x9f, 0x07, 0x5c, 0x03, 0x01, 0x00
 1ca:	0000                	unimp
 1cc:	0000                	unimp
 1ce:	0382                	c.slli64	t2
 1d0:	0001                	nop
 1d2:	0000                	unimp
 1d4:	0000                	unimp
 1d6:	7c09                	lui	s8,0xfffe2
 1d8:	7e00                	ld	s0,56(a2)
 1da:	2100                	fld	fs0,0(a0)
 1dc:	ff08                	sd	a0,56(a4)
 1de:	9f1a                	add	t5,t5,t1
 1e0:	01038a07          	.4byte	0x1038a07
 1e4:	0000                	unimp
 1e6:	0000                	unimp
 1e8:	9a00                	.2byte	0x9a00
 1ea:	00000103          	lb	sp,0(zero) # 0 <_prog_start-0x10000>
 1ee:	0000                	unimp
 1f0:	0600                	addi	s0,sp,768
 1f2:	007e                	c.slli	zero,0x1f
 1f4:	ff08                	sd	a0,56(a4)
 1f6:	9f1a                	add	t5,t5,t1
 1f8:	0700                	addi	s0,sp,896
 1fa:	0322                	slli	t1,t1,0x8
 1fc:	0001                	nop
 1fe:	0000                	unimp
 200:	0000                	unimp
 202:	032e                	slli	t1,t1,0xb
 204:	0001                	nop
 206:	0000                	unimp
 208:	0000                	unimp
 20a:	9fff0903          	lb	s2,-1537(t5)
 20e:	0700                	addi	s0,sp,896
 210:	032a                	slli	t1,t1,0xa
 212:	0001                	nop
 214:	0000                	unimp
 216:	0000                	unimp
 218:	032e                	slli	t1,t1,0xb
 21a:	0001                	nop
 21c:	0000                	unimp
 21e:	0000                	unimp
 220:	5f01                	li	t5,-32
 222:	0700                	addi	s0,sp,896
 224:	032e                	slli	t1,t1,0xb
 226:	0001                	nop
 228:	0000                	unimp
 22a:	0000                	unimp
 22c:	033e                	slli	t1,t1,0xf
 22e:	0001                	nop
 230:	0000                	unimp
 232:	0000                	unimp
 234:	9fff0903          	lb	s2,-1537(t5)
 238:	0700                	addi	s0,sp,896
 23a:	033a                	slli	t1,t1,0xe
 23c:	0001                	nop
 23e:	0000                	unimp
 240:	0000                	unimp
 242:	033e                	slli	t1,t1,0xf
 244:	0001                	nop
 246:	0000                	unimp
 248:	0000                	unimp
 24a:	5f01                	li	t5,-32
 24c:	0700                	addi	s0,sp,896
 24e:	033e                	slli	t1,t1,0xf
 250:	0001                	nop
 252:	0000                	unimp
 254:	0000                	unimp
 256:	0352                	slli	t1,t1,0x14
 258:	0001                	nop
 25a:	0000                	unimp
 25c:	0000                	unimp
 25e:	9fff0903          	lb	s2,-1537(t5)
 262:	0700                	addi	s0,sp,896
 264:	034e                	slli	t1,t1,0x13
 266:	0001                	nop
 268:	0000                	unimp
 26a:	0000                	unimp
 26c:	0352                	slli	t1,t1,0x14
 26e:	0001                	nop
 270:	0000                	unimp
 272:	0000                	unimp
 274:	5e01                	li	t3,-32
 276:	0700                	addi	s0,sp,896
 278:	035c                	addi	a5,sp,388
 27a:	0001                	nop
 27c:	0000                	unimp
 27e:	0000                	unimp
 280:	0370                	addi	a2,sp,396
 282:	0001                	nop
 284:	0000                	unimp
 286:	0000                	unimp
 288:	9fff0903          	lb	s2,-1537(t5)
 28c:	0700                	addi	s0,sp,896
 28e:	036c                	addi	a1,sp,396
 290:	0001                	nop
 292:	0000                	unimp
 294:	0000                	unimp
 296:	0370                	addi	a2,sp,396
 298:	0001                	nop
 29a:	0000                	unimp
 29c:	0000                	unimp
 29e:	5d01                	li	s10,-32
 2a0:	0700                	addi	s0,sp,896
 2a2:	038a                	slli	t2,t2,0x2
 2a4:	0001                	nop
 2a6:	0000                	unimp
 2a8:	0000                	unimp
 2aa:	0396                	slli	t2,t2,0x5
 2ac:	0001                	nop
 2ae:	0000                	unimp
 2b0:	0000                	unimp
 2b2:	9fff0903          	lb	s2,-1537(t5)
 2b6:	0700                	addi	s0,sp,896
 2b8:	0392                	slli	t2,t2,0x4
 2ba:	0001                	nop
 2bc:	0000                	unimp
 2be:	0000                	unimp
 2c0:	0396                	slli	t2,t2,0x5
 2c2:	0001                	nop
 2c4:	0000                	unimp
 2c6:	0000                	unimp
 2c8:	5f01                	li	t5,-32
 2ca:	0700                	addi	s0,sp,896
 2cc:	03ee                	slli	t2,t2,0x1b
 2ce:	0001                	nop
 2d0:	0000                	unimp
 2d2:	0000                	unimp
 2d4:	03f2                	slli	t2,t2,0x1c
 2d6:	0001                	nop
 2d8:	0000                	unimp
 2da:	0000                	unimp
 2dc:	5a01                	li	s4,-32
 2de:	0700                	addi	s0,sp,896
 2e0:	03d0                	addi	a2,sp,452
 2e2:	0001                	nop
 2e4:	0000                	unimp
 2e6:	0000                	unimp
 2e8:	03da                	slli	t2,t2,0x16
 2ea:	0001                	nop
 2ec:	0000                	unimp
 2ee:	0000                	unimp
 2f0:	9fff0903          	lb	s2,-1537(t5)
 2f4:	0700                	addi	s0,sp,896
 2f6:	03d6                	slli	t2,t2,0x15
 2f8:	0001                	nop
 2fa:	0000                	unimp
 2fc:	0000                	unimp
 2fe:	03da                	slli	t2,t2,0x16
 300:	0001                	nop
 302:	0000                	unimp
 304:	0000                	unimp
 306:	5f01                	li	t5,-32
 308:	0700                	addi	s0,sp,896
 30a:	0416                	slli	s0,s0,0x5
 30c:	0001                	nop
 30e:	0000                	unimp
 310:	0000                	unimp
 312:	0476                	slli	s0,s0,0x1d
 314:	0001                	nop
 316:	0000                	unimp
 318:	0000                	unimp
 31a:	7c06                	ld	s8,96(sp)
 31c:	0800                	addi	s0,sp,16
 31e:	1aff                	.2byte	0x1aff
 320:	009f 1607 0104      	.byte	0x9f, 0x00, 0x07, 0x16, 0x04, 0x01
 326:	0000                	unimp
 328:	0000                	unimp
 32a:	2600                	fld	fs0,8(a2)
 32c:	0104                	addi	s1,sp,128
 32e:	0000                	unimp
 330:	0000                	unimp
 332:	0300                	addi	s0,sp,384
 334:	ff09                	bnez	a4,24e <_prog_start-0xfdb2>
 336:	009f 2207 0104      	.byte	0x9f, 0x00, 0x07, 0x22, 0x04, 0x01
 33c:	0000                	unimp
 33e:	0000                	unimp
 340:	2600                	fld	fs0,8(a2)
 342:	0104                	addi	s1,sp,128
 344:	0000                	unimp
 346:	0000                	unimp
 348:	0100                	addi	s0,sp,128
 34a:	005e                	c.slli	zero,0x17
 34c:	01043207          	fld	ft4,16(s0) # ffffffffffff8010 <_sp+0xffffffff7fef8010>
 350:	0000                	unimp
 352:	0000                	unimp
 354:	4200                	lw	s0,0(a2)
 356:	0104                	addi	s1,sp,128
 358:	0000                	unimp
 35a:	0000                	unimp
 35c:	0300                	addi	s0,sp,384
 35e:	ff09                	bnez	a4,278 <_prog_start-0xfd88>
 360:	009f 3e07 0104      	.byte	0x9f, 0x00, 0x07, 0x3e, 0x04, 0x01
 366:	0000                	unimp
 368:	0000                	unimp
 36a:	4200                	lw	s0,0(a2)
 36c:	0104                	addi	s1,sp,128
 36e:	0000                	unimp
 370:	0000                	unimp
 372:	0100                	addi	s0,sp,128
 374:	005f 4207 0104      	.byte	0x5f, 0x00, 0x07, 0x42, 0x04, 0x01
 37a:	0000                	unimp
 37c:	0000                	unimp
 37e:	5200                	lw	s0,32(a2)
 380:	0104                	addi	s1,sp,128
 382:	0000                	unimp
 384:	0000                	unimp
 386:	0300                	addi	s0,sp,384
 388:	ff09                	bnez	a4,2a2 <_prog_start-0xfd5e>
 38a:	009f 4e07 0104      	.byte	0x9f, 0x00, 0x07, 0x4e, 0x04, 0x01
 390:	0000                	unimp
 392:	0000                	unimp
 394:	5200                	lw	s0,32(a2)
 396:	0104                	addi	s1,sp,128
 398:	0000                	unimp
 39a:	0000                	unimp
 39c:	0100                	addi	s0,sp,128
 39e:	005f 5207 0104      	.byte	0x5f, 0x00, 0x07, 0x52, 0x04, 0x01
 3a4:	0000                	unimp
 3a6:	0000                	unimp
 3a8:	6200                	ld	s0,0(a2)
 3aa:	0104                	addi	s1,sp,128
 3ac:	0000                	unimp
 3ae:	0000                	unimp
 3b0:	0300                	addi	s0,sp,384
 3b2:	ff09                	bnez	a4,2cc <_prog_start-0xfd34>
 3b4:	009f 5e07 0104      	.byte	0x9f, 0x00, 0x07, 0x5e, 0x04, 0x01
 3ba:	0000                	unimp
 3bc:	0000                	unimp
 3be:	6200                	ld	s0,0(a2)
 3c0:	0104                	addi	s1,sp,128
 3c2:	0000                	unimp
 3c4:	0000                	unimp
 3c6:	0100                	addi	s0,sp,128
 3c8:	005f 6207 0104      	.byte	0x5f, 0x00, 0x07, 0x62, 0x04, 0x01
 3ce:	0000                	unimp
 3d0:	0000                	unimp
 3d2:	7200                	ld	s0,32(a2)
 3d4:	0104                	addi	s1,sp,128
 3d6:	0000                	unimp
 3d8:	0000                	unimp
 3da:	0300                	addi	s0,sp,384
 3dc:	ff09                	bnez	a4,2f6 <_prog_start-0xfd0a>
 3de:	009f 6e07 0104      	.byte	0x9f, 0x00, 0x07, 0x6e, 0x04, 0x01
 3e4:	0000                	unimp
 3e6:	0000                	unimp
 3e8:	7200                	ld	s0,32(a2)
 3ea:	0104                	addi	s1,sp,128
 3ec:	0000                	unimp
 3ee:	0000                	unimp
 3f0:	0100                	addi	s0,sp,128
 3f2:	005f 9a07 0104      	.byte	0x5f, 0x00, 0x07, 0x9a, 0x04, 0x01
 3f8:	0000                	unimp
 3fa:	0000                	unimp
 3fc:	a800                	fsd	fs0,16(s0)
 3fe:	0104                	addi	s1,sp,128
 400:	0000                	unimp
 402:	0000                	unimp
 404:	0b00                	addi	s0,sp,400
 406:	007e                	c.slli	zero,0x1f
 408:	ff08                	sd	a0,56(a4)
 40a:	301a                	fld	ft0,416(sp)
 40c:	082e                	slli	a6,a6,0xb
 40e:	1aff                	.2byte	0x1aff
 410:	009f 9a07 0104      	.byte	0x9f, 0x00, 0x07, 0x9a, 0x04, 0x01
 416:	0000                	unimp
 418:	0000                	unimp
 41a:	a400                	fsd	fs0,8(s0)
 41c:	0104                	addi	s1,sp,128
 41e:	0000                	unimp
 420:	0000                	unimp
 422:	0300                	addi	s0,sp,384
 424:	ff09                	bnez	a4,33e <_prog_start-0xfcc2>
 426:	009f a007 0104      	.byte	0x9f, 0x00, 0x07, 0xa0, 0x04, 0x01
 42c:	0000                	unimp
 42e:	0000                	unimp
 430:	a400                	fsd	fs0,8(s0)
 432:	0104                	addi	s1,sp,128
 434:	0000                	unimp
 436:	0000                	unimp
 438:	0100                	addi	s0,sp,128
 43a:	005f ac07 0104      	.byte	0x5f, 0x00, 0x07, 0xac, 0x04, 0x01
 440:	0000                	unimp
 442:	0000                	unimp
 444:	0600                	addi	s0,sp,768
 446:	0105                	addi	sp,sp,1
 448:	0000                	unimp
 44a:	0000                	unimp
 44c:	0400                	addi	s0,sp,512
 44e:	4b40                	lw	s0,20(a4)
 450:	9f24                	.2byte	0x9f24
 452:	01050607          	.4byte	0x1050607
 456:	0000                	unimp
 458:	0000                	unimp
 45a:	2600                	fld	fs0,8(a2)
 45c:	0105                	addi	sp,sp,1
 45e:	0000                	unimp
 460:	0000                	unimp
 462:	0100                	addi	s0,sp,128
 464:	0760                	addi	s0,sp,908
 466:	0526                	slli	a0,a0,0x9
 468:	0001                	nop
 46a:	0000                	unimp
 46c:	0000                	unimp
 46e:	0574                	addi	a3,sp,652
 470:	0001                	nop
 472:	0000                	unimp
 474:	0000                	unimp
 476:	5b01                	li	s6,-32
 478:	01057407          	.4byte	0x1057407
 47c:	0000                	unimp
 47e:	0000                	unimp
 480:	b800                	fsd	fs0,48(s0)
 482:	0105                	addi	sp,sp,1
 484:	0000                	unimp
 486:	0000                	unimp
 488:	0100                	addi	s0,sp,128
 48a:	0755                	addi	a4,a4,21 # 1a015 <dtb+0x974d>
 48c:	060e                	slli	a2,a2,0x3
 48e:	0001                	nop
 490:	0000                	unimp
 492:	0000                	unimp
 494:	0619                	addi	a2,a2,6
 496:	0001                	nop
 498:	0000                	unimp
 49a:	0000                	unimp
 49c:	5501                	li	a0,-32
 49e:	01061e07          	.4byte	0x1061e07
 4a2:	0000                	unimp
 4a4:	0000                	unimp
 4a6:	3200                	fld	fs0,32(a2)
 4a8:	0106                	slli	sp,sp,0x1
 4aa:	0000                	unimp
 4ac:	0000                	unimp
 4ae:	0400                	addi	s0,sp,512
 4b0:	4b40                	lw	s0,20(a4)
 4b2:	9f24                	.2byte	0x9f24
 4b4:	0700                	addi	s0,sp,896
 4b6:	04ac                	addi	a1,sp,584
 4b8:	0001                	nop
 4ba:	0000                	unimp
 4bc:	0000                	unimp
 4be:	0506                	slli	a0,a0,0x1
 4c0:	0001                	nop
 4c2:	0000                	unimp
 4c4:	0000                	unimp
 4c6:	3402                	fld	fs0,32(sp)
 4c8:	079f 061e 0001      	.byte	0x9f, 0x07, 0x1e, 0x06, 0x01, 0x00
 4ce:	0000                	unimp
 4d0:	0000                	unimp
 4d2:	0632                	slli	a2,a2,0xc
 4d4:	0001                	nop
 4d6:	0000                	unimp
 4d8:	0000                	unimp
 4da:	3402                	fld	fs0,32(sp)
 4dc:	009f ac07 0104      	.byte	0x9f, 0x00, 0x07, 0xac, 0x04, 0x01
 4e2:	0000                	unimp
 4e4:	0000                	unimp
 4e6:	b800                	fsd	fs0,48(s0)
 4e8:	0105                	addi	sp,sp,1
 4ea:	0000                	unimp
 4ec:	0000                	unimp
 4ee:	0200                	addi	s0,sp,256
 4f0:	9f30                	.2byte	0x9f30
 4f2:	0105b807          	fld	fa6,16(a1)
 4f6:	0000                	unimp
 4f8:	0000                	unimp
 4fa:	fc00                	sd	s0,56(s0)
 4fc:	0105                	addi	sp,sp,1
 4fe:	0000                	unimp
 500:	0000                	unimp
 502:	0100                	addi	s0,sp,128
 504:	0758                	addi	a4,sp,900
 506:	060e                	slli	a2,a2,0x3
 508:	0001                	nop
 50a:	0000                	unimp
 50c:	0000                	unimp
 50e:	061a                	slli	a2,a2,0x6
 510:	0001                	nop
 512:	0000                	unimp
 514:	0000                	unimp
 516:	3002                	fld	ft0,32(sp)
 518:	079f 061a 0001      	.byte	0x9f, 0x07, 0x1a, 0x06, 0x01, 0x00
 51e:	0000                	unimp
 520:	0000                	unimp
 522:	061e                	slli	a2,a2,0x7
 524:	0001                	nop
 526:	0000                	unimp
 528:	0000                	unimp
 52a:	3102                	fld	ft2,32(sp)
 52c:	079f 061e 0001      	.byte	0x9f, 0x07, 0x1e, 0x06, 0x01, 0x00
 532:	0000                	unimp
 534:	0000                	unimp
 536:	0632                	slli	a2,a2,0xc
 538:	0001                	nop
 53a:	0000                	unimp
 53c:	0000                	unimp
 53e:	3002                	fld	ft0,32(sp)
 540:	009f 0607 0105      	.byte	0x9f, 0x00, 0x07, 0x06, 0x05, 0x01
 546:	0000                	unimp
 548:	0000                	unimp
 54a:	2a00                	fld	fs0,16(a2)
 54c:	0105                	addi	sp,sp,1
 54e:	0000                	unimp
 550:	0000                	unimp
 552:	0200                	addi	s0,sp,256
 554:	9f30                	.2byte	0x9f30
 556:	01052a07          	flw	fs4,16(a0)
 55a:	0000                	unimp
 55c:	0000                	unimp
 55e:	4000                	lw	s0,0(s0)
 560:	0105                	addi	sp,sp,1
 562:	0000                	unimp
 564:	0000                	unimp
 566:	0100                	addi	s0,sp,128
 568:	075c                	addi	a5,sp,900
 56a:	057a                	slli	a0,a0,0x1e
 56c:	0001                	nop
 56e:	0000                	unimp
 570:	0000                	unimp
 572:	05b8                	addi	a4,sp,712
 574:	0001                	nop
 576:	0000                	unimp
 578:	0000                	unimp
 57a:	5c01                	li	s8,-32
 57c:	01060e07          	.4byte	0x1060e07
 580:	0000                	unimp
 582:	0000                	unimp
 584:	1900                	addi	s0,sp,176
 586:	0106                	slli	sp,sp,0x1
 588:	0000                	unimp
 58a:	0000                	unimp
 58c:	0100                	addi	s0,sp,128
 58e:	005c                	addi	a5,sp,4
 590:	01059c07          	.4byte	0x1059c07
 594:	0000                	unimp
 596:	0000                	unimp
 598:	aa00                	fsd	fs0,16(a2)
 59a:	0105                	addi	sp,sp,1
 59c:	0000                	unimp
 59e:	0000                	unimp
 5a0:	0100                	addi	s0,sp,128
 5a2:	075e                	slli	a4,a4,0x17
 5a4:	05aa                	slli	a1,a1,0xa
 5a6:	0001                	nop
 5a8:	0000                	unimp
 5aa:	0000                	unimp
 5ac:	05b8                	addi	a4,sp,712
 5ae:	0001                	nop
 5b0:	0000                	unimp
 5b2:	0000                	unimp
 5b4:	7b09                	lui	s6,0xfffe2
 5b6:	0800                	addi	s0,sp,16
 5b8:	1aff                	.2byte	0x1aff
 5ba:	007e                	c.slli	zero,0x1f
 5bc:	9f21                	addw	a4,a4,s0
 5be:	01060e07          	.4byte	0x1060e07
 5c2:	0000                	unimp
 5c4:	0000                	unimp
 5c6:	1900                	addi	s0,sp,176
 5c8:	0106                	slli	sp,sp,0x1
 5ca:	0000                	unimp
 5cc:	0000                	unimp
 5ce:	0900                	addi	s0,sp,144
 5d0:	ff08007b          	.4byte	0xff08007b
 5d4:	7e1a                	ld	t3,416(sp)
 5d6:	2100                	fld	fs0,0(a0)
 5d8:	009f 0607 0105      	.byte	0x9f, 0x00, 0x07, 0x06, 0x05, 0x01
 5de:	0000                	unimp
 5e0:	0000                	unimp
 5e2:	2a00                	fld	fs0,16(a2)
 5e4:	0105                	addi	sp,sp,1
 5e6:	0000                	unimp
 5e8:	0000                	unimp
 5ea:	0400                	addi	s0,sp,512
 5ec:	000a                	c.slli	zero,0x2
 5ee:	9f02                	jalr	t5
 5f0:	0700                	addi	s0,sp,896
 5f2:	0548                	addi	a0,sp,644
 5f4:	0001                	nop
 5f6:	0000                	unimp
 5f8:	0000                	unimp
 5fa:	0586                	slli	a1,a1,0x1
 5fc:	0001                	nop
 5fe:	0000                	unimp
 600:	0000                	unimp
 602:	5e01                	li	t3,-32
 604:	0700                	addi	s0,sp,896
 606:	0578                	addi	a4,sp,652
 608:	0001                	nop
 60a:	0000                	unimp
 60c:	0000                	unimp
 60e:	057a                	slli	a0,a0,0x1e
 610:	0001                	nop
 612:	0000                	unimp
 614:	0000                	unimp
 616:	5e01                	li	t3,-32
 618:	0700                	addi	s0,sp,896
 61a:	052a                	slli	a0,a0,0xa
 61c:	0001                	nop
 61e:	0000                	unimp
 620:	0000                	unimp
 622:	0548                	addi	a0,sp,644
 624:	0001                	nop
 626:	0000                	unimp
 628:	0000                	unimp
 62a:	9fff0903          	lb	s2,-1537(t5)
 62e:	0700                	addi	s0,sp,896
 630:	0534                	addi	a3,sp,648
 632:	0001                	nop
 634:	0000                	unimp
 636:	0000                	unimp
 638:	0548                	addi	a0,sp,644
 63a:	0001                	nop
 63c:	0000                	unimp
 63e:	0000                	unimp
 640:	5e01                	li	t3,-32
 642:	0700                	addi	s0,sp,896
 644:	050a                	slli	a0,a0,0x2
 646:	0001                	nop
 648:	0000                	unimp
 64a:	0000                	unimp
 64c:	0516                	slli	a0,a0,0x5
 64e:	0001                	nop
 650:	0000                	unimp
 652:	0000                	unimp
 654:	9fff0903          	lb	s2,-1537(t5)
 658:	0700                	addi	s0,sp,896
 65a:	0512                	slli	a0,a0,0x4
 65c:	0001                	nop
 65e:	0000                	unimp
 660:	0000                	unimp
 662:	0516                	slli	a0,a0,0x5
 664:	0001                	nop
 666:	0000                	unimp
 668:	0000                	unimp
 66a:	5e01                	li	t3,-32
 66c:	0700                	addi	s0,sp,896
 66e:	0582                	c.slli64	a1
 670:	0001                	nop
 672:	0000                	unimp
 674:	0000                	unimp
 676:	0590                	addi	a2,sp,704
 678:	0001                	nop
 67a:	0000                	unimp
 67c:	0000                	unimp
 67e:	9fff0903          	lb	s2,-1537(t5)
 682:	0700                	addi	s0,sp,896
 684:	058c                	addi	a1,sp,704
 686:	0001                	nop
 688:	0000                	unimp
 68a:	0000                	unimp
 68c:	0590                	addi	a2,sp,704
 68e:	0001                	nop
 690:	0000                	unimp
 692:	0000                	unimp
 694:	5e01                	li	t3,-32
 696:	0700                	addi	s0,sp,896
 698:	059c                	addi	a5,sp,704
 69a:	0001                	nop
 69c:	0000                	unimp
 69e:	0000                	unimp
 6a0:	05aa                	slli	a1,a1,0xa
 6a2:	0001                	nop
 6a4:	0000                	unimp
 6a6:	0000                	unimp
 6a8:	9fff0903          	lb	s2,-1537(t5)
 6ac:	0700                	addi	s0,sp,896
 6ae:	05a6                	slli	a1,a1,0x9
 6b0:	0001                	nop
 6b2:	0000                	unimp
 6b4:	0000                	unimp
 6b6:	05aa                	slli	a1,a1,0xa
 6b8:	0001                	nop
 6ba:	0000                	unimp
 6bc:	0000                	unimp
 6be:	5b01                	li	s6,-32
 6c0:	0700                	addi	s0,sp,896
 6c2:	05b8                	addi	a4,sp,712
 6c4:	0001                	nop
 6c6:	0000                	unimp
 6c8:	0000                	unimp
 6ca:	05cc                	addi	a1,sp,708
 6cc:	0001                	nop
 6ce:	0000                	unimp
 6d0:	0000                	unimp
 6d2:	9fff0903          	lb	s2,-1537(t5)
 6d6:	0700                	addi	s0,sp,896
 6d8:	05c8                	addi	a0,sp,708
 6da:	0001                	nop
 6dc:	0000                	unimp
 6de:	0000                	unimp
 6e0:	05cc                	addi	a1,sp,708
 6e2:	0001                	nop
 6e4:	0000                	unimp
 6e6:	0000                	unimp
 6e8:	5f01                	li	t5,-32
 6ea:	0700                	addi	s0,sp,896
 6ec:	05dc                	addi	a5,sp,708
 6ee:	0001                	nop
 6f0:	0000                	unimp
 6f2:	0000                	unimp
 6f4:	05ec                	addi	a1,sp,716
 6f6:	0001                	nop
 6f8:	0000                	unimp
 6fa:	0000                	unimp
 6fc:	9fff0903          	lb	s2,-1537(t5)
 700:	0700                	addi	s0,sp,896
 702:	05e8                	addi	a0,sp,716
 704:	0001                	nop
 706:	0000                	unimp
 708:	0000                	unimp
 70a:	05ec                	addi	a1,sp,716
 70c:	0001                	nop
 70e:	0000                	unimp
 710:	0000                	unimp
 712:	5e01                	li	t3,-32
 714:	0700                	addi	s0,sp,896
 716:	061e                	slli	a2,a2,0x7
 718:	0001                	nop
 71a:	0000                	unimp
 71c:	0000                	unimp
 71e:	062e                	slli	a2,a2,0xb
 720:	0001                	nop
 722:	0000                	unimp
 724:	0000                	unimp
 726:	9fff0903          	lb	s2,-1537(t5)
 72a:	0700                	addi	s0,sp,896
 72c:	062a                	slli	a2,a2,0xa
 72e:	0001                	nop
 730:	0000                	unimp
 732:	0000                	unimp
 734:	062e                	slli	a2,a2,0xb
 736:	0001                	nop
 738:	0000                	unimp
 73a:	0000                	unimp
 73c:	5e01                	li	t3,-32
 73e:	0700                	addi	s0,sp,896
 740:	018c                	addi	a1,sp,192
 742:	0001                	nop
 744:	0000                	unimp
 746:	0000                	unimp
 748:	01ac                	addi	a1,sp,200
 74a:	0001                	nop
 74c:	0000                	unimp
 74e:	0000                	unimp
 750:	5a01                	li	s4,-32
 752:	0101ac07          	flw	fs8,16(gp)
 756:	0000                	unimp
 758:	0000                	unimp
 75a:	4e00                	lw	s0,24(a2)
 75c:	0102                	c.slli64	sp
 75e:	0000                	unimp
 760:	0000                	unimp
 762:	0400                	addi	s0,sp,512
 764:	9f5a01a3          	sb	s5,-1565(s4)
 768:	0700                	addi	s0,sp,896
 76a:	018c                	addi	a1,sp,192
 76c:	0001                	nop
 76e:	0000                	unimp
 770:	0000                	unimp
 772:	01ee                	slli	gp,gp,0x1b
 774:	0001                	nop
 776:	0000                	unimp
 778:	0000                	unimp
 77a:	5b01                	li	s6,-32
 77c:	0101ee07          	.4byte	0x101ee07
 780:	0000                	unimp
 782:	0000                	unimp
 784:	4e00                	lw	s0,24(a2)
 786:	0102                	c.slli64	sp
 788:	0000                	unimp
 78a:	0000                	unimp
 78c:	0400                	addi	s0,sp,512
 78e:	9f5b01a3          	sb	s5,-1565(s6) # fffffffffffe19e3 <_sp+0xffffffff7fee19e3>
 792:	0700                	addi	s0,sp,896
 794:	018c                	addi	a1,sp,192
 796:	0001                	nop
 798:	0000                	unimp
 79a:	0000                	unimp
 79c:	021a                	slli	tp,tp,0x6
 79e:	0001                	nop
 7a0:	0000                	unimp
 7a2:	0000                	unimp
 7a4:	5c01                	li	s8,-32
 7a6:	01021a07          	.4byte	0x1021a07
 7aa:	0000                	unimp
 7ac:	0000                	unimp
 7ae:	4e00                	lw	s0,24(a2)
 7b0:	0102                	c.slli64	sp
 7b2:	0000                	unimp
 7b4:	0000                	unimp
 7b6:	0400                	addi	s0,sp,512
 7b8:	9f5c01a3          	sb	s5,-1565(s8) # fffffffffffe19e3 <_sp+0xffffffff7fee19e3>
 7bc:	0700                	addi	s0,sp,896
 7be:	0226                	slli	tp,tp,0x9
 7c0:	0001                	nop
 7c2:	0000                	unimp
 7c4:	0000                	unimp
 7c6:	024a                	slli	tp,tp,0x12
 7c8:	0001                	nop
 7ca:	0000                	unimp
 7cc:	0000                	unimp
 7ce:	5801                	li	a6,-32
 7d0:	01024a07          	.4byte	0x1024a07
 7d4:	0000                	unimp
 7d6:	0000                	unimp
 7d8:	4e00                	lw	s0,24(a2)
 7da:	0102                	c.slli64	sp
 7dc:	0000                	unimp
 7de:	0000                	unimp
 7e0:	0100                	addi	s0,sp,128
 7e2:	005a                	c.slli	zero,0x16
 7e4:	01019a07          	.4byte	0x1019a07
 7e8:	0000                	unimp
 7ea:	0000                	unimp
 7ec:	aa00                	fsd	fs0,16(a2)
 7ee:	0101                	addi	sp,sp,0
 7f0:	0000                	unimp
 7f2:	0000                	unimp
 7f4:	0300                	addi	s0,sp,384
 7f6:	ff09                	bnez	a4,710 <_prog_start-0xf8f0>
 7f8:	009f a607 0101      	.byte	0x9f, 0x00, 0x07, 0xa6, 0x01, 0x01
 7fe:	0000                	unimp
 800:	0000                	unimp
 802:	aa00                	fsd	fs0,16(a2)
 804:	0101                	addi	sp,sp,0
 806:	0000                	unimp
 808:	0000                	unimp
 80a:	0100                	addi	s0,sp,128
 80c:	005f aa07 0101      	.byte	0x5f, 0x00, 0x07, 0xaa, 0x01, 0x01
 812:	0000                	unimp
 814:	0000                	unimp
 816:	ac00                	fsd	fs0,24(s0)
 818:	0101                	addi	sp,sp,0
 81a:	0000                	unimp
 81c:	0000                	unimp
 81e:	0100                	addi	s0,sp,128
 820:	075a                	slli	a4,a4,0x16
 822:	01ac                	addi	a1,sp,200
 824:	0001                	nop
 826:	0000                	unimp
 828:	0000                	unimp
 82a:	01b8                	addi	a4,sp,200
 82c:	0001                	nop
 82e:	0000                	unimp
 830:	0000                	unimp
 832:	a304                	fsd	fs1,0(a4)
 834:	5a01                	li	s4,-32
 836:	009f b407 0101      	.byte	0x9f, 0x00, 0x07, 0xb4, 0x01, 0x01
 83c:	0000                	unimp
 83e:	0000                	unimp
 840:	b800                	fsd	fs0,48(s0)
 842:	0101                	addi	sp,sp,0
 844:	0000                	unimp
 846:	0000                	unimp
 848:	0100                	addi	s0,sp,128
 84a:	005f bc07 0101      	.byte	0x5f, 0x00, 0x07, 0xbc, 0x01, 0x01
 850:	0000                	unimp
 852:	0000                	unimp
 854:	c200                	sw	s0,0(a2)
 856:	0101                	addi	sp,sp,0
 858:	0000                	unimp
 85a:	0000                	unimp
 85c:	0100                	addi	s0,sp,128
 85e:	075f 01c2 0001      	.byte	0x5f, 0x07, 0xc2, 0x01, 0x01, 0x00
 864:	0000                	unimp
 866:	0000                	unimp
 868:	01c8                	addi	a0,sp,196
 86a:	0001                	nop
 86c:	0000                	unimp
 86e:	0000                	unimp
 870:	00c87e03          	.4byte	0xc87e03
 874:	0700                	addi	s0,sp,896
 876:	01c4                	addi	s1,sp,196
 878:	0001                	nop
 87a:	0000                	unimp
 87c:	0000                	unimp
 87e:	01c8                	addi	a0,sp,196
 880:	0001                	nop
 882:	0000                	unimp
 884:	0000                	unimp
 886:	5f01                	li	t5,-32
 888:	0700                	addi	s0,sp,896
 88a:	01c8                	addi	a0,sp,196
 88c:	0001                	nop
 88e:	0000                	unimp
 890:	0000                	unimp
 892:	01d6                	slli	gp,gp,0x15
 894:	0001                	nop
 896:	0000                	unimp
 898:	0000                	unimp
 89a:	7b05                	lui	s6,0xfffe1
 89c:	4000                	lw	s0,0(s0)
 89e:	9f25                	addw	a4,a4,s1
 8a0:	0700                	addi	s0,sp,896
 8a2:	01d2                	slli	gp,gp,0x14
 8a4:	0001                	nop
 8a6:	0000                	unimp
 8a8:	0000                	unimp
 8aa:	01d6                	slli	gp,gp,0x15
 8ac:	0001                	nop
 8ae:	0000                	unimp
 8b0:	0000                	unimp
 8b2:	5f01                	li	t5,-32
 8b4:	0700                	addi	s0,sp,896
 8b6:	01d6                	slli	gp,gp,0x15
 8b8:	0001                	nop
 8ba:	0000                	unimp
 8bc:	0000                	unimp
 8be:	01ea                	slli	gp,gp,0x1a
 8c0:	0001                	nop
 8c2:	0000                	unimp
 8c4:	0000                	unimp
 8c6:	7b05                	lui	s6,0xfffe1
 8c8:	3800                	fld	fs0,48(s0)
 8ca:	9f25                	addw	a4,a4,s1
 8cc:	0700                	addi	s0,sp,896
 8ce:	01e6                	slli	gp,gp,0x19
 8d0:	0001                	nop
 8d2:	0000                	unimp
 8d4:	0000                	unimp
 8d6:	01ea                	slli	gp,gp,0x1a
 8d8:	0001                	nop
 8da:	0000                	unimp
 8dc:	0000                	unimp
 8de:	5f01                	li	t5,-32
 8e0:	0700                	addi	s0,sp,896
 8e2:	01ea                	slli	gp,gp,0x1a
 8e4:	0001                	nop
 8e6:	0000                	unimp
 8e8:	0000                	unimp
 8ea:	01fa                	slli	gp,gp,0x1e
 8ec:	0001                	nop
 8ee:	0000                	unimp
 8f0:	0000                	unimp
 8f2:	5b01                	li	s6,-32
 8f4:	0700                	addi	s0,sp,896
 8f6:	01f6                	slli	gp,gp,0x1d
 8f8:	0001                	nop
 8fa:	0000                	unimp
 8fc:	0000                	unimp
 8fe:	01fa                	slli	gp,gp,0x1e
 900:	0001                	nop
 902:	0000                	unimp
 904:	0000                	unimp
 906:	5f01                	li	t5,-32
 908:	0700                	addi	s0,sp,896
 90a:	01fa                	slli	gp,gp,0x1e
 90c:	0001                	nop
 90e:	0000                	unimp
 910:	0000                	unimp
 912:	021a                	slli	tp,tp,0x6
 914:	0001                	nop
 916:	0000                	unimp
 918:	0000                	unimp
 91a:	5c01                	li	s8,-32
 91c:	0700                	addi	s0,sp,896
 91e:	0206                	slli	tp,tp,0x1
 920:	0001                	nop
 922:	0000                	unimp
 924:	0000                	unimp
 926:	021a                	slli	tp,tp,0x6
 928:	0001                	nop
 92a:	0000                	unimp
 92c:	0000                	unimp
 92e:	5f01                	li	t5,-32
 930:	0700                	addi	s0,sp,896
 932:	021a                	slli	tp,tp,0x6
 934:	0001                	nop
 936:	0000                	unimp
 938:	0000                	unimp
 93a:	0226                	slli	tp,tp,0x9
 93c:	0001                	nop
 93e:	0000                	unimp
 940:	0000                	unimp
 942:	9fff0903          	lb	s2,-1537(t5)
 946:	0700                	addi	s0,sp,896
 948:	0222                	slli	tp,tp,0x8
 94a:	0001                	nop
 94c:	0000                	unimp
 94e:	0000                	unimp
 950:	0226                	slli	tp,tp,0x9
 952:	0001                	nop
 954:	0000                	unimp
 956:	0000                	unimp
 958:	5801                	li	a6,-32
 95a:	ce00                	sw	s0,24(a2)
 95c:	05000003          	lb	zero,80(zero) # 50 <_prog_start-0xffb0>
 960:	0800                	addi	s0,sp,16
 962:	0000                	unimp
 964:	0000                	unimp
 966:	0700                	addi	s0,sp,896
 968:	0672                	slli	a2,a2,0x1c
 96a:	0001                	nop
 96c:	0000                	unimp
 96e:	0000                	unimp
 970:	068a                	slli	a3,a3,0x2
 972:	0001                	nop
 974:	0000                	unimp
 976:	0000                	unimp
 978:	5a01                	li	s4,-32
 97a:	01068a07          	.4byte	0x1068a07
 97e:	0000                	unimp
 980:	0000                	unimp
 982:	9200                	.2byte	0x9200
 984:	0106                	slli	sp,sp,0x1
 986:	0000                	unimp
 988:	0000                	unimp
 98a:	0300                	addi	s0,sp,384
 98c:	017a                	slli	sp,sp,0x1e
 98e:	079f 0692 0001      	.byte	0x9f, 0x07, 0x92, 0x06, 0x01, 0x00
 994:	0000                	unimp
 996:	0000                	unimp
 998:	06ec                	addi	a1,sp,844
 99a:	0001                	nop
 99c:	0000                	unimp
 99e:	0000                	unimp
 9a0:	5b01                	li	s6,-32
 9a2:	0106f007          	.4byte	0x106f007
 9a6:	0000                	unimp
 9a8:	0000                	unimp
 9aa:	8c00                	.2byte	0x8c00
 9ac:	00000107          	.4byte	0x107
 9b0:	0000                	unimp
 9b2:	0100                	addi	s0,sp,128
 9b4:	8a07005b          	.4byte	0x8a07005b
 9b8:	0106                	slli	sp,sp,0x1
 9ba:	0000                	unimp
 9bc:	0000                	unimp
 9be:	aa00                	fsd	fs0,16(a2)
 9c0:	0106                	slli	sp,sp,0x1
 9c2:	0000                	unimp
 9c4:	0000                	unimp
 9c6:	0200                	addi	s0,sp,256
 9c8:	9f30                	.2byte	0x9f30
 9ca:	0106aa07          	flw	fs4,16(a3) # a36 <_prog_start-0xf5ca>
 9ce:	0000                	unimp
 9d0:	0000                	unimp
 9d2:	ca00                	sw	s0,16(a2)
 9d4:	0106                	slli	sp,sp,0x1
 9d6:	0000                	unimp
 9d8:	0000                	unimp
 9da:	0100                	addi	s0,sp,128
 9dc:	075e                	slli	a4,a4,0x17
 9de:	06e2                	slli	a3,a3,0x18
 9e0:	0001                	nop
 9e2:	0000                	unimp
 9e4:	0000                	unimp
 9e6:	06ec                	addi	a1,sp,844
 9e8:	0001                	nop
 9ea:	0000                	unimp
 9ec:	0000                	unimp
 9ee:	5e01                	li	t3,-32
 9f0:	0106f007          	.4byte	0x106f007
 9f4:	0000                	unimp
 9f6:	0000                	unimp
 9f8:	f600                	sd	s0,40(a2)
 9fa:	0106                	slli	sp,sp,0x1
 9fc:	0000                	unimp
 9fe:	0000                	unimp
 a00:	0100                	addi	s0,sp,128
 a02:	075e                	slli	a4,a4,0x17
 a04:	0730                	addi	a2,sp,904
 a06:	0001                	nop
 a08:	0000                	unimp
 a0a:	0000                	unimp
 a0c:	0742                	slli	a4,a4,0x10
 a0e:	0001                	nop
 a10:	0000                	unimp
 a12:	0000                	unimp
 a14:	5e01                	li	t3,-32
 a16:	01075607          	.4byte	0x1075607
 a1a:	0000                	unimp
 a1c:	0000                	unimp
 a1e:	7400                	ld	s0,40(s0)
 a20:	00000107          	.4byte	0x107
 a24:	0000                	unimp
 a26:	0200                	addi	s0,sp,256
 a28:	9f30                	.2byte	0x9f30
 a2a:	01078407          	.4byte	0x1078407
 a2e:	0000                	unimp
 a30:	0000                	unimp
 a32:	8c00                	.2byte	0x8c00
 a34:	00000107          	.4byte	0x107
 a38:	0000                	unimp
 a3a:	0100                	addi	s0,sp,128
 a3c:	005e                	c.slli	zero,0x17
 a3e:	01068a07          	.4byte	0x1068a07
 a42:	0000                	unimp
 a44:	0000                	unimp
 a46:	aa00                	fsd	fs0,16(a2)
 a48:	0106                	slli	sp,sp,0x1
 a4a:	0000                	unimp
 a4c:	0000                	unimp
 a4e:	0200                	addi	s0,sp,256
 a50:	9f30                	.2byte	0x9f30
 a52:	0106aa07          	flw	fs4,16(a3)
 a56:	0000                	unimp
 a58:	0000                	unimp
 a5a:	ce00                	sw	s0,24(a2)
 a5c:	0106                	slli	sp,sp,0x1
 a5e:	0000                	unimp
 a60:	0000                	unimp
 a62:	0100                	addi	s0,sp,128
 a64:	075d                	addi	a4,a4,23
 a66:	06e2                	slli	a3,a3,0x18
 a68:	0001                	nop
 a6a:	0000                	unimp
 a6c:	0000                	unimp
 a6e:	06ec                	addi	a1,sp,844
 a70:	0001                	nop
 a72:	0000                	unimp
 a74:	0000                	unimp
 a76:	5d01                	li	s10,-32
 a78:	0106f007          	.4byte	0x106f007
 a7c:	0000                	unimp
 a7e:	0000                	unimp
 a80:	0a00                	addi	s0,sp,272
 a82:	00000107          	.4byte	0x107
 a86:	0000                	unimp
 a88:	0100                	addi	s0,sp,128
 a8a:	075d                	addi	a4,a4,23
 a8c:	0730                	addi	a2,sp,904
 a8e:	0001                	nop
 a90:	0000                	unimp
 a92:	0000                	unimp
 a94:	073c                	addi	a5,sp,904
 a96:	0001                	nop
 a98:	0000                	unimp
 a9a:	0000                	unimp
 a9c:	5d01                	li	s10,-32
 a9e:	01075607          	.4byte	0x1075607
 aa2:	0000                	unimp
 aa4:	0000                	unimp
 aa6:	8a00                	.2byte	0x8a00
 aa8:	00000107          	.4byte	0x107
 aac:	0000                	unimp
 aae:	0100                	addi	s0,sp,128
 ab0:	005d                	c.nop	23
 ab2:	01068a07          	.4byte	0x1068a07
 ab6:	0000                	unimp
 ab8:	0000                	unimp
 aba:	aa00                	fsd	fs0,16(a2)
 abc:	0106                	slli	sp,sp,0x1
 abe:	0000                	unimp
 ac0:	0000                	unimp
 ac2:	0200                	addi	s0,sp,256
 ac4:	9f30                	.2byte	0x9f30
 ac6:	0106aa07          	flw	fs4,16(a3)
 aca:	0000                	unimp
 acc:	0000                	unimp
 ace:	dc00                	sw	s0,56(s0)
 ad0:	0106                	slli	sp,sp,0x1
 ad2:	0000                	unimp
 ad4:	0000                	unimp
 ad6:	0100                	addi	s0,sp,128
 ad8:	076d                	addi	a4,a4,27
 ada:	06e2                	slli	a3,a3,0x18
 adc:	0001                	nop
 ade:	0000                	unimp
 ae0:	0000                	unimp
 ae2:	06ec                	addi	a1,sp,844
 ae4:	0001                	nop
 ae6:	0000                	unimp
 ae8:	0000                	unimp
 aea:	6d01                	.2byte	0x6d01
 aec:	0106f007          	.4byte	0x106f007
 af0:	0000                	unimp
 af2:	0000                	unimp
 af4:	0a00                	addi	s0,sp,272
 af6:	00000107          	.4byte	0x107
 afa:	0000                	unimp
 afc:	0100                	addi	s0,sp,128
 afe:	076d                	addi	a4,a4,27
 b00:	0730                	addi	a2,sp,904
 b02:	0001                	nop
 b04:	0000                	unimp
 b06:	0000                	unimp
 b08:	0786                	slli	a5,a5,0x1
 b0a:	0001                	nop
 b0c:	0000                	unimp
 b0e:	0000                	unimp
 b10:	6d01                	.2byte	0x6d01
 b12:	01078807          	.4byte	0x1078807
 b16:	0000                	unimp
 b18:	0000                	unimp
 b1a:	8c00                	.2byte	0x8c00
 b1c:	00000107          	.4byte	0x107
 b20:	0000                	unimp
 b22:	0100                	addi	s0,sp,128
 b24:	006d                	c.nop	27
 b26:	01068a07          	.4byte	0x1068a07
 b2a:	0000                	unimp
 b2c:	0000                	unimp
 b2e:	b000                	fsd	fs0,32(s0)
 b30:	0106                	slli	sp,sp,0x1
 b32:	0000                	unimp
 b34:	0000                	unimp
 b36:	0100                	addi	s0,sp,128
 b38:	0756                	slli	a4,a4,0x15
 b3a:	06e8                	addi	a0,sp,844
 b3c:	0001                	nop
 b3e:	0000                	unimp
 b40:	0000                	unimp
 b42:	06f0                	addi	a2,sp,844
 b44:	0001                	nop
 b46:	0000                	unimp
 b48:	0000                	unimp
 b4a:	5601                	li	a2,-32
 b4c:	01075607          	.4byte	0x1075607
 b50:	0000                	unimp
 b52:	0000                	unimp
 b54:	7400                	ld	s0,40(s0)
 b56:	00000107          	.4byte	0x107
 b5a:	0000                	unimp
 b5c:	0100                	addi	s0,sp,128
 b5e:	0056                	c.slli	zero,0x15
 b60:	0106fc07          	.4byte	0x106fc07
 b64:	0000                	unimp
 b66:	0000                	unimp
 b68:	0200                	addi	s0,sp,256
 b6a:	00000107          	.4byte	0x107
 b6e:	0000                	unimp
 b70:	0100                	addi	s0,sp,128
 b72:	070a076f          	jal	a4,a0be2 <dtb+0x9031a>
 b76:	0001                	nop
 b78:	0000                	unimp
 b7a:	0000                	unimp
 b7c:	0730                	addi	a2,sp,904
 b7e:	0001                	nop
 b80:	0000                	unimp
 b82:	0000                	unimp
 b84:	6f01                	.2byte	0x6f01
 b86:	01077a07          	.4byte	0x1077a07
 b8a:	0000                	unimp
 b8c:	0000                	unimp
 b8e:	8400                	.2byte	0x8400
 b90:	00000107          	.4byte	0x107
 b94:	0000                	unimp
 b96:	0100                	addi	s0,sp,128
 b98:	fc07006f          	j	fffffffffff71358 <_sp+0xffffffff7fe71358>
 b9c:	0106                	slli	sp,sp,0x1
 b9e:	0000                	unimp
 ba0:	0000                	unimp
 ba2:	0200                	addi	s0,sp,256
 ba4:	00000107          	.4byte	0x107
 ba8:	0000                	unimp
 baa:	0300                	addi	s0,sp,384
 bac:	3c08                	fld	fa0,56(s0)
 bae:	079f 070a 0001      	.byte	0x9f, 0x07, 0x0a, 0x07, 0x01, 0x00
 bb4:	0000                	unimp
 bb6:	0000                	unimp
 bb8:	0730                	addi	a2,sp,904
 bba:	0001                	nop
 bbc:	0000                	unimp
 bbe:	0000                	unimp
 bc0:	5a01                	li	s4,-32
 bc2:	0700                	addi	s0,sp,896
 bc4:	0712                	slli	a4,a4,0x4
 bc6:	0001                	nop
 bc8:	0000                	unimp
 bca:	0000                	unimp
 bcc:	0730                	addi	a2,sp,904
 bce:	0001                	nop
 bd0:	0000                	unimp
 bd2:	0000                	unimp
 bd4:	5601                	li	a2,-32
 bd6:	0700                	addi	s0,sp,896
 bd8:	0724                	addi	s1,sp,904
 bda:	0001                	nop
 bdc:	0000                	unimp
 bde:	0000                	unimp
 be0:	0728                	addi	a0,sp,904
 be2:	0001                	nop
 be4:	0000                	unimp
 be6:	0000                	unimp
 be8:	5f01                	li	t5,-32
 bea:	0700                	addi	s0,sp,896
 bec:	0764                	addi	s1,sp,908
 bee:	0001                	nop
 bf0:	0000                	unimp
 bf2:	0000                	unimp
 bf4:	076c                	addi	a1,sp,908
 bf6:	0001                	nop
 bf8:	0000                	unimp
 bfa:	0000                	unimp
 bfc:	5f01                	li	t5,-32
 bfe:	01076e07          	.4byte	0x1076e07
 c02:	0000                	unimp
 c04:	0000                	unimp
 c06:	7400                	ld	s0,40(s0)
 c08:	00000107          	.4byte	0x107
 c0c:	0000                	unimp
 c0e:	0100                	addi	s0,sp,128
 c10:	005f ce07 0106      	.byte	0x5f, 0x00, 0x07, 0xce, 0x06, 0x01
 c16:	0000                	unimp
 c18:	0000                	unimp
 c1a:	dc00                	sw	s0,56(s0)
 c1c:	0106                	slli	sp,sp,0x1
 c1e:	0000                	unimp
 c20:	0000                	unimp
 c22:	0100                	addi	s0,sp,128
 c24:	005d                	c.nop	23
 c26:	0106ce07          	.4byte	0x106ce07
 c2a:	0000                	unimp
 c2c:	0000                	unimp
 c2e:	dc00                	sw	s0,56(s0)
 c30:	0106                	slli	sp,sp,0x1
 c32:	0000                	unimp
 c34:	0000                	unimp
 c36:	0400                	addi	s0,sp,512
 c38:	4a49                	li	s4,18
 c3a:	9f24                	.2byte	0x9f24
 c3c:	0700                	addi	s0,sp,896
 c3e:	06d8                	addi	a4,sp,836
 c40:	0001                	nop
 c42:	0000                	unimp
 c44:	0000                	unimp
 c46:	06dc                	addi	a5,sp,836
 c48:	0001                	nop
 c4a:	0000                	unimp
 c4c:	0000                	unimp
 c4e:	5f01                	li	t5,-32
 c50:	0700                	addi	s0,sp,896
 c52:	0734                	addi	a3,sp,904
 c54:	0001                	nop
 c56:	0000                	unimp
 c58:	0000                	unimp
 c5a:	0756                	slli	a4,a4,0x15
 c5c:	0001                	nop
 c5e:	0000                	unimp
 c60:	0000                	unimp
 c62:	5a01                	li	s4,-32
 c64:	0700                	addi	s0,sp,896
 c66:	073c                	addi	a5,sp,904
 c68:	0001                	nop
 c6a:	0000                	unimp
 c6c:	0000                	unimp
 c6e:	0750                	addi	a2,sp,900
 c70:	0001                	nop
 c72:	0000                	unimp
 c74:	0000                	unimp
 c76:	5d01                	li	s10,-32
 c78:	01075207          	.4byte	0x1075207
 c7c:	0000                	unimp
 c7e:	0000                	unimp
 c80:	5600                	lw	s0,40(a2)
 c82:	00000107          	.4byte	0x107
 c86:	0000                	unimp
 c88:	0100                	addi	s0,sp,128
 c8a:	005d                	c.nop	23
 c8c:	01074807          	.4byte	0x1074807
 c90:	0000                	unimp
 c92:	0000                	unimp
 c94:	4c00                	lw	s0,24(s0)
 c96:	00000107          	.4byte	0x107
 c9a:	0000                	unimp
 c9c:	0100                	addi	s0,sp,128
 c9e:	005f 3407 0106      	.byte	0x5f, 0x00, 0x07, 0x34, 0x06, 0x01
 ca4:	0000                	unimp
 ca6:	0000                	unimp
 ca8:	3e00                	fld	fs0,56(a2)
 caa:	0106                	slli	sp,sp,0x1
 cac:	0000                	unimp
 cae:	0000                	unimp
 cb0:	0100                	addi	s0,sp,128
 cb2:	075a                	slli	a4,a4,0x16
 cb4:	063e                	slli	a2,a2,0xf
 cb6:	0001                	nop
 cb8:	0000                	unimp
 cba:	0000                	unimp
 cbc:	0672                	slli	a2,a2,0x1c
 cbe:	0001                	nop
 cc0:	0000                	unimp
 cc2:	0000                	unimp
 cc4:	a304                	fsd	fs1,0(a4)
 cc6:	5a01                	li	s4,-32
 cc8:	009f 3407 0106      	.byte	0x9f, 0x00, 0x07, 0x34, 0x06, 0x01
 cce:	0000                	unimp
 cd0:	0000                	unimp
 cd2:	5600                	lw	s0,40(a2)
 cd4:	0106                	slli	sp,sp,0x1
 cd6:	0000                	unimp
 cd8:	0000                	unimp
 cda:	0100                	addi	s0,sp,128
 cdc:	005a                	c.slli	zero,0x16
 cde:	01063807          	fld	fa6,16(a2)
 ce2:	0000                	unimp
 ce4:	0000                	unimp
 ce6:	4c00                	lw	s0,24(s0)
 ce8:	0106                	slli	sp,sp,0x1
 cea:	0000                	unimp
 cec:	0000                	unimp
 cee:	0100                	addi	s0,sp,128
 cf0:	075d                	addi	a4,a4,23
 cf2:	064e                	slli	a2,a2,0x13
 cf4:	0001                	nop
 cf6:	0000                	unimp
 cf8:	0000                	unimp
 cfa:	0656                	slli	a2,a2,0x15
 cfc:	0001                	nop
 cfe:	0000                	unimp
 d00:	0000                	unimp
 d02:	5d01                	li	s10,-32
 d04:	0700                	addi	s0,sp,896
 d06:	0644                	addi	s1,sp,772
 d08:	0001                	nop
 d0a:	0000                	unimp
 d0c:	0000                	unimp
 d0e:	0648                	addi	a0,sp,772
 d10:	0001                	nop
 d12:	0000                	unimp
 d14:	0000                	unimp
 d16:	5f01                	li	t5,-32
 d18:	0700                	addi	s0,sp,896
 d1a:	065c                	addi	a5,sp,772
 d1c:	0001                	nop
 d1e:	0000                	unimp
 d20:	0000                	unimp
 d22:	0666                	slli	a2,a2,0x19
 d24:	0001                	nop
 d26:	0000                	unimp
 d28:	0000                	unimp
 d2a:	5f01                	li	t5,-32
	...

Disassembly of section .debug_rnglists:

0000000000000000 <.debug_rnglists>:
   0:	03d6                	slli	t2,t2,0x15
   2:	0000                	unimp
   4:	0005                	c.nop	1
   6:	0008                	.2byte	0x8
   8:	0000                	unimp
   a:	0000                	unimp
   c:	d606                	sw	ra,44(sp)
   e:	0101                	addi	sp,sp,0
  10:	0000                	unimp
  12:	0000                	unimp
  14:	d600                	sw	s0,40(a2)
  16:	0101                	addi	sp,sp,0
  18:	0000                	unimp
  1a:	0000                	unimp
  1c:	0600                	addi	s0,sp,768
  1e:	01de                	slli	gp,gp,0x17
  20:	0001                	nop
  22:	0000                	unimp
  24:	0000                	unimp
  26:	01ea                	slli	gp,gp,0x1a
  28:	0001                	nop
  2a:	0000                	unimp
  2c:	0000                	unimp
  2e:	0600                	addi	s0,sp,768
  30:	01fa                	slli	gp,gp,0x1e
  32:	0001                	nop
  34:	0000                	unimp
  36:	0000                	unimp
  38:	020a                	slli	tp,tp,0x2
  3a:	0001                	nop
  3c:	0000                	unimp
  3e:	0000                	unimp
  40:	0e06                	slli	t3,t3,0x1
  42:	0102                	c.slli64	sp
  44:	0000                	unimp
  46:	0000                	unimp
  48:	1200                	addi	s0,sp,288
  4a:	0102                	c.slli64	sp
  4c:	0000                	unimp
  4e:	0000                	unimp
  50:	0000                	unimp
  52:	0a06                	slli	s4,s4,0x1
  54:	0102                	c.slli64	sp
  56:	0000                	unimp
  58:	0000                	unimp
  5a:	0e00                	addi	s0,sp,784
  5c:	0102                	c.slli64	sp
  5e:	0000                	unimp
  60:	0000                	unimp
  62:	0600                	addi	s0,sp,768
  64:	0212                	slli	tp,tp,0x4
  66:	0001                	nop
  68:	0000                	unimp
  6a:	0000                	unimp
  6c:	021a                	slli	tp,tp,0x6
  6e:	0001                	nop
  70:	0000                	unimp
  72:	0000                	unimp
  74:	1a06                	slli	s4,s4,0x21
  76:	0102                	c.slli64	sp
  78:	0000                	unimp
  7a:	0000                	unimp
  7c:	2600                	fld	fs0,8(a2)
  7e:	0102                	c.slli64	sp
  80:	0000                	unimp
  82:	0000                	unimp
  84:	0000                	unimp
  86:	9606                	add	a2,a2,ra
  88:	0102                	c.slli64	sp
  8a:	0000                	unimp
  8c:	0000                	unimp
  8e:	c000                	sw	s0,0(s0)
  90:	0102                	c.slli64	sp
  92:	0000                	unimp
  94:	0000                	unimp
  96:	0600                	addi	s0,sp,768
  98:	02c8                	addi	a0,sp,324
  9a:	0001                	nop
  9c:	0000                	unimp
  9e:	0000                	unimp
  a0:	02cc                	addi	a1,sp,324
  a2:	0001                	nop
  a4:	0000                	unimp
  a6:	0000                	unimp
  a8:	0600                	addi	s0,sp,768
  aa:	02a2                	slli	t0,t0,0x8
  ac:	0001                	nop
  ae:	0000                	unimp
  b0:	0000                	unimp
  b2:	02a6                	slli	t0,t0,0x9
  b4:	0001                	nop
  b6:	0000                	unimp
  b8:	0000                	unimp
  ba:	aa06                	fsd	ft1,272(sp)
  bc:	0102                	c.slli64	sp
  be:	0000                	unimp
  c0:	0000                	unimp
  c2:	ae00                	fsd	fs0,24(a2)
  c4:	0102                	c.slli64	sp
  c6:	0000                	unimp
  c8:	0000                	unimp
  ca:	0600                	addi	s0,sp,768
  cc:	02b0                	addi	a2,sp,328
  ce:	0001                	nop
  d0:	0000                	unimp
  d2:	0000                	unimp
  d4:	02b4                	addi	a3,sp,328
  d6:	0001                	nop
  d8:	0000                	unimp
  da:	0000                	unimp
  dc:	b406                	fsd	ft1,40(sp)
  de:	0102                	c.slli64	sp
  e0:	0000                	unimp
  e2:	0000                	unimp
  e4:	bc00                	fsd	fs0,56(s0)
  e6:	0102                	c.slli64	sp
  e8:	0000                	unimp
  ea:	0000                	unimp
  ec:	0000                	unimp
  ee:	c006                	sw	ra,0(sp)
  f0:	0102                	c.slli64	sp
  f2:	0000                	unimp
  f4:	0000                	unimp
  f6:	c800                	sw	s0,16(s0)
  f8:	0102                	c.slli64	sp
  fa:	0000                	unimp
  fc:	0000                	unimp
  fe:	0600                	addi	s0,sp,768
 100:	02cc                	addi	a1,sp,324
 102:	0001                	nop
 104:	0000                	unimp
 106:	0000                	unimp
 108:	02f2                	slli	t0,t0,0x1c
 10a:	0001                	nop
 10c:	0000                	unimp
 10e:	0000                	unimp
 110:	0600                	addi	s0,sp,768
 112:	031a                	slli	t1,t1,0x6
 114:	0001                	nop
 116:	0000                	unimp
 118:	0000                	unimp
 11a:	031e                	slli	t1,t1,0x7
 11c:	0001                	nop
 11e:	0000                	unimp
 120:	0000                	unimp
 122:	2206                	fld	ft4,64(sp)
 124:	00000103          	lb	sp,0(zero) # 0 <_prog_start-0x10000>
 128:	0000                	unimp
 12a:	2e00                	fld	fs0,24(a2)
 12c:	00000103          	lb	sp,0(zero) # 0 <_prog_start-0x10000>
 130:	0000                	unimp
 132:	0000                	unimp
 134:	8206                	mv	tp,ra
 136:	00000103          	lb	sp,0(zero) # 0 <_prog_start-0x10000>
 13a:	0000                	unimp
 13c:	8a00                	.2byte	0x8a00
 13e:	00000103          	lb	sp,0(zero) # 0 <_prog_start-0x10000>
 142:	0000                	unimp
 144:	0600                	addi	s0,sp,768
 146:	038a                	slli	t2,t2,0x2
 148:	0001                	nop
 14a:	0000                	unimp
 14c:	0000                	unimp
 14e:	039a                	slli	t2,t2,0x6
 150:	0001                	nop
 152:	0000                	unimp
 154:	0000                	unimp
 156:	0600                	addi	s0,sp,768
 158:	0382                	c.slli64	t2
 15a:	0001                	nop
 15c:	0000                	unimp
 15e:	0000                	unimp
 160:	038a                	slli	t2,t2,0x2
 162:	0001                	nop
 164:	0000                	unimp
 166:	0000                	unimp
 168:	8a06                	mv	s4,ra
 16a:	00000103          	lb	sp,0(zero) # 0 <_prog_start-0x10000>
 16e:	0000                	unimp
 170:	9600                	.2byte	0x9600
 172:	00000103          	lb	sp,0(zero) # 0 <_prog_start-0x10000>
 176:	0000                	unimp
 178:	0000                	unimp
 17a:	b806                	fsd	ft1,48(sp)
 17c:	00000103          	lb	sp,0(zero) # 0 <_prog_start-0x10000>
 180:	0000                	unimp
 182:	c000                	sw	s0,0(s0)
 184:	00000103          	lb	sp,0(zero) # 0 <_prog_start-0x10000>
 188:	0000                	unimp
 18a:	0600                	addi	s0,sp,768
 18c:	03c2                	slli	t2,t2,0x10
 18e:	0001                	nop
 190:	0000                	unimp
 192:	0000                	unimp
 194:	03de                	slli	t2,t2,0x17
 196:	0001                	nop
 198:	0000                	unimp
 19a:	0000                	unimp
 19c:	0600                	addi	s0,sp,768
 19e:	03b8                	addi	a4,sp,456
 1a0:	0001                	nop
 1a2:	0000                	unimp
 1a4:	0000                	unimp
 1a6:	03c0                	addi	s0,sp,452
 1a8:	0001                	nop
 1aa:	0000                	unimp
 1ac:	0000                	unimp
 1ae:	d006                	sw	ra,32(sp)
 1b0:	00000103          	lb	sp,0(zero) # 0 <_prog_start-0x10000>
 1b4:	0000                	unimp
 1b6:	de00                	sw	s0,56(a2)
 1b8:	00000103          	lb	sp,0(zero) # 0 <_prog_start-0x10000>
 1bc:	0000                	unimp
 1be:	0000                	unimp
 1c0:	b806                	fsd	ft1,48(sp)
 1c2:	00000103          	lb	sp,0(zero) # 0 <_prog_start-0x10000>
 1c6:	0000                	unimp
 1c8:	c000                	sw	s0,0(s0)
 1ca:	00000103          	lb	sp,0(zero) # 0 <_prog_start-0x10000>
 1ce:	0000                	unimp
 1d0:	0600                	addi	s0,sp,768
 1d2:	03d0                	addi	a2,sp,452
 1d4:	0001                	nop
 1d6:	0000                	unimp
 1d8:	0000                	unimp
 1da:	03da                	slli	t2,t2,0x16
 1dc:	0001                	nop
 1de:	0000                	unimp
 1e0:	0000                	unimp
 1e2:	0600                	addi	s0,sp,768
 1e4:	040e                	slli	s0,s0,0x3
 1e6:	0001                	nop
 1e8:	0000                	unimp
 1ea:	0000                	unimp
 1ec:	0412                	slli	s0,s0,0x4
 1ee:	0001                	nop
 1f0:	0000                	unimp
 1f2:	0000                	unimp
 1f4:	1606                	slli	a2,a2,0x21
 1f6:	0104                	addi	s1,sp,128
 1f8:	0000                	unimp
 1fa:	0000                	unimp
 1fc:	2600                	fld	fs0,8(a2)
 1fe:	0104                	addi	s1,sp,128
 200:	0000                	unimp
 202:	0000                	unimp
 204:	0000                	unimp
 206:	9206                	add	tp,tp,ra
 208:	0104                	addi	s1,sp,128
 20a:	0000                	unimp
 20c:	0000                	unimp
 20e:	9800                	.2byte	0x9800
 210:	0104                	addi	s1,sp,128
 212:	0000                	unimp
 214:	0000                	unimp
 216:	0600                	addi	s0,sp,768
 218:	049a                	slli	s1,s1,0x6
 21a:	0001                	nop
 21c:	0000                	unimp
 21e:	0000                	unimp
 220:	04a8                	addi	a0,sp,584
 222:	0001                	nop
 224:	0000                	unimp
 226:	0000                	unimp
 228:	0600                	addi	s0,sp,768
 22a:	0492                	slli	s1,s1,0x4
 22c:	0001                	nop
 22e:	0000                	unimp
 230:	0000                	unimp
 232:	0498                	addi	a4,sp,576
 234:	0001                	nop
 236:	0000                	unimp
 238:	0000                	unimp
 23a:	9a06                	add	s4,s4,ra
 23c:	0104                	addi	s1,sp,128
 23e:	0000                	unimp
 240:	0000                	unimp
 242:	a400                	fsd	fs0,8(s0)
 244:	0104                	addi	s1,sp,128
 246:	0000                	unimp
 248:	0000                	unimp
 24a:	0000                	unimp
 24c:	ac06                	fsd	ft1,24(sp)
 24e:	0104                	addi	s1,sp,128
 250:	0000                	unimp
 252:	0000                	unimp
 254:	fc00                	sd	s0,56(s0)
 256:	0105                	addi	sp,sp,1
 258:	0000                	unimp
 25a:	0000                	unimp
 25c:	0600                	addi	s0,sp,768
 25e:	060e                	slli	a2,a2,0x3
 260:	0001                	nop
 262:	0000                	unimp
 264:	0000                	unimp
 266:	0634                	addi	a3,sp,776
 268:	0001                	nop
 26a:	0000                	unimp
 26c:	0000                	unimp
 26e:	0600                	addi	s0,sp,768
 270:	04e8                	addi	a0,sp,588
 272:	0001                	nop
 274:	0000                	unimp
 276:	0000                	unimp
 278:	04ea                	slli	s1,s1,0x1a
 27a:	0001                	nop
 27c:	0000                	unimp
 27e:	0000                	unimp
 280:	ee06                	sd	ra,280(sp)
 282:	0104                	addi	s1,sp,128
 284:	0000                	unimp
 286:	0000                	unimp
 288:	0400                	addi	s0,sp,512
 28a:	0105                	addi	sp,sp,1
 28c:	0000                	unimp
 28e:	0000                	unimp
 290:	0600                	addi	s0,sp,768
 292:	0506                	slli	a0,a0,0x1
 294:	0001                	nop
 296:	0000                	unimp
 298:	0000                	unimp
 29a:	05b4                	addi	a3,sp,712
 29c:	0001                	nop
 29e:	0000                	unimp
 2a0:	0000                	unimp
 2a2:	0e06                	slli	t3,t3,0x1
 2a4:	0106                	slli	sp,sp,0x1
 2a6:	0000                	unimp
 2a8:	0000                	unimp
 2aa:	1e00                	addi	s0,sp,816
 2ac:	0106                	slli	sp,sp,0x1
 2ae:	0000                	unimp
 2b0:	0000                	unimp
 2b2:	0000                	unimp
 2b4:	e806                	sd	ra,16(sp)
 2b6:	0104                	addi	s1,sp,128
 2b8:	0000                	unimp
 2ba:	0000                	unimp
 2bc:	ea00                	sd	s0,16(a2)
 2be:	0104                	addi	s1,sp,128
 2c0:	0000                	unimp
 2c2:	0000                	unimp
 2c4:	0600                	addi	s0,sp,768
 2c6:	0502                	c.slli64	a0
 2c8:	0001                	nop
 2ca:	0000                	unimp
 2cc:	0000                	unimp
 2ce:	0504                	addi	s1,sp,640
 2d0:	0001                	nop
 2d2:	0000                	unimp
 2d4:	0000                	unimp
 2d6:	2606                	fld	fa2,64(sp)
 2d8:	0105                	addi	sp,sp,1
 2da:	0000                	unimp
 2dc:	0000                	unimp
 2de:	2a00                	fld	fs0,16(a2)
 2e0:	0105                	addi	sp,sp,1
 2e2:	0000                	unimp
 2e4:	0000                	unimp
 2e6:	0600                	addi	s0,sp,768
 2e8:	052a                	slli	a0,a0,0xa
 2ea:	0001                	nop
 2ec:	0000                	unimp
 2ee:	0000                	unimp
 2f0:	057a                	slli	a0,a0,0x1e
 2f2:	0001                	nop
 2f4:	0000                	unimp
 2f6:	0000                	unimp
 2f8:	7e06                	ld	t3,96(sp)
 2fa:	0105                	addi	sp,sp,1
 2fc:	0000                	unimp
 2fe:	0000                	unimp
 300:	8200                	.2byte	0x8200
 302:	0105                	addi	sp,sp,1
 304:	0000                	unimp
 306:	0000                	unimp
 308:	0000                	unimp
 30a:	e806                	sd	ra,16(sp)
 30c:	0104                	addi	s1,sp,128
 30e:	0000                	unimp
 310:	0000                	unimp
 312:	ea00                	sd	s0,16(a2)
 314:	0104                	addi	s1,sp,128
 316:	0000                	unimp
 318:	0000                	unimp
 31a:	0600                	addi	s0,sp,768
 31c:	0502                	c.slli64	a0
 31e:	0001                	nop
 320:	0000                	unimp
 322:	0000                	unimp
 324:	0504                	addi	s1,sp,640
 326:	0001                	nop
 328:	0000                	unimp
 32a:	0000                	unimp
 32c:	4a06                	lw	s4,64(sp)
 32e:	0105                	addi	sp,sp,1
 330:	0000                	unimp
 332:	0000                	unimp
 334:	7000                	ld	s0,32(s0)
 336:	0105                	addi	sp,sp,1
 338:	0000                	unimp
 33a:	0000                	unimp
 33c:	0600                	addi	s0,sp,768
 33e:	0578                	addi	a4,sp,652
 340:	0001                	nop
 342:	0000                	unimp
 344:	0000                	unimp
 346:	057a                	slli	a0,a0,0x1e
 348:	0001                	nop
 34a:	0000                	unimp
 34c:	0000                	unimp
 34e:	0600                	addi	s0,sp,768
 350:	0526                	slli	a0,a0,0x9
 352:	0001                	nop
 354:	0000                	unimp
 356:	0000                	unimp
 358:	052a                	slli	a0,a0,0xa
 35a:	0001                	nop
 35c:	0000                	unimp
 35e:	0000                	unimp
 360:	2a06                	fld	fs4,64(sp)
 362:	0105                	addi	sp,sp,1
 364:	0000                	unimp
 366:	0000                	unimp
 368:	4800                	lw	s0,16(s0)
 36a:	0105                	addi	sp,sp,1
 36c:	0000                	unimp
 36e:	0000                	unimp
 370:	0000                	unimp
 372:	ee06                	sd	ra,280(sp)
 374:	0104                	addi	s1,sp,128
 376:	0000                	unimp
 378:	0000                	unimp
 37a:	fa00                	sd	s0,48(a2)
 37c:	0104                	addi	s1,sp,128
 37e:	0000                	unimp
 380:	0000                	unimp
 382:	0600                	addi	s0,sp,768
 384:	04fe                	slli	s1,s1,0x1f
 386:	0001                	nop
 388:	0000                	unimp
 38a:	0000                	unimp
 38c:	0502                	c.slli64	a0
 38e:	0001                	nop
 390:	0000                	unimp
 392:	0000                	unimp
 394:	0606                	slli	a2,a2,0x1
 396:	0105                	addi	sp,sp,1
 398:	0000                	unimp
 39a:	0000                	unimp
 39c:	0a00                	addi	s0,sp,272
 39e:	0105                	addi	sp,sp,1
 3a0:	0000                	unimp
 3a2:	0000                	unimp
 3a4:	0600                	addi	s0,sp,768
 3a6:	050a                	slli	a0,a0,0x2
 3a8:	0001                	nop
 3aa:	0000                	unimp
 3ac:	0000                	unimp
 3ae:	0516                	slli	a0,a0,0x5
 3b0:	0001                	nop
 3b2:	0000                	unimp
 3b4:	0000                	unimp
 3b6:	0600                	addi	s0,sp,768
 3b8:	018c                	addi	a1,sp,192
 3ba:	0001                	nop
 3bc:	0000                	unimp
 3be:	0000                	unimp
 3c0:	024e                	slli	tp,tp,0x13
 3c2:	0001                	nop
 3c4:	0000                	unimp
 3c6:	0000                	unimp
 3c8:	4e06                	lw	t3,64(sp)
 3ca:	0102                	c.slli64	sp
 3cc:	0000                	unimp
 3ce:	0000                	unimp
 3d0:	3400                	fld	fs0,40(s0)
 3d2:	0106                	slli	sp,sp,0x1
 3d4:	0000                	unimp
 3d6:	0000                	unimp
 3d8:	0000                	unimp
 3da:	000000eb          	.4byte	0xeb
 3de:	0005                	c.nop	1
 3e0:	0008                	.2byte	0x8
 3e2:	0000                	unimp
 3e4:	0000                	unimp
 3e6:	9c06                	add	s8,s8,ra
 3e8:	0106                	slli	sp,sp,0x1
 3ea:	0000                	unimp
 3ec:	0000                	unimp
 3ee:	a000                	fsd	fs0,0(s0)
 3f0:	0106                	slli	sp,sp,0x1
 3f2:	0000                	unimp
 3f4:	0000                	unimp
 3f6:	0600                	addi	s0,sp,768
 3f8:	075e                	slli	a4,a4,0x17
 3fa:	0001                	nop
 3fc:	0000                	unimp
 3fe:	0000                	unimp
 400:	0774                	addi	a3,sp,908
 402:	0001                	nop
 404:	0000                	unimp
 406:	0000                	unimp
 408:	0600                	addi	s0,sp,768
 40a:	06c6                	slli	a3,a3,0x11
 40c:	0001                	nop
 40e:	0000                	unimp
 410:	0000                	unimp
 412:	06ca                	slli	a3,a3,0x12
 414:	0001                	nop
 416:	0000                	unimp
 418:	0000                	unimp
 41a:	ce06                	sw	ra,28(sp)
 41c:	0106                	slli	sp,sp,0x1
 41e:	0000                	unimp
 420:	0000                	unimp
 422:	ce00                	sw	s0,24(a2)
 424:	0106                	slli	sp,sp,0x1
 426:	0000                	unimp
 428:	0000                	unimp
 42a:	0600                	addi	s0,sp,768
 42c:	06d2                	slli	a3,a3,0x14
 42e:	0001                	nop
 430:	0000                	unimp
 432:	0000                	unimp
 434:	06dc                	addi	a5,sp,836
 436:	0001                	nop
 438:	0000                	unimp
 43a:	0000                	unimp
 43c:	0600                	addi	s0,sp,768
 43e:	06f0                	addi	a2,sp,844
 440:	0001                	nop
 442:	0000                	unimp
 444:	0000                	unimp
 446:	0730                	addi	a2,sp,904
 448:	0001                	nop
 44a:	0000                	unimp
 44c:	0000                	unimp
 44e:	7406                	ld	s0,96(sp)
 450:	00000107          	.4byte	0x107
 454:	0000                	unimp
 456:	8400                	.2byte	0x8400
 458:	00000107          	.4byte	0x107
 45c:	0000                	unimp
 45e:	0000                	unimp
 460:	0206                	slli	tp,tp,0x1
 462:	00000107          	.4byte	0x107
 466:	0000                	unimp
 468:	0800                	addi	s0,sp,16
 46a:	00000107          	.4byte	0x107
 46e:	0000                	unimp
 470:	0600                	addi	s0,sp,768
 472:	070a                	slli	a4,a4,0x2
 474:	0001                	nop
 476:	0000                	unimp
 478:	0000                	unimp
 47a:	0728                	addi	a0,sp,904
 47c:	0001                	nop
 47e:	0000                	unimp
 480:	0000                	unimp
 482:	0600                	addi	s0,sp,768
 484:	0704                	addi	s1,sp,896
 486:	0001                	nop
 488:	0000                	unimp
 48a:	0000                	unimp
 48c:	0708                	addi	a0,sp,896
 48e:	0001                	nop
 490:	0000                	unimp
 492:	0000                	unimp
 494:	1e06                	slli	t3,t3,0x21
 496:	00000107          	.4byte	0x107
 49a:	0000                	unimp
 49c:	2800                	fld	fs0,16(s0)
 49e:	00000107          	.4byte	0x107
 4a2:	0000                	unimp
 4a4:	0000                	unimp
 4a6:	3406                	fld	fs0,96(sp)
 4a8:	00000107          	.4byte	0x107
 4ac:	0000                	unimp
 4ae:	3400                	fld	fs0,40(s0)
 4b0:	00000107          	.4byte	0x107
 4b4:	0000                	unimp
 4b6:	0600                	addi	s0,sp,768
 4b8:	0738                	addi	a4,sp,904
 4ba:	0001                	nop
 4bc:	0000                	unimp
 4be:	0000                	unimp
 4c0:	0756                	slli	a4,a4,0x15
 4c2:	0001                	nop
 4c4:	0000                	unimp
 4c6:	0000                	unimp
	...

Disassembly of section .debug_frame:

0000000000000000 <.debug_frame>:
   0:	000c                	.2byte	0xc
   2:	0000                	unimp
   4:	ffff                	.2byte	0xffff
   6:	ffff                	.2byte	0xffff
   8:	7c010003          	lb	zero,1984(sp)
   c:	0d01                	addi	s10,s10,0 # 1d000 <dtb+0xc738>
   e:	0002                	c.slli64	zero
  10:	0024                	addi	s1,sp,8
  12:	0000                	unimp
  14:	0000                	unimp
  16:	0000                	unimp
  18:	018c                	addi	a1,sp,192
  1a:	0001                	nop
  1c:	0000                	unimp
  1e:	0000                	unimp
  20:	00c2                	slli	ra,ra,0x10
  22:	0000                	unimp
  24:	0000                	unimp
  26:	0000                	unimp
  28:	0e42                	slli	t3,t3,0x10
  2a:	4410                	lw	a2,8(s0)
  2c:	0281                	addi	t0,t0,0
  2e:	0488                	addi	a0,sp,576
  30:	b202                	fsd	ft0,288(sp)
  32:	46c1                	li	a3,16
  34:	42c8                	lw	a0,4(a3)
  36:	000e                	c.slli	zero,0x3
  38:	0034                	addi	a3,sp,8
  3a:	0000                	unimp
  3c:	0000                	unimp
  3e:	0000                	unimp
  40:	024e                	slli	tp,tp,0x13
  42:	0001                	nop
  44:	0000                	unimp
  46:	0000                	unimp
  48:	03e6                	slli	t2,t2,0x19
  4a:	0000                	unimp
  4c:	0000                	unimp
  4e:	0000                	unimp
  50:	0e42                	slli	t3,t3,0x10
  52:	4a30                	lw	a2,80(a2)
  54:	0281                	addi	t0,t0,0
  56:	0488                	addi	a0,sp,576
  58:	0689                	addi	a3,a3,2
  5a:	0892                	slli	a7,a7,0x4
  5c:	0a580a93          	addi	s5,a6,165
  60:	42c1                	li	t0,16
  62:	42c8                	lw	a0,4(a3)
  64:	42c9                	li	t0,18
  66:	42d2                	lw	t0,20(sp)
  68:	000e42d3          	fadd.s	ft5,ft8,ft0,rmm
  6c:	0b42                	slli	s6,s6,0x10
  6e:	0000                	unimp
  70:	000c                	.2byte	0xc
  72:	0000                	unimp
  74:	ffff                	.2byte	0xffff
  76:	ffff                	.2byte	0xffff
  78:	7c010003          	lb	zero,1984(sp)
  7c:	0d01                	addi	s10,s10,0
  7e:	0002                	c.slli64	zero
  80:	0014                	.2byte	0x14
  82:	0000                	unimp
  84:	0070                	addi	a2,sp,12
  86:	0000                	unimp
  88:	0634                	addi	a3,sp,776
  8a:	0001                	nop
  8c:	0000                	unimp
  8e:	0000                	unimp
  90:	003e                	c.slli	zero,0xf
  92:	0000                	unimp
  94:	0000                	unimp
  96:	0000                	unimp
  98:	0024                	addi	s1,sp,8
  9a:	0000                	unimp
  9c:	0070                	addi	a2,sp,12
  9e:	0000                	unimp
  a0:	0672                	slli	a2,a2,0x1c
  a2:	0001                	nop
  a4:	0000                	unimp
  a6:	0000                	unimp
  a8:	011a                	slli	sp,sp,0x6
  aa:	0000                	unimp
  ac:	0000                	unimp
  ae:	0000                	unimp
  b0:	0e42                	slli	t3,t3,0x10
  b2:	0250                	addi	a2,sp,260
  b4:	0a7a                	slli	s4,s4,0x1e
  b6:	000e                	c.slli	zero,0x3
  b8:	0b42                	slli	s6,s6,0x10
  ba:	0000                	unimp
  bc:	0000                	unimp
	...
