
/home/binhkieudo/Workspace/NewFramework/framework/src/main/resources/bootROM/MTBoot//build/sdboot.elf:     file format elf64-littleriscv


Disassembly of section .text:

0000000000010000 <_prog_start>:

  .section .text.init
  .option norvc
  .globl _prog_start
_prog_start:
  li t0, 1
   10000:	00100293          	li	t0,1
  li t0, 2
   10004:	00200293          	li	t0,2
  li t0, 3
   10008:	00300293          	li	t0,3
  li t0, 4
   1000c:	00400293          	li	t0,4
  li t0, 5
   10010:	00500293          	li	t0,5
  li t0, 6
   10014:	00600293          	li	t0,6
  li t0, 7
   10018:	00700293          	li	t0,7
  li t0, 8
   1001c:	00800293          	li	t0,8
  li t0, 9
   10020:	00900293          	li	t0,9
  li t0, 10
   10024:	00a00293          	li	t0,10
  li t0, 11
   10028:	00b00293          	li	t0,11
  li t0, 12
   1002c:	00c00293          	li	t0,12
  li t0, 13
   10030:	00d00293          	li	t0,13
  li t0, 14
   10034:	00e00293          	li	t0,14
  li t0, 15
   10038:	00f00293          	li	t0,15
  li t0, 16
   1003c:	01000293          	li	t0,16
  li t0, 17
   10040:	01100293          	li	t0,17
  li t0, 18
   10044:	01200293          	li	t0,18
  li t0, 19
   10048:	01300293          	li	t0,19
  li t0, 20
   1004c:	01400293          	li	t0,20
  li t0, 21
   10050:	01500293          	li	t0,21
  li t0, 22
   10054:	01600293          	li	t0,22
  li t0, 23
   10058:	01700293          	li	t0,23
  li t0, 24
   1005c:	01800293          	li	t0,24
  li t0, 25
   10060:	01900293          	li	t0,25
  li t0, 26
   10064:	01a00293          	li	t0,26
  li t0, 27
   10068:	01b00293          	li	t0,27
  li t0, 28
   1006c:	01c00293          	li	t0,28
  li t0, 29
   10070:	01d00293          	li	t0,29
  li t0, 30
   10074:	01e00293          	li	t0,30
  li t0, 31
   10078:	01f00293          	li	t0,31
  li t0, 32
   1007c:	02000293          	li	t0,32
  j _prog_start
   10080:	f81ff06f          	j	10000 <_prog_start>
	...

Disassembly of section .riscv.attributes:

0000000000000000 <.riscv.attributes>:
   0:	2341                	.2byte	0x2341
   2:	0000                	.2byte	0x0
   4:	7200                	.2byte	0x7200
   6:	7369                	.2byte	0x7369
   8:	01007663          	bgeu	zero,a6,14 <_prog_start-0xffec>
   c:	0019                	.2byte	0x19
   e:	0000                	.2byte	0x0
  10:	7205                	.2byte	0x7205
  12:	3676                	.2byte	0x3676
  14:	6934                	.2byte	0x6934
  16:	7032                	.2byte	0x7032
  18:	5f30                	.2byte	0x5f30
  1a:	326d                	.2byte	0x326d
  1c:	3070                	.2byte	0x3070
  1e:	615f 7032 0030      	.byte	0x5f, 0x61, 0x32, 0x70, 0x30, 0x00

Disassembly of section .debug_line:

0000000000000000 <.debug_line>:
   0:	0104                	.2byte	0x104
   2:	0000                	.2byte	0x0
   4:	0005                	.2byte	0x5
   6:	0008                	.2byte	0x8
   8:	002a                	.2byte	0x2a
   a:	0000                	.2byte	0x0
   c:	0101                	.2byte	0x101
   e:	fb01                	.2byte	0xfb01
  10:	0d0e                	.2byte	0xd0e
  12:	0100                	.2byte	0x100
  14:	0101                	.2byte	0x101
  16:	0001                	.2byte	0x1
  18:	0000                	.2byte	0x0
  1a:	0001                	.2byte	0x1
  1c:	0100                	.2byte	0x100
  1e:	0101                	.2byte	0x101
  20:	011f 0000 0000      	.byte	0x1f, 0x01, 0x00, 0x00, 0x00, 0x00
  26:	0102                	.2byte	0x102
  28:	021f 020f 0054      	.byte	0x1f, 0x02, 0x0f, 0x02, 0x54, 0x00
  2e:	0000                	.2byte	0x0
  30:	5400                	.2byte	0x5400
  32:	0000                	.2byte	0x0
  34:	0000                	.2byte	0x0
  36:	0900                	.2byte	0x900
  38:	0002                	.2byte	0x2
  3a:	0100                	.2byte	0x100
  3c:	0000                	.2byte	0x0
  3e:	0000                	.2byte	0x0
  40:	1900                	.2byte	0x1900
  42:	04090103          	lb	sp,64(s2)
  46:	0100                	.2byte	0x100
  48:	04090103          	lb	sp,64(s2)
  4c:	0100                	.2byte	0x100
  4e:	04090103          	lb	sp,64(s2)
  52:	0100                	.2byte	0x100
  54:	04090103          	lb	sp,64(s2)
  58:	0100                	.2byte	0x100
  5a:	04090103          	lb	sp,64(s2)
  5e:	0100                	.2byte	0x100
  60:	04090103          	lb	sp,64(s2)
  64:	0100                	.2byte	0x100
  66:	04090103          	lb	sp,64(s2)
  6a:	0100                	.2byte	0x100
  6c:	04090103          	lb	sp,64(s2)
  70:	0100                	.2byte	0x100
  72:	04090103          	lb	sp,64(s2)
  76:	0100                	.2byte	0x100
  78:	04090103          	lb	sp,64(s2)
  7c:	0100                	.2byte	0x100
  7e:	04090103          	lb	sp,64(s2)
  82:	0100                	.2byte	0x100
  84:	04090103          	lb	sp,64(s2)
  88:	0100                	.2byte	0x100
  8a:	04090103          	lb	sp,64(s2)
  8e:	0100                	.2byte	0x100
  90:	04090103          	lb	sp,64(s2)
  94:	0100                	.2byte	0x100
  96:	04090103          	lb	sp,64(s2)
  9a:	0100                	.2byte	0x100
  9c:	04090103          	lb	sp,64(s2)
  a0:	0100                	.2byte	0x100
  a2:	04090103          	lb	sp,64(s2)
  a6:	0100                	.2byte	0x100
  a8:	04090103          	lb	sp,64(s2)
  ac:	0100                	.2byte	0x100
  ae:	04090103          	lb	sp,64(s2)
  b2:	0100                	.2byte	0x100
  b4:	04090103          	lb	sp,64(s2)
  b8:	0100                	.2byte	0x100
  ba:	04090103          	lb	sp,64(s2)
  be:	0100                	.2byte	0x100
  c0:	04090103          	lb	sp,64(s2)
  c4:	0100                	.2byte	0x100
  c6:	04090103          	lb	sp,64(s2)
  ca:	0100                	.2byte	0x100
  cc:	04090103          	lb	sp,64(s2)
  d0:	0100                	.2byte	0x100
  d2:	04090103          	lb	sp,64(s2)
  d6:	0100                	.2byte	0x100
  d8:	04090103          	lb	sp,64(s2)
  dc:	0100                	.2byte	0x100
  de:	04090103          	lb	sp,64(s2)
  e2:	0100                	.2byte	0x100
  e4:	04090103          	lb	sp,64(s2)
  e8:	0100                	.2byte	0x100
  ea:	04090103          	lb	sp,64(s2)
  ee:	0100                	.2byte	0x100
  f0:	04090103          	lb	sp,64(s2)
  f4:	0100                	.2byte	0x100
  f6:	04090103          	lb	sp,64(s2)
  fa:	0100                	.2byte	0x100
  fc:	04090103          	lb	sp,64(s2)
 100:	0100                	.2byte	0x100
 102:	0409                	.2byte	0x409
 104:	0000                	.2byte	0x0
 106:	0101                	.2byte	0x101

Disassembly of section .debug_line_str:

0000000000000000 <.debug_line_str>:
   0:	6d6f682f          	.4byte	0x6d6f682f
   4:	2f65                	.2byte	0x2f65
   6:	6962                	.2byte	0x6962
   8:	686e                	.2byte	0x686e
   a:	7565696b          	.4byte	0x7565696b
   e:	6f64                	.2byte	0x6f64
  10:	726f572f          	.4byte	0x726f572f
  14:	6170736b          	.4byte	0x6170736b
  18:	4e2f6563          	bltu	t5,sp,502 <_prog_start-0xfafe>
  1c:	7765                	.2byte	0x7765
  1e:	7246                	.2byte	0x7246
  20:	6d61                	.2byte	0x6d61
  22:	7765                	.2byte	0x7765
  24:	2f6b726f          	jal	tp,b731a <_prog_start+0xa731a>
  28:	7266                	.2byte	0x7266
  2a:	6d61                	.2byte	0x6d61
  2c:	7765                	.2byte	0x7765
  2e:	2f6b726f          	jal	tp,b7324 <_prog_start+0xa7324>
  32:	2f637273          	csrrci	tp,0x2f6,6
  36:	616d                	.2byte	0x616d
  38:	6e69                	.2byte	0x6e69
  3a:	7365722f          	.4byte	0x7365722f
  3e:	6372756f          	jal	a0,27e74 <_prog_start+0x17e74>
  42:	7365                	.2byte	0x7365
  44:	6f6f622f          	.4byte	0x6f6f622f
  48:	5274                	.2byte	0x5274
  4a:	4d2f4d4f          	.4byte	0x4d2f4d4f
  4e:	4254                	.2byte	0x4254
  50:	00746f6f          	jal	t5,46856 <_prog_start+0x36856>
  54:	6f62                	.2byte	0x6f62
  56:	532e746f          	jal	s0,e7588 <_prog_start+0xd7588>
	...

Disassembly of section .debug_info:

0000000000000000 <.debug_info>:
   0:	0025                	.2byte	0x25
   2:	0000                	.2byte	0x0
   4:	0005                	.2byte	0x5
   6:	0801                	.2byte	0x801
   8:	0000                	.2byte	0x0
   a:	0000                	.2byte	0x0
   c:	0001                	.2byte	0x1
   e:	0000                	.2byte	0x0
  10:	0000                	.2byte	0x0
  12:	0100                	.2byte	0x100
  14:	0000                	.2byte	0x0
  16:	0000                	.2byte	0x0
  18:	8400                	.2byte	0x8400
  1a:	0001                	.2byte	0x1
  1c:	0000                	.2byte	0x0
  1e:	0700                	.2byte	0x700
  20:	0000                	.2byte	0x0
  22:	5b00                	.2byte	0x5b00
  24:	0000                	.2byte	0x0
  26:	0100                	.2byte	0x100
  28:	80              	Address 0x0000000000000028 is out of bounds.


Disassembly of section .debug_abbrev:

0000000000000000 <.debug_abbrev>:
   0:	1101                	.2byte	0x1101
   2:	1000                	.2byte	0x1000
   4:	12011117          	auipc	sp,0x12011
   8:	1b0e030f          	.4byte	0x1b0e030f
   c:	250e                	.2byte	0x250e
   e:	130e                	.2byte	0x130e
  10:	0005                	.2byte	0x5
	...

Disassembly of section .debug_aranges:

0000000000000000 <.debug_aranges>:
   0:	002c                	.2byte	0x2c
   2:	0000                	.2byte	0x0
   4:	0002                	.2byte	0x2
   6:	0000                	.2byte	0x0
   8:	0000                	.2byte	0x0
   a:	0008                	.2byte	0x8
   c:	0000                	.2byte	0x0
   e:	0000                	.2byte	0x0
  10:	0000                	.2byte	0x0
  12:	0001                	.2byte	0x1
  14:	0000                	.2byte	0x0
  16:	0000                	.2byte	0x0
  18:	0084                	.2byte	0x84
	...

Disassembly of section .debug_str:

0000000000000000 <.debug_str>:
   0:	6f62                	.2byte	0x6f62
   2:	532e746f          	jal	s0,e7534 <_prog_start+0xd7534>
   6:	2f00                	.2byte	0x2f00
   8:	6f68                	.2byte	0x6f68
   a:	656d                	.2byte	0x656d
   c:	6e69622f          	.4byte	0x6e69622f
  10:	6b68                	.2byte	0x6b68
  12:	6569                	.2byte	0x6569
  14:	6475                	.2byte	0x6475
  16:	6f572f6f          	jal	t5,72f0a <_prog_start+0x62f0a>
  1a:	6b72                	.2byte	0x6b72
  1c:	63617073          	csrci	0x636,2
  20:	2f65                	.2byte	0x2f65
  22:	654e                	.2byte	0x654e
  24:	61724677          	.4byte	0x61724677
  28:	656d                	.2byte	0x656d
  2a:	6b726f77          	.4byte	0x6b726f77
  2e:	6172662f          	.4byte	0x6172662f
  32:	656d                	.2byte	0x656d
  34:	6b726f77          	.4byte	0x6b726f77
  38:	6372732f          	.4byte	0x6372732f
  3c:	69616d2f          	.4byte	0x69616d2f
  40:	2f6e                	.2byte	0x2f6e
  42:	6572                	.2byte	0x6572
  44:	72756f73          	csrrsi	t5,mhpmevent7h,10
  48:	2f736563          	bltu	t1,s7,332 <_prog_start-0xfcce>
  4c:	6f62                	.2byte	0x6f62
  4e:	4f52746f          	jal	s0,27d42 <_prog_start+0x17d42>
  52:	2f4d                	.2byte	0x2f4d
  54:	544d                	.2byte	0x544d
  56:	6f42                	.2byte	0x6f42
  58:	4700746f          	jal	s0,74c8 <_prog_start-0x8b38>
  5c:	554e                	.2byte	0x554e
  5e:	4120                	.2byte	0x4120
  60:	2e322053          	.4byte	0x2e322053
  64:	33 39 00            	Address 0x0000000000000064 is out of bounds.

