
/home/binhkieudo/Workspace/NewFramework/framework/sw/matrix_mul/build/main.elf:     file format elf64-littleriscv


Disassembly of section .text:

0000000080000000 <_prog_start>:
  .option norvc
  .globl _prog_start
_prog_start:
    # li s0, MEMORY_MEM_ADDR
    # jr s0
  csrw mie, zero
    80000000:	30401073          	csrw	mie,zero
  csrr a0, mhartid
    80000004:	f1402573          	csrr	a0,mhartid
  beq a0, zero, _hart0
    80000008:	02050063          	beqz	a0,80000028 <_hart0>
  li t0, 1
    8000000c:	00100293          	li	t0,1
  beq a0, t0, _hart1
    80000010:	02550863          	beq	a0,t0,80000040 <_hart1>
  li t0, 2
    80000014:	00200293          	li	t0,2
  beq a0, t0, _hart2
    80000018:	0a550863          	beq	a0,t0,800000c8 <_hart2>
  li t0, 3
    8000001c:	00300293          	li	t0,3
  beq a0, t0, _hart3
    80000020:	18550463          	beq	a0,t0,800001a8 <_hart3>
  j _loopback
    80000024:	20c0006f          	j	80000230 <_loopback>

0000000080000028 <_hart0>:
_hart0:
  csrrw t0, mcycle, zero
    80000028:	b00012f3          	csrrw	t0,mcycle,zero
  csrrw  t0, minstret, zero
    8000002c:	b02012f3          	csrrw	t0,minstret,zero
  li sp, 0x40000ff0
    80000030:	40001137          	lui	sp,0x40001
    80000034:	ff01011b          	addiw	sp,sp,-16 # 40000ff0 <_prog_start-0x3ffff010>
  call main
    80000038:	16f000ef          	jal	ra,800009a6 <main>
  wfi
    8000003c:	10500073          	wfi

0000000080000040 <_hart1>:
_hart1:
  // Parallel
  wfi
    80000040:	10500073          	wfi
  csrw mie, zero
    80000044:	30401073          	csrw	mie,zero
  li s1, 0
    80000048:	00000493          	li	s1,0
  li t0, (CLINT_CTRL_ADDR + CLINT_MSIP1)
    8000004c:	020002b7          	lui	t0,0x2000
    80000050:	0042829b          	addiw	t0,t0,4 # 2000004 <_prog_start-0x7dfffffc>
  amoswap.w t1, s1, (t0)
    80000054:	0892a32f          	amoswap.w	t1,s1,(t0)
  li sp, 0x40001ff0
    80000058:	40002137          	lui	sp,0x40002
    8000005c:	ff01011b          	addiw	sp,sp,-16 # 40001ff0 <_prog_start-0x3fffe010>
  call core1
    80000060:	78c000ef          	jal	ra,800007ec <core1>
  li s1, 1
    80000064:	00100493          	li	s1,1
  csrw mie, s1
    80000068:	30449073          	csrw	mie,s1
  wfi
    8000006c:	10500073          	wfi
  // Stage 0
  csrw mie, zero
    80000070:	30401073          	csrw	mie,zero
  li s1, 0
    80000074:	00000493          	li	s1,0
  li t0, (CLINT_CTRL_ADDR + CLINT_MSIP1)
    80000078:	020002b7          	lui	t0,0x2000
    8000007c:	0042829b          	addiw	t0,t0,4 # 2000004 <_prog_start-0x7dfffffc>
  amoswap.w t1, s1, (t0)
    80000080:	0892a32f          	amoswap.w	t1,s1,(t0)
  li sp, 0x40001ff0
    80000084:	40002137          	lui	sp,0x40002
    80000088:	ff01011b          	addiw	sp,sp,-16 # 40001ff0 <_prog_start-0x3fffe010>
  call s0_c1
    8000008c:	21c000ef          	jal	ra,800002a8 <s0_c1>
  li s1, 1
    80000090:	00100493          	li	s1,1
  csrw mie, s1
    80000094:	30449073          	csrw	mie,s1
  wfi
    80000098:	10500073          	wfi
  // Stage 2
  csrw mie, zero
    8000009c:	30401073          	csrw	mie,zero
  li s1, 0
    800000a0:	00000493          	li	s1,0
  li t0, (CLINT_CTRL_ADDR + CLINT_MSIP1)
    800000a4:	020002b7          	lui	t0,0x2000
    800000a8:	0042829b          	addiw	t0,t0,4 # 2000004 <_prog_start-0x7dfffffc>
  amoswap.w t1, s1, (t0)
    800000ac:	0892a32f          	amoswap.w	t1,s1,(t0)
  li sp, 0x40001ff0
    800000b0:	40002137          	lui	sp,0x40002
    800000b4:	ff01011b          	addiw	sp,sp,-16 # 40001ff0 <_prog_start-0x3fffe010>
  call s2_c1
    800000b8:	488000ef          	jal	ra,80000540 <s2_c1>
  li s1, 1
    800000bc:	00100493          	li	s1,1
  csrw mie, s1
    800000c0:	30449073          	csrw	mie,s1
  j _hart1
    800000c4:	f7dff06f          	j	80000040 <_hart1>

00000000800000c8 <_hart2>:
_hart2:
  // Parallel
  wfi
    800000c8:	10500073          	wfi
  csrw mie, zero
    800000cc:	30401073          	csrw	mie,zero
  li s1, 0
    800000d0:	00000493          	li	s1,0
  li t0, (CLINT_CTRL_ADDR + CLINT_MSIP2)
    800000d4:	020002b7          	lui	t0,0x2000
    800000d8:	0082829b          	addiw	t0,t0,8 # 2000008 <_prog_start-0x7dfffff8>
  amoswap.w t1, s1, (t0)
    800000dc:	0892a32f          	amoswap.w	t1,s1,(t0)
  li sp, 0x40002ff0
    800000e0:	40003137          	lui	sp,0x40003
    800000e4:	ff01011b          	addiw	sp,sp,-16 # 40002ff0 <_prog_start-0x3fffd010>
  call core1
    800000e8:	704000ef          	jal	ra,800007ec <core1>
  li s1, 1
    800000ec:	00100493          	li	s1,1
  csrw mie, s1
    800000f0:	30449073          	csrw	mie,s1
  wfi
    800000f4:	10500073          	wfi
  // Stage 0
  csrw mie, zero
    800000f8:	30401073          	csrw	mie,zero
  li s1, 0
    800000fc:	00000493          	li	s1,0
  li t0, (CLINT_CTRL_ADDR + CLINT_MSIP2)
    80000100:	020002b7          	lui	t0,0x2000
    80000104:	0082829b          	addiw	t0,t0,8 # 2000008 <_prog_start-0x7dfffff8>
  amoswap.w t1, s1, (t0)
    80000108:	0892a32f          	amoswap.w	t1,s1,(t0)
  li sp, 0x40002ff0
    8000010c:	40003137          	lui	sp,0x40003
    80000110:	ff01011b          	addiw	sp,sp,-16 # 40002ff0 <_prog_start-0x3fffd010>
  call s0_c2
    80000114:	218000ef          	jal	ra,8000032c <s0_c2>
  li s1, 1
    80000118:	00100493          	li	s1,1
  csrw mie, s1
    8000011c:	30449073          	csrw	mie,s1
  wfi
    80000120:	10500073          	wfi
  // Stage 1
  csrw mie, zero
    80000124:	30401073          	csrw	mie,zero
  li s1, 0
    80000128:	00000493          	li	s1,0
  li t0, (CLINT_CTRL_ADDR + CLINT_MSIP2)
    8000012c:	020002b7          	lui	t0,0x2000
    80000130:	0082829b          	addiw	t0,t0,8 # 2000008 <_prog_start-0x7dfffff8>
  amoswap.w t1, s1, (t0)
    80000134:	0892a32f          	amoswap.w	t1,s1,(t0)
  li sp, 0x40002ff0
    80000138:	40003137          	lui	sp,0x40003
    8000013c:	ff01011b          	addiw	sp,sp,-16 # 40002ff0 <_prog_start-0x3fffd010>
  call s1_c2
    80000140:	338000ef          	jal	ra,80000478 <s1_c2>
  li s1, 1
    80000144:	00100493          	li	s1,1
  csrw mie, s1
    80000148:	30449073          	csrw	mie,s1
  wfi
    8000014c:	10500073          	wfi
  // Stage 2
  csrw mie, zero
    80000150:	30401073          	csrw	mie,zero
  li s1, 0
    80000154:	00000493          	li	s1,0
  li t0, (CLINT_CTRL_ADDR + CLINT_MSIP2)
    80000158:	020002b7          	lui	t0,0x2000
    8000015c:	0082829b          	addiw	t0,t0,8 # 2000008 <_prog_start-0x7dfffff8>
  amoswap.w t1, s1, (t0)
    80000160:	0892a32f          	amoswap.w	t1,s1,(t0)
  li sp, 0x40002ff0
    80000164:	40003137          	lui	sp,0x40003
    80000168:	ff01011b          	addiw	sp,sp,-16 # 40002ff0 <_prog_start-0x3fffd010>
  call s2_c2
    8000016c:	458000ef          	jal	ra,800005c4 <s2_c2>
  li s1, 1
    80000170:	00100493          	li	s1,1
  csrw mie, s1
    80000174:	30449073          	csrw	mie,s1
  wfi
    80000178:	10500073          	wfi
  // Stage 3
  csrw mie, zero
    8000017c:	30401073          	csrw	mie,zero
  li s1, 0
    80000180:	00000493          	li	s1,0
  li t0, (CLINT_CTRL_ADDR + CLINT_MSIP2)
    80000184:	020002b7          	lui	t0,0x2000
    80000188:	0082829b          	addiw	t0,t0,8 # 2000008 <_prog_start-0x7dfffff8>
  amoswap.w t1, s1, (t0)
    8000018c:	0892a32f          	amoswap.w	t1,s1,(t0)
  li sp, 0x40002ff0
    80000190:	40003137          	lui	sp,0x40003
    80000194:	ff01011b          	addiw	sp,sp,-16 # 40002ff0 <_prog_start-0x3fffd010>
  call s3_c2
    80000198:	578000ef          	jal	ra,80000710 <s3_c2>
  li s1, 1
    8000019c:	00100493          	li	s1,1
  csrw mie, s1
    800001a0:	30449073          	csrw	mie,s1
  j _hart2
    800001a4:	f25ff06f          	j	800000c8 <_hart2>

00000000800001a8 <_hart3>:
_hart3:
  // Parallel
  wfi
    800001a8:	10500073          	wfi
  csrw mie, zero
    800001ac:	30401073          	csrw	mie,zero
  li s1, 0
    800001b0:	00000493          	li	s1,0
  li t0, (CLINT_CTRL_ADDR + CLINT_MSIP3)
    800001b4:	020002b7          	lui	t0,0x2000
    800001b8:	00c2829b          	addiw	t0,t0,12 # 200000c <_prog_start-0x7dfffff4>
  amoswap.w t1, s1, (t0)
    800001bc:	0892a32f          	amoswap.w	t1,s1,(t0)
  li sp, 0x40003ff0
    800001c0:	40004137          	lui	sp,0x40004
    800001c4:	ff01011b          	addiw	sp,sp,-16 # 40003ff0 <_prog_start-0x3fffc010>
  call core1
    800001c8:	624000ef          	jal	ra,800007ec <core1>
  li s1, 1
    800001cc:	00100493          	li	s1,1
  csrw mie, s1
    800001d0:	30449073          	csrw	mie,s1
  wfi
    800001d4:	10500073          	wfi
  // Stage 0
  csrw mie, zero
    800001d8:	30401073          	csrw	mie,zero
  li s1, 0
    800001dc:	00000493          	li	s1,0
  li t0, (CLINT_CTRL_ADDR + CLINT_MSIP3)
    800001e0:	020002b7          	lui	t0,0x2000
    800001e4:	00c2829b          	addiw	t0,t0,12 # 200000c <_prog_start-0x7dfffff4>
  amoswap.w t1, s1, (t0)
    800001e8:	0892a32f          	amoswap.w	t1,s1,(t0)
  li sp, 0x40003ff0
    800001ec:	40004137          	lui	sp,0x40004
    800001f0:	ff01011b          	addiw	sp,sp,-16 # 40003ff0 <_prog_start-0x3fffc010>
  call s0_c3
    800001f4:	1bc000ef          	jal	ra,800003b0 <s0_c3>
  li s1, 1
    800001f8:	00100493          	li	s1,1
  csrw mie, s1 
    800001fc:	30449073          	csrw	mie,s1
  wfi
    80000200:	10500073          	wfi
  // Stage 2
  csrw mie, zero
    80000204:	30401073          	csrw	mie,zero
  li s1, 0
    80000208:	00000493          	li	s1,0
  li t0, (CLINT_CTRL_ADDR + CLINT_MSIP3)
    8000020c:	020002b7          	lui	t0,0x2000
    80000210:	00c2829b          	addiw	t0,t0,12 # 200000c <_prog_start-0x7dfffff4>
  amoswap.w t1, s1, (t0)
    80000214:	0892a32f          	amoswap.w	t1,s1,(t0)
  li sp, 0x40003ff0
    80000218:	40004137          	lui	sp,0x40004
    8000021c:	ff01011b          	addiw	sp,sp,-16 # 40003ff0 <_prog_start-0x3fffc010>
  call s2_c3
    80000220:	428000ef          	jal	ra,80000648 <s2_c3>
  li s1, 1
    80000224:	00100493          	li	s1,1
  csrw mie, s1 
    80000228:	30449073          	csrw	mie,s1
  j _hart3
    8000022c:	f7dff06f          	j	800001a8 <_hart3>

0000000080000230 <_loopback>:
_loopback:
  j _loopback
    80000230:	0000006f          	j	80000230 <_loopback>

0000000080000234 <s0_c0>:
uint8_t *mat_a = (uint8_t *)0x70000000;
uint8_t *mat_b = (uint8_t *)0x70001000;
uint8_t *mat_c = (uint8_t *)0x70002000;

//============== Stage 0 ==================================
void s0_c0() {
    80000234:	4281                	li	t0,0
    80000236:	4f01                	li	t5,0
    80000238:	00001e17          	auipc	t3,0x1
    8000023c:	d60e0e13          	addi	t3,t3,-672 # 80000f98 <ae>
    80000240:	00001317          	auipc	t1,0x1
    80000244:	d7830313          	addi	t1,t1,-648 # 80000fb8 <a>
    80000248:	00001897          	auipc	a7,0x1
    8000024c:	d3088893          	addi	a7,a7,-720 # 80000f78 <e>
  for (int i = 0; i < HALF; i++)
    for (int j = 0; j < HALF; j++)
    80000250:	42000f93          	li	t6,1056
  for (int i = 0; i < HALF; i++)
    80000254:	02000393          	li	t2,32
void s0_c0() {
    80000258:	8816                	mv	a6,t0
    8000025a:	02000513          	li	a0,32
    8000025e:	4e81                	li	t4,0
    80000260:	87f6                	mv	a5,t4
    80000262:	85fa                	mv	a1,t5
      for (int k = 0; k < HALF; k++)
        ae[i*HALF + j] = a[i + k*HALF] + e[k + j*HALF];
    80000264:	00033683          	ld	a3,0(t1)
    80000268:	0008b603          	ld	a2,0(a7)
    8000026c:	000e3703          	ld	a4,0(t3)
    80000270:	96ae                	add	a3,a3,a1
    80000272:	963e                	add	a2,a2,a5
    80000274:	0006c683          	lbu	a3,0(a3)
    80000278:	00064603          	lbu	a2,0(a2)
    8000027c:	9742                	add	a4,a4,a6
      for (int k = 0; k < HALF; k++)
    8000027e:	0785                	addi	a5,a5,1
        ae[i*HALF + j] = a[i + k*HALF] + e[k + j*HALF];
    80000280:	9eb1                	addw	a3,a3,a2
    80000282:	00d70023          	sb	a3,0(a4)
      for (int k = 0; k < HALF; k++)
    80000286:	02058593          	addi	a1,a1,32
    8000028a:	fcf51de3          	bne	a0,a5,80000264 <s0_c0+0x30>
    for (int j = 0; j < HALF; j++)
    8000028e:	02050513          	addi	a0,a0,32
    80000292:	020e8e93          	addi	t4,t4,32
    80000296:	0805                	addi	a6,a6,1
    80000298:	fdf514e3          	bne	a0,t6,80000260 <s0_c0+0x2c>
  for (int i = 0; i < HALF; i++)
    8000029c:	0f05                	addi	t5,t5,1
    8000029e:	02028293          	addi	t0,t0,32
    800002a2:	fa7f1be3          	bne	t5,t2,80000258 <s0_c0+0x24>
}
    800002a6:	8082                	ret

00000000800002a8 <s0_c1>:

void s0_c1() {
    800002a8:	1141                	addi	sp,sp,-16
    800002aa:	e422                	sd	s0,8(sp)
    800002ac:	4381                	li	t2,0
    800002ae:	4f81                	li	t6,0
    800002b0:	00001e97          	auipc	t4,0x1
    800002b4:	ce0e8e93          	addi	t4,t4,-800 # 80000f90 <bg>
    800002b8:	00001e17          	auipc	t3,0x1
    800002bc:	cf8e0e13          	addi	t3,t3,-776 # 80000fb0 <b>
    800002c0:	00001317          	auipc	t1,0x1
    800002c4:	ca830313          	addi	t1,t1,-856 # 80000f68 <g>
  for (int i = 0; i < HALF; i++)
    for (int j = 0; j < HALF; j++)
    800002c8:	42000293          	li	t0,1056
  for (int i = 0; i < HALF; i++)
    800002cc:	02000413          	li	s0,32
void s0_c1() {
    800002d0:	889e                	mv	a7,t2
    800002d2:	02000813          	li	a6,32
    800002d6:	4f01                	li	t5,0
    800002d8:	86fa                	mv	a3,t5
    800002da:	85fe                	mv	a1,t6
      for (int k = 0; k < HALF; k++)
        bg[i*HALF + j] += b[i + k*HALF] * g[k + j*HALF];
    800002dc:	000e3783          	ld	a5,0(t3)
    800002e0:	00033603          	ld	a2,0(t1)
    800002e4:	000eb703          	ld	a4,0(t4)
    800002e8:	97ae                	add	a5,a5,a1
    800002ea:	9636                	add	a2,a2,a3
    800002ec:	00064503          	lbu	a0,0(a2)
    800002f0:	0007c783          	lbu	a5,0(a5)
    800002f4:	9746                	add	a4,a4,a7
    800002f6:	00074603          	lbu	a2,0(a4)
    800002fa:	02a787bb          	mulw	a5,a5,a0
      for (int k = 0; k < HALF; k++)
    800002fe:	0685                	addi	a3,a3,1
    80000300:	02058593          	addi	a1,a1,32
        bg[i*HALF + j] += b[i + k*HALF] * g[k + j*HALF];
    80000304:	9fb1                	addw	a5,a5,a2
    80000306:	00f70023          	sb	a5,0(a4)
      for (int k = 0; k < HALF; k++)
    8000030a:	fcd819e3          	bne	a6,a3,800002dc <s0_c1+0x34>
    for (int j = 0; j < HALF; j++)
    8000030e:	02080813          	addi	a6,a6,32
    80000312:	020f0f13          	addi	t5,t5,32
    80000316:	0885                	addi	a7,a7,1
    80000318:	fc5810e3          	bne	a6,t0,800002d8 <s0_c1+0x30>
  for (int i = 0; i < HALF; i++)
    8000031c:	0f85                	addi	t6,t6,1
    8000031e:	02038393          	addi	t2,t2,32
    80000322:	fa8f97e3          	bne	t6,s0,800002d0 <s0_c1+0x28>
}
    80000326:	6422                	ld	s0,8(sp)
    80000328:	0141                	addi	sp,sp,16
    8000032a:	8082                	ret

000000008000032c <s0_c2>:

void s0_c2() {
    8000032c:	1141                	addi	sp,sp,-16
    8000032e:	e422                	sd	s0,8(sp)
    80000330:	4381                	li	t2,0
    80000332:	4f81                	li	t6,0
    80000334:	00001e97          	auipc	t4,0x1
    80000338:	c54e8e93          	addi	t4,t4,-940 # 80000f88 <ce>
    8000033c:	00001e17          	auipc	t3,0x1
    80000340:	c6ce0e13          	addi	t3,t3,-916 # 80000fa8 <c>
    80000344:	00001317          	auipc	t1,0x1
    80000348:	c3430313          	addi	t1,t1,-972 # 80000f78 <e>
  for (int i = 0; i < HALF; i++)
    for (int j = 0; j < HALF; j++)
    8000034c:	42000293          	li	t0,1056
  for (int i = 0; i < HALF; i++)
    80000350:	02000413          	li	s0,32
void s0_c2() {
    80000354:	889e                	mv	a7,t2
    80000356:	02000813          	li	a6,32
    8000035a:	4f01                	li	t5,0
    8000035c:	86fa                	mv	a3,t5
    8000035e:	85fe                	mv	a1,t6
      for (int k = 0; k < HALF; k++)
        ce[i*HALF + j] += c[i + k*HALF] * e[k + j*HALF];
    80000360:	000e3783          	ld	a5,0(t3)
    80000364:	00033603          	ld	a2,0(t1)
    80000368:	000eb703          	ld	a4,0(t4)
    8000036c:	97ae                	add	a5,a5,a1
    8000036e:	9636                	add	a2,a2,a3
    80000370:	00064503          	lbu	a0,0(a2)
    80000374:	0007c783          	lbu	a5,0(a5)
    80000378:	9746                	add	a4,a4,a7
    8000037a:	00074603          	lbu	a2,0(a4)
    8000037e:	02a787bb          	mulw	a5,a5,a0
      for (int k = 0; k < HALF; k++)
    80000382:	0685                	addi	a3,a3,1
    80000384:	02058593          	addi	a1,a1,32
        ce[i*HALF + j] += c[i + k*HALF] * e[k + j*HALF];
    80000388:	9fb1                	addw	a5,a5,a2
    8000038a:	00f70023          	sb	a5,0(a4)
      for (int k = 0; k < HALF; k++)
    8000038e:	fcd819e3          	bne	a6,a3,80000360 <s0_c2+0x34>
    for (int j = 0; j < HALF; j++)
    80000392:	02080813          	addi	a6,a6,32
    80000396:	020f0f13          	addi	t5,t5,32
    8000039a:	0885                	addi	a7,a7,1
    8000039c:	fc5810e3          	bne	a6,t0,8000035c <s0_c2+0x30>
  for (int i = 0; i < HALF; i++)
    800003a0:	0f85                	addi	t6,t6,1
    800003a2:	02038393          	addi	t2,t2,32
    800003a6:	fa8f97e3          	bne	t6,s0,80000354 <s0_c2+0x28>
}
    800003aa:	6422                	ld	s0,8(sp)
    800003ac:	0141                	addi	sp,sp,16
    800003ae:	8082                	ret

00000000800003b0 <s0_c3>:

void s0_c3() {
    800003b0:	1141                	addi	sp,sp,-16
    800003b2:	e422                	sd	s0,8(sp)
    800003b4:	4381                	li	t2,0
    800003b6:	4f81                	li	t6,0
    800003b8:	00001e97          	auipc	t4,0x1
    800003bc:	bc8e8e93          	addi	t4,t4,-1080 # 80000f80 <dg>
    800003c0:	00001e17          	auipc	t3,0x1
    800003c4:	be0e0e13          	addi	t3,t3,-1056 # 80000fa0 <d>
    800003c8:	00001317          	auipc	t1,0x1
    800003cc:	ba030313          	addi	t1,t1,-1120 # 80000f68 <g>
  for (int i = 0; i < HALF; i++)
    for (int j = 0; j < HALF; j++)
    800003d0:	42000293          	li	t0,1056
  for (int i = 0; i < HALF; i++)
    800003d4:	02000413          	li	s0,32
void s0_c3() {
    800003d8:	889e                	mv	a7,t2
    800003da:	02000813          	li	a6,32
    800003de:	4f01                	li	t5,0
    800003e0:	86fa                	mv	a3,t5
    800003e2:	85fe                	mv	a1,t6
      for (int k = 0; k < HALF; k++)
        dg[i*HALF + j] += d[i + k*HALF] * g[k + j*HALF];  
    800003e4:	000e3783          	ld	a5,0(t3)
    800003e8:	00033603          	ld	a2,0(t1)
    800003ec:	000eb703          	ld	a4,0(t4)
    800003f0:	97ae                	add	a5,a5,a1
    800003f2:	9636                	add	a2,a2,a3
    800003f4:	00064503          	lbu	a0,0(a2)
    800003f8:	0007c783          	lbu	a5,0(a5)
    800003fc:	9746                	add	a4,a4,a7
    800003fe:	00074603          	lbu	a2,0(a4)
    80000402:	02a787bb          	mulw	a5,a5,a0
      for (int k = 0; k < HALF; k++)
    80000406:	0685                	addi	a3,a3,1
    80000408:	02058593          	addi	a1,a1,32
        dg[i*HALF + j] += d[i + k*HALF] * g[k + j*HALF];  
    8000040c:	9fb1                	addw	a5,a5,a2
    8000040e:	00f70023          	sb	a5,0(a4)
      for (int k = 0; k < HALF; k++)
    80000412:	fcd819e3          	bne	a6,a3,800003e4 <s0_c3+0x34>
    for (int j = 0; j < HALF; j++)
    80000416:	02080813          	addi	a6,a6,32
    8000041a:	020f0f13          	addi	t5,t5,32
    8000041e:	0885                	addi	a7,a7,1
    80000420:	fc5810e3          	bne	a6,t0,800003e0 <s0_c3+0x30>
  for (int i = 0; i < HALF; i++)
    80000424:	0f85                	addi	t6,t6,1
    80000426:	02038393          	addi	t2,t2,32
    8000042a:	fa8f97e3          	bne	t6,s0,800003d8 <s0_c3+0x28>
}
    8000042e:	6422                	ld	s0,8(sp)
    80000430:	0141                	addi	sp,sp,16
    80000432:	8082                	ret

0000000080000434 <s1_c0>:

// ============== Stage 1 ==================================
void s1_c0() {
    80000434:	4781                	li	a5,0
    80000436:	00001897          	auipc	a7,0x1
    8000043a:	b4288893          	addi	a7,a7,-1214 # 80000f78 <e>
    8000043e:	00001817          	auipc	a6,0x1
    80000442:	b5a80813          	addi	a6,a6,-1190 # 80000f98 <ae>
    80000446:	00001517          	auipc	a0,0x1
    8000044a:	b4a50513          	addi	a0,a0,-1206 # 80000f90 <bg>
  for (int i = 0; i < LENGTH; i++)
    8000044e:	40000593          	li	a1,1024
        e[i] = ae[i] + bg[i];
    80000452:	00083683          	ld	a3,0(a6)
    80000456:	6110                	ld	a2,0(a0)
    80000458:	0008b703          	ld	a4,0(a7)
    8000045c:	96be                	add	a3,a3,a5
    8000045e:	963e                	add	a2,a2,a5
    80000460:	0006c683          	lbu	a3,0(a3)
    80000464:	00064603          	lbu	a2,0(a2)
    80000468:	973e                	add	a4,a4,a5
  for (int i = 0; i < LENGTH; i++)
    8000046a:	0785                	addi	a5,a5,1
        e[i] = ae[i] + bg[i];
    8000046c:	9eb1                	addw	a3,a3,a2
    8000046e:	00d70023          	sb	a3,0(a4)
  for (int i = 0; i < LENGTH; i++)
    80000472:	feb790e3          	bne	a5,a1,80000452 <s1_c0+0x1e>
}
    80000476:	8082                	ret

0000000080000478 <s1_c2>:

void s1_c2() {
    80000478:	4781                	li	a5,0
    8000047a:	00001897          	auipc	a7,0x1
    8000047e:	aee88893          	addi	a7,a7,-1298 # 80000f68 <g>
    80000482:	00001817          	auipc	a6,0x1
    80000486:	b0680813          	addi	a6,a6,-1274 # 80000f88 <ce>
    8000048a:	00001517          	auipc	a0,0x1
    8000048e:	af650513          	addi	a0,a0,-1290 # 80000f80 <dg>
  for (int i = 0; i < LENGTH; i++)
    80000492:	40000593          	li	a1,1024
        g[i] = ce[i] + dg[i];
    80000496:	00083683          	ld	a3,0(a6)
    8000049a:	6110                	ld	a2,0(a0)
    8000049c:	0008b703          	ld	a4,0(a7)
    800004a0:	96be                	add	a3,a3,a5
    800004a2:	963e                	add	a2,a2,a5
    800004a4:	0006c683          	lbu	a3,0(a3)
    800004a8:	00064603          	lbu	a2,0(a2)
    800004ac:	973e                	add	a4,a4,a5
  for (int i = 0; i < LENGTH; i++)
    800004ae:	0785                	addi	a5,a5,1
        g[i] = ce[i] + dg[i];
    800004b0:	9eb1                	addw	a3,a3,a2
    800004b2:	00d70023          	sb	a3,0(a4)
  for (int i = 0; i < LENGTH; i++)
    800004b6:	feb790e3          	bne	a5,a1,80000496 <s1_c2+0x1e>
}
    800004ba:	8082                	ret

00000000800004bc <s2_c0>:

// ============== Stage 2 ==================================
void s2_c0() {
    800004bc:	1141                	addi	sp,sp,-16
    800004be:	e422                	sd	s0,8(sp)
    800004c0:	4381                	li	t2,0
    800004c2:	4f81                	li	t6,0
    800004c4:	00001e97          	auipc	t4,0x1
    800004c8:	ad4e8e93          	addi	t4,t4,-1324 # 80000f98 <ae>
    800004cc:	00001e17          	auipc	t3,0x1
    800004d0:	aece0e13          	addi	t3,t3,-1300 # 80000fb8 <a>
    800004d4:	00001317          	auipc	t1,0x1
    800004d8:	a9c30313          	addi	t1,t1,-1380 # 80000f70 <f>
  for (int i = 0; i < HALF; i++)
    for (int j = 0; j < HALF; j++) {
    800004dc:	42000293          	li	t0,1056
  for (int i = 0; i < HALF; i++)
    800004e0:	02000413          	li	s0,32
void s2_c0() {
    800004e4:	889e                	mv	a7,t2
    800004e6:	02000813          	li	a6,32
    800004ea:	4f01                	li	t5,0
    800004ec:	86fa                	mv	a3,t5
    800004ee:	85fe                	mv	a1,t6
      // ae[i*HALF + j] = 0;
      for (int k = 0; k < HALF; k++)
        ae[i*HALF + j] += a[i + k*HALF] * f[k + j*HALF];
    800004f0:	000e3783          	ld	a5,0(t3)
    800004f4:	00033603          	ld	a2,0(t1)
    800004f8:	000eb703          	ld	a4,0(t4)
    800004fc:	97ae                	add	a5,a5,a1
    800004fe:	9636                	add	a2,a2,a3
    80000500:	00064503          	lbu	a0,0(a2)
    80000504:	0007c783          	lbu	a5,0(a5)
    80000508:	9746                	add	a4,a4,a7
    8000050a:	00074603          	lbu	a2,0(a4)
    8000050e:	02a787bb          	mulw	a5,a5,a0
      for (int k = 0; k < HALF; k++)
    80000512:	0685                	addi	a3,a3,1
    80000514:	02058593          	addi	a1,a1,32
        ae[i*HALF + j] += a[i + k*HALF] * f[k + j*HALF];
    80000518:	9fb1                	addw	a5,a5,a2
    8000051a:	00f70023          	sb	a5,0(a4)
      for (int k = 0; k < HALF; k++)
    8000051e:	fcd819e3          	bne	a6,a3,800004f0 <s2_c0+0x34>
    for (int j = 0; j < HALF; j++) {
    80000522:	02080813          	addi	a6,a6,32
    80000526:	020f0f13          	addi	t5,t5,32
    8000052a:	0885                	addi	a7,a7,1
    8000052c:	fc5810e3          	bne	a6,t0,800004ec <s2_c0+0x30>
  for (int i = 0; i < HALF; i++)
    80000530:	0f85                	addi	t6,t6,1
    80000532:	02038393          	addi	t2,t2,32
    80000536:	fa8f97e3          	bne	t6,s0,800004e4 <s2_c0+0x28>
    }
}
    8000053a:	6422                	ld	s0,8(sp)
    8000053c:	0141                	addi	sp,sp,16
    8000053e:	8082                	ret

0000000080000540 <s2_c1>:

void s2_c1() {
    80000540:	1141                	addi	sp,sp,-16
    80000542:	e422                	sd	s0,8(sp)
    80000544:	4381                	li	t2,0
    80000546:	4f81                	li	t6,0
    80000548:	00001e97          	auipc	t4,0x1
    8000054c:	a48e8e93          	addi	t4,t4,-1464 # 80000f90 <bg>
    80000550:	00001e17          	auipc	t3,0x1
    80000554:	a60e0e13          	addi	t3,t3,-1440 # 80000fb0 <b>
    80000558:	00001317          	auipc	t1,0x1
    8000055c:	a0830313          	addi	t1,t1,-1528 # 80000f60 <h>
  for (int i = 0; i < HALF; i++)
    for (int j = 0; j < HALF; j++) {
    80000560:	42000293          	li	t0,1056
  for (int i = 0; i < HALF; i++)
    80000564:	02000413          	li	s0,32
void s2_c1() {
    80000568:	889e                	mv	a7,t2
    8000056a:	02000813          	li	a6,32
    8000056e:	4f01                	li	t5,0
    80000570:	86fa                	mv	a3,t5
    80000572:	85fe                	mv	a1,t6
      // bg[i*HALF + j] = 0;
      for (int k = 0; k < HALF; k++)
        bg[i*HALF + j] += b[i + k*HALF] * h[k + j*HALF];
    80000574:	000e3783          	ld	a5,0(t3)
    80000578:	00033603          	ld	a2,0(t1)
    8000057c:	000eb703          	ld	a4,0(t4)
    80000580:	97ae                	add	a5,a5,a1
    80000582:	9636                	add	a2,a2,a3
    80000584:	00064503          	lbu	a0,0(a2)
    80000588:	0007c783          	lbu	a5,0(a5)
    8000058c:	9746                	add	a4,a4,a7
    8000058e:	00074603          	lbu	a2,0(a4)
    80000592:	02a787bb          	mulw	a5,a5,a0
      for (int k = 0; k < HALF; k++)
    80000596:	0685                	addi	a3,a3,1
    80000598:	02058593          	addi	a1,a1,32
        bg[i*HALF + j] += b[i + k*HALF] * h[k + j*HALF];
    8000059c:	9fb1                	addw	a5,a5,a2
    8000059e:	00f70023          	sb	a5,0(a4)
      for (int k = 0; k < HALF; k++)
    800005a2:	fcd819e3          	bne	a6,a3,80000574 <s2_c1+0x34>
    for (int j = 0; j < HALF; j++) {
    800005a6:	02080813          	addi	a6,a6,32
    800005aa:	020f0f13          	addi	t5,t5,32
    800005ae:	0885                	addi	a7,a7,1
    800005b0:	fc5810e3          	bne	a6,t0,80000570 <s2_c1+0x30>
  for (int i = 0; i < HALF; i++)
    800005b4:	0f85                	addi	t6,t6,1
    800005b6:	02038393          	addi	t2,t2,32
    800005ba:	fa8f97e3          	bne	t6,s0,80000568 <s2_c1+0x28>
    }
}
    800005be:	6422                	ld	s0,8(sp)
    800005c0:	0141                	addi	sp,sp,16
    800005c2:	8082                	ret

00000000800005c4 <s2_c2>:

void s2_c2() {
    800005c4:	1141                	addi	sp,sp,-16
    800005c6:	e422                	sd	s0,8(sp)
    800005c8:	4381                	li	t2,0
    800005ca:	4f81                	li	t6,0
    800005cc:	00001e97          	auipc	t4,0x1
    800005d0:	9bce8e93          	addi	t4,t4,-1604 # 80000f88 <ce>
    800005d4:	00001e17          	auipc	t3,0x1
    800005d8:	9d4e0e13          	addi	t3,t3,-1580 # 80000fa8 <c>
    800005dc:	00001317          	auipc	t1,0x1
    800005e0:	99430313          	addi	t1,t1,-1644 # 80000f70 <f>
  for (int i = 0; i < HALF; i++)
    for (int j = 0; j < HALF; j++) {
    800005e4:	42000293          	li	t0,1056
  for (int i = 0; i < HALF; i++)
    800005e8:	02000413          	li	s0,32
void s2_c2() {
    800005ec:	889e                	mv	a7,t2
    800005ee:	02000813          	li	a6,32
    800005f2:	4f01                	li	t5,0
    800005f4:	86fa                	mv	a3,t5
    800005f6:	85fe                	mv	a1,t6
      // ce[i*HALF + j] = 0;
      for (int k = 0; k < HALF; k++)
        ce[i*HALF + j] += c[i + k*HALF] * f[k + j*HALF];
    800005f8:	000e3783          	ld	a5,0(t3)
    800005fc:	00033603          	ld	a2,0(t1)
    80000600:	000eb703          	ld	a4,0(t4)
    80000604:	97ae                	add	a5,a5,a1
    80000606:	9636                	add	a2,a2,a3
    80000608:	00064503          	lbu	a0,0(a2)
    8000060c:	0007c783          	lbu	a5,0(a5)
    80000610:	9746                	add	a4,a4,a7
    80000612:	00074603          	lbu	a2,0(a4)
    80000616:	02a787bb          	mulw	a5,a5,a0
      for (int k = 0; k < HALF; k++)
    8000061a:	0685                	addi	a3,a3,1
    8000061c:	02058593          	addi	a1,a1,32
        ce[i*HALF + j] += c[i + k*HALF] * f[k + j*HALF];
    80000620:	9fb1                	addw	a5,a5,a2
    80000622:	00f70023          	sb	a5,0(a4)
      for (int k = 0; k < HALF; k++)
    80000626:	fcd819e3          	bne	a6,a3,800005f8 <s2_c2+0x34>
    for (int j = 0; j < HALF; j++) {
    8000062a:	02080813          	addi	a6,a6,32
    8000062e:	020f0f13          	addi	t5,t5,32
    80000632:	0885                	addi	a7,a7,1
    80000634:	fc5810e3          	bne	a6,t0,800005f4 <s2_c2+0x30>
  for (int i = 0; i < HALF; i++)
    80000638:	0f85                	addi	t6,t6,1
    8000063a:	02038393          	addi	t2,t2,32
    8000063e:	fa8f97e3          	bne	t6,s0,800005ec <s2_c2+0x28>
    }
}
    80000642:	6422                	ld	s0,8(sp)
    80000644:	0141                	addi	sp,sp,16
    80000646:	8082                	ret

0000000080000648 <s2_c3>:

void s2_c3() {
    80000648:	1141                	addi	sp,sp,-16
    8000064a:	e422                	sd	s0,8(sp)
    8000064c:	4381                	li	t2,0
    8000064e:	4f81                	li	t6,0
    80000650:	00001e97          	auipc	t4,0x1
    80000654:	930e8e93          	addi	t4,t4,-1744 # 80000f80 <dg>
    80000658:	00001e17          	auipc	t3,0x1
    8000065c:	948e0e13          	addi	t3,t3,-1720 # 80000fa0 <d>
    80000660:	00001317          	auipc	t1,0x1
    80000664:	90030313          	addi	t1,t1,-1792 # 80000f60 <h>
  for (int i = 0; i < HALF; i++)
    for (int j = 0; j < HALF; j++) {
    80000668:	42000293          	li	t0,1056
  for (int i = 0; i < HALF; i++)
    8000066c:	02000413          	li	s0,32
void s2_c3() {
    80000670:	889e                	mv	a7,t2
    80000672:	02000813          	li	a6,32
    80000676:	4f01                	li	t5,0
    80000678:	86fa                	mv	a3,t5
    8000067a:	85fe                	mv	a1,t6
      // dg[i*HALF + j] = 0;
      for (int k = 0; k < HALF; k++)
        dg[i*HALF + j] += d[i + k*HALF] * h[k + j*HALF];
    8000067c:	000e3783          	ld	a5,0(t3)
    80000680:	00033603          	ld	a2,0(t1)
    80000684:	000eb703          	ld	a4,0(t4)
    80000688:	97ae                	add	a5,a5,a1
    8000068a:	9636                	add	a2,a2,a3
    8000068c:	00064503          	lbu	a0,0(a2)
    80000690:	0007c783          	lbu	a5,0(a5)
    80000694:	9746                	add	a4,a4,a7
    80000696:	00074603          	lbu	a2,0(a4)
    8000069a:	02a787bb          	mulw	a5,a5,a0
      for (int k = 0; k < HALF; k++)
    8000069e:	0685                	addi	a3,a3,1
    800006a0:	02058593          	addi	a1,a1,32
        dg[i*HALF + j] += d[i + k*HALF] * h[k + j*HALF];
    800006a4:	9fb1                	addw	a5,a5,a2
    800006a6:	00f70023          	sb	a5,0(a4)
      for (int k = 0; k < HALF; k++)
    800006aa:	fcd819e3          	bne	a6,a3,8000067c <s2_c3+0x34>
    for (int j = 0; j < HALF; j++) {
    800006ae:	02080813          	addi	a6,a6,32
    800006b2:	020f0f13          	addi	t5,t5,32
    800006b6:	0885                	addi	a7,a7,1
    800006b8:	fc5810e3          	bne	a6,t0,80000678 <s2_c3+0x30>
  for (int i = 0; i < HALF; i++)
    800006bc:	0f85                	addi	t6,t6,1
    800006be:	02038393          	addi	t2,t2,32
    800006c2:	fa8f97e3          	bne	t6,s0,80000670 <s2_c3+0x28>
    }
}
    800006c6:	6422                	ld	s0,8(sp)
    800006c8:	0141                	addi	sp,sp,16
    800006ca:	8082                	ret

00000000800006cc <s3_c0>:

// ============== Stage 3 ==================================
void s3_c0() {
    800006cc:	4781                	li	a5,0
    800006ce:	00001897          	auipc	a7,0x1
    800006d2:	8a288893          	addi	a7,a7,-1886 # 80000f70 <f>
    800006d6:	00001817          	auipc	a6,0x1
    800006da:	8c280813          	addi	a6,a6,-1854 # 80000f98 <ae>
    800006de:	00001517          	auipc	a0,0x1
    800006e2:	8b250513          	addi	a0,a0,-1870 # 80000f90 <bg>
  for (int i = 0; i < LENGTH; i++)
    800006e6:	40000593          	li	a1,1024
        f[i] = ae[i] + bg[i];
    800006ea:	00083683          	ld	a3,0(a6)
    800006ee:	6110                	ld	a2,0(a0)
    800006f0:	0008b703          	ld	a4,0(a7)
    800006f4:	96be                	add	a3,a3,a5
    800006f6:	963e                	add	a2,a2,a5
    800006f8:	0006c683          	lbu	a3,0(a3)
    800006fc:	00064603          	lbu	a2,0(a2)
    80000700:	973e                	add	a4,a4,a5
  for (int i = 0; i < LENGTH; i++)
    80000702:	0785                	addi	a5,a5,1
        f[i] = ae[i] + bg[i];
    80000704:	9eb1                	addw	a3,a3,a2
    80000706:	00d70023          	sb	a3,0(a4)
  for (int i = 0; i < LENGTH; i++)
    8000070a:	feb790e3          	bne	a5,a1,800006ea <s3_c0+0x1e>
}
    8000070e:	8082                	ret

0000000080000710 <s3_c2>:

void s3_c2() {
    80000710:	4781                	li	a5,0
    80000712:	00001897          	auipc	a7,0x1
    80000716:	84e88893          	addi	a7,a7,-1970 # 80000f60 <h>
    8000071a:	00001817          	auipc	a6,0x1
    8000071e:	86e80813          	addi	a6,a6,-1938 # 80000f88 <ce>
    80000722:	00001517          	auipc	a0,0x1
    80000726:	85e50513          	addi	a0,a0,-1954 # 80000f80 <dg>
  for (int i = 0; i < LENGTH; i++)
    8000072a:	40000593          	li	a1,1024
        h[i] = ce[i] + dg[i];
    8000072e:	00083683          	ld	a3,0(a6)
    80000732:	6110                	ld	a2,0(a0)
    80000734:	0008b703          	ld	a4,0(a7)
    80000738:	96be                	add	a3,a3,a5
    8000073a:	963e                	add	a2,a2,a5
    8000073c:	0006c683          	lbu	a3,0(a3)
    80000740:	00064603          	lbu	a2,0(a2)
    80000744:	973e                	add	a4,a4,a5
  for (int i = 0; i < LENGTH; i++)
    80000746:	0785                	addi	a5,a5,1
        h[i] = ce[i] + dg[i];
    80000748:	9eb1                	addw	a3,a3,a2
    8000074a:	00d70023          	sb	a3,0(a4)
  for (int i = 0; i < LENGTH; i++)
    8000074e:	feb790e3          	bne	a5,a1,8000072e <s3_c2+0x1e>
}
    80000752:	8082                	ret

0000000080000754 <core0>:

// ============== For normal parallel =======================
void core0() {
    80000754:	1101                	addi	sp,sp,-32
    80000756:	ec22                	sd	s0,24(sp)
    80000758:	e826                	sd	s1,16(sp)
    8000075a:	e44a                	sd	s2,8(sp)
    8000075c:	e04e                	sd	s3,0(sp)
  for (int i = 0; i < SIZE/4; i = i + 1)
    for (int j = 0; j < SIZE; j = j + 1)
    8000075e:	6805                	lui	a6,0x1
  for (int i = 0; i < SIZE/4; i = i + 1)
    80000760:	4401                	li	s0,0
    80000762:	00000e97          	auipc	t4,0x0
    80000766:	7e6e8e93          	addi	t4,t4,2022 # 80000f48 <mat_c>
    8000076a:	00000e17          	auipc	t3,0x0
    8000076e:	7e6e0e13          	addi	t3,t3,2022 # 80000f50 <mat_b>
    80000772:	00000317          	auipc	t1,0x0
    80000776:	7e630313          	addi	t1,t1,2022 # 80000f58 <mat_a>
    8000077a:	6985                	lui	s3,0x1
    8000077c:	fffbf937          	lui	s2,0xfffbf
    80000780:	73fd                	lui	t2,0xfffff
    for (int j = 0; j < SIZE; j = j + 1)
    80000782:	04000293          	li	t0,64
  for (int i = 0; i < SIZE/4; i = i + 1)
    80000786:	44c1                	li	s1,16
    for (int j = 0; j < SIZE; j = j + 1)
    80000788:	00681f93          	slli	t6,a6,0x6
    8000078c:	9fc2                	add	t6,t6,a6
    8000078e:	41098533          	sub	a0,s3,a6
    80000792:	9fca                	add	t6,t6,s2
    80000794:	4f01                	li	t5,0
      for (int k = 0; k < SIZE; k  = k + 1)
    80000796:	00af88b3          	add	a7,t6,a0
    8000079a:	00780733          	add	a4,a6,t2
        mat_c[i*SIZE + j] += mat_a[i + k*SIZE] * mat_b[k*SIZE + j];
    8000079e:	000e3783          	ld	a5,0(t3)
    800007a2:	00033603          	ld	a2,0(t1)
    800007a6:	000eb683          	ld	a3,0(t4)
    800007aa:	97aa                	add	a5,a5,a0
    800007ac:	963a                	add	a2,a2,a4
    800007ae:	97ba                	add	a5,a5,a4
    800007b0:	00064583          	lbu	a1,0(a2)
    800007b4:	0007c783          	lbu	a5,0(a5)
    800007b8:	96c6                	add	a3,a3,a7
    800007ba:	0006c603          	lbu	a2,0(a3)
    800007be:	02b787bb          	mulw	a5,a5,a1
      for (int k = 0; k < SIZE; k  = k + 1)
    800007c2:	04070713          	addi	a4,a4,64
        mat_c[i*SIZE + j] += mat_a[i + k*SIZE] * mat_b[k*SIZE + j];
    800007c6:	9fb1                	addw	a5,a5,a2
    800007c8:	00f68023          	sb	a5,0(a3)
      for (int k = 0; k < SIZE; k  = k + 1)
    800007cc:	fce819e3          	bne	a6,a4,8000079e <core0+0x4a>
    for (int j = 0; j < SIZE; j = j + 1)
    800007d0:	2f05                	addiw	t5,t5,1
    800007d2:	0505                	addi	a0,a0,1
    800007d4:	fc5f11e3          	bne	t5,t0,80000796 <core0+0x42>
  for (int i = 0; i < SIZE/4; i = i + 1)
    800007d8:	2405                	addiw	s0,s0,1
    800007da:	0805                	addi	a6,a6,1 # 1001 <_prog_start-0x7fffefff>
    800007dc:	fa9416e3          	bne	s0,s1,80000788 <core0+0x34>
}
    800007e0:	6462                	ld	s0,24(sp)
    800007e2:	64c2                	ld	s1,16(sp)
    800007e4:	6922                	ld	s2,8(sp)
    800007e6:	6982                	ld	s3,0(sp)
    800007e8:	6105                	addi	sp,sp,32
    800007ea:	8082                	ret

00000000800007ec <core1>:

void core1() {
    800007ec:	1141                	addi	sp,sp,-16
    800007ee:	6805                	lui	a6,0x1
    800007f0:	e406                	sd	ra,8(sp)
    800007f2:	e022                	sd	s0,0(sp)
    800007f4:	0841                	addi	a6,a6,16 # 1010 <_prog_start-0x7fffeff0>
    800007f6:	00000e97          	auipc	t4,0x0
    800007fa:	752e8e93          	addi	t4,t4,1874 # 80000f48 <mat_c>
    800007fe:	00000e17          	auipc	t3,0x0
    80000802:	752e0e13          	addi	t3,t3,1874 # 80000f50 <mat_b>
    80000806:	00000317          	auipc	t1,0x0
    8000080a:	75230313          	addi	t1,t1,1874 # 80000f58 <mat_a>
    8000080e:	6405                	lui	s0,0x1
    80000810:	fffbf0b7          	lui	ra,0xfffbf
    80000814:	73fd                	lui	t2,0xfffff
  for (int i = SIZE/4; SIZE/2; i = i + 1)
    for (int j = 0; j < SIZE; j = j + 1)
    80000816:	04000293          	li	t0,64
    8000081a:	00681f93          	slli	t6,a6,0x6
    8000081e:	9fc2                	add	t6,t6,a6
    80000820:	41040533          	sub	a0,s0,a6
    80000824:	9f86                	add	t6,t6,ra
    80000826:	4f01                	li	t5,0
      for (int k = 0; k < SIZE; k  = k + 1)
    80000828:	00af88b3          	add	a7,t6,a0
    8000082c:	00780733          	add	a4,a6,t2
        mat_c[i*SIZE + j] += mat_a[i + k*SIZE] * mat_b[k*SIZE + j];
    80000830:	000e3783          	ld	a5,0(t3)
    80000834:	00033603          	ld	a2,0(t1)
    80000838:	000eb683          	ld	a3,0(t4)
    8000083c:	97aa                	add	a5,a5,a0
    8000083e:	963a                	add	a2,a2,a4
    80000840:	97ba                	add	a5,a5,a4
    80000842:	00064583          	lbu	a1,0(a2)
    80000846:	0007c783          	lbu	a5,0(a5)
    8000084a:	96c6                	add	a3,a3,a7
    8000084c:	0006c603          	lbu	a2,0(a3)
    80000850:	02b787bb          	mulw	a5,a5,a1
      for (int k = 0; k < SIZE; k  = k + 1)
    80000854:	04070713          	addi	a4,a4,64
        mat_c[i*SIZE + j] += mat_a[i + k*SIZE] * mat_b[k*SIZE + j];
    80000858:	9fb1                	addw	a5,a5,a2
    8000085a:	00f68023          	sb	a5,0(a3)
      for (int k = 0; k < SIZE; k  = k + 1)
    8000085e:	fce819e3          	bne	a6,a4,80000830 <core1+0x44>
    for (int j = 0; j < SIZE; j = j + 1)
    80000862:	2f05                	addiw	t5,t5,1
    80000864:	0505                	addi	a0,a0,1
    80000866:	fc5f11e3          	bne	t5,t0,80000828 <core1+0x3c>
  for (int i = SIZE/4; SIZE/2; i = i + 1)
    8000086a:	0805                	addi	a6,a6,1
    for (int j = 0; j < SIZE; j = j + 1)
    8000086c:	b77d                	j	8000081a <core1+0x2e>

000000008000086e <core2>:
}
void core2() {
    8000086e:	1101                	addi	sp,sp,-32
  for (int i = SIZE/2; i < (SIZE/2+SIZE/4); i = i + 1)
    for (int j = 0; j < SIZE; j = j + 1)
    80000870:	6805                	lui	a6,0x1
void core2() {
    80000872:	ec22                	sd	s0,24(sp)
    80000874:	e826                	sd	s1,16(sp)
    80000876:	e44a                	sd	s2,8(sp)
    80000878:	e04e                	sd	s3,0(sp)
    for (int j = 0; j < SIZE; j = j + 1)
    8000087a:	02080813          	addi	a6,a6,32 # 1020 <_prog_start-0x7fffefe0>
  for (int i = SIZE/2; i < (SIZE/2+SIZE/4); i = i + 1)
    8000087e:	02000413          	li	s0,32
    80000882:	00000e97          	auipc	t4,0x0
    80000886:	6c6e8e93          	addi	t4,t4,1734 # 80000f48 <mat_c>
    8000088a:	00000e17          	auipc	t3,0x0
    8000088e:	6c6e0e13          	addi	t3,t3,1734 # 80000f50 <mat_b>
    80000892:	00000317          	auipc	t1,0x0
    80000896:	6c630313          	addi	t1,t1,1734 # 80000f58 <mat_a>
    8000089a:	6985                	lui	s3,0x1
    8000089c:	fffbf937          	lui	s2,0xfffbf
    800008a0:	73fd                	lui	t2,0xfffff
    for (int j = 0; j < SIZE; j = j + 1)
    800008a2:	04000293          	li	t0,64
  for (int i = SIZE/2; i < (SIZE/2+SIZE/4); i = i + 1)
    800008a6:	03000493          	li	s1,48
    for (int j = 0; j < SIZE; j = j + 1)
    800008aa:	00681f93          	slli	t6,a6,0x6
    800008ae:	9fc2                	add	t6,t6,a6
    800008b0:	41098533          	sub	a0,s3,a6
    800008b4:	9fca                	add	t6,t6,s2
    800008b6:	4f01                	li	t5,0
      for (int k = 0; k < SIZE; k  = k + 1)
    800008b8:	00af88b3          	add	a7,t6,a0
    800008bc:	00780733          	add	a4,a6,t2
        mat_c[i*SIZE + j] += mat_a[i + k*SIZE] * mat_b[k*SIZE + j];
    800008c0:	000e3783          	ld	a5,0(t3)
    800008c4:	00033603          	ld	a2,0(t1)
    800008c8:	000eb683          	ld	a3,0(t4)
    800008cc:	97aa                	add	a5,a5,a0
    800008ce:	963a                	add	a2,a2,a4
    800008d0:	97ba                	add	a5,a5,a4
    800008d2:	00064583          	lbu	a1,0(a2)
    800008d6:	0007c783          	lbu	a5,0(a5)
    800008da:	96c6                	add	a3,a3,a7
    800008dc:	0006c603          	lbu	a2,0(a3)
    800008e0:	02b787bb          	mulw	a5,a5,a1
      for (int k = 0; k < SIZE; k  = k + 1)
    800008e4:	04070713          	addi	a4,a4,64
        mat_c[i*SIZE + j] += mat_a[i + k*SIZE] * mat_b[k*SIZE + j];
    800008e8:	9fb1                	addw	a5,a5,a2
    800008ea:	00f68023          	sb	a5,0(a3)
      for (int k = 0; k < SIZE; k  = k + 1)
    800008ee:	fce819e3          	bne	a6,a4,800008c0 <core2+0x52>
    for (int j = 0; j < SIZE; j = j + 1)
    800008f2:	2f05                	addiw	t5,t5,1
    800008f4:	0505                	addi	a0,a0,1
    800008f6:	fc5f11e3          	bne	t5,t0,800008b8 <core2+0x4a>
  for (int i = SIZE/2; i < (SIZE/2+SIZE/4); i = i + 1)
    800008fa:	2405                	addiw	s0,s0,1 # 1001 <_prog_start-0x7fffefff>
    800008fc:	0805                	addi	a6,a6,1
    800008fe:	fa9416e3          	bne	s0,s1,800008aa <core2+0x3c>
}
    80000902:	6462                	ld	s0,24(sp)
    80000904:	64c2                	ld	s1,16(sp)
    80000906:	6922                	ld	s2,8(sp)
    80000908:	6982                	ld	s3,0(sp)
    8000090a:	6105                	addi	sp,sp,32
    8000090c:	8082                	ret

000000008000090e <core3>:

void core3() {
    8000090e:	1101                	addi	sp,sp,-32
  for (int i = (SIZE/2+SIZE/4); i < SIZE; i = i + 1)
    for (int j = 0; j < SIZE; j = j + 1)
    80000910:	6805                	lui	a6,0x1
void core3() {
    80000912:	ec22                	sd	s0,24(sp)
    80000914:	e826                	sd	s1,16(sp)
    80000916:	e44a                	sd	s2,8(sp)
    for (int j = 0; j < SIZE; j = j + 1)
    80000918:	03080813          	addi	a6,a6,48 # 1030 <_prog_start-0x7fffefd0>
  for (int i = (SIZE/2+SIZE/4); i < SIZE; i = i + 1)
    8000091c:	03000413          	li	s0,48
    80000920:	00000e97          	auipc	t4,0x0
    80000924:	628e8e93          	addi	t4,t4,1576 # 80000f48 <mat_c>
    80000928:	00000e17          	auipc	t3,0x0
    8000092c:	628e0e13          	addi	t3,t3,1576 # 80000f50 <mat_b>
    80000930:	00000317          	auipc	t1,0x0
    80000934:	62830313          	addi	t1,t1,1576 # 80000f58 <mat_a>
    80000938:	6905                	lui	s2,0x1
    8000093a:	fffbf4b7          	lui	s1,0xfffbf
    8000093e:	73fd                	lui	t2,0xfffff
    for (int j = 0; j < SIZE; j = j + 1)
    80000940:	04000293          	li	t0,64
    80000944:	00681f93          	slli	t6,a6,0x6
    80000948:	9fc2                	add	t6,t6,a6
    8000094a:	41090533          	sub	a0,s2,a6
    8000094e:	9fa6                	add	t6,t6,s1
    80000950:	4f01                	li	t5,0
      for (int k = 0; k < SIZE; k  = k + 1)
    80000952:	00af88b3          	add	a7,t6,a0
    80000956:	00780733          	add	a4,a6,t2
        mat_c[i*SIZE + j] += mat_a[i + k*SIZE] * mat_b[k*SIZE + j];
    8000095a:	000e3783          	ld	a5,0(t3)
    8000095e:	00033603          	ld	a2,0(t1)
    80000962:	000eb683          	ld	a3,0(t4)
    80000966:	97aa                	add	a5,a5,a0
    80000968:	963a                	add	a2,a2,a4
    8000096a:	97ba                	add	a5,a5,a4
    8000096c:	00064583          	lbu	a1,0(a2)
    80000970:	0007c783          	lbu	a5,0(a5)
    80000974:	96c6                	add	a3,a3,a7
    80000976:	0006c603          	lbu	a2,0(a3)
    8000097a:	02b787bb          	mulw	a5,a5,a1
      for (int k = 0; k < SIZE; k  = k + 1)
    8000097e:	04070713          	addi	a4,a4,64
        mat_c[i*SIZE + j] += mat_a[i + k*SIZE] * mat_b[k*SIZE + j];
    80000982:	9fb1                	addw	a5,a5,a2
    80000984:	00f68023          	sb	a5,0(a3)
      for (int k = 0; k < SIZE; k  = k + 1)
    80000988:	fce819e3          	bne	a6,a4,8000095a <core3+0x4c>
    for (int j = 0; j < SIZE; j = j + 1)
    8000098c:	2f05                	addiw	t5,t5,1
    8000098e:	0505                	addi	a0,a0,1
    80000990:	fc5f11e3          	bne	t5,t0,80000952 <core3+0x44>
  for (int i = (SIZE/2+SIZE/4); i < SIZE; i = i + 1)
    80000994:	2405                	addiw	s0,s0,1
    80000996:	0805                	addi	a6,a6,1
    80000998:	fbe416e3          	bne	s0,t5,80000944 <core3+0x36>
}
    8000099c:	6462                	ld	s0,24(sp)
    8000099e:	64c2                	ld	s1,16(sp)
    800009a0:	6922                	ld	s2,8(sp)
    800009a2:	6105                	addi	sp,sp,32
    800009a4:	8082                	ret

00000000800009a6 <main>:

int main(int argc, char **arv) {
    800009a6:	7159                	addi	sp,sp,-112
    800009a8:	f486                	sd	ra,104(sp)
    800009aa:	f0a2                	sd	s0,96(sp)
    800009ac:	eca6                	sd	s1,88(sp)
    800009ae:	e8ca                	sd	s2,80(sp)
    800009b0:	e4ce                	sd	s3,72(sp)
    800009b2:	e0d2                	sd	s4,64(sp)
    800009b4:	fc56                	sd	s5,56(sp)
    800009b6:	f85a                	sd	s6,48(sp)
    800009b8:	f45e                	sd	s7,40(sp)
    800009ba:	f062                	sd	s8,32(sp)
    800009bc:	ec66                	sd	s9,24(sp)
    800009be:	e86a                	sd	s10,16(sp)
    800009c0:	e46e                	sd	s11,8(sp)
  
  REG32(uart, UART_REG_TXCTRL) = UART_TXEN;
    800009c2:	640007b7          	lui	a5,0x64000
    800009c6:	4705                	li	a4,1
    800009c8:	c798                	sw	a4,8(a5)
  uint64_t instr_gap;

  uint64_t start[4];
  uint64_t end[4];

  kprintf("============= Naive %l ==================== \r\n", SIZE);
    800009ca:	04000593          	li	a1,64
    800009ce:	00000517          	auipc	a0,0x0
    800009d2:	5f250513          	addi	a0,a0,1522 # 80000fc0 <a+0x8>
    800009d6:	3ac000ef          	jal	ra,80000d82 <kprintf>
//================= Single thread =====================================
  t_start = read_csr(mcycle);
    800009da:	b00020f3          	csrr	ra,mcycle
  instr_start = read_csr(minstret);
    800009de:	b02024f3          	csrr	s1,minstret
    800009e2:	6885                	lui	a7,0x1
  for (int i = 0; i < SIZE; i = i + 1)
    800009e4:	4581                	li	a1,0
    800009e6:	00000417          	auipc	s0,0x0
    800009ea:	56240413          	addi	s0,s0,1378 # 80000f48 <mat_c>
    800009ee:	00000e97          	auipc	t4,0x0
    800009f2:	562e8e93          	addi	t4,t4,1378 # 80000f50 <mat_b>
    800009f6:	00000e17          	auipc	t3,0x0
    800009fa:	562e0e13          	addi	t3,t3,1378 # 80000f58 <mat_a>
    800009fe:	6985                	lui	s3,0x1
    80000a00:	fffbf937          	lui	s2,0xfffbf
    80000a04:	73fd                	lui	t2,0xfffff
    for (int j = 0; j < SIZE; j = j + 1)
    80000a06:	04000293          	li	t0,64
    80000a0a:	00689f93          	slli	t6,a7,0x6
    80000a0e:	9fc6                	add	t6,t6,a7
    80000a10:	41198833          	sub	a6,s3,a7
    80000a14:	9fca                	add	t6,t6,s2
    80000a16:	4f01                	li	t5,0
      for (int k = 0; k < SIZE; k = k + 1)
    80000a18:	010f8333          	add	t1,t6,a6
    80000a1c:	00788733          	add	a4,a7,t2
        mat_c[i*SIZE + j] += mat_a[i + k*SIZE] * mat_b[k*SIZE + j];
    80000a20:	000eb783          	ld	a5,0(t4)
    80000a24:	000e3603          	ld	a2,0(t3)
    80000a28:	6014                	ld	a3,0(s0)
    80000a2a:	97c2                	add	a5,a5,a6
    80000a2c:	963a                	add	a2,a2,a4
    80000a2e:	97ba                	add	a5,a5,a4
    80000a30:	00064503          	lbu	a0,0(a2)
    80000a34:	0007c783          	lbu	a5,0(a5) # 64000000 <_prog_start-0x1c000000>
    80000a38:	969a                	add	a3,a3,t1
    80000a3a:	0006c603          	lbu	a2,0(a3)
    80000a3e:	02a787bb          	mulw	a5,a5,a0
      for (int k = 0; k < SIZE; k = k + 1)
    80000a42:	04070713          	addi	a4,a4,64
        mat_c[i*SIZE + j] += mat_a[i + k*SIZE] * mat_b[k*SIZE + j];
    80000a46:	9fb1                	addw	a5,a5,a2
    80000a48:	00f68023          	sb	a5,0(a3)
      for (int k = 0; k < SIZE; k = k + 1)
    80000a4c:	fce89ae3          	bne	a7,a4,80000a20 <main+0x7a>
    for (int j = 0; j < SIZE; j = j + 1)
    80000a50:	2f05                	addiw	t5,t5,1
    80000a52:	0805                	addi	a6,a6,1
    80000a54:	fc5f12e3          	bne	t5,t0,80000a18 <main+0x72>
  for (int i = 0; i < SIZE; i = i + 1)
    80000a58:	2585                	addiw	a1,a1,1
    80000a5a:	0885                	addi	a7,a7,1 # 1001 <_prog_start-0x7fffefff>
    80000a5c:	fbe597e3          	bne	a1,t5,80000a0a <main+0x64>
  t_end = read_csr(mcycle);
    80000a60:	b00025f3          	csrr	a1,mcycle
  instr_end = read_csr(minstret);
    80000a64:	b02027f3          	csrr	a5,minstret
  t_gap[0] = t_end - t_start;
  instr_gap = instr_end - instr_start;

  kprintf("Time spent (single thread): %l (cycles)\r\n", t_gap[0]);
    80000a68:	00000517          	auipc	a0,0x0
    80000a6c:	58850513          	addi	a0,a0,1416 # 80000ff0 <a+0x38>
    80000a70:	401585b3          	sub	a1,a1,ra
  instr_gap = instr_end - instr_start;
    80000a74:	409784b3          	sub	s1,a5,s1
  kprintf("Time spent (single thread): %l (cycles)\r\n", t_gap[0]);
    80000a78:	30a000ef          	jal	ra,80000d82 <kprintf>
  kprintf("Instruction: %l\r\n", instr_gap);
    80000a7c:	85a6                	mv	a1,s1
    80000a7e:	00000517          	auipc	a0,0x0
    80000a82:	5a250513          	addi	a0,a0,1442 # 80001020 <a+0x68>
    80000a86:	2fc000ef          	jal	ra,80000d82 <kprintf>
  for (int i = 0; i < SIZE; i = i + 1)
    80000a8a:	6505                	lui	a0,0x1
  kprintf("Instruction: %l\r\n", instr_gap);
    80000a8c:	04000613          	li	a2,64
    80000a90:	4801                	li	a6,0
    80000a92:	00000597          	auipc	a1,0x0
    80000a96:	52658593          	addi	a1,a1,1318 # 80000fb8 <a>
  for (int i = 0; i < SIZE; i = i + 1)
    80000a9a:	04050513          	addi	a0,a0,64 # 1040 <_prog_start-0x7fffefc0>
  for (int i = 0; i < SIZE; i = i + 1)
    80000a9e:	87c2                	mv	a5,a6
    for (int j = 0; j < SIZE; j = j + 1)
      *a = mat_c[i*SIZE + j];
    80000aa0:	6018                	ld	a4,0(s0)
    80000aa2:	6194                	ld	a3,0(a1)
    80000aa4:	973e                	add	a4,a4,a5
    80000aa6:	00074703          	lbu	a4,0(a4)
    for (int j = 0; j < SIZE; j = j + 1)
    80000aaa:	0785                	addi	a5,a5,1
      *a = mat_c[i*SIZE + j];
    80000aac:	00e68023          	sb	a4,0(a3)
    for (int j = 0; j < SIZE; j = j + 1)
    80000ab0:	fef618e3          	bne	a2,a5,80000aa0 <main+0xfa>
  for (int i = 0; i < SIZE; i = i + 1)
    80000ab4:	04060613          	addi	a2,a2,64
    80000ab8:	04080813          	addi	a6,a6,64
    80000abc:	fea611e3          	bne	a2,a0,80000a9e <main+0xf8>

//================= Paralle ================================================
  t_start = read_csr(mcycle);
    80000ac0:	b0002473          	csrr	s0,mcycle
  REG32(clint, CLINT_MSIP1) = CLINT_MSIPEN;
    80000ac4:	020007b7          	lui	a5,0x2000
    80000ac8:	4705                	li	a4,1
    80000aca:	c3d8                	sw	a4,4(a5)
  REG32(clint, CLINT_MSIP2) = CLINT_MSIPEN;
    80000acc:	c798                	sw	a4,8(a5)
  REG32(clint, CLINT_MSIP3) = CLINT_MSIPEN;
    80000ace:	c7d8                	sw	a4,12(a5)
  core0();
    80000ad0:	c85ff0ef          	jal	ra,80000754 <core0>
  t_end = read_csr(mcycle);
    80000ad4:	b00025f3          	csrr	a1,mcycle
  t_gap[1] = t_end - t_start;
  kprintf("Time spent (multi-threaded): %l (cycles)\r\n", t_gap[1]);
    80000ad8:	00000517          	auipc	a0,0x0
    80000adc:	56050513          	addi	a0,a0,1376 # 80001038 <a+0x80>
    80000ae0:	8d81                	sub	a1,a1,s0
    80000ae2:	2a0000ef          	jal	ra,80000d82 <kprintf>

  kprintf("============= Strassen %l ==================== \r\n", SIZE);
    80000ae6:	04000593          	li	a1,64
    80000aea:	00000517          	auipc	a0,0x0
    80000aee:	57e50513          	addi	a0,a0,1406 # 80001068 <a+0xb0>
    80000af2:	290000ef          	jal	ra,80000d82 <kprintf>
//================= Devide and Conquer (Single thread) =====================
  t_start = read_csr(mcycle);
    80000af6:	b0002a73          	csrr	s4,mcycle
  instr_start = read_csr(minstret);
    80000afa:	b0202b73          	csrr	s6,minstret
  s0_c0();
    80000afe:	f36ff0ef          	jal	ra,80000234 <s0_c0>
  s0_c1();
    80000b02:	fa6ff0ef          	jal	ra,800002a8 <s0_c1>
  s0_c2();
    80000b06:	827ff0ef          	jal	ra,8000032c <s0_c2>
  s0_c3();
    80000b0a:	8a7ff0ef          	jal	ra,800003b0 <s0_c3>
  for (int i = 0; i < LENGTH; i++)
    80000b0e:	00000497          	auipc	s1,0x0
    80000b12:	46a48493          	addi	s1,s1,1130 # 80000f78 <e>
    80000b16:	00000917          	auipc	s2,0x0
    80000b1a:	48290913          	addi	s2,s2,1154 # 80000f98 <ae>
    80000b1e:	00000997          	auipc	s3,0x0
    80000b22:	47298993          	addi	s3,s3,1138 # 80000f90 <bg>
  s0_c3();
    80000b26:	4781                	li	a5,0
  for (int i = 0; i < LENGTH; i++)
    80000b28:	40000593          	li	a1,1024
        e[i] = ae[i] + bg[i];
    80000b2c:	00093683          	ld	a3,0(s2)
    80000b30:	0009b603          	ld	a2,0(s3)
    80000b34:	6098                	ld	a4,0(s1)
    80000b36:	96be                	add	a3,a3,a5
    80000b38:	963e                	add	a2,a2,a5
    80000b3a:	0006c683          	lbu	a3,0(a3)
    80000b3e:	00064603          	lbu	a2,0(a2)
    80000b42:	973e                	add	a4,a4,a5
  for (int i = 0; i < LENGTH; i++)
    80000b44:	0785                	addi	a5,a5,1 # 2000001 <_prog_start-0x7dffffff>
        e[i] = ae[i] + bg[i];
    80000b46:	9eb1                	addw	a3,a3,a2
    80000b48:	00d70023          	sb	a3,0(a4)
  for (int i = 0; i < LENGTH; i++)
    80000b4c:	feb790e3          	bne	a5,a1,80000b2c <main+0x186>
    80000b50:	4781                	li	a5,0
    80000b52:	00000517          	auipc	a0,0x0
    80000b56:	41650513          	addi	a0,a0,1046 # 80000f68 <g>
    80000b5a:	00000b97          	auipc	s7,0x0
    80000b5e:	42eb8b93          	addi	s7,s7,1070 # 80000f88 <ce>
    80000b62:	00000417          	auipc	s0,0x0
    80000b66:	41e40413          	addi	s0,s0,1054 # 80000f80 <dg>
  for (int i = 0; i < LENGTH; i++)
    80000b6a:	40000593          	li	a1,1024
        g[i] = ce[i] + dg[i];
    80000b6e:	000bb683          	ld	a3,0(s7)
    80000b72:	6010                	ld	a2,0(s0)
    80000b74:	6118                	ld	a4,0(a0)
    80000b76:	96be                	add	a3,a3,a5
    80000b78:	963e                	add	a2,a2,a5
    80000b7a:	0006c683          	lbu	a3,0(a3)
    80000b7e:	00064603          	lbu	a2,0(a2)
    80000b82:	973e                	add	a4,a4,a5
  for (int i = 0; i < LENGTH; i++)
    80000b84:	0785                	addi	a5,a5,1
        g[i] = ce[i] + dg[i];
    80000b86:	9eb1                	addw	a3,a3,a2
    80000b88:	00d70023          	sb	a3,0(a4)
  for (int i = 0; i < LENGTH; i++)
    80000b8c:	feb791e3          	bne	a5,a1,80000b6e <main+0x1c8>
  s1_c0();
  s1_c2();
  s2_c0();
    80000b90:	92dff0ef          	jal	ra,800004bc <s2_c0>
  s2_c1();
    80000b94:	9adff0ef          	jal	ra,80000540 <s2_c1>
  s2_c2();
    80000b98:	a2dff0ef          	jal	ra,800005c4 <s2_c2>
  s2_c3();
    80000b9c:	aadff0ef          	jal	ra,80000648 <s2_c3>
  for (int i = 0; i < LENGTH; i++)
    80000ba0:	00000a97          	auipc	s5,0x0
    80000ba4:	3d0a8a93          	addi	s5,s5,976 # 80000f70 <f>
  s2_c3();
    80000ba8:	4781                	li	a5,0
  for (int i = 0; i < LENGTH; i++)
    80000baa:	40000593          	li	a1,1024
        f[i] = ae[i] + bg[i];
    80000bae:	00093683          	ld	a3,0(s2)
    80000bb2:	0009b603          	ld	a2,0(s3)
    80000bb6:	000ab703          	ld	a4,0(s5)
    80000bba:	96be                	add	a3,a3,a5
    80000bbc:	963e                	add	a2,a2,a5
    80000bbe:	0006c683          	lbu	a3,0(a3)
    80000bc2:	00064603          	lbu	a2,0(a2)
    80000bc6:	973e                	add	a4,a4,a5
  for (int i = 0; i < LENGTH; i++)
    80000bc8:	0785                	addi	a5,a5,1
        f[i] = ae[i] + bg[i];
    80000bca:	9eb1                	addw	a3,a3,a2
    80000bcc:	00d70023          	sb	a3,0(a4)
  for (int i = 0; i < LENGTH; i++)
    80000bd0:	fcb79fe3          	bne	a5,a1,80000bae <main+0x208>
    80000bd4:	4781                	li	a5,0
    80000bd6:	00000517          	auipc	a0,0x0
    80000bda:	38a50513          	addi	a0,a0,906 # 80000f60 <h>
  for (int i = 0; i < LENGTH; i++)
    80000bde:	40000593          	li	a1,1024
        h[i] = ce[i] + dg[i];
    80000be2:	000bb683          	ld	a3,0(s7)
    80000be6:	6010                	ld	a2,0(s0)
    80000be8:	6118                	ld	a4,0(a0)
    80000bea:	96be                	add	a3,a3,a5
    80000bec:	963e                	add	a2,a2,a5
    80000bee:	0006c683          	lbu	a3,0(a3)
    80000bf2:	00064603          	lbu	a2,0(a2)
    80000bf6:	973e                	add	a4,a4,a5
  for (int i = 0; i < LENGTH; i++)
    80000bf8:	0785                	addi	a5,a5,1
        h[i] = ce[i] + dg[i];
    80000bfa:	9eb1                	addw	a3,a3,a2
    80000bfc:	00d70023          	sb	a3,0(a4)
  for (int i = 0; i < LENGTH; i++)
    80000c00:	feb791e3          	bne	a5,a1,80000be2 <main+0x23c>
  s3_c0();
  s3_c2();
  t_end = read_csr(mcycle);
    80000c04:	b00025f3          	csrr	a1,mcycle
  instr_end = read_csr(minstret);
    80000c08:	b0202473          	csrr	s0,minstret
  t_gap[2] = t_end - t_start;
  instr_gap = instr_end - instr_start;
  kprintf("Time spent (single thread): %l (cycles)\r\n", t_gap[2]);
    80000c0c:	00000517          	auipc	a0,0x0
    80000c10:	3e450513          	addi	a0,a0,996 # 80000ff0 <a+0x38>
    80000c14:	414585b3          	sub	a1,a1,s4
    80000c18:	16a000ef          	jal	ra,80000d82 <kprintf>
  instr_gap = instr_end - instr_start;
    80000c1c:	41640433          	sub	s0,s0,s6
  kprintf("Instruction: %l\r\n", instr_gap);
    80000c20:	85a2                	mv	a1,s0
    80000c22:	00000517          	auipc	a0,0x0
    80000c26:	3fe50513          	addi	a0,a0,1022 # 80001020 <a+0x68>
    80000c2a:	158000ef          	jal	ra,80000d82 <kprintf>

//================= Devide and Conquer =====================================
    t_start = read_csr(mcycle);
    80000c2e:	b0002a73          	csrr	s4,mcycle
    start[0] = t_start;
    // Stage 0
    REG32(clint, CLINT_MSIP1) = CLINT_MSIPEN;
    80000c32:	02000437          	lui	s0,0x2000
    80000c36:	4c05                	li	s8,1
    80000c38:	01842223          	sw	s8,4(s0) # 2000004 <_prog_start-0x7dfffffc>
    REG32(clint, CLINT_MSIP2) = CLINT_MSIPEN;
    80000c3c:	01842423          	sw	s8,8(s0)
    REG32(clint, CLINT_MSIP3) = CLINT_MSIPEN;
    80000c40:	01842623          	sw	s8,12(s0)
    s0_c0();
    80000c44:	df0ff0ef          	jal	ra,80000234 <s0_c0>
    end[0] = read_csr(mcycle);
    80000c48:	b0002bf3          	csrr	s7,mcycle

    // Stage 1
    start[1] = read_csr(mcycle);
    80000c4c:	b0002b73          	csrr	s6,mcycle
    REG32(clint, CLINT_MSIP2) = CLINT_MSIPEN;
    80000c50:	4781                	li	a5,0
    80000c52:	01842423          	sw	s8,8(s0)
  for (int i = 0; i < LENGTH; i++)
    80000c56:	40000593          	li	a1,1024
        e[i] = ae[i] + bg[i];
    80000c5a:	00093683          	ld	a3,0(s2)
    80000c5e:	0009b603          	ld	a2,0(s3)
    80000c62:	6098                	ld	a4,0(s1)
    80000c64:	96be                	add	a3,a3,a5
    80000c66:	963e                	add	a2,a2,a5
    80000c68:	0006c683          	lbu	a3,0(a3)
    80000c6c:	00064603          	lbu	a2,0(a2)
    80000c70:	973e                	add	a4,a4,a5
  for (int i = 0; i < LENGTH; i++)
    80000c72:	0785                	addi	a5,a5,1
        e[i] = ae[i] + bg[i];
    80000c74:	9eb1                	addw	a3,a3,a2
    80000c76:	00d70023          	sb	a3,0(a4)
  for (int i = 0; i < LENGTH; i++)
    80000c7a:	feb790e3          	bne	a5,a1,80000c5a <main+0x2b4>
    s1_c0();
    end[1] = read_csr(mcycle);
    80000c7e:	b0002cf3          	csrr	s9,mcycle

    // Stage 2
    start[2] = read_csr(mcycle);
    80000c82:	b0002c73          	csrr	s8,mcycle
    REG32(clint, CLINT_MSIP1) = CLINT_MSIPEN;
    80000c86:	02000437          	lui	s0,0x2000
    80000c8a:	4485                	li	s1,1
    80000c8c:	c044                	sw	s1,4(s0)
    REG32(clint, CLINT_MSIP2) = CLINT_MSIPEN;
    80000c8e:	c404                	sw	s1,8(s0)
    REG32(clint, CLINT_MSIP3) = CLINT_MSIPEN;
    80000c90:	c444                	sw	s1,12(s0)
    s2_c0();
    80000c92:	82bff0ef          	jal	ra,800004bc <s2_c0>
    end[2] = read_csr(mcycle);
    80000c96:	b0002df3          	csrr	s11,mcycle

    // Stage 3
    start[3] = read_csr(mcycle);
    80000c9a:	b0002d73          	csrr	s10,mcycle
    REG32(clint, CLINT_MSIP2) = CLINT_MSIPEN;
    80000c9e:	4781                	li	a5,0
    80000ca0:	c404                	sw	s1,8(s0)
  for (int i = 0; i < LENGTH; i++)
    80000ca2:	40000593          	li	a1,1024
        f[i] = ae[i] + bg[i];
    80000ca6:	00093683          	ld	a3,0(s2)
    80000caa:	0009b603          	ld	a2,0(s3)
    80000cae:	000ab703          	ld	a4,0(s5)
    80000cb2:	96be                	add	a3,a3,a5
    80000cb4:	963e                	add	a2,a2,a5
    80000cb6:	0006c683          	lbu	a3,0(a3)
    80000cba:	00064603          	lbu	a2,0(a2)
    80000cbe:	973e                	add	a4,a4,a5
  for (int i = 0; i < LENGTH; i++)
    80000cc0:	0785                	addi	a5,a5,1
        f[i] = ae[i] + bg[i];
    80000cc2:	9eb1                	addw	a3,a3,a2
    80000cc4:	00d70023          	sb	a3,0(a4)
  for (int i = 0; i < LENGTH; i++)
    80000cc8:	fcb79fe3          	bne	a5,a1,80000ca6 <main+0x300>
    s3_c0();
    end[3] = read_csr(mcycle);
    80000ccc:	b0002473          	csrr	s0,mcycle
    t_end = read_csr(mcycle);
    80000cd0:	b00025f3          	csrr	a1,mcycle
    t_gap[3] = t_end - t_start;

    kprintf("Time spent (multi-threaded): %l (cycles)\r\n", t_gap[3]);
    80000cd4:	00000517          	auipc	a0,0x0
    80000cd8:	36450513          	addi	a0,a0,868 # 80001038 <a+0x80>
    80000cdc:	414585b3          	sub	a1,a1,s4
    80000ce0:	0a2000ef          	jal	ra,80000d82 <kprintf>
    kprintf("Stage 0: %l (cycles)\r\n", end[0] - start[0]);
    80000ce4:	414b85b3          	sub	a1,s7,s4
    80000ce8:	00000517          	auipc	a0,0x0
    80000cec:	3b850513          	addi	a0,a0,952 # 800010a0 <a+0xe8>
    80000cf0:	092000ef          	jal	ra,80000d82 <kprintf>
    kprintf("Stage 1: %l (cycles)\r\n", end[1] - start[1]);
    80000cf4:	416c85b3          	sub	a1,s9,s6
    80000cf8:	00000517          	auipc	a0,0x0
    80000cfc:	3c050513          	addi	a0,a0,960 # 800010b8 <a+0x100>
    80000d00:	082000ef          	jal	ra,80000d82 <kprintf>
    kprintf("Stage 2: %l (cycles)\r\n", end[2] - start[2]);
    80000d04:	418d85b3          	sub	a1,s11,s8
    80000d08:	00000517          	auipc	a0,0x0
    80000d0c:	3c850513          	addi	a0,a0,968 # 800010d0 <a+0x118>
    80000d10:	072000ef          	jal	ra,80000d82 <kprintf>
    kprintf("Stage 3: %l (cycles)\r\n", end[3] - start[3]);
    80000d14:	41a405b3          	sub	a1,s0,s10
    80000d18:	00000517          	auipc	a0,0x0
    80000d1c:	3d050513          	addi	a0,a0,976 # 800010e8 <a+0x130>
    80000d20:	062000ef          	jal	ra,80000d82 <kprintf>

  return 0;
}
    80000d24:	70a6                	ld	ra,104(sp)
    80000d26:	7406                	ld	s0,96(sp)
    80000d28:	64e6                	ld	s1,88(sp)
    80000d2a:	6946                	ld	s2,80(sp)
    80000d2c:	69a6                	ld	s3,72(sp)
    80000d2e:	6a06                	ld	s4,64(sp)
    80000d30:	7ae2                	ld	s5,56(sp)
    80000d32:	7b42                	ld	s6,48(sp)
    80000d34:	7ba2                	ld	s7,40(sp)
    80000d36:	7c02                	ld	s8,32(sp)
    80000d38:	6ce2                	ld	s9,24(sp)
    80000d3a:	6d42                	ld	s10,16(sp)
    80000d3c:	6da2                	ld	s11,8(sp)
    80000d3e:	4501                	li	a0,0
    80000d40:	6165                	addi	sp,sp,112
    80000d42:	8082                	ret

0000000080000d44 <kputs>:
#include "kprintf.h"

static inline void _kputs(const char *s)
{
	char c;
	for (; (c = *s) != '\0'; s++)
    80000d44:	00054683          	lbu	a3,0(a0)
    80000d48:	ce81                	beqz	a3,80000d60 <kputs+0x1c>
{
	volatile uint32_t *tx = &REG32(uart, UART_REG_TXFIFO);
#ifdef __riscv_atomic
	int32_t r;
	do {
		__asm__ __volatile__ (
    80000d4a:	64000737          	lui	a4,0x64000
    80000d4e:	40d727af          	amoor.w	a5,a3,(a4)
    80000d52:	2781                	sext.w	a5,a5
			"amoor.w %0, %2, %1\n"
			: "=r" (r), "+A" (*tx)
			: "r" (c));
	} while (r < 0);
    80000d54:	fe07cde3          	bltz	a5,80000d4e <kputs+0xa>
    80000d58:	00154683          	lbu	a3,1(a0)
    80000d5c:	0505                	addi	a0,a0,1
    80000d5e:	fae5                	bnez	a3,80000d4e <kputs+0xa>
		__asm__ __volatile__ (
    80000d60:	64000737          	lui	a4,0x64000
    80000d64:	46b5                	li	a3,13
    80000d66:	40d727af          	amoor.w	a5,a3,(a4)
    80000d6a:	2781                	sext.w	a5,a5
	} while (r < 0);
    80000d6c:	fe07cde3          	bltz	a5,80000d66 <kputs+0x22>
		__asm__ __volatile__ (
    80000d70:	64000737          	lui	a4,0x64000
    80000d74:	46a9                	li	a3,10
    80000d76:	40d727af          	amoor.w	a5,a3,(a4)
    80000d7a:	2781                	sext.w	a5,a5
	} while (r < 0);
    80000d7c:	fe07cde3          	bltz	a5,80000d76 <kputs+0x32>
void kputs(const char *s)
{
	_kputs(s);
	kputc('\r');
	kputc('\n');
}
    80000d80:	8082                	ret

0000000080000d82 <kprintf>:

void kprintf(const char *fmt, ...)
{
    80000d82:	7175                	addi	sp,sp,-144

	va_start(vl, fmt);
	is_format = false;
	is_long = false;
	is_char = false;
	while ((c = *fmt++) != '\0') {
    80000d84:	00054303          	lbu	t1,0(a0)
{
    80000d88:	fcbe                	sd	a5,120(sp)
	va_start(vl, fmt);
    80000d8a:	08bc                	addi	a5,sp,88
{
    80000d8c:	ecae                	sd	a1,88(sp)
    80000d8e:	f0b2                	sd	a2,96(sp)
    80000d90:	f4b6                	sd	a3,104(sp)
    80000d92:	f8ba                	sd	a4,112(sp)
    80000d94:	e142                	sd	a6,128(sp)
    80000d96:	e546                	sd	a7,136(sp)
	va_start(vl, fmt);
    80000d98:	e43e                	sd	a5,8(sp)
	while ((c = *fmt++) != '\0') {
    80000d9a:	04030e63          	beqz	t1,80000df6 <kprintf+0x74>
    80000d9e:	0505                	addi	a0,a0,1
    80000da0:	4681                	li	a3,0
    80000da2:	4701                	li	a4,0
				break;
			}
			is_format = false;
			is_long = false;
			is_char = false;
		} else if (c == '%') {
    80000da4:	02500e13          	li	t3,37
		__asm__ __volatile__ (
    80000da8:	640005b7          	lui	a1,0x64000
			switch (c) {
    80000dac:	48d5                	li	a7,21
    80000dae:	00000817          	auipc	a6,0x0
    80000db2:	35280813          	addi	a6,a6,850 # 80001100 <a+0x148>
		if (is_format) {
    80000db6:	cf79                	beqz	a4,80000e94 <kprintf+0x112>
			switch (c) {
    80000db8:	f9d3031b          	addiw	t1,t1,-99
    80000dbc:	0ff37313          	zext.b	t1,t1
    80000dc0:	0268e463          	bltu	a7,t1,80000de8 <kprintf+0x66>
    80000dc4:	00231793          	slli	a5,t1,0x2
    80000dc8:	97c2                	add	a5,a5,a6
    80000dca:	439c                	lw	a5,0(a5)
    80000dcc:	97c2                	add	a5,a5,a6
    80000dce:	8782                	jr	a5
				kputc(va_arg(vl, int));
    80000dd0:	67a2                	ld	a5,8(sp)
    80000dd2:	64000737          	lui	a4,0x64000
    80000dd6:	0007c683          	lbu	a3,0(a5)
    80000dda:	07a1                	addi	a5,a5,8
    80000ddc:	e43e                	sd	a5,8(sp)
    80000dde:	40d727af          	amoor.w	a5,a3,(a4)
    80000de2:	2781                	sext.w	a5,a5
	} while (r < 0);
    80000de4:	fe07cde3          	bltz	a5,80000dde <kprintf+0x5c>
			is_char = false;
    80000de8:	4681                	li	a3,0
			is_format = false;
    80000dea:	4701                	li	a4,0
	while ((c = *fmt++) != '\0') {
    80000dec:	00054303          	lbu	t1,0(a0)
    80000df0:	0505                	addi	a0,a0,1
    80000df2:	fc0312e3          	bnez	t1,80000db6 <kprintf+0x34>
		} else {
			kputc(c);
		}
	}
	va_end(vl);
}
    80000df6:	6149                	addi	sp,sp,144
    80000df8:	8082                	ret
					n = va_arg(vl, unsigned int);
    80000dfa:	67a2                	ld	a5,8(sp)
					i = is_char ? 4 : (sizeof(unsigned int) << 3) - 4;
    80000dfc:	4611                	li	a2,4
					n = va_arg(vl, unsigned int);
    80000dfe:	00878713          	addi	a4,a5,8
    80000e02:	e43a                	sd	a4,8(sp)
    80000e04:	0007ef83          	lwu	t6,0(a5)
					i = is_char ? 4 : (sizeof(unsigned int) << 3) - 4;
    80000e08:	cef1                	beqz	a3,80000ee4 <kprintf+0x162>
					kputc(d < 10 ? '0' + d : 'a' + d - 10);
    80000e0a:	4f25                	li	t5,9
		__asm__ __volatile__ (
    80000e0c:	64000737          	lui	a4,0x64000
				for (; i >= 0; i -= 4) {
    80000e10:	5ef1                	li	t4,-4
					d = (n >> i) & 0xF;
    80000e12:	00cfd7b3          	srl	a5,t6,a2
					kputc(d < 10 ? '0' + d : 'a' + d - 10);
    80000e16:	00f7f313          	andi	t1,a5,15
    80000e1a:	05730693          	addi	a3,t1,87
    80000e1e:	006f6463          	bltu	t5,t1,80000e26 <kprintf+0xa4>
    80000e22:	03030693          	addi	a3,t1,48
    80000e26:	40d727af          	amoor.w	a5,a3,(a4)
    80000e2a:	2781                	sext.w	a5,a5
	} while (r < 0);
    80000e2c:	fe07cde3          	bltz	a5,80000e26 <kprintf+0xa4>
				for (; i >= 0; i -= 4) {
    80000e30:	1671                	addi	a2,a2,-4
    80000e32:	ffd610e3          	bne	a2,t4,80000e12 <kprintf+0x90>
    80000e36:	bf4d                	j	80000de8 <kprintf+0x66>
				_kputs(va_arg(vl, const char *));
    80000e38:	67a2                	ld	a5,8(sp)
    80000e3a:	6390                	ld	a2,0(a5)
    80000e3c:	07a1                	addi	a5,a5,8
    80000e3e:	e43e                	sd	a5,8(sp)
	for (; (c = *s) != '\0'; s++)
    80000e40:	00064683          	lbu	a3,0(a2)
    80000e44:	d2d5                	beqz	a3,80000de8 <kprintf+0x66>
		__asm__ __volatile__ (
    80000e46:	64000737          	lui	a4,0x64000
    80000e4a:	40d727af          	amoor.w	a5,a3,(a4)
    80000e4e:	2781                	sext.w	a5,a5
	} while (r < 0);
    80000e50:	fe07cde3          	bltz	a5,80000e4a <kprintf+0xc8>
    80000e54:	00164683          	lbu	a3,1(a2)
    80000e58:	0605                	addi	a2,a2,1
    80000e5a:	fae5                	bnez	a3,80000e4a <kprintf+0xc8>
    80000e5c:	b771                	j	80000de8 <kprintf+0x66>
				n = va_arg(vl, unsigned long);
    80000e5e:	67a2                	ld	a5,8(sp)
				for (int i = 0; i < 64; i ++) c[i] = 0;
    80000e60:	e802                	sd	zero,16(sp)
    80000e62:	ec02                	sd	zero,24(sp)
				n = va_arg(vl, unsigned long);
    80000e64:	0007b303          	ld	t1,0(a5)
    80000e68:	07a1                	addi	a5,a5,8
    80000e6a:	e43e                	sd	a5,8(sp)
				for (int i = 0; i < 64; i ++) c[i] = 0;
    80000e6c:	f002                	sd	zero,32(sp)
    80000e6e:	f402                	sd	zero,40(sp)
    80000e70:	f802                	sd	zero,48(sp)
    80000e72:	fc02                	sd	zero,56(sp)
    80000e74:	e082                	sd	zero,64(sp)
    80000e76:	e482                	sd	zero,72(sp)
				if (n == 0) {
    80000e78:	02031d63          	bnez	t1,80000eb2 <kprintf+0x130>
		__asm__ __volatile__ (
    80000e7c:	64000737          	lui	a4,0x64000
    80000e80:	03000693          	li	a3,48
    80000e84:	40d727af          	amoor.w	a5,a3,(a4)
    80000e88:	2781                	sext.w	a5,a5
	} while (r < 0);
    80000e8a:	fe07cde3          	bltz	a5,80000e84 <kprintf+0x102>
    80000e8e:	bfa9                	j	80000de8 <kprintf+0x66>
				is_char = true;
    80000e90:	86ba                	mv	a3,a4
    80000e92:	bfa9                	j	80000dec <kprintf+0x6a>
		} else if (c == '%') {
    80000e94:	01c31463          	bne	t1,t3,80000e9c <kprintf+0x11a>
			is_format = true;
    80000e98:	4705                	li	a4,1
    80000e9a:	bf89                	j	80000dec <kprintf+0x6a>
		__asm__ __volatile__ (
    80000e9c:	4065a7af          	amoor.w	a5,t1,(a1)
    80000ea0:	2781                	sext.w	a5,a5
	} while (r < 0);
    80000ea2:	f407d5e3          	bgez	a5,80000dec <kprintf+0x6a>
		__asm__ __volatile__ (
    80000ea6:	4065a7af          	amoor.w	a5,t1,(a1)
    80000eaa:	2781                	sext.w	a5,a5
	} while (r < 0);
    80000eac:	fe07c8e3          	bltz	a5,80000e9c <kprintf+0x11a>
    80000eb0:	bf35                	j	80000dec <kprintf+0x6a>
    80000eb2:	0810                	addi	a2,sp,16
					c[0] = '0' + (n%10);
    80000eb4:	4ea9                	li	t4,10
				for (;n != 0;) {
    80000eb6:	4f25                	li	t5,9
					for (int i = 63; i > 0; i--) c[i] = c[i-1];
    80000eb8:	04e10793          	addi	a5,sp,78
    80000ebc:	0007c683          	lbu	a3,0(a5)
    80000ec0:	873e                	mv	a4,a5
    80000ec2:	17fd                	addi	a5,a5,-1
    80000ec4:	00d78123          	sb	a3,2(a5)
    80000ec8:	fec71ae3          	bne	a4,a2,80000ebc <kprintf+0x13a>
					c[0] = '0' + (n%10);
    80000ecc:	03d376b3          	remu	a3,t1,t4
    80000ed0:	03068693          	addi	a3,a3,48
    80000ed4:	00d10823          	sb	a3,16(sp)
					n = n / 10;
    80000ed8:	03d357b3          	divu	a5,t1,t4
				for (;n != 0;) {
    80000edc:	006f7663          	bgeu	t5,t1,80000ee8 <kprintf+0x166>
					n = n / 10;
    80000ee0:	833e                	mv	t1,a5
    80000ee2:	bfd9                	j	80000eb8 <kprintf+0x136>
					i = is_char ? 4 : (sizeof(unsigned int) << 3) - 4;
    80000ee4:	4671                	li	a2,28
    80000ee6:	b715                	j	80000e0a <kprintf+0x88>
    80000ee8:	01110613          	addi	a2,sp,17
		__asm__ __volatile__ (
    80000eec:	64000737          	lui	a4,0x64000
    80000ef0:	40d727af          	amoor.w	a5,a3,(a4)
    80000ef4:	2781                	sext.w	a5,a5
	} while (r < 0);
    80000ef6:	fe07cde3          	bltz	a5,80000ef0 <kprintf+0x16e>
				for (int i = 0; c[i] != 0; i++) kputc(c[i]);
    80000efa:	00064683          	lbu	a3,0(a2)
    80000efe:	0605                	addi	a2,a2,1
    80000f00:	fae5                	bnez	a3,80000ef0 <kprintf+0x16e>
    80000f02:	b5dd                	j	80000de8 <kprintf+0x66>
	...

Disassembly of section .sdata:

0000000080000f48 <mat_c>:
uint8_t *mat_c = (uint8_t *)0x70002000;
    80000f48:	2000                	fld	fs0,0(s0)
    80000f4a:	7000                	ld	s0,32(s0)
    80000f4c:	0000                	unimp
	...

0000000080000f50 <mat_b>:
uint8_t *mat_b = (uint8_t *)0x70001000;
    80000f50:	1000                	addi	s0,sp,32
    80000f52:	7000                	ld	s0,32(s0)
    80000f54:	0000                	unimp
	...

0000000080000f58 <mat_a>:
uint8_t *mat_a = (uint8_t *)0x70000000;
    80000f58:	0000                	unimp
    80000f5a:	7000                	ld	s0,32(s0)
    80000f5c:	0000                	unimp
	...

0000000080000f60 <h>:
uint8_t *h = (uint8_t *)0x70008000;
    80000f60:	8000                	.2byte	0x8000
    80000f62:	7000                	ld	s0,32(s0)
    80000f64:	0000                	unimp
	...

0000000080000f68 <g>:
uint8_t *g = (uint8_t *)0x70007000;
    80000f68:	7000                	ld	s0,32(s0)
    80000f6a:	7000                	ld	s0,32(s0)
    80000f6c:	0000                	unimp
	...

0000000080000f70 <f>:
uint8_t *f = (uint8_t *)0x70006000;
    80000f70:	6000                	ld	s0,0(s0)
    80000f72:	7000                	ld	s0,32(s0)
    80000f74:	0000                	unimp
	...

0000000080000f78 <e>:
uint8_t *e = (uint8_t *)0x70005000;
    80000f78:	5000                	lw	s0,32(s0)
    80000f7a:	7000                	ld	s0,32(s0)
    80000f7c:	0000                	unimp
	...

0000000080000f80 <dg>:
uint8_t *dg = (uint8_t *)0x40003400;
    80000f80:	3400                	fld	fs0,40(s0)
    80000f82:	4000                	lw	s0,0(s0)
    80000f84:	0000                	unimp
	...

0000000080000f88 <ce>:
uint8_t *ce = (uint8_t *)0x40002400;
    80000f88:	2400                	fld	fs0,8(s0)
    80000f8a:	4000                	lw	s0,0(s0)
    80000f8c:	0000                	unimp
	...

0000000080000f90 <bg>:
uint8_t *bg = (uint8_t *)0x40001400;
    80000f90:	1400                	addi	s0,sp,544
    80000f92:	4000                	lw	s0,0(s0)
    80000f94:	0000                	unimp
	...

0000000080000f98 <ae>:
uint8_t *ae = (uint8_t *)0x40000400;
    80000f98:	0400                	addi	s0,sp,512
    80000f9a:	4000                	lw	s0,0(s0)
    80000f9c:	0000                	unimp
	...

0000000080000fa0 <d>:
uint8_t *d = (uint8_t *)0x40003000;
    80000fa0:	3000                	fld	fs0,32(s0)
    80000fa2:	4000                	lw	s0,0(s0)
    80000fa4:	0000                	unimp
	...

0000000080000fa8 <c>:
uint8_t *c = (uint8_t *)0x40002000;
    80000fa8:	2000                	fld	fs0,0(s0)
    80000faa:	4000                	lw	s0,0(s0)
    80000fac:	0000                	unimp
	...

0000000080000fb0 <b>:
uint8_t *b = (uint8_t *)0x40001000;
    80000fb0:	1000                	addi	s0,sp,32
    80000fb2:	4000                	lw	s0,0(s0)
    80000fb4:	0000                	unimp
	...

0000000080000fb8 <a>:
uint8_t *a = (uint8_t *)0x40000000;
    80000fb8:	0000                	unimp
    80000fba:	4000                	lw	s0,0(s0)
    80000fbc:	0000                	unimp
	...

Disassembly of section .rodata:

0000000080000fc0 <.rodata>:
    80000fc0:	3d3d                	addiw	s10,s10,-17
    80000fc2:	3d3d                	addiw	s10,s10,-17
    80000fc4:	3d3d                	addiw	s10,s10,-17
    80000fc6:	3d3d                	addiw	s10,s10,-17
    80000fc8:	3d3d                	addiw	s10,s10,-17
    80000fca:	3d3d                	addiw	s10,s10,-17
    80000fcc:	203d                	.2byte	0x203d
    80000fce:	614e                	ld	sp,208(sp)
    80000fd0:	7669                	lui	a2,0xffffa
    80000fd2:	2065                	.2byte	0x2065
    80000fd4:	6c25                	lui	s8,0x9
    80000fd6:	3d20                	fld	fs0,120(a0)
    80000fd8:	3d3d                	addiw	s10,s10,-17
    80000fda:	3d3d                	addiw	s10,s10,-17
    80000fdc:	3d3d                	addiw	s10,s10,-17
    80000fde:	3d3d                	addiw	s10,s10,-17
    80000fe0:	3d3d                	addiw	s10,s10,-17
    80000fe2:	3d3d                	addiw	s10,s10,-17
    80000fe4:	3d3d                	addiw	s10,s10,-17
    80000fe6:	3d3d                	addiw	s10,s10,-17
    80000fe8:	3d3d                	addiw	s10,s10,-17
    80000fea:	203d                	.2byte	0x203d
    80000fec:	0a0d                	addi	s4,s4,3
    80000fee:	0000                	unimp
    80000ff0:	6954                	ld	a3,144(a0)
    80000ff2:	656d                	lui	a0,0x1b
    80000ff4:	7320                	ld	s0,96(a4)
    80000ff6:	6570                	ld	a2,200(a0)
    80000ff8:	746e                	ld	s0,248(sp)
    80000ffa:	2820                	fld	fs0,80(s0)
    80000ffc:	676e6973          	csrrsi	s2,0x676,28
    80001000:	656c                	ld	a1,200(a0)
    80001002:	7420                	ld	s0,104(s0)
    80001004:	7268                	ld	a0,224(a2)
    80001006:	6165                	addi	sp,sp,112
    80001008:	2964                	fld	fs1,208(a0)
    8000100a:	203a                	fld	ft0,392(sp)
    8000100c:	6c25                	lui	s8,0x9
    8000100e:	2820                	fld	fs0,80(s0)
    80001010:	6c637963          	bgeu	t1,t1,800016e2 <a+0x72a>
    80001014:	7365                	lui	t1,0xffff9
    80001016:	0d29                	addi	s10,s10,10
    80001018:	000a                	c.slli	zero,0x2
    8000101a:	0000                	unimp
    8000101c:	0000                	unimp
    8000101e:	0000                	unimp
    80001020:	6e49                	lui	t3,0x12
    80001022:	75727473          	csrrci	s0,0x757,4
    80001026:	6f697463          	bgeu	s2,s6,8000170e <a+0x756>
    8000102a:	3a6e                	fld	fs4,248(sp)
    8000102c:	2520                	fld	fs0,72(a0)
    8000102e:	0d6c                	addi	a1,sp,668
    80001030:	000a                	c.slli	zero,0x2
    80001032:	0000                	unimp
    80001034:	0000                	unimp
    80001036:	0000                	unimp
    80001038:	6954                	ld	a3,144(a0)
    8000103a:	656d                	lui	a0,0x1b
    8000103c:	7320                	ld	s0,96(a4)
    8000103e:	6570                	ld	a2,200(a0)
    80001040:	746e                	ld	s0,248(sp)
    80001042:	2820                	fld	fs0,80(s0)
    80001044:	756d                	lui	a0,0xffffb
    80001046:	746c                	ld	a1,232(s0)
    80001048:	2d69                	addiw	s10,s10,26
    8000104a:	6874                	ld	a3,208(s0)
    8000104c:	6572                	ld	a0,280(sp)
    8000104e:	6461                	lui	s0,0x18
    80001050:	6465                	lui	s0,0x19
    80001052:	3a29                	addiw	s4,s4,-22
    80001054:	2520                	fld	fs0,72(a0)
    80001056:	206c                	fld	fa1,192(s0)
    80001058:	6328                	ld	a0,64(a4)
    8000105a:	6379                	lui	t1,0x1e
    8000105c:	656c                	ld	a1,200(a0)
    8000105e:	0a0d2973          	csrrs	s2,0xa0,s10
    80001062:	0000                	unimp
    80001064:	0000                	unimp
    80001066:	0000                	unimp
    80001068:	3d3d                	addiw	s10,s10,-17
    8000106a:	3d3d                	addiw	s10,s10,-17
    8000106c:	3d3d                	addiw	s10,s10,-17
    8000106e:	3d3d                	addiw	s10,s10,-17
    80001070:	3d3d                	addiw	s10,s10,-17
    80001072:	3d3d                	addiw	s10,s10,-17
    80001074:	203d                	.2byte	0x203d
    80001076:	61727453          	.4byte	0x61727453
    8000107a:	6e657373          	csrrci	t1,0x6e6,10
    8000107e:	2520                	fld	fs0,72(a0)
    80001080:	206c                	fld	fa1,192(s0)
    80001082:	3d3d                	addiw	s10,s10,-17
    80001084:	3d3d                	addiw	s10,s10,-17
    80001086:	3d3d                	addiw	s10,s10,-17
    80001088:	3d3d                	addiw	s10,s10,-17
    8000108a:	3d3d                	addiw	s10,s10,-17
    8000108c:	3d3d                	addiw	s10,s10,-17
    8000108e:	3d3d                	addiw	s10,s10,-17
    80001090:	3d3d                	addiw	s10,s10,-17
    80001092:	3d3d                	addiw	s10,s10,-17
    80001094:	3d3d                	addiw	s10,s10,-17
    80001096:	0d20                	addi	s0,sp,664
    80001098:	000a                	c.slli	zero,0x2
    8000109a:	0000                	unimp
    8000109c:	0000                	unimp
    8000109e:	0000                	unimp
    800010a0:	67617453          	.4byte	0x67617453
    800010a4:	2065                	.2byte	0x2065
    800010a6:	3a30                	fld	fa2,112(a2)
    800010a8:	2520                	fld	fs0,72(a0)
    800010aa:	206c                	fld	fa1,192(s0)
    800010ac:	6328                	ld	a0,64(a4)
    800010ae:	6379                	lui	t1,0x1e
    800010b0:	656c                	ld	a1,200(a0)
    800010b2:	0a0d2973          	csrrs	s2,0xa0,s10
    800010b6:	0000                	unimp
    800010b8:	67617453          	.4byte	0x67617453
    800010bc:	2065                	.2byte	0x2065
    800010be:	3a31                	addiw	s4,s4,-20
    800010c0:	2520                	fld	fs0,72(a0)
    800010c2:	206c                	fld	fa1,192(s0)
    800010c4:	6328                	ld	a0,64(a4)
    800010c6:	6379                	lui	t1,0x1e
    800010c8:	656c                	ld	a1,200(a0)
    800010ca:	0a0d2973          	csrrs	s2,0xa0,s10
    800010ce:	0000                	unimp
    800010d0:	67617453          	.4byte	0x67617453
    800010d4:	2065                	.2byte	0x2065
    800010d6:	3a32                	fld	fs4,296(sp)
    800010d8:	2520                	fld	fs0,72(a0)
    800010da:	206c                	fld	fa1,192(s0)
    800010dc:	6328                	ld	a0,64(a4)
    800010de:	6379                	lui	t1,0x1e
    800010e0:	656c                	ld	a1,200(a0)
    800010e2:	0a0d2973          	csrrs	s2,0xa0,s10
    800010e6:	0000                	unimp
    800010e8:	67617453          	.4byte	0x67617453
    800010ec:	2065                	.2byte	0x2065
    800010ee:	25203a33          	.4byte	0x25203a33
    800010f2:	206c                	fld	fa1,192(s0)
    800010f4:	6328                	ld	a0,64(a4)
    800010f6:	6379                	lui	t1,0x1e
    800010f8:	656c                	ld	a1,200(a0)
    800010fa:	0a0d2973          	csrrs	s2,0xa0,s10
    800010fe:	0000                	unimp
    80001100:	fcd0                	sd	a2,184(s1)
    80001102:	ffff                	.2byte	0xffff
    80001104:	fce8                	sd	a0,248(s1)
    80001106:	ffff                	.2byte	0xffff
    80001108:	fce8                	sd	a0,248(s1)
    8000110a:	ffff                	.2byte	0xffff
    8000110c:	fce8                	sd	a0,248(s1)
    8000110e:	ffff                	.2byte	0xffff
    80001110:	fce8                	sd	a0,248(s1)
    80001112:	ffff                	.2byte	0xffff
    80001114:	fd90                	sd	a2,56(a1)
    80001116:	ffff                	.2byte	0xffff
    80001118:	fce8                	sd	a0,248(s1)
    8000111a:	ffff                	.2byte	0xffff
    8000111c:	fce8                	sd	a0,248(s1)
    8000111e:	ffff                	.2byte	0xffff
    80001120:	fce8                	sd	a0,248(s1)
    80001122:	ffff                	.2byte	0xffff
    80001124:	fd5e                	sd	s7,184(sp)
    80001126:	ffff                	.2byte	0xffff
    80001128:	fce8                	sd	a0,248(s1)
    8000112a:	ffff                	.2byte	0xffff
    8000112c:	fce8                	sd	a0,248(s1)
    8000112e:	ffff                	.2byte	0xffff
    80001130:	fce8                	sd	a0,248(s1)
    80001132:	ffff                	.2byte	0xffff
    80001134:	fce8                	sd	a0,248(s1)
    80001136:	ffff                	.2byte	0xffff
    80001138:	fce8                	sd	a0,248(s1)
    8000113a:	ffff                	.2byte	0xffff
    8000113c:	fce8                	sd	a0,248(s1)
    8000113e:	ffff                	.2byte	0xffff
    80001140:	fd38                	sd	a4,120(a0)
    80001142:	ffff                	.2byte	0xffff
    80001144:	fce8                	sd	a0,248(s1)
    80001146:	ffff                	.2byte	0xffff
    80001148:	fce8                	sd	a0,248(s1)
    8000114a:	ffff                	.2byte	0xffff
    8000114c:	fce8                	sd	a0,248(s1)
    8000114e:	ffff                	.2byte	0xffff
    80001150:	fce8                	sd	a0,248(s1)
    80001152:	ffff                	.2byte	0xffff
    80001154:	fcfa                	sd	t5,120(sp)
    80001156:	ffff                	.2byte	0xffff

Disassembly of section .riscv.attributes:

0000000000000000 <.riscv.attributes>:
   0:	3841                	addiw	a6,a6,-16
   2:	0000                	unimp
   4:	7200                	ld	s0,32(a2)
   6:	7369                	lui	t1,0xffffa
   8:	01007663          	bgeu	zero,a6,14 <_prog_start-0x7fffffec>
   c:	002e                	c.slli	zero,0xb
   e:	0000                	unimp
  10:	1004                	addi	s1,sp,32
  12:	7205                	lui	tp,0xfffe1
  14:	3676                	fld	fa2,376(sp)
  16:	6934                	ld	a3,80(a0)
  18:	7032                	.2byte	0x7032
  1a:	5f30                	lw	a2,120(a4)
  1c:	326d                	addiw	tp,tp,-5 # fffffffffffe0ffb <a+0xffffffff7ffe0043>
  1e:	3070                	fld	fa2,224(s0)
  20:	615f 7032 5f30      	.byte	0x5f, 0x61, 0x32, 0x70, 0x30, 0x5f
  26:	3266                	fld	ft4,120(sp)
  28:	3070                	fld	fa2,224(s0)
  2a:	645f 7032 5f30      	.byte	0x5f, 0x64, 0x32, 0x70, 0x30, 0x5f
  30:	30703263          	.4byte	0x30703263
  34:	0800                	addi	s0,sp,16
  36:	0a01                	addi	s4,s4,0
  38:	0b              	Address 0x0000000000000038 is out of bounds.


Disassembly of section .comment:

0000000000000000 <.comment>:
   0:	3a434347          	fmsub.d	ft6,ft6,ft4,ft7,rmm
   4:	2820                	fld	fs0,80(s0)
   6:	65653267          	.4byte	0x65653267
   a:	6535                	lui	a0,0xd
   c:	3334                	fld	fa3,96(a4)
   e:	3030                	fld	fa2,96(s0)
  10:	3831                	addiw	a6,a6,-20
  12:	2029                	.2byte	0x2029
  14:	3231                	addiw	tp,tp,-20 # ffffffffffffffec <a+0xffffffff7ffff034>
  16:	322e                	fld	ft4,232(sp)
  18:	302e                	fld	ft0,232(sp)
	...

Disassembly of section .debug_line:

0000000000000000 <.debug_line>:
       0:	0304                	addi	s1,sp,384
       2:	0000                	unimp
       4:	0005                	c.nop	1
       6:	0008                	.2byte	0x8
       8:	002a                	c.slli	zero,0xa
       a:	0000                	unimp
       c:	0101                	addi	sp,sp,0
       e:	fb01                	bnez	a4,ffffffffffffff1e <a+0xffffffff7fffef66>
      10:	0d0e                	slli	s10,s10,0x3
      12:	0100                	addi	s0,sp,128
      14:	0101                	addi	sp,sp,0
      16:	0001                	nop
      18:	0000                	unimp
      1a:	0001                	nop
      1c:	0100                	addi	s0,sp,128
      1e:	0101                	addi	sp,sp,0
      20:	011f 0000 0000      	.byte	0x1f, 0x01, 0x00, 0x00, 0x00, 0x00
      26:	0102                	c.slli64	sp
      28:	021f 020f 0040      	.byte	0x1f, 0x02, 0x0f, 0x02, 0x40, 0x00
      2e:	0000                	unimp
      30:	4000                	lw	s0,0(s0)
      32:	0000                	unimp
      34:	0000                	unimp
      36:	0900                	addi	s0,sp,144
      38:	0002                	c.slli64	zero
      3a:	0000                	unimp
      3c:	0080                	addi	s0,sp,64
      3e:	0000                	unimp
      40:	0300                	addi	s0,sp,384
      42:	010c                	addi	a1,sp,128
      44:	04090103          	lb	sp,64(s2)
      48:	0100                	addi	s0,sp,128
      4a:	04090103          	lb	sp,64(s2)
      4e:	0100                	addi	s0,sp,128
      50:	04090103          	lb	sp,64(s2)
      54:	0100                	addi	s0,sp,128
      56:	04090103          	lb	sp,64(s2)
      5a:	0100                	addi	s0,sp,128
      5c:	04090103          	lb	sp,64(s2)
      60:	0100                	addi	s0,sp,128
      62:	04090103          	lb	sp,64(s2)
      66:	0100                	addi	s0,sp,128
      68:	04090103          	lb	sp,64(s2)
      6c:	0100                	addi	s0,sp,128
      6e:	04090103          	lb	sp,64(s2)
      72:	0100                	addi	s0,sp,128
      74:	04090103          	lb	sp,64(s2)
      78:	0100                	addi	s0,sp,128
      7a:	04090203          	lb	tp,64(s2)
      7e:	0100                	addi	s0,sp,128
      80:	04090103          	lb	sp,64(s2)
      84:	0100                	addi	s0,sp,128
      86:	04090103          	lb	sp,64(s2)
      8a:	0100                	addi	s0,sp,128
      8c:	08090103          	lb	sp,128(s2)
      90:	0100                	addi	s0,sp,128
      92:	04090103          	lb	sp,64(s2)
      96:	0100                	addi	s0,sp,128
      98:	04090303          	lb	t1,64(s2)
      9c:	0100                	addi	s0,sp,128
      9e:	04090103          	lb	sp,64(s2)
      a2:	0100                	addi	s0,sp,128
      a4:	04090103          	lb	sp,64(s2)
      a8:	0100                	addi	s0,sp,128
      aa:	04090103          	lb	sp,64(s2)
      ae:	0100                	addi	s0,sp,128
      b0:	08090103          	lb	sp,128(s2)
      b4:	0100                	addi	s0,sp,128
      b6:	04090103          	lb	sp,64(s2)
      ba:	0100                	addi	s0,sp,128
      bc:	08090103          	lb	sp,128(s2)
      c0:	0100                	addi	s0,sp,128
      c2:	04090103          	lb	sp,64(s2)
      c6:	0100                	addi	s0,sp,128
      c8:	04090103          	lb	sp,64(s2)
      cc:	0100                	addi	s0,sp,128
      ce:	04090103          	lb	sp,64(s2)
      d2:	0100                	addi	s0,sp,128
      d4:	04090203          	lb	tp,64(s2)
      d8:	0100                	addi	s0,sp,128
      da:	04090103          	lb	sp,64(s2)
      de:	0100                	addi	s0,sp,128
      e0:	04090103          	lb	sp,64(s2)
      e4:	0100                	addi	s0,sp,128
      e6:	08090103          	lb	sp,128(s2)
      ea:	0100                	addi	s0,sp,128
      ec:	04090103          	lb	sp,64(s2)
      f0:	0100                	addi	s0,sp,128
      f2:	08090103          	lb	sp,128(s2)
      f6:	0100                	addi	s0,sp,128
      f8:	04090103          	lb	sp,64(s2)
      fc:	0100                	addi	s0,sp,128
      fe:	04090103          	lb	sp,64(s2)
     102:	0100                	addi	s0,sp,128
     104:	04090103          	lb	sp,64(s2)
     108:	0100                	addi	s0,sp,128
     10a:	04090203          	lb	tp,64(s2)
     10e:	0100                	addi	s0,sp,128
     110:	04090103          	lb	sp,64(s2)
     114:	0100                	addi	s0,sp,128
     116:	04090103          	lb	sp,64(s2)
     11a:	0100                	addi	s0,sp,128
     11c:	08090103          	lb	sp,128(s2)
     120:	0100                	addi	s0,sp,128
     122:	04090103          	lb	sp,64(s2)
     126:	0100                	addi	s0,sp,128
     128:	08090103          	lb	sp,128(s2)
     12c:	0100                	addi	s0,sp,128
     12e:	04090103          	lb	sp,64(s2)
     132:	0100                	addi	s0,sp,128
     134:	04090103          	lb	sp,64(s2)
     138:	0100                	addi	s0,sp,128
     13a:	04090103          	lb	sp,64(s2)
     13e:	0100                	addi	s0,sp,128
     140:	04090303          	lb	t1,64(s2)
     144:	0100                	addi	s0,sp,128
     146:	04090103          	lb	sp,64(s2)
     14a:	0100                	addi	s0,sp,128
     14c:	04090103          	lb	sp,64(s2)
     150:	0100                	addi	s0,sp,128
     152:	04090103          	lb	sp,64(s2)
     156:	0100                	addi	s0,sp,128
     158:	08090103          	lb	sp,128(s2)
     15c:	0100                	addi	s0,sp,128
     15e:	04090103          	lb	sp,64(s2)
     162:	0100                	addi	s0,sp,128
     164:	08090103          	lb	sp,128(s2)
     168:	0100                	addi	s0,sp,128
     16a:	04090103          	lb	sp,64(s2)
     16e:	0100                	addi	s0,sp,128
     170:	04090103          	lb	sp,64(s2)
     174:	0100                	addi	s0,sp,128
     176:	04090103          	lb	sp,64(s2)
     17a:	0100                	addi	s0,sp,128
     17c:	04090203          	lb	tp,64(s2)
     180:	0100                	addi	s0,sp,128
     182:	04090103          	lb	sp,64(s2)
     186:	0100                	addi	s0,sp,128
     188:	04090103          	lb	sp,64(s2)
     18c:	0100                	addi	s0,sp,128
     18e:	08090103          	lb	sp,128(s2)
     192:	0100                	addi	s0,sp,128
     194:	04090103          	lb	sp,64(s2)
     198:	0100                	addi	s0,sp,128
     19a:	08090103          	lb	sp,128(s2)
     19e:	0100                	addi	s0,sp,128
     1a0:	04090103          	lb	sp,64(s2)
     1a4:	0100                	addi	s0,sp,128
     1a6:	04090103          	lb	sp,64(s2)
     1aa:	0100                	addi	s0,sp,128
     1ac:	04090103          	lb	sp,64(s2)
     1b0:	0100                	addi	s0,sp,128
     1b2:	04090203          	lb	tp,64(s2)
     1b6:	0100                	addi	s0,sp,128
     1b8:	04090103          	lb	sp,64(s2)
     1bc:	0100                	addi	s0,sp,128
     1be:	04090103          	lb	sp,64(s2)
     1c2:	0100                	addi	s0,sp,128
     1c4:	08090103          	lb	sp,128(s2)
     1c8:	0100                	addi	s0,sp,128
     1ca:	04090103          	lb	sp,64(s2)
     1ce:	0100                	addi	s0,sp,128
     1d0:	08090103          	lb	sp,128(s2)
     1d4:	0100                	addi	s0,sp,128
     1d6:	04090103          	lb	sp,64(s2)
     1da:	0100                	addi	s0,sp,128
     1dc:	04090103          	lb	sp,64(s2)
     1e0:	0100                	addi	s0,sp,128
     1e2:	04090103          	lb	sp,64(s2)
     1e6:	0100                	addi	s0,sp,128
     1e8:	04090203          	lb	tp,64(s2)
     1ec:	0100                	addi	s0,sp,128
     1ee:	04090103          	lb	sp,64(s2)
     1f2:	0100                	addi	s0,sp,128
     1f4:	04090103          	lb	sp,64(s2)
     1f8:	0100                	addi	s0,sp,128
     1fa:	08090103          	lb	sp,128(s2)
     1fe:	0100                	addi	s0,sp,128
     200:	04090103          	lb	sp,64(s2)
     204:	0100                	addi	s0,sp,128
     206:	08090103          	lb	sp,128(s2)
     20a:	0100                	addi	s0,sp,128
     20c:	04090103          	lb	sp,64(s2)
     210:	0100                	addi	s0,sp,128
     212:	04090103          	lb	sp,64(s2)
     216:	0100                	addi	s0,sp,128
     218:	04090103          	lb	sp,64(s2)
     21c:	0100                	addi	s0,sp,128
     21e:	04090203          	lb	tp,64(s2)
     222:	0100                	addi	s0,sp,128
     224:	04090103          	lb	sp,64(s2)
     228:	0100                	addi	s0,sp,128
     22a:	04090103          	lb	sp,64(s2)
     22e:	0100                	addi	s0,sp,128
     230:	08090103          	lb	sp,128(s2)
     234:	0100                	addi	s0,sp,128
     236:	04090103          	lb	sp,64(s2)
     23a:	0100                	addi	s0,sp,128
     23c:	08090103          	lb	sp,128(s2)
     240:	0100                	addi	s0,sp,128
     242:	04090103          	lb	sp,64(s2)
     246:	0100                	addi	s0,sp,128
     248:	04090103          	lb	sp,64(s2)
     24c:	0100                	addi	s0,sp,128
     24e:	04090103          	lb	sp,64(s2)
     252:	0100                	addi	s0,sp,128
     254:	04090303          	lb	t1,64(s2)
     258:	0100                	addi	s0,sp,128
     25a:	04090103          	lb	sp,64(s2)
     25e:	0100                	addi	s0,sp,128
     260:	04090103          	lb	sp,64(s2)
     264:	0100                	addi	s0,sp,128
     266:	04090103          	lb	sp,64(s2)
     26a:	0100                	addi	s0,sp,128
     26c:	08090103          	lb	sp,128(s2)
     270:	0100                	addi	s0,sp,128
     272:	04090103          	lb	sp,64(s2)
     276:	0100                	addi	s0,sp,128
     278:	08090103          	lb	sp,128(s2)
     27c:	0100                	addi	s0,sp,128
     27e:	04090103          	lb	sp,64(s2)
     282:	0100                	addi	s0,sp,128
     284:	04090103          	lb	sp,64(s2)
     288:	0100                	addi	s0,sp,128
     28a:	04090103          	lb	sp,64(s2)
     28e:	0100                	addi	s0,sp,128
     290:	04090203          	lb	tp,64(s2)
     294:	0100                	addi	s0,sp,128
     296:	04090103          	lb	sp,64(s2)
     29a:	0100                	addi	s0,sp,128
     29c:	04090103          	lb	sp,64(s2)
     2a0:	0100                	addi	s0,sp,128
     2a2:	08090103          	lb	sp,128(s2)
     2a6:	0100                	addi	s0,sp,128
     2a8:	04090103          	lb	sp,64(s2)
     2ac:	0100                	addi	s0,sp,128
     2ae:	08090103          	lb	sp,128(s2)
     2b2:	0100                	addi	s0,sp,128
     2b4:	04090103          	lb	sp,64(s2)
     2b8:	0100                	addi	s0,sp,128
     2ba:	04090103          	lb	sp,64(s2)
     2be:	0100                	addi	s0,sp,128
     2c0:	04090103          	lb	sp,64(s2)
     2c4:	0100                	addi	s0,sp,128
     2c6:	04090203          	lb	tp,64(s2)
     2ca:	0100                	addi	s0,sp,128
     2cc:	04090103          	lb	sp,64(s2)
     2d0:	0100                	addi	s0,sp,128
     2d2:	04090103          	lb	sp,64(s2)
     2d6:	0100                	addi	s0,sp,128
     2d8:	08090103          	lb	sp,128(s2)
     2dc:	0100                	addi	s0,sp,128
     2de:	04090103          	lb	sp,64(s2)
     2e2:	0100                	addi	s0,sp,128
     2e4:	08090103          	lb	sp,128(s2)
     2e8:	0100                	addi	s0,sp,128
     2ea:	04090103          	lb	sp,64(s2)
     2ee:	0100                	addi	s0,sp,128
     2f0:	04090103          	lb	sp,64(s2)
     2f4:	0100                	addi	s0,sp,128
     2f6:	04090103          	lb	sp,64(s2)
     2fa:	0100                	addi	s0,sp,128
     2fc:	04090203          	lb	tp,64(s2)
     300:	0100                	addi	s0,sp,128
     302:	0409                	addi	s0,s0,2 # 19002 <_prog_start-0x7ffe6ffe>
     304:	0000                	unimp
     306:	0101                	addi	sp,sp,0
     308:	1c3c                	addi	a5,sp,568
     30a:	0000                	unimp
     30c:	0005                	c.nop	1
     30e:	0008                	.2byte	0x8
     310:	0041                	c.nop	16
     312:	0000                	unimp
     314:	0101                	addi	sp,sp,0
     316:	fb01                	bnez	a4,226 <_prog_start-0x7ffffdda>
     318:	0d0e                	slli	s10,s10,0x3
     31a:	0100                	addi	s0,sp,128
     31c:	0101                	addi	sp,sp,0
     31e:	0001                	nop
     320:	0000                	unimp
     322:	0001                	nop
     324:	0100                	addi	s0,sp,128
     326:	0101                	addi	sp,sp,0
     328:	031f 0000 0000      	.byte	0x1f, 0x03, 0x00, 0x00, 0x00, 0x00
     32e:	004e                	c.slli	zero,0x13
     330:	0000                	unimp
     332:	00b1                	addi	ra,ra,12 # fffffffffffbf00c <a+0xffffffff7ffbe054>
     334:	0000                	unimp
     336:	0102                	c.slli64	sp
     338:	021f 050f 0047      	.byte	0x1f, 0x02, 0x0f, 0x05, 0x47, 0x00
     33e:	0000                	unimp
     340:	4700                	lw	s0,8(a4)
     342:	0000                	unimp
     344:	0000                	unimp
     346:	0110                	addi	a2,sp,128
     348:	0000                	unimp
     34a:	2101                	sext.w	sp,sp
     34c:	0001                	nop
     34e:	0200                	addi	s0,sp,256
     350:	0000012b          	.4byte	0x12b
     354:	0500                	addi	s0,sp,640
     356:	000e                	c.slli	zero,0x3
     358:	0209                	addi	tp,tp,2 # 2 <_prog_start-0x7ffffffe>
     35a:	0234                	addi	a3,sp,264
     35c:	8000                	.2byte	0x8000
     35e:	0000                	unimp
     360:	0000                	unimp
     362:	05012303          	lw	t1,80(sp)
     366:	09010303          	lb	t1,144(sp)
     36a:	0000                	unimp
     36c:	0501                	addi	a0,a0,0 # d000 <_prog_start-0x7fff3000>
     36e:	0308                	addi	a0,sp,384
     370:	0900                	addi	s0,sp,144
     372:	0000                	unimp
     374:	0501                	addi	a0,a0,0
     376:	0315                	addi	t1,t1,5 # ffffffffffffa005 <a+0xffffffff7fff904d>
     378:	0900                	addi	s0,sp,144
     37a:	0000                	unimp
     37c:	0501                	addi	a0,a0,0
     37e:	060e                	slli	a2,a2,0x3
     380:	00097f03          	.4byte	0x97f03
     384:	0100                	addi	s0,sp,128
     386:	1705                	addi	a4,a4,-31 # 63ffffe1 <_prog_start-0x1c00001f>
     388:	1c090203          	lb	tp,448(s2)
     38c:	0100                	addi	s0,sp,128
     38e:	1505                	addi	a0,a0,-31
     390:	04097f03          	.4byte	0x4097f03
     394:	0100                	addi	s0,sp,128
     396:	1705                	addi	a4,a4,-31
     398:	0306                	slli	t1,t1,0x1
     39a:	0901                	addi	s2,s2,0
     39c:	0004                	.2byte	0x4
     39e:	0501                	addi	a0,a0,0
     3a0:	060e                	slli	a2,a2,0x3
     3a2:	00097e03          	.4byte	0x97e03
     3a6:	0100                	addi	s0,sp,128
     3a8:	1905                	addi	s2,s2,-31
     3aa:	0306                	slli	t1,t1,0x1
     3ac:	00080903          	lb	s2,0(a6)
     3b0:	0501                	addi	a0,a0,0
     3b2:	060e                	slli	a2,a2,0x3
     3b4:	00097d03          	.4byte	0x97d03
     3b8:	0100                	addi	s0,sp,128
     3ba:	0905                	addi	s2,s2,1
     3bc:	0200                	addi	s0,sp,256
     3be:	0304                	addi	s1,sp,384
     3c0:	0306                	slli	t1,t1,0x1
     3c2:	0904                	addi	s1,sp,144
     3c4:	0004                	.2byte	0x4
     3c6:	0501                	addi	a0,a0,0
     3c8:	0402001b          	addiw	zero,tp,64 # 40 <_prog_start-0x7fffffc0>
     3cc:	00030603          	lb	a2,0(t1)
     3d0:	0009                	c.nop	2
     3d2:	0100                	addi	s0,sp,128
     3d4:	2b05                	addiw	s6,s6,1
     3d6:	0200                	addi	s0,sp,256
     3d8:	0304                	addi	s1,sp,384
     3da:	04090003          	lb	zero,64(s2)
     3de:	0100                	addi	s0,sp,128
     3e0:	1805                	addi	a6,a6,-31
     3e2:	0200                	addi	s0,sp,256
     3e4:	0304                	addi	s1,sp,384
     3e6:	04090003          	lb	zero,64(s2)
     3ea:	0100                	addi	s0,sp,128
     3ec:	1b05                	addi	s6,s6,-31
     3ee:	0200                	addi	s0,sp,256
     3f0:	0304                	addi	s1,sp,384
     3f2:	04090003          	lb	zero,64(s2)
     3f6:	0100                	addi	s0,sp,128
     3f8:	2b05                	addiw	s6,s6,1
     3fa:	0200                	addi	s0,sp,256
     3fc:	0304                	addi	s1,sp,384
     3fe:	02090003          	lb	zero,32(s2)
     402:	0100                	addi	s0,sp,128
     404:	2805                	addiw	a6,a6,1
     406:	0200                	addi	s0,sp,256
     408:	0304                	addi	s1,sp,384
     40a:	02090003          	lb	zero,32(s2)
     40e:	0100                	addi	s0,sp,128
     410:	1805                	addi	a6,a6,-31
     412:	0200                	addi	s0,sp,256
     414:	0304                	addi	s1,sp,384
     416:	08090003          	lb	zero,128(s2)
     41a:	0100                	addi	s0,sp,128
     41c:	1905                	addi	s2,s2,-31
     41e:	0200                	addi	s0,sp,256
     420:	0304                	addi	s1,sp,384
     422:	02097f03          	.4byte	0x2097f03
     426:	0100                	addi	s0,sp,128
     428:	2805                	addiw	a6,a6,1
     42a:	0200                	addi	s0,sp,256
     42c:	0304                	addi	s1,sp,384
     42e:	02090103          	lb	sp,32(s2)
     432:	0100                	addi	s0,sp,128
     434:	1805                	addi	a6,a6,-31
     436:	0200                	addi	s0,sp,256
     438:	0304                	addi	s1,sp,384
     43a:	02090003          	lb	zero,32(s2)
     43e:	0100                	addi	s0,sp,128
     440:	2205                	addiw	tp,tp,1 # 1 <_prog_start-0x7fffffff>
     442:	0200                	addi	s0,sp,256
     444:	0304                	addi	s1,sp,384
     446:	0306                	slli	t1,t1,0x1
     448:	097f                	.2byte	0x97f
     44a:	0004                	.2byte	0x4
     44c:	0501                	addi	a0,a0,0
     44e:	0019                	c.nop	6
     450:	0402                	c.slli64	s0
     452:	09000303          	lb	t1,144(zero) # 90 <_prog_start-0x7fffff70>
     456:	0000                	unimp
     458:	0501                	addi	a0,a0,0
     45a:	0020                	addi	s0,sp,8
     45c:	0402                	c.slli64	s0
     45e:	0302                	c.slli64	t1
     460:	097f                	.2byte	0x97f
     462:	0008                	.2byte	0x8
     464:	0501                	addi	a0,a0,0
     466:	04020017          	auipc	zero,0x4020
     46a:	0302                	c.slli64	t1
     46c:	0900                	addi	s0,sp,144
     46e:	0000                	unimp
     470:	0501                	addi	a0,a0,0
     472:	001e                	c.slli	zero,0x7
     474:	0402                	c.slli64	s0
     476:	0302                	c.slli64	t1
     478:	097f                	.2byte	0x97f
     47a:	000e                	c.slli	zero,0x3
     47c:	0501                	addi	a0,a0,0
     47e:	0015                	c.nop	5
     480:	0402                	c.slli64	s0
     482:	0302                	c.slli64	t1
     484:	0900                	addi	s0,sp,144
     486:	0000                	unimp
     488:	0501                	addi	a0,a0,0
     48a:	0601                	addi	a2,a2,0 # ffffffffffffa000 <a+0xffffffff7fff9048>
     48c:	0a090403          	lb	s0,160(s2)
     490:	0100                	addi	s0,sp,128
     492:	0e05                	addi	t3,t3,1 # 12001 <_prog_start-0x7ffedfff>
     494:	0306                	slli	t1,t1,0x1
     496:	0902                	c.slli64	s2
     498:	0002                	c.slli64	zero
     49a:	0501                	addi	a0,a0,0
     49c:	09010303          	lb	t1,144(sp)
     4a0:	0000                	unimp
     4a2:	0501                	addi	a0,a0,0
     4a4:	0308                	addi	a0,sp,384
     4a6:	0900                	addi	s0,sp,144
     4a8:	0000                	unimp
     4aa:	0501                	addi	a0,a0,0
     4ac:	0315                	addi	t1,t1,5
     4ae:	0900                	addi	s0,sp,144
     4b0:	0000                	unimp
     4b2:	0501                	addi	a0,a0,0
     4b4:	060e                	slli	a2,a2,0x3
     4b6:	00097f03          	.4byte	0x97f03
     4ba:	0100                	addi	s0,sp,128
     4bc:	04090003          	lb	zero,64(s2)
     4c0:	0100                	addi	s0,sp,128
     4c2:	1705                	addi	a4,a4,-31
     4c4:	1c090203          	lb	tp,448(s2)
     4c8:	0100                	addi	s0,sp,128
     4ca:	1505                	addi	a0,a0,-31
     4cc:	04097f03          	.4byte	0x4097f03
     4d0:	0100                	addi	s0,sp,128
     4d2:	1705                	addi	a4,a4,-31
     4d4:	0306                	slli	t1,t1,0x1
     4d6:	0901                	addi	s2,s2,0
     4d8:	0004                	.2byte	0x4
     4da:	0501                	addi	a0,a0,0
     4dc:	060e                	slli	a2,a2,0x3
     4de:	00097e03          	.4byte	0x97e03
     4e2:	0100                	addi	s0,sp,128
     4e4:	1905                	addi	s2,s2,-31
     4e6:	0306                	slli	t1,t1,0x1
     4e8:	00080903          	lb	s2,0(a6)
     4ec:	0501                	addi	a0,a0,0
     4ee:	060e                	slli	a2,a2,0x3
     4f0:	00097d03          	.4byte	0x97d03
     4f4:	0100                	addi	s0,sp,128
     4f6:	0905                	addi	s2,s2,1
     4f8:	0200                	addi	s0,sp,256
     4fa:	0304                	addi	s1,sp,384
     4fc:	0306                	slli	t1,t1,0x1
     4fe:	0904                	addi	s1,sp,144
     500:	0004                	.2byte	0x4
     502:	0501                	addi	a0,a0,0
     504:	001c                	.2byte	0x1c
     506:	0402                	c.slli64	s0
     508:	00030603          	lb	a2,0(t1)
     50c:	0009                	c.nop	2
     50e:	0100                	addi	s0,sp,128
     510:	2c05                	addiw	s8,s8,1 # 9001 <_prog_start-0x7fff6fff>
     512:	0200                	addi	s0,sp,256
     514:	0304                	addi	s1,sp,384
     516:	04090003          	lb	zero,64(s2)
     51a:	0100                	addi	s0,sp,128
     51c:	0b05                	addi	s6,s6,1
     51e:	0200                	addi	s0,sp,256
     520:	0304                	addi	s1,sp,384
     522:	04090003          	lb	zero,64(s2)
     526:	0100                	addi	s0,sp,128
     528:	1c05                	addi	s8,s8,-31
     52a:	0200                	addi	s0,sp,256
     52c:	0304                	addi	s1,sp,384
     52e:	04090003          	lb	zero,64(s2)
     532:	0100                	addi	s0,sp,128
     534:	2c05                	addiw	s8,s8,1
     536:	0200                	addi	s0,sp,256
     538:	0304                	addi	s1,sp,384
     53a:	02090003          	lb	zero,32(s2)
     53e:	0100                	addi	s0,sp,128
     540:	2905                	addiw	s2,s2,1
     542:	0200                	addi	s0,sp,256
     544:	0304                	addi	s1,sp,384
     546:	02090003          	lb	zero,32(s2)
     54a:	0100                	addi	s0,sp,128
     54c:	0b05                	addi	s6,s6,1
     54e:	0200                	addi	s0,sp,256
     550:	0304                	addi	s1,sp,384
     552:	08090003          	lb	zero,128(s2)
     556:	0100                	addi	s0,sp,128
     558:	1805                	addi	a6,a6,-31
     55a:	0200                	addi	s0,sp,256
     55c:	0304                	addi	s1,sp,384
     55e:	02090003          	lb	zero,32(s2)
     562:	0100                	addi	s0,sp,128
     564:	2905                	addiw	s2,s2,1
     566:	0200                	addi	s0,sp,256
     568:	0304                	addi	s1,sp,384
     56a:	04090003          	lb	zero,64(s2)
     56e:	0100                	addi	s0,sp,128
     570:	1905                	addi	s2,s2,-31
     572:	0200                	addi	s0,sp,256
     574:	0304                	addi	s1,sp,384
     576:	04097f03          	.4byte	0x4097f03
     57a:	0100                	addi	s0,sp,128
     57c:	1805                	addi	a6,a6,-31
     57e:	0200                	addi	s0,sp,256
     580:	0304                	addi	s1,sp,384
     582:	06090103          	lb	sp,96(s2)
     586:	0100                	addi	s0,sp,128
     588:	2205                	addiw	tp,tp,1 # 1 <_prog_start-0x7fffffff>
     58a:	0200                	addi	s0,sp,256
     58c:	0304                	addi	s1,sp,384
     58e:	0306                	slli	t1,t1,0x1
     590:	097f                	.2byte	0x97f
     592:	0006                	c.slli	zero,0x1
     594:	0501                	addi	a0,a0,0
     596:	0019                	c.nop	6
     598:	0402                	c.slli64	s0
     59a:	09000303          	lb	t1,144(zero) # 90 <_prog_start-0x7fffff70>
     59e:	0000                	unimp
     5a0:	0501                	addi	a0,a0,0
     5a2:	0020                	addi	s0,sp,8
     5a4:	0402                	c.slli64	s0
     5a6:	0302                	c.slli64	t1
     5a8:	097f                	.2byte	0x97f
     5aa:	0004                	.2byte	0x4
     5ac:	0501                	addi	a0,a0,0
     5ae:	04020017          	auipc	zero,0x4020
     5b2:	0302                	c.slli64	t1
     5b4:	0900                	addi	s0,sp,144
     5b6:	0000                	unimp
     5b8:	0501                	addi	a0,a0,0
     5ba:	001e                	c.slli	zero,0x7
     5bc:	0402                	c.slli64	s0
     5be:	0302                	c.slli64	t1
     5c0:	097f                	.2byte	0x97f
     5c2:	000e                	c.slli	zero,0x3
     5c4:	0501                	addi	a0,a0,0
     5c6:	0015                	c.nop	5
     5c8:	0402                	c.slli64	s0
     5ca:	0302                	c.slli64	t1
     5cc:	0900                	addi	s0,sp,144
     5ce:	0000                	unimp
     5d0:	0501                	addi	a0,a0,0
     5d2:	0601                	addi	a2,a2,0
     5d4:	0a090403          	lb	s0,160(s2)
     5d8:	0100                	addi	s0,sp,128
     5da:	0e05                	addi	t3,t3,1
     5dc:	0306                	slli	t1,t1,0x1
     5de:	0902                	c.slli64	s2
     5e0:	0006                	c.slli	zero,0x1
     5e2:	0501                	addi	a0,a0,0
     5e4:	09010303          	lb	t1,144(sp)
     5e8:	0000                	unimp
     5ea:	0501                	addi	a0,a0,0
     5ec:	0308                	addi	a0,sp,384
     5ee:	0900                	addi	s0,sp,144
     5f0:	0000                	unimp
     5f2:	0501                	addi	a0,a0,0
     5f4:	0315                	addi	t1,t1,5
     5f6:	0900                	addi	s0,sp,144
     5f8:	0000                	unimp
     5fa:	0501                	addi	a0,a0,0
     5fc:	060e                	slli	a2,a2,0x3
     5fe:	00097f03          	.4byte	0x97f03
     602:	0100                	addi	s0,sp,128
     604:	04090003          	lb	zero,64(s2)
     608:	0100                	addi	s0,sp,128
     60a:	1705                	addi	a4,a4,-31
     60c:	1c090203          	lb	tp,448(s2)
     610:	0100                	addi	s0,sp,128
     612:	1505                	addi	a0,a0,-31
     614:	04097f03          	.4byte	0x4097f03
     618:	0100                	addi	s0,sp,128
     61a:	1705                	addi	a4,a4,-31
     61c:	0306                	slli	t1,t1,0x1
     61e:	0901                	addi	s2,s2,0
     620:	0004                	.2byte	0x4
     622:	0501                	addi	a0,a0,0
     624:	060e                	slli	a2,a2,0x3
     626:	00097e03          	.4byte	0x97e03
     62a:	0100                	addi	s0,sp,128
     62c:	1905                	addi	s2,s2,-31
     62e:	0306                	slli	t1,t1,0x1
     630:	00080903          	lb	s2,0(a6)
     634:	0501                	addi	a0,a0,0
     636:	060e                	slli	a2,a2,0x3
     638:	00097d03          	.4byte	0x97d03
     63c:	0100                	addi	s0,sp,128
     63e:	0905                	addi	s2,s2,1
     640:	0200                	addi	s0,sp,256
     642:	0304                	addi	s1,sp,384
     644:	0306                	slli	t1,t1,0x1
     646:	0904                	addi	s1,sp,144
     648:	0004                	.2byte	0x4
     64a:	0501                	addi	a0,a0,0
     64c:	001c                	.2byte	0x1c
     64e:	0402                	c.slli64	s0
     650:	00030603          	lb	a2,0(t1)
     654:	0009                	c.nop	2
     656:	0100                	addi	s0,sp,128
     658:	2c05                	addiw	s8,s8,1
     65a:	0200                	addi	s0,sp,256
     65c:	0304                	addi	s1,sp,384
     65e:	04090003          	lb	zero,64(s2)
     662:	0100                	addi	s0,sp,128
     664:	0b05                	addi	s6,s6,1
     666:	0200                	addi	s0,sp,256
     668:	0304                	addi	s1,sp,384
     66a:	04090003          	lb	zero,64(s2)
     66e:	0100                	addi	s0,sp,128
     670:	1c05                	addi	s8,s8,-31
     672:	0200                	addi	s0,sp,256
     674:	0304                	addi	s1,sp,384
     676:	04090003          	lb	zero,64(s2)
     67a:	0100                	addi	s0,sp,128
     67c:	2c05                	addiw	s8,s8,1
     67e:	0200                	addi	s0,sp,256
     680:	0304                	addi	s1,sp,384
     682:	02090003          	lb	zero,32(s2)
     686:	0100                	addi	s0,sp,128
     688:	2905                	addiw	s2,s2,1
     68a:	0200                	addi	s0,sp,256
     68c:	0304                	addi	s1,sp,384
     68e:	02090003          	lb	zero,32(s2)
     692:	0100                	addi	s0,sp,128
     694:	0b05                	addi	s6,s6,1
     696:	0200                	addi	s0,sp,256
     698:	0304                	addi	s1,sp,384
     69a:	08090003          	lb	zero,128(s2)
     69e:	0100                	addi	s0,sp,128
     6a0:	1805                	addi	a6,a6,-31
     6a2:	0200                	addi	s0,sp,256
     6a4:	0304                	addi	s1,sp,384
     6a6:	02090003          	lb	zero,32(s2)
     6aa:	0100                	addi	s0,sp,128
     6ac:	2905                	addiw	s2,s2,1
     6ae:	0200                	addi	s0,sp,256
     6b0:	0304                	addi	s1,sp,384
     6b2:	04090003          	lb	zero,64(s2)
     6b6:	0100                	addi	s0,sp,128
     6b8:	1905                	addi	s2,s2,-31
     6ba:	0200                	addi	s0,sp,256
     6bc:	0304                	addi	s1,sp,384
     6be:	04097f03          	.4byte	0x4097f03
     6c2:	0100                	addi	s0,sp,128
     6c4:	1805                	addi	a6,a6,-31
     6c6:	0200                	addi	s0,sp,256
     6c8:	0304                	addi	s1,sp,384
     6ca:	06090103          	lb	sp,96(s2)
     6ce:	0100                	addi	s0,sp,128
     6d0:	2205                	addiw	tp,tp,1 # 1 <_prog_start-0x7fffffff>
     6d2:	0200                	addi	s0,sp,256
     6d4:	0304                	addi	s1,sp,384
     6d6:	0306                	slli	t1,t1,0x1
     6d8:	097f                	.2byte	0x97f
     6da:	0006                	c.slli	zero,0x1
     6dc:	0501                	addi	a0,a0,0
     6de:	0019                	c.nop	6
     6e0:	0402                	c.slli64	s0
     6e2:	09000303          	lb	t1,144(zero) # 90 <_prog_start-0x7fffff70>
     6e6:	0000                	unimp
     6e8:	0501                	addi	a0,a0,0
     6ea:	0020                	addi	s0,sp,8
     6ec:	0402                	c.slli64	s0
     6ee:	0302                	c.slli64	t1
     6f0:	097f                	.2byte	0x97f
     6f2:	0004                	.2byte	0x4
     6f4:	0501                	addi	a0,a0,0
     6f6:	04020017          	auipc	zero,0x4020
     6fa:	0302                	c.slli64	t1
     6fc:	0900                	addi	s0,sp,144
     6fe:	0000                	unimp
     700:	0501                	addi	a0,a0,0
     702:	001e                	c.slli	zero,0x7
     704:	0402                	c.slli64	s0
     706:	0302                	c.slli64	t1
     708:	097f                	.2byte	0x97f
     70a:	000e                	c.slli	zero,0x3
     70c:	0501                	addi	a0,a0,0
     70e:	0015                	c.nop	5
     710:	0402                	c.slli64	s0
     712:	0302                	c.slli64	t1
     714:	0900                	addi	s0,sp,144
     716:	0000                	unimp
     718:	0501                	addi	a0,a0,0
     71a:	0601                	addi	a2,a2,0
     71c:	0a090403          	lb	s0,160(s2)
     720:	0100                	addi	s0,sp,128
     722:	0e05                	addi	t3,t3,1
     724:	0306                	slli	t1,t1,0x1
     726:	0902                	c.slli64	s2
     728:	0006                	c.slli	zero,0x1
     72a:	0501                	addi	a0,a0,0
     72c:	09010303          	lb	t1,144(sp)
     730:	0000                	unimp
     732:	0501                	addi	a0,a0,0
     734:	0308                	addi	a0,sp,384
     736:	0900                	addi	s0,sp,144
     738:	0000                	unimp
     73a:	0501                	addi	a0,a0,0
     73c:	0315                	addi	t1,t1,5
     73e:	0900                	addi	s0,sp,144
     740:	0000                	unimp
     742:	0501                	addi	a0,a0,0
     744:	060e                	slli	a2,a2,0x3
     746:	00097f03          	.4byte	0x97f03
     74a:	0100                	addi	s0,sp,128
     74c:	04090003          	lb	zero,64(s2)
     750:	0100                	addi	s0,sp,128
     752:	1705                	addi	a4,a4,-31
     754:	1c090203          	lb	tp,448(s2)
     758:	0100                	addi	s0,sp,128
     75a:	1505                	addi	a0,a0,-31
     75c:	04097f03          	.4byte	0x4097f03
     760:	0100                	addi	s0,sp,128
     762:	1705                	addi	a4,a4,-31
     764:	0306                	slli	t1,t1,0x1
     766:	0901                	addi	s2,s2,0
     768:	0004                	.2byte	0x4
     76a:	0501                	addi	a0,a0,0
     76c:	060e                	slli	a2,a2,0x3
     76e:	00097e03          	.4byte	0x97e03
     772:	0100                	addi	s0,sp,128
     774:	1905                	addi	s2,s2,-31
     776:	0306                	slli	t1,t1,0x1
     778:	00080903          	lb	s2,0(a6)
     77c:	0501                	addi	a0,a0,0
     77e:	060e                	slli	a2,a2,0x3
     780:	00097d03          	.4byte	0x97d03
     784:	0100                	addi	s0,sp,128
     786:	0905                	addi	s2,s2,1
     788:	0200                	addi	s0,sp,256
     78a:	0304                	addi	s1,sp,384
     78c:	0306                	slli	t1,t1,0x1
     78e:	0904                	addi	s1,sp,144
     790:	0004                	.2byte	0x4
     792:	0501                	addi	a0,a0,0
     794:	001c                	.2byte	0x1c
     796:	0402                	c.slli64	s0
     798:	00030603          	lb	a2,0(t1)
     79c:	0009                	c.nop	2
     79e:	0100                	addi	s0,sp,128
     7a0:	2c05                	addiw	s8,s8,1
     7a2:	0200                	addi	s0,sp,256
     7a4:	0304                	addi	s1,sp,384
     7a6:	04090003          	lb	zero,64(s2)
     7aa:	0100                	addi	s0,sp,128
     7ac:	0b05                	addi	s6,s6,1
     7ae:	0200                	addi	s0,sp,256
     7b0:	0304                	addi	s1,sp,384
     7b2:	04090003          	lb	zero,64(s2)
     7b6:	0100                	addi	s0,sp,128
     7b8:	1c05                	addi	s8,s8,-31
     7ba:	0200                	addi	s0,sp,256
     7bc:	0304                	addi	s1,sp,384
     7be:	04090003          	lb	zero,64(s2)
     7c2:	0100                	addi	s0,sp,128
     7c4:	2c05                	addiw	s8,s8,1
     7c6:	0200                	addi	s0,sp,256
     7c8:	0304                	addi	s1,sp,384
     7ca:	02090003          	lb	zero,32(s2)
     7ce:	0100                	addi	s0,sp,128
     7d0:	2905                	addiw	s2,s2,1
     7d2:	0200                	addi	s0,sp,256
     7d4:	0304                	addi	s1,sp,384
     7d6:	02090003          	lb	zero,32(s2)
     7da:	0100                	addi	s0,sp,128
     7dc:	0b05                	addi	s6,s6,1
     7de:	0200                	addi	s0,sp,256
     7e0:	0304                	addi	s1,sp,384
     7e2:	08090003          	lb	zero,128(s2)
     7e6:	0100                	addi	s0,sp,128
     7e8:	1805                	addi	a6,a6,-31
     7ea:	0200                	addi	s0,sp,256
     7ec:	0304                	addi	s1,sp,384
     7ee:	02090003          	lb	zero,32(s2)
     7f2:	0100                	addi	s0,sp,128
     7f4:	2905                	addiw	s2,s2,1
     7f6:	0200                	addi	s0,sp,256
     7f8:	0304                	addi	s1,sp,384
     7fa:	04090003          	lb	zero,64(s2)
     7fe:	0100                	addi	s0,sp,128
     800:	1905                	addi	s2,s2,-31
     802:	0200                	addi	s0,sp,256
     804:	0304                	addi	s1,sp,384
     806:	04097f03          	.4byte	0x4097f03
     80a:	0100                	addi	s0,sp,128
     80c:	1805                	addi	a6,a6,-31
     80e:	0200                	addi	s0,sp,256
     810:	0304                	addi	s1,sp,384
     812:	06090103          	lb	sp,96(s2)
     816:	0100                	addi	s0,sp,128
     818:	2205                	addiw	tp,tp,1 # 1 <_prog_start-0x7fffffff>
     81a:	0200                	addi	s0,sp,256
     81c:	0304                	addi	s1,sp,384
     81e:	0306                	slli	t1,t1,0x1
     820:	097f                	.2byte	0x97f
     822:	0006                	c.slli	zero,0x1
     824:	0501                	addi	a0,a0,0
     826:	0019                	c.nop	6
     828:	0402                	c.slli64	s0
     82a:	09000303          	lb	t1,144(zero) # 90 <_prog_start-0x7fffff70>
     82e:	0000                	unimp
     830:	0501                	addi	a0,a0,0
     832:	0020                	addi	s0,sp,8
     834:	0402                	c.slli64	s0
     836:	0302                	c.slli64	t1
     838:	097f                	.2byte	0x97f
     83a:	0004                	.2byte	0x4
     83c:	0501                	addi	a0,a0,0
     83e:	04020017          	auipc	zero,0x4020
     842:	0302                	c.slli64	t1
     844:	0900                	addi	s0,sp,144
     846:	0000                	unimp
     848:	0501                	addi	a0,a0,0
     84a:	001e                	c.slli	zero,0x7
     84c:	0402                	c.slli64	s0
     84e:	0302                	c.slli64	t1
     850:	097f                	.2byte	0x97f
     852:	000e                	c.slli	zero,0x3
     854:	0501                	addi	a0,a0,0
     856:	0015                	c.nop	5
     858:	0402                	c.slli64	s0
     85a:	0302                	c.slli64	t1
     85c:	0900                	addi	s0,sp,144
     85e:	0000                	unimp
     860:	0501                	addi	a0,a0,0
     862:	0601                	addi	a2,a2,0
     864:	0a090403          	lb	s0,160(s2)
     868:	0100                	addi	s0,sp,128
     86a:	0e05                	addi	t3,t3,1
     86c:	0306                	slli	t1,t1,0x1
     86e:	00060903          	lb	s2,0(a2)
     872:	0501                	addi	a0,a0,0
     874:	09010303          	lb	t1,144(sp)
     878:	0000                	unimp
     87a:	0501                	addi	a0,a0,0
     87c:	0308                	addi	a0,sp,384
     87e:	0900                	addi	s0,sp,144
     880:	0000                	unimp
     882:	0501                	addi	a0,a0,0
     884:	0315                	addi	t1,t1,5
     886:	0900                	addi	s0,sp,144
     888:	0000                	unimp
     88a:	0501                	addi	a0,a0,0
     88c:	060e                	slli	a2,a2,0x3
     88e:	00097f03          	.4byte	0x97f03
     892:	0100                	addi	s0,sp,128
     894:	1505                	addi	a0,a0,-31
     896:	1a090103          	lb	sp,416(s2)
     89a:	0100                	addi	s0,sp,128
     89c:	0905                	addi	s2,s2,1
     89e:	0200                	addi	s0,sp,256
     8a0:	0304                	addi	s1,sp,384
     8a2:	0306                	slli	t1,t1,0x1
     8a4:	0901                	addi	s2,s2,0
     8a6:	0004                	.2byte	0x4
     8a8:	0501                	addi	a0,a0,0
     8aa:	0012                	c.slli	zero,0x4
     8ac:	0402                	c.slli64	s0
     8ae:	00030603          	lb	a2,0(t1)
     8b2:	0009                	c.nop	2
     8b4:	0100                	addi	s0,sp,128
     8b6:	1a05                	addi	s4,s4,-31
     8b8:	0200                	addi	s0,sp,256
     8ba:	0304                	addi	s1,sp,384
     8bc:	04090003          	lb	zero,64(s2)
     8c0:	0100                	addi	s0,sp,128
     8c2:	0e05                	addi	t3,t3,1
     8c4:	0200                	addi	s0,sp,256
     8c6:	0304                	addi	s1,sp,384
     8c8:	02090003          	lb	zero,32(s2)
     8cc:	0100                	addi	s0,sp,128
     8ce:	1205                	addi	tp,tp,-31 # ffffffffffffffe1 <a+0xffffffff7ffff029>
     8d0:	0200                	addi	s0,sp,256
     8d2:	0304                	addi	s1,sp,384
     8d4:	04090003          	lb	zero,64(s2)
     8d8:	0100                	addi	s0,sp,128
     8da:	1a05                	addi	s4,s4,-31
     8dc:	0200                	addi	s0,sp,256
     8de:	0304                	addi	s1,sp,384
     8e0:	02090003          	lb	zero,32(s2)
     8e4:	0100                	addi	s0,sp,128
     8e6:	1605                	addi	a2,a2,-31
     8e8:	0200                	addi	s0,sp,256
     8ea:	0304                	addi	s1,sp,384
     8ec:	02090003          	lb	zero,32(s2)
     8f0:	0100                	addi	s0,sp,128
     8f2:	0e05                	addi	t3,t3,1
     8f4:	0200                	addi	s0,sp,256
     8f6:	0304                	addi	s1,sp,384
     8f8:	08090003          	lb	zero,128(s2)
     8fc:	0100                	addi	s0,sp,128
     8fe:	1505                	addi	a0,a0,-31
     900:	0200                	addi	s0,sp,256
     902:	0304                	addi	s1,sp,384
     904:	02097f03          	.4byte	0x2097f03
     908:	0100                	addi	s0,sp,128
     90a:	1605                	addi	a2,a2,-31
     90c:	0200                	addi	s0,sp,256
     90e:	0304                	addi	s1,sp,384
     910:	02090103          	lb	sp,32(s2)
     914:	0100                	addi	s0,sp,128
     916:	0e05                	addi	t3,t3,1
     918:	0200                	addi	s0,sp,256
     91a:	0304                	addi	s1,sp,384
     91c:	02090003          	lb	zero,32(s2)
     920:	0100                	addi	s0,sp,128
     922:	2005                	.2byte	0x2005
     924:	0200                	addi	s0,sp,256
     926:	0304                	addi	s1,sp,384
     928:	0306                	slli	t1,t1,0x1
     92a:	097f                	.2byte	0x97f
     92c:	0004                	.2byte	0x4
     92e:	0501                	addi	a0,a0,0
     930:	0015                	c.nop	5
     932:	0402                	c.slli64	s0
     934:	09000303          	lb	t1,144(zero) # 90 <_prog_start-0x7fffff70>
     938:	0000                	unimp
     93a:	0501                	addi	a0,a0,0
     93c:	0601                	addi	a2,a2,0
     93e:	04090203          	lb	tp,64(s2)
     942:	0100                	addi	s0,sp,128
     944:	0e05                	addi	t3,t3,1
     946:	0306                	slli	t1,t1,0x1
     948:	0902                	c.slli64	s2
     94a:	0002                	c.slli64	zero
     94c:	0501                	addi	a0,a0,0
     94e:	09010303          	lb	t1,144(sp)
     952:	0000                	unimp
     954:	0501                	addi	a0,a0,0
     956:	0308                	addi	a0,sp,384
     958:	0900                	addi	s0,sp,144
     95a:	0000                	unimp
     95c:	0501                	addi	a0,a0,0
     95e:	0315                	addi	t1,t1,5
     960:	0900                	addi	s0,sp,144
     962:	0000                	unimp
     964:	0501                	addi	a0,a0,0
     966:	060e                	slli	a2,a2,0x3
     968:	00097f03          	.4byte	0x97f03
     96c:	0100                	addi	s0,sp,128
     96e:	1505                	addi	a0,a0,-31
     970:	1a090103          	lb	sp,416(s2)
     974:	0100                	addi	s0,sp,128
     976:	0905                	addi	s2,s2,1
     978:	0200                	addi	s0,sp,256
     97a:	0304                	addi	s1,sp,384
     97c:	0306                	slli	t1,t1,0x1
     97e:	0901                	addi	s2,s2,0
     980:	0004                	.2byte	0x4
     982:	0501                	addi	a0,a0,0
     984:	0012                	c.slli	zero,0x4
     986:	0402                	c.slli64	s0
     988:	00030603          	lb	a2,0(t1)
     98c:	0009                	c.nop	2
     98e:	0100                	addi	s0,sp,128
     990:	1a05                	addi	s4,s4,-31
     992:	0200                	addi	s0,sp,256
     994:	0304                	addi	s1,sp,384
     996:	04090003          	lb	zero,64(s2)
     99a:	0100                	addi	s0,sp,128
     99c:	0e05                	addi	t3,t3,1
     99e:	0200                	addi	s0,sp,256
     9a0:	0304                	addi	s1,sp,384
     9a2:	02090003          	lb	zero,32(s2)
     9a6:	0100                	addi	s0,sp,128
     9a8:	1205                	addi	tp,tp,-31 # ffffffffffffffe1 <a+0xffffffff7ffff029>
     9aa:	0200                	addi	s0,sp,256
     9ac:	0304                	addi	s1,sp,384
     9ae:	04090003          	lb	zero,64(s2)
     9b2:	0100                	addi	s0,sp,128
     9b4:	1a05                	addi	s4,s4,-31
     9b6:	0200                	addi	s0,sp,256
     9b8:	0304                	addi	s1,sp,384
     9ba:	02090003          	lb	zero,32(s2)
     9be:	0100                	addi	s0,sp,128
     9c0:	1605                	addi	a2,a2,-31
     9c2:	0200                	addi	s0,sp,256
     9c4:	0304                	addi	s1,sp,384
     9c6:	02090003          	lb	zero,32(s2)
     9ca:	0100                	addi	s0,sp,128
     9cc:	0e05                	addi	t3,t3,1
     9ce:	0200                	addi	s0,sp,256
     9d0:	0304                	addi	s1,sp,384
     9d2:	08090003          	lb	zero,128(s2)
     9d6:	0100                	addi	s0,sp,128
     9d8:	1505                	addi	a0,a0,-31
     9da:	0200                	addi	s0,sp,256
     9dc:	0304                	addi	s1,sp,384
     9de:	02097f03          	.4byte	0x2097f03
     9e2:	0100                	addi	s0,sp,128
     9e4:	1605                	addi	a2,a2,-31
     9e6:	0200                	addi	s0,sp,256
     9e8:	0304                	addi	s1,sp,384
     9ea:	02090103          	lb	sp,32(s2)
     9ee:	0100                	addi	s0,sp,128
     9f0:	0e05                	addi	t3,t3,1
     9f2:	0200                	addi	s0,sp,256
     9f4:	0304                	addi	s1,sp,384
     9f6:	02090003          	lb	zero,32(s2)
     9fa:	0100                	addi	s0,sp,128
     9fc:	2005                	.2byte	0x2005
     9fe:	0200                	addi	s0,sp,256
     a00:	0304                	addi	s1,sp,384
     a02:	0306                	slli	t1,t1,0x1
     a04:	097f                	.2byte	0x97f
     a06:	0004                	.2byte	0x4
     a08:	0501                	addi	a0,a0,0
     a0a:	0015                	c.nop	5
     a0c:	0402                	c.slli64	s0
     a0e:	09000303          	lb	t1,144(zero) # 90 <_prog_start-0x7fffff70>
     a12:	0000                	unimp
     a14:	0501                	addi	a0,a0,0
     a16:	0601                	addi	a2,a2,0
     a18:	04090203          	lb	tp,64(s2)
     a1c:	0100                	addi	s0,sp,128
     a1e:	0e05                	addi	t3,t3,1
     a20:	0306                	slli	t1,t1,0x1
     a22:	00020903          	lb	s2,0(tp) # 0 <_prog_start-0x80000000>
     a26:	0501                	addi	a0,a0,0
     a28:	09010303          	lb	t1,144(sp)
     a2c:	0000                	unimp
     a2e:	0501                	addi	a0,a0,0
     a30:	0308                	addi	a0,sp,384
     a32:	0900                	addi	s0,sp,144
     a34:	0000                	unimp
     a36:	0501                	addi	a0,a0,0
     a38:	0315                	addi	t1,t1,5
     a3a:	0900                	addi	s0,sp,144
     a3c:	0000                	unimp
     a3e:	0501                	addi	a0,a0,0
     a40:	060e                	slli	a2,a2,0x3
     a42:	00097f03          	.4byte	0x97f03
     a46:	0100                	addi	s0,sp,128
     a48:	04090003          	lb	zero,64(s2)
     a4c:	0100                	addi	s0,sp,128
     a4e:	1705                	addi	a4,a4,-31
     a50:	1c090203          	lb	tp,448(s2)
     a54:	0100                	addi	s0,sp,128
     a56:	1505                	addi	a0,a0,-31
     a58:	04097f03          	.4byte	0x4097f03
     a5c:	0100                	addi	s0,sp,128
     a5e:	1705                	addi	a4,a4,-31
     a60:	0306                	slli	t1,t1,0x1
     a62:	0901                	addi	s2,s2,0
     a64:	0004                	.2byte	0x4
     a66:	0501                	addi	a0,a0,0
     a68:	060e                	slli	a2,a2,0x3
     a6a:	00097e03          	.4byte	0x97e03
     a6e:	0100                	addi	s0,sp,128
     a70:	1905                	addi	s2,s2,-31
     a72:	0306                	slli	t1,t1,0x1
     a74:	0904                	addi	s1,sp,144
     a76:	0008                	.2byte	0x8
     a78:	0501                	addi	a0,a0,0
     a7a:	060e                	slli	a2,a2,0x3
     a7c:	00097c03          	.4byte	0x97c03
     a80:	0100                	addi	s0,sp,128
     a82:	0905                	addi	s2,s2,1
     a84:	0200                	addi	s0,sp,256
     a86:	0304                	addi	s1,sp,384
     a88:	0306                	slli	t1,t1,0x1
     a8a:	0905                	addi	s2,s2,1
     a8c:	0004                	.2byte	0x4
     a8e:	0501                	addi	a0,a0,0
     a90:	001c                	.2byte	0x1c
     a92:	0402                	c.slli64	s0
     a94:	00030603          	lb	a2,0(t1)
     a98:	0009                	c.nop	2
     a9a:	0100                	addi	s0,sp,128
     a9c:	2c05                	addiw	s8,s8,1
     a9e:	0200                	addi	s0,sp,256
     aa0:	0304                	addi	s1,sp,384
     aa2:	04090003          	lb	zero,64(s2)
     aa6:	0100                	addi	s0,sp,128
     aa8:	0b05                	addi	s6,s6,1
     aaa:	0200                	addi	s0,sp,256
     aac:	0304                	addi	s1,sp,384
     aae:	04090003          	lb	zero,64(s2)
     ab2:	0100                	addi	s0,sp,128
     ab4:	1c05                	addi	s8,s8,-31
     ab6:	0200                	addi	s0,sp,256
     ab8:	0304                	addi	s1,sp,384
     aba:	04090003          	lb	zero,64(s2)
     abe:	0100                	addi	s0,sp,128
     ac0:	2c05                	addiw	s8,s8,1
     ac2:	0200                	addi	s0,sp,256
     ac4:	0304                	addi	s1,sp,384
     ac6:	02090003          	lb	zero,32(s2)
     aca:	0100                	addi	s0,sp,128
     acc:	2905                	addiw	s2,s2,1
     ace:	0200                	addi	s0,sp,256
     ad0:	0304                	addi	s1,sp,384
     ad2:	02090003          	lb	zero,32(s2)
     ad6:	0100                	addi	s0,sp,128
     ad8:	0b05                	addi	s6,s6,1
     ada:	0200                	addi	s0,sp,256
     adc:	0304                	addi	s1,sp,384
     ade:	08090003          	lb	zero,128(s2)
     ae2:	0100                	addi	s0,sp,128
     ae4:	1805                	addi	a6,a6,-31
     ae6:	0200                	addi	s0,sp,256
     ae8:	0304                	addi	s1,sp,384
     aea:	02090003          	lb	zero,32(s2)
     aee:	0100                	addi	s0,sp,128
     af0:	2905                	addiw	s2,s2,1
     af2:	0200                	addi	s0,sp,256
     af4:	0304                	addi	s1,sp,384
     af6:	04090003          	lb	zero,64(s2)
     afa:	0100                	addi	s0,sp,128
     afc:	1905                	addi	s2,s2,-31
     afe:	0200                	addi	s0,sp,256
     b00:	0304                	addi	s1,sp,384
     b02:	04097f03          	.4byte	0x4097f03
     b06:	0100                	addi	s0,sp,128
     b08:	1805                	addi	a6,a6,-31
     b0a:	0200                	addi	s0,sp,256
     b0c:	0304                	addi	s1,sp,384
     b0e:	06090103          	lb	sp,96(s2)
     b12:	0100                	addi	s0,sp,128
     b14:	2205                	addiw	tp,tp,1 # 1 <_prog_start-0x7fffffff>
     b16:	0200                	addi	s0,sp,256
     b18:	0304                	addi	s1,sp,384
     b1a:	0306                	slli	t1,t1,0x1
     b1c:	097f                	.2byte	0x97f
     b1e:	0006                	c.slli	zero,0x1
     b20:	0501                	addi	a0,a0,0
     b22:	0019                	c.nop	6
     b24:	0402                	c.slli64	s0
     b26:	09000303          	lb	t1,144(zero) # 90 <_prog_start-0x7fffff70>
     b2a:	0000                	unimp
     b2c:	0501                	addi	a0,a0,0
     b2e:	0020                	addi	s0,sp,8
     b30:	0402                	c.slli64	s0
     b32:	0302                	c.slli64	t1
     b34:	097e                	slli	s2,s2,0x1f
     b36:	0004                	.2byte	0x4
     b38:	0501                	addi	a0,a0,0
     b3a:	04020017          	auipc	zero,0x4020
     b3e:	0302                	c.slli64	t1
     b40:	0900                	addi	s0,sp,144
     b42:	0000                	unimp
     b44:	0501                	addi	a0,a0,0
     b46:	001e                	c.slli	zero,0x7
     b48:	0402                	c.slli64	s0
     b4a:	0302                	c.slli64	t1
     b4c:	097f                	.2byte	0x97f
     b4e:	000e                	c.slli	zero,0x3
     b50:	0501                	addi	a0,a0,0
     b52:	0015                	c.nop	5
     b54:	0402                	c.slli64	s0
     b56:	0302                	c.slli64	t1
     b58:	0900                	addi	s0,sp,144
     b5a:	0000                	unimp
     b5c:	0501                	addi	a0,a0,0
     b5e:	0601                	addi	a2,a2,0
     b60:	0a090603          	lb	a2,160(s2)
     b64:	0100                	addi	s0,sp,128
     b66:	0e05                	addi	t3,t3,1
     b68:	0306                	slli	t1,t1,0x1
     b6a:	0902                	c.slli64	s2
     b6c:	0006                	c.slli	zero,0x1
     b6e:	0501                	addi	a0,a0,0
     b70:	09010303          	lb	t1,144(sp)
     b74:	0000                	unimp
     b76:	0501                	addi	a0,a0,0
     b78:	0308                	addi	a0,sp,384
     b7a:	0900                	addi	s0,sp,144
     b7c:	0000                	unimp
     b7e:	0501                	addi	a0,a0,0
     b80:	0315                	addi	t1,t1,5
     b82:	0900                	addi	s0,sp,144
     b84:	0000                	unimp
     b86:	0501                	addi	a0,a0,0
     b88:	060e                	slli	a2,a2,0x3
     b8a:	00097f03          	.4byte	0x97f03
     b8e:	0100                	addi	s0,sp,128
     b90:	04090003          	lb	zero,64(s2)
     b94:	0100                	addi	s0,sp,128
     b96:	1705                	addi	a4,a4,-31
     b98:	1c090203          	lb	tp,448(s2)
     b9c:	0100                	addi	s0,sp,128
     b9e:	1505                	addi	a0,a0,-31
     ba0:	04097f03          	.4byte	0x4097f03
     ba4:	0100                	addi	s0,sp,128
     ba6:	1705                	addi	a4,a4,-31
     ba8:	0306                	slli	t1,t1,0x1
     baa:	0901                	addi	s2,s2,0
     bac:	0004                	.2byte	0x4
     bae:	0501                	addi	a0,a0,0
     bb0:	060e                	slli	a2,a2,0x3
     bb2:	00097e03          	.4byte	0x97e03
     bb6:	0100                	addi	s0,sp,128
     bb8:	1905                	addi	s2,s2,-31
     bba:	0306                	slli	t1,t1,0x1
     bbc:	0904                	addi	s1,sp,144
     bbe:	0008                	.2byte	0x8
     bc0:	0501                	addi	a0,a0,0
     bc2:	060e                	slli	a2,a2,0x3
     bc4:	00097c03          	.4byte	0x97c03
     bc8:	0100                	addi	s0,sp,128
     bca:	0905                	addi	s2,s2,1
     bcc:	0200                	addi	s0,sp,256
     bce:	0304                	addi	s1,sp,384
     bd0:	0306                	slli	t1,t1,0x1
     bd2:	0905                	addi	s2,s2,1
     bd4:	0004                	.2byte	0x4
     bd6:	0501                	addi	a0,a0,0
     bd8:	001c                	.2byte	0x1c
     bda:	0402                	c.slli64	s0
     bdc:	00030603          	lb	a2,0(t1)
     be0:	0009                	c.nop	2
     be2:	0100                	addi	s0,sp,128
     be4:	2c05                	addiw	s8,s8,1
     be6:	0200                	addi	s0,sp,256
     be8:	0304                	addi	s1,sp,384
     bea:	04090003          	lb	zero,64(s2)
     bee:	0100                	addi	s0,sp,128
     bf0:	0b05                	addi	s6,s6,1
     bf2:	0200                	addi	s0,sp,256
     bf4:	0304                	addi	s1,sp,384
     bf6:	04090003          	lb	zero,64(s2)
     bfa:	0100                	addi	s0,sp,128
     bfc:	1c05                	addi	s8,s8,-31
     bfe:	0200                	addi	s0,sp,256
     c00:	0304                	addi	s1,sp,384
     c02:	04090003          	lb	zero,64(s2)
     c06:	0100                	addi	s0,sp,128
     c08:	2c05                	addiw	s8,s8,1
     c0a:	0200                	addi	s0,sp,256
     c0c:	0304                	addi	s1,sp,384
     c0e:	02090003          	lb	zero,32(s2)
     c12:	0100                	addi	s0,sp,128
     c14:	2905                	addiw	s2,s2,1
     c16:	0200                	addi	s0,sp,256
     c18:	0304                	addi	s1,sp,384
     c1a:	02090003          	lb	zero,32(s2)
     c1e:	0100                	addi	s0,sp,128
     c20:	0b05                	addi	s6,s6,1
     c22:	0200                	addi	s0,sp,256
     c24:	0304                	addi	s1,sp,384
     c26:	08090003          	lb	zero,128(s2)
     c2a:	0100                	addi	s0,sp,128
     c2c:	1805                	addi	a6,a6,-31
     c2e:	0200                	addi	s0,sp,256
     c30:	0304                	addi	s1,sp,384
     c32:	02090003          	lb	zero,32(s2)
     c36:	0100                	addi	s0,sp,128
     c38:	2905                	addiw	s2,s2,1
     c3a:	0200                	addi	s0,sp,256
     c3c:	0304                	addi	s1,sp,384
     c3e:	04090003          	lb	zero,64(s2)
     c42:	0100                	addi	s0,sp,128
     c44:	1905                	addi	s2,s2,-31
     c46:	0200                	addi	s0,sp,256
     c48:	0304                	addi	s1,sp,384
     c4a:	04097f03          	.4byte	0x4097f03
     c4e:	0100                	addi	s0,sp,128
     c50:	1805                	addi	a6,a6,-31
     c52:	0200                	addi	s0,sp,256
     c54:	0304                	addi	s1,sp,384
     c56:	06090103          	lb	sp,96(s2)
     c5a:	0100                	addi	s0,sp,128
     c5c:	2205                	addiw	tp,tp,1 # 1 <_prog_start-0x7fffffff>
     c5e:	0200                	addi	s0,sp,256
     c60:	0304                	addi	s1,sp,384
     c62:	0306                	slli	t1,t1,0x1
     c64:	097f                	.2byte	0x97f
     c66:	0006                	c.slli	zero,0x1
     c68:	0501                	addi	a0,a0,0
     c6a:	0019                	c.nop	6
     c6c:	0402                	c.slli64	s0
     c6e:	09000303          	lb	t1,144(zero) # 90 <_prog_start-0x7fffff70>
     c72:	0000                	unimp
     c74:	0501                	addi	a0,a0,0
     c76:	0020                	addi	s0,sp,8
     c78:	0402                	c.slli64	s0
     c7a:	0302                	c.slli64	t1
     c7c:	097e                	slli	s2,s2,0x1f
     c7e:	0004                	.2byte	0x4
     c80:	0501                	addi	a0,a0,0
     c82:	04020017          	auipc	zero,0x4020
     c86:	0302                	c.slli64	t1
     c88:	0900                	addi	s0,sp,144
     c8a:	0000                	unimp
     c8c:	0501                	addi	a0,a0,0
     c8e:	001e                	c.slli	zero,0x7
     c90:	0402                	c.slli64	s0
     c92:	0302                	c.slli64	t1
     c94:	097f                	.2byte	0x97f
     c96:	000e                	c.slli	zero,0x3
     c98:	0501                	addi	a0,a0,0
     c9a:	0015                	c.nop	5
     c9c:	0402                	c.slli64	s0
     c9e:	0302                	c.slli64	t1
     ca0:	0900                	addi	s0,sp,144
     ca2:	0000                	unimp
     ca4:	0501                	addi	a0,a0,0
     ca6:	0601                	addi	a2,a2,0
     ca8:	0a090603          	lb	a2,160(s2)
     cac:	0100                	addi	s0,sp,128
     cae:	0e05                	addi	t3,t3,1
     cb0:	0306                	slli	t1,t1,0x1
     cb2:	0902                	c.slli64	s2
     cb4:	0006                	c.slli	zero,0x1
     cb6:	0501                	addi	a0,a0,0
     cb8:	09010303          	lb	t1,144(sp)
     cbc:	0000                	unimp
     cbe:	0501                	addi	a0,a0,0
     cc0:	0308                	addi	a0,sp,384
     cc2:	0900                	addi	s0,sp,144
     cc4:	0000                	unimp
     cc6:	0501                	addi	a0,a0,0
     cc8:	0315                	addi	t1,t1,5
     cca:	0900                	addi	s0,sp,144
     ccc:	0000                	unimp
     cce:	0501                	addi	a0,a0,0
     cd0:	060e                	slli	a2,a2,0x3
     cd2:	00097f03          	.4byte	0x97f03
     cd6:	0100                	addi	s0,sp,128
     cd8:	04090003          	lb	zero,64(s2)
     cdc:	0100                	addi	s0,sp,128
     cde:	1705                	addi	a4,a4,-31
     ce0:	1c090203          	lb	tp,448(s2)
     ce4:	0100                	addi	s0,sp,128
     ce6:	1505                	addi	a0,a0,-31
     ce8:	04097f03          	.4byte	0x4097f03
     cec:	0100                	addi	s0,sp,128
     cee:	1705                	addi	a4,a4,-31
     cf0:	0306                	slli	t1,t1,0x1
     cf2:	0901                	addi	s2,s2,0
     cf4:	0004                	.2byte	0x4
     cf6:	0501                	addi	a0,a0,0
     cf8:	060e                	slli	a2,a2,0x3
     cfa:	00097e03          	.4byte	0x97e03
     cfe:	0100                	addi	s0,sp,128
     d00:	1905                	addi	s2,s2,-31
     d02:	0306                	slli	t1,t1,0x1
     d04:	0904                	addi	s1,sp,144
     d06:	0008                	.2byte	0x8
     d08:	0501                	addi	a0,a0,0
     d0a:	060e                	slli	a2,a2,0x3
     d0c:	00097c03          	.4byte	0x97c03
     d10:	0100                	addi	s0,sp,128
     d12:	0905                	addi	s2,s2,1
     d14:	0200                	addi	s0,sp,256
     d16:	0304                	addi	s1,sp,384
     d18:	0306                	slli	t1,t1,0x1
     d1a:	0905                	addi	s2,s2,1
     d1c:	0004                	.2byte	0x4
     d1e:	0501                	addi	a0,a0,0
     d20:	001c                	.2byte	0x1c
     d22:	0402                	c.slli64	s0
     d24:	00030603          	lb	a2,0(t1)
     d28:	0009                	c.nop	2
     d2a:	0100                	addi	s0,sp,128
     d2c:	2c05                	addiw	s8,s8,1
     d2e:	0200                	addi	s0,sp,256
     d30:	0304                	addi	s1,sp,384
     d32:	04090003          	lb	zero,64(s2)
     d36:	0100                	addi	s0,sp,128
     d38:	0b05                	addi	s6,s6,1
     d3a:	0200                	addi	s0,sp,256
     d3c:	0304                	addi	s1,sp,384
     d3e:	04090003          	lb	zero,64(s2)
     d42:	0100                	addi	s0,sp,128
     d44:	1c05                	addi	s8,s8,-31
     d46:	0200                	addi	s0,sp,256
     d48:	0304                	addi	s1,sp,384
     d4a:	04090003          	lb	zero,64(s2)
     d4e:	0100                	addi	s0,sp,128
     d50:	2c05                	addiw	s8,s8,1
     d52:	0200                	addi	s0,sp,256
     d54:	0304                	addi	s1,sp,384
     d56:	02090003          	lb	zero,32(s2)
     d5a:	0100                	addi	s0,sp,128
     d5c:	2905                	addiw	s2,s2,1
     d5e:	0200                	addi	s0,sp,256
     d60:	0304                	addi	s1,sp,384
     d62:	02090003          	lb	zero,32(s2)
     d66:	0100                	addi	s0,sp,128
     d68:	0b05                	addi	s6,s6,1
     d6a:	0200                	addi	s0,sp,256
     d6c:	0304                	addi	s1,sp,384
     d6e:	08090003          	lb	zero,128(s2)
     d72:	0100                	addi	s0,sp,128
     d74:	1805                	addi	a6,a6,-31
     d76:	0200                	addi	s0,sp,256
     d78:	0304                	addi	s1,sp,384
     d7a:	02090003          	lb	zero,32(s2)
     d7e:	0100                	addi	s0,sp,128
     d80:	2905                	addiw	s2,s2,1
     d82:	0200                	addi	s0,sp,256
     d84:	0304                	addi	s1,sp,384
     d86:	04090003          	lb	zero,64(s2)
     d8a:	0100                	addi	s0,sp,128
     d8c:	1905                	addi	s2,s2,-31
     d8e:	0200                	addi	s0,sp,256
     d90:	0304                	addi	s1,sp,384
     d92:	04097f03          	.4byte	0x4097f03
     d96:	0100                	addi	s0,sp,128
     d98:	1805                	addi	a6,a6,-31
     d9a:	0200                	addi	s0,sp,256
     d9c:	0304                	addi	s1,sp,384
     d9e:	06090103          	lb	sp,96(s2)
     da2:	0100                	addi	s0,sp,128
     da4:	2205                	addiw	tp,tp,1 # 1 <_prog_start-0x7fffffff>
     da6:	0200                	addi	s0,sp,256
     da8:	0304                	addi	s1,sp,384
     daa:	0306                	slli	t1,t1,0x1
     dac:	097f                	.2byte	0x97f
     dae:	0006                	c.slli	zero,0x1
     db0:	0501                	addi	a0,a0,0
     db2:	0019                	c.nop	6
     db4:	0402                	c.slli64	s0
     db6:	09000303          	lb	t1,144(zero) # 90 <_prog_start-0x7fffff70>
     dba:	0000                	unimp
     dbc:	0501                	addi	a0,a0,0
     dbe:	0020                	addi	s0,sp,8
     dc0:	0402                	c.slli64	s0
     dc2:	0302                	c.slli64	t1
     dc4:	097e                	slli	s2,s2,0x1f
     dc6:	0004                	.2byte	0x4
     dc8:	0501                	addi	a0,a0,0
     dca:	04020017          	auipc	zero,0x4020
     dce:	0302                	c.slli64	t1
     dd0:	0900                	addi	s0,sp,144
     dd2:	0000                	unimp
     dd4:	0501                	addi	a0,a0,0
     dd6:	001e                	c.slli	zero,0x7
     dd8:	0402                	c.slli64	s0
     dda:	0302                	c.slli64	t1
     ddc:	097f                	.2byte	0x97f
     dde:	000e                	c.slli	zero,0x3
     de0:	0501                	addi	a0,a0,0
     de2:	0015                	c.nop	5
     de4:	0402                	c.slli64	s0
     de6:	0302                	c.slli64	t1
     de8:	0900                	addi	s0,sp,144
     dea:	0000                	unimp
     dec:	0501                	addi	a0,a0,0
     dee:	0601                	addi	a2,a2,0
     df0:	0a090603          	lb	a2,160(s2)
     df4:	0100                	addi	s0,sp,128
     df6:	0e05                	addi	t3,t3,1
     df8:	0306                	slli	t1,t1,0x1
     dfa:	0902                	c.slli64	s2
     dfc:	0006                	c.slli	zero,0x1
     dfe:	0501                	addi	a0,a0,0
     e00:	09010303          	lb	t1,144(sp)
     e04:	0000                	unimp
     e06:	0501                	addi	a0,a0,0
     e08:	0308                	addi	a0,sp,384
     e0a:	0900                	addi	s0,sp,144
     e0c:	0000                	unimp
     e0e:	0501                	addi	a0,a0,0
     e10:	0315                	addi	t1,t1,5
     e12:	0900                	addi	s0,sp,144
     e14:	0000                	unimp
     e16:	0501                	addi	a0,a0,0
     e18:	060e                	slli	a2,a2,0x3
     e1a:	00097f03          	.4byte	0x97f03
     e1e:	0100                	addi	s0,sp,128
     e20:	04090003          	lb	zero,64(s2)
     e24:	0100                	addi	s0,sp,128
     e26:	1705                	addi	a4,a4,-31
     e28:	1c090203          	lb	tp,448(s2)
     e2c:	0100                	addi	s0,sp,128
     e2e:	1505                	addi	a0,a0,-31
     e30:	04097f03          	.4byte	0x4097f03
     e34:	0100                	addi	s0,sp,128
     e36:	1705                	addi	a4,a4,-31
     e38:	0306                	slli	t1,t1,0x1
     e3a:	0901                	addi	s2,s2,0
     e3c:	0004                	.2byte	0x4
     e3e:	0501                	addi	a0,a0,0
     e40:	060e                	slli	a2,a2,0x3
     e42:	00097e03          	.4byte	0x97e03
     e46:	0100                	addi	s0,sp,128
     e48:	1905                	addi	s2,s2,-31
     e4a:	0306                	slli	t1,t1,0x1
     e4c:	0904                	addi	s1,sp,144
     e4e:	0008                	.2byte	0x8
     e50:	0501                	addi	a0,a0,0
     e52:	060e                	slli	a2,a2,0x3
     e54:	00097c03          	.4byte	0x97c03
     e58:	0100                	addi	s0,sp,128
     e5a:	0905                	addi	s2,s2,1
     e5c:	0200                	addi	s0,sp,256
     e5e:	0304                	addi	s1,sp,384
     e60:	0306                	slli	t1,t1,0x1
     e62:	0905                	addi	s2,s2,1
     e64:	0004                	.2byte	0x4
     e66:	0501                	addi	a0,a0,0
     e68:	001c                	.2byte	0x1c
     e6a:	0402                	c.slli64	s0
     e6c:	00030603          	lb	a2,0(t1)
     e70:	0009                	c.nop	2
     e72:	0100                	addi	s0,sp,128
     e74:	2c05                	addiw	s8,s8,1
     e76:	0200                	addi	s0,sp,256
     e78:	0304                	addi	s1,sp,384
     e7a:	04090003          	lb	zero,64(s2)
     e7e:	0100                	addi	s0,sp,128
     e80:	0b05                	addi	s6,s6,1
     e82:	0200                	addi	s0,sp,256
     e84:	0304                	addi	s1,sp,384
     e86:	04090003          	lb	zero,64(s2)
     e8a:	0100                	addi	s0,sp,128
     e8c:	1c05                	addi	s8,s8,-31
     e8e:	0200                	addi	s0,sp,256
     e90:	0304                	addi	s1,sp,384
     e92:	04090003          	lb	zero,64(s2)
     e96:	0100                	addi	s0,sp,128
     e98:	2c05                	addiw	s8,s8,1
     e9a:	0200                	addi	s0,sp,256
     e9c:	0304                	addi	s1,sp,384
     e9e:	02090003          	lb	zero,32(s2)
     ea2:	0100                	addi	s0,sp,128
     ea4:	2905                	addiw	s2,s2,1
     ea6:	0200                	addi	s0,sp,256
     ea8:	0304                	addi	s1,sp,384
     eaa:	02090003          	lb	zero,32(s2)
     eae:	0100                	addi	s0,sp,128
     eb0:	0b05                	addi	s6,s6,1
     eb2:	0200                	addi	s0,sp,256
     eb4:	0304                	addi	s1,sp,384
     eb6:	08090003          	lb	zero,128(s2)
     eba:	0100                	addi	s0,sp,128
     ebc:	1805                	addi	a6,a6,-31
     ebe:	0200                	addi	s0,sp,256
     ec0:	0304                	addi	s1,sp,384
     ec2:	02090003          	lb	zero,32(s2)
     ec6:	0100                	addi	s0,sp,128
     ec8:	2905                	addiw	s2,s2,1
     eca:	0200                	addi	s0,sp,256
     ecc:	0304                	addi	s1,sp,384
     ece:	04090003          	lb	zero,64(s2)
     ed2:	0100                	addi	s0,sp,128
     ed4:	1905                	addi	s2,s2,-31
     ed6:	0200                	addi	s0,sp,256
     ed8:	0304                	addi	s1,sp,384
     eda:	04097f03          	.4byte	0x4097f03
     ede:	0100                	addi	s0,sp,128
     ee0:	1805                	addi	a6,a6,-31
     ee2:	0200                	addi	s0,sp,256
     ee4:	0304                	addi	s1,sp,384
     ee6:	06090103          	lb	sp,96(s2)
     eea:	0100                	addi	s0,sp,128
     eec:	2205                	addiw	tp,tp,1 # 1 <_prog_start-0x7fffffff>
     eee:	0200                	addi	s0,sp,256
     ef0:	0304                	addi	s1,sp,384
     ef2:	0306                	slli	t1,t1,0x1
     ef4:	097f                	.2byte	0x97f
     ef6:	0006                	c.slli	zero,0x1
     ef8:	0501                	addi	a0,a0,0
     efa:	0019                	c.nop	6
     efc:	0402                	c.slli64	s0
     efe:	09000303          	lb	t1,144(zero) # 90 <_prog_start-0x7fffff70>
     f02:	0000                	unimp
     f04:	0501                	addi	a0,a0,0
     f06:	0020                	addi	s0,sp,8
     f08:	0402                	c.slli64	s0
     f0a:	0302                	c.slli64	t1
     f0c:	097e                	slli	s2,s2,0x1f
     f0e:	0004                	.2byte	0x4
     f10:	0501                	addi	a0,a0,0
     f12:	04020017          	auipc	zero,0x4020
     f16:	0302                	c.slli64	t1
     f18:	0900                	addi	s0,sp,144
     f1a:	0000                	unimp
     f1c:	0501                	addi	a0,a0,0
     f1e:	001e                	c.slli	zero,0x7
     f20:	0402                	c.slli64	s0
     f22:	0302                	c.slli64	t1
     f24:	097f                	.2byte	0x97f
     f26:	000e                	c.slli	zero,0x3
     f28:	0501                	addi	a0,a0,0
     f2a:	0015                	c.nop	5
     f2c:	0402                	c.slli64	s0
     f2e:	0302                	c.slli64	t1
     f30:	0900                	addi	s0,sp,144
     f32:	0000                	unimp
     f34:	0501                	addi	a0,a0,0
     f36:	0601                	addi	a2,a2,0
     f38:	0a090603          	lb	a2,160(s2)
     f3c:	0100                	addi	s0,sp,128
     f3e:	0e05                	addi	t3,t3,1
     f40:	0306                	slli	t1,t1,0x1
     f42:	00060903          	lb	s2,0(a2)
     f46:	0501                	addi	a0,a0,0
     f48:	09010303          	lb	t1,144(sp)
     f4c:	0000                	unimp
     f4e:	0501                	addi	a0,a0,0
     f50:	0308                	addi	a0,sp,384
     f52:	0900                	addi	s0,sp,144
     f54:	0000                	unimp
     f56:	0501                	addi	a0,a0,0
     f58:	0315                	addi	t1,t1,5
     f5a:	0900                	addi	s0,sp,144
     f5c:	0000                	unimp
     f5e:	0501                	addi	a0,a0,0
     f60:	060e                	slli	a2,a2,0x3
     f62:	00097f03          	.4byte	0x97f03
     f66:	0100                	addi	s0,sp,128
     f68:	1505                	addi	a0,a0,-31
     f6a:	1a090103          	lb	sp,416(s2)
     f6e:	0100                	addi	s0,sp,128
     f70:	0905                	addi	s2,s2,1
     f72:	0200                	addi	s0,sp,256
     f74:	0304                	addi	s1,sp,384
     f76:	0306                	slli	t1,t1,0x1
     f78:	0901                	addi	s2,s2,0
     f7a:	0004                	.2byte	0x4
     f7c:	0501                	addi	a0,a0,0
     f7e:	0012                	c.slli	zero,0x4
     f80:	0402                	c.slli64	s0
     f82:	00030603          	lb	a2,0(t1)
     f86:	0009                	c.nop	2
     f88:	0100                	addi	s0,sp,128
     f8a:	1a05                	addi	s4,s4,-31
     f8c:	0200                	addi	s0,sp,256
     f8e:	0304                	addi	s1,sp,384
     f90:	04090003          	lb	zero,64(s2)
     f94:	0100                	addi	s0,sp,128
     f96:	0e05                	addi	t3,t3,1
     f98:	0200                	addi	s0,sp,256
     f9a:	0304                	addi	s1,sp,384
     f9c:	02090003          	lb	zero,32(s2)
     fa0:	0100                	addi	s0,sp,128
     fa2:	1205                	addi	tp,tp,-31 # ffffffffffffffe1 <a+0xffffffff7ffff029>
     fa4:	0200                	addi	s0,sp,256
     fa6:	0304                	addi	s1,sp,384
     fa8:	04090003          	lb	zero,64(s2)
     fac:	0100                	addi	s0,sp,128
     fae:	1a05                	addi	s4,s4,-31
     fb0:	0200                	addi	s0,sp,256
     fb2:	0304                	addi	s1,sp,384
     fb4:	02090003          	lb	zero,32(s2)
     fb8:	0100                	addi	s0,sp,128
     fba:	1605                	addi	a2,a2,-31
     fbc:	0200                	addi	s0,sp,256
     fbe:	0304                	addi	s1,sp,384
     fc0:	02090003          	lb	zero,32(s2)
     fc4:	0100                	addi	s0,sp,128
     fc6:	0e05                	addi	t3,t3,1
     fc8:	0200                	addi	s0,sp,256
     fca:	0304                	addi	s1,sp,384
     fcc:	08090003          	lb	zero,128(s2)
     fd0:	0100                	addi	s0,sp,128
     fd2:	1505                	addi	a0,a0,-31
     fd4:	0200                	addi	s0,sp,256
     fd6:	0304                	addi	s1,sp,384
     fd8:	02097f03          	.4byte	0x2097f03
     fdc:	0100                	addi	s0,sp,128
     fde:	1605                	addi	a2,a2,-31
     fe0:	0200                	addi	s0,sp,256
     fe2:	0304                	addi	s1,sp,384
     fe4:	02090103          	lb	sp,32(s2)
     fe8:	0100                	addi	s0,sp,128
     fea:	0e05                	addi	t3,t3,1
     fec:	0200                	addi	s0,sp,256
     fee:	0304                	addi	s1,sp,384
     ff0:	02090003          	lb	zero,32(s2)
     ff4:	0100                	addi	s0,sp,128
     ff6:	2005                	.2byte	0x2005
     ff8:	0200                	addi	s0,sp,256
     ffa:	0304                	addi	s1,sp,384
     ffc:	0306                	slli	t1,t1,0x1
     ffe:	097f                	.2byte	0x97f
    1000:	0004                	.2byte	0x4
    1002:	0501                	addi	a0,a0,0
    1004:	0015                	c.nop	5
    1006:	0402                	c.slli64	s0
    1008:	09000303          	lb	t1,144(zero) # 90 <_prog_start-0x7fffff70>
    100c:	0000                	unimp
    100e:	0501                	addi	a0,a0,0
    1010:	0601                	addi	a2,a2,0
    1012:	04090203          	lb	tp,64(s2)
    1016:	0100                	addi	s0,sp,128
    1018:	0e05                	addi	t3,t3,1
    101a:	0306                	slli	t1,t1,0x1
    101c:	0902                	c.slli64	s2
    101e:	0002                	c.slli64	zero
    1020:	0501                	addi	a0,a0,0
    1022:	09010303          	lb	t1,144(sp)
    1026:	0000                	unimp
    1028:	0501                	addi	a0,a0,0
    102a:	0308                	addi	a0,sp,384
    102c:	0900                	addi	s0,sp,144
    102e:	0000                	unimp
    1030:	0501                	addi	a0,a0,0
    1032:	0315                	addi	t1,t1,5
    1034:	0900                	addi	s0,sp,144
    1036:	0000                	unimp
    1038:	0501                	addi	a0,a0,0
    103a:	060e                	slli	a2,a2,0x3
    103c:	00097f03          	.4byte	0x97f03
    1040:	0100                	addi	s0,sp,128
    1042:	1505                	addi	a0,a0,-31
    1044:	1a090103          	lb	sp,416(s2)
    1048:	0100                	addi	s0,sp,128
    104a:	0905                	addi	s2,s2,1
    104c:	0200                	addi	s0,sp,256
    104e:	0304                	addi	s1,sp,384
    1050:	0306                	slli	t1,t1,0x1
    1052:	0901                	addi	s2,s2,0
    1054:	0004                	.2byte	0x4
    1056:	0501                	addi	a0,a0,0
    1058:	0012                	c.slli	zero,0x4
    105a:	0402                	c.slli64	s0
    105c:	00030603          	lb	a2,0(t1)
    1060:	0009                	c.nop	2
    1062:	0100                	addi	s0,sp,128
    1064:	1a05                	addi	s4,s4,-31
    1066:	0200                	addi	s0,sp,256
    1068:	0304                	addi	s1,sp,384
    106a:	04090003          	lb	zero,64(s2)
    106e:	0100                	addi	s0,sp,128
    1070:	0e05                	addi	t3,t3,1
    1072:	0200                	addi	s0,sp,256
    1074:	0304                	addi	s1,sp,384
    1076:	02090003          	lb	zero,32(s2)
    107a:	0100                	addi	s0,sp,128
    107c:	1205                	addi	tp,tp,-31 # ffffffffffffffe1 <a+0xffffffff7ffff029>
    107e:	0200                	addi	s0,sp,256
    1080:	0304                	addi	s1,sp,384
    1082:	04090003          	lb	zero,64(s2)
    1086:	0100                	addi	s0,sp,128
    1088:	1a05                	addi	s4,s4,-31
    108a:	0200                	addi	s0,sp,256
    108c:	0304                	addi	s1,sp,384
    108e:	02090003          	lb	zero,32(s2)
    1092:	0100                	addi	s0,sp,128
    1094:	1605                	addi	a2,a2,-31
    1096:	0200                	addi	s0,sp,256
    1098:	0304                	addi	s1,sp,384
    109a:	02090003          	lb	zero,32(s2)
    109e:	0100                	addi	s0,sp,128
    10a0:	0e05                	addi	t3,t3,1
    10a2:	0200                	addi	s0,sp,256
    10a4:	0304                	addi	s1,sp,384
    10a6:	08090003          	lb	zero,128(s2)
    10aa:	0100                	addi	s0,sp,128
    10ac:	1505                	addi	a0,a0,-31
    10ae:	0200                	addi	s0,sp,256
    10b0:	0304                	addi	s1,sp,384
    10b2:	02097f03          	.4byte	0x2097f03
    10b6:	0100                	addi	s0,sp,128
    10b8:	1605                	addi	a2,a2,-31
    10ba:	0200                	addi	s0,sp,256
    10bc:	0304                	addi	s1,sp,384
    10be:	02090103          	lb	sp,32(s2)
    10c2:	0100                	addi	s0,sp,128
    10c4:	0e05                	addi	t3,t3,1
    10c6:	0200                	addi	s0,sp,256
    10c8:	0304                	addi	s1,sp,384
    10ca:	02090003          	lb	zero,32(s2)
    10ce:	0100                	addi	s0,sp,128
    10d0:	2005                	.2byte	0x2005
    10d2:	0200                	addi	s0,sp,256
    10d4:	0304                	addi	s1,sp,384
    10d6:	0306                	slli	t1,t1,0x1
    10d8:	097f                	.2byte	0x97f
    10da:	0004                	.2byte	0x4
    10dc:	0501                	addi	a0,a0,0
    10de:	0015                	c.nop	5
    10e0:	0402                	c.slli64	s0
    10e2:	09000303          	lb	t1,144(zero) # 90 <_prog_start-0x7fffff70>
    10e6:	0000                	unimp
    10e8:	0501                	addi	a0,a0,0
    10ea:	0601                	addi	a2,a2,0
    10ec:	04090203          	lb	tp,64(s2)
    10f0:	0100                	addi	s0,sp,128
    10f2:	0e05                	addi	t3,t3,1
    10f4:	0306                	slli	t1,t1,0x1
    10f6:	00020903          	lb	s2,0(tp) # 0 <_prog_start-0x80000000>
    10fa:	0501                	addi	a0,a0,0
    10fc:	09010303          	lb	t1,144(sp)
    1100:	0000                	unimp
    1102:	0501                	addi	a0,a0,0
    1104:	0308                	addi	a0,sp,384
    1106:	0900                	addi	s0,sp,144
    1108:	0000                	unimp
    110a:	0501                	addi	a0,a0,0
    110c:	0315                	addi	t1,t1,5
    110e:	0900                	addi	s0,sp,144
    1110:	0000                	unimp
    1112:	0501                	addi	a0,a0,0
    1114:	060e                	slli	a2,a2,0x3
    1116:	00097f03          	.4byte	0x97f03
    111a:	0100                	addi	s0,sp,128
    111c:	0a090203          	lb	tp,160(s2)
    1120:	0100                	addi	s0,sp,128
    1122:	0c05                	addi	s8,s8,1
    1124:	02097f03          	.4byte	0x2097f03
    1128:	0100                	addi	s0,sp,128
    112a:	1705                	addi	a4,a4,-31
    112c:	22090103          	lb	sp,544(s2)
    1130:	0100                	addi	s0,sp,128
    1132:	1505                	addi	a0,a0,-31
    1134:	04097f03          	.4byte	0x4097f03
    1138:	0100                	addi	s0,sp,128
    113a:	1705                	addi	a4,a4,-31
    113c:	0306                	slli	t1,t1,0x1
    113e:	0901                	addi	s2,s2,0
    1140:	0002                	c.slli64	zero
    1142:	0501                	addi	a0,a0,0
    1144:	060e                	slli	a2,a2,0x3
    1146:	0c090003          	lb	zero,192(s2)
    114a:	0100                	addi	s0,sp,128
    114c:	1905                	addi	s2,s2,-31
    114e:	0306                	slli	t1,t1,0x1
    1150:	0901                	addi	s2,s2,0
    1152:	0002                	c.slli64	zero
    1154:	0501                	addi	a0,a0,0
    1156:	0009                	c.nop	2
    1158:	0402                	c.slli64	s0
    115a:	09010303          	lb	t1,144(sp)
    115e:	0008                	.2byte	0x8
    1160:	0501                	addi	a0,a0,0
    1162:	04020037          	lui	zero,0x4020
    1166:	00030603          	lb	a2,0(t1)
    116a:	0009                	c.nop	2
    116c:	0100                	addi	s0,sp,128
    116e:	2305                	addiw	t1,t1,1
    1170:	0200                	addi	s0,sp,256
    1172:	0304                	addi	s1,sp,384
    1174:	04090003          	lb	zero,64(s2)
    1178:	0100                	addi	s0,sp,128
    117a:	0e05                	addi	t3,t3,1
    117c:	0200                	addi	s0,sp,256
    117e:	0304                	addi	s1,sp,384
    1180:	04090003          	lb	zero,64(s2)
    1184:	0100                	addi	s0,sp,128
    1186:	3705                	addiw	a4,a4,-31
    1188:	0200                	addi	s0,sp,256
    118a:	0304                	addi	s1,sp,384
    118c:	04090003          	lb	zero,64(s2)
    1190:	0100                	addi	s0,sp,128
    1192:	2305                	addiw	t1,t1,1
    1194:	0200                	addi	s0,sp,256
    1196:	0304                	addi	s1,sp,384
    1198:	02090003          	lb	zero,32(s2)
    119c:	0100                	addi	s0,sp,128
    119e:	3705                	addiw	a4,a4,-31
    11a0:	0200                	addi	s0,sp,256
    11a2:	0304                	addi	s1,sp,384
    11a4:	02090003          	lb	zero,32(s2)
    11a8:	0100                	addi	s0,sp,128
    11aa:	3005                	.2byte	0x3005
    11ac:	0200                	addi	s0,sp,256
    11ae:	0304                	addi	s1,sp,384
    11b0:	02090003          	lb	zero,32(s2)
    11b4:	0100                	addi	s0,sp,128
    11b6:	0e05                	addi	t3,t3,1
    11b8:	0200                	addi	s0,sp,256
    11ba:	0304                	addi	s1,sp,384
    11bc:	08090003          	lb	zero,128(s2)
    11c0:	0100                	addi	s0,sp,128
    11c2:	1b05                	addi	s6,s6,-31
    11c4:	0200                	addi	s0,sp,256
    11c6:	0304                	addi	s1,sp,384
    11c8:	02090003          	lb	zero,32(s2)
    11cc:	0100                	addi	s0,sp,128
    11ce:	3005                	.2byte	0x3005
    11d0:	0200                	addi	s0,sp,256
    11d2:	0304                	addi	s1,sp,384
    11d4:	04090003          	lb	zero,64(s2)
    11d8:	0100                	addi	s0,sp,128
    11da:	1905                	addi	s2,s2,-31
    11dc:	0200                	addi	s0,sp,256
    11de:	0304                	addi	s1,sp,384
    11e0:	04097f03          	.4byte	0x4097f03
    11e4:	0100                	addi	s0,sp,128
    11e6:	1b05                	addi	s6,s6,-31
    11e8:	0200                	addi	s0,sp,256
    11ea:	0304                	addi	s1,sp,384
    11ec:	04090103          	lb	sp,64(s2)
    11f0:	0100                	addi	s0,sp,128
    11f2:	2405                	addiw	s0,s0,1
    11f4:	0200                	addi	s0,sp,256
    11f6:	0304                	addi	s1,sp,384
    11f8:	0306                	slli	t1,t1,0x1
    11fa:	097f                	.2byte	0x97f
    11fc:	0006                	c.slli	zero,0x1
    11fe:	0501                	addi	a0,a0,0
    1200:	0019                	c.nop	6
    1202:	0402                	c.slli64	s0
    1204:	09000303          	lb	t1,144(zero) # 90 <_prog_start-0x7fffff70>
    1208:	0000                	unimp
    120a:	0501                	addi	a0,a0,0
    120c:	0021                	c.nop	8
    120e:	0402                	c.slli64	s0
    1210:	0302                	c.slli64	t1
    1212:	097f                	.2byte	0x97f
    1214:	0004                	.2byte	0x4
    1216:	0501                	addi	a0,a0,0
    1218:	04020017          	auipc	zero,0x4020
    121c:	0302                	c.slli64	t1
    121e:	0900                	addi	s0,sp,144
    1220:	0002                	c.slli64	zero
    1222:	0501                	addi	a0,a0,0
    1224:	0021                	c.nop	8
    1226:	0402                	c.slli64	s0
    1228:	0302                	c.slli64	t1
    122a:	097f                	.2byte	0x97f
    122c:	0006                	c.slli	zero,0x1
    122e:	0501                	addi	a0,a0,0
    1230:	0015                	c.nop	5
    1232:	0402                	c.slli64	s0
    1234:	0302                	c.slli64	t1
    1236:	0900                	addi	s0,sp,144
    1238:	0002                	c.slli64	zero
    123a:	0501                	addi	a0,a0,0
    123c:	0601                	addi	a2,a2,0
    123e:	06090403          	lb	s0,96(s2)
    1242:	0100                	addi	s0,sp,128
    1244:	0e05                	addi	t3,t3,1
    1246:	0306                	slli	t1,t1,0x1
    1248:	0902                	c.slli64	s2
    124a:	000c                	.2byte	0xc
    124c:	0501                	addi	a0,a0,0
    124e:	09010303          	lb	t1,144(sp)
    1252:	0000                	unimp
    1254:	0501                	addi	a0,a0,0
    1256:	0308                	addi	a0,sp,384
    1258:	0900                	addi	s0,sp,144
    125a:	0000                	unimp
    125c:	0501                	addi	a0,a0,0
    125e:	060e                	slli	a2,a2,0x3
    1260:	00097f03          	.4byte	0x97f03
    1264:	0100                	addi	s0,sp,128
    1266:	08090003          	lb	zero,128(s2)
    126a:	0100                	addi	s0,sp,128
    126c:	1705                	addi	a4,a4,-31
    126e:	22090203          	lb	tp,544(s2)
    1272:	0100                	addi	s0,sp,128
    1274:	0505                	addi	a0,a0,1
    1276:	0306                	slli	t1,t1,0x1
    1278:	0900                	addi	s0,sp,144
    127a:	0004                	.2byte	0x4
    127c:	0501                	addi	a0,a0,0
    127e:	030a                	slli	t1,t1,0x2
    1280:	0900                	addi	s0,sp,144
    1282:	0000                	unimp
    1284:	0501                	addi	a0,a0,0
    1286:	09000317          	auipc	t1,0x9000
    128a:	0000                	unimp
    128c:	0501                	addi	a0,a0,0
    128e:	060e                	slli	a2,a2,0x3
    1290:	0c090003          	lb	zero,192(s2)
    1294:	0100                	addi	s0,sp,128
    1296:	1905                	addi	s2,s2,-31
    1298:	0306                	slli	t1,t1,0x1
    129a:	0901                	addi	s2,s2,0
    129c:	0002                	c.slli64	zero
    129e:	0501                	addi	a0,a0,0
    12a0:	0009                	c.nop	2
    12a2:	0402                	c.slli64	s0
    12a4:	09010303          	lb	t1,144(sp)
    12a8:	0008                	.2byte	0x8
    12aa:	0501                	addi	a0,a0,0
    12ac:	04020037          	lui	zero,0x4020
    12b0:	00030603          	lb	a2,0(t1) # 9001286 <_prog_start-0x76ffed7a>
    12b4:	0009                	c.nop	2
    12b6:	0100                	addi	s0,sp,128
    12b8:	2305                	addiw	t1,t1,1
    12ba:	0200                	addi	s0,sp,256
    12bc:	0304                	addi	s1,sp,384
    12be:	04090003          	lb	zero,64(s2)
    12c2:	0100                	addi	s0,sp,128
    12c4:	0e05                	addi	t3,t3,1
    12c6:	0200                	addi	s0,sp,256
    12c8:	0304                	addi	s1,sp,384
    12ca:	04090003          	lb	zero,64(s2)
    12ce:	0100                	addi	s0,sp,128
    12d0:	3705                	addiw	a4,a4,-31
    12d2:	0200                	addi	s0,sp,256
    12d4:	0304                	addi	s1,sp,384
    12d6:	04090003          	lb	zero,64(s2)
    12da:	0100                	addi	s0,sp,128
    12dc:	2305                	addiw	t1,t1,1
    12de:	0200                	addi	s0,sp,256
    12e0:	0304                	addi	s1,sp,384
    12e2:	02090003          	lb	zero,32(s2)
    12e6:	0100                	addi	s0,sp,128
    12e8:	3705                	addiw	a4,a4,-31
    12ea:	0200                	addi	s0,sp,256
    12ec:	0304                	addi	s1,sp,384
    12ee:	02090003          	lb	zero,32(s2)
    12f2:	0100                	addi	s0,sp,128
    12f4:	3005                	.2byte	0x3005
    12f6:	0200                	addi	s0,sp,256
    12f8:	0304                	addi	s1,sp,384
    12fa:	02090003          	lb	zero,32(s2)
    12fe:	0100                	addi	s0,sp,128
    1300:	0e05                	addi	t3,t3,1
    1302:	0200                	addi	s0,sp,256
    1304:	0304                	addi	s1,sp,384
    1306:	08090003          	lb	zero,128(s2)
    130a:	0100                	addi	s0,sp,128
    130c:	1b05                	addi	s6,s6,-31
    130e:	0200                	addi	s0,sp,256
    1310:	0304                	addi	s1,sp,384
    1312:	02090003          	lb	zero,32(s2)
    1316:	0100                	addi	s0,sp,128
    1318:	3005                	.2byte	0x3005
    131a:	0200                	addi	s0,sp,256
    131c:	0304                	addi	s1,sp,384
    131e:	04090003          	lb	zero,64(s2)
    1322:	0100                	addi	s0,sp,128
    1324:	1905                	addi	s2,s2,-31
    1326:	0200                	addi	s0,sp,256
    1328:	0304                	addi	s1,sp,384
    132a:	04097f03          	.4byte	0x4097f03
    132e:	0100                	addi	s0,sp,128
    1330:	1b05                	addi	s6,s6,-31
    1332:	0200                	addi	s0,sp,256
    1334:	0304                	addi	s1,sp,384
    1336:	04090103          	lb	sp,64(s2)
    133a:	0100                	addi	s0,sp,128
    133c:	2405                	addiw	s0,s0,1
    133e:	0200                	addi	s0,sp,256
    1340:	0304                	addi	s1,sp,384
    1342:	0306                	slli	t1,t1,0x1
    1344:	097f                	.2byte	0x97f
    1346:	0006                	c.slli	zero,0x1
    1348:	0501                	addi	a0,a0,0
    134a:	0019                	c.nop	6
    134c:	0402                	c.slli64	s0
    134e:	09000303          	lb	t1,144(zero) # 90 <_prog_start-0x7fffff70>
    1352:	0000                	unimp
    1354:	0501                	addi	a0,a0,0
    1356:	0021                	c.nop	8
    1358:	0402                	c.slli64	s0
    135a:	0302                	c.slli64	t1
    135c:	097f                	.2byte	0x97f
    135e:	0004                	.2byte	0x4
    1360:	0501                	addi	a0,a0,0
    1362:	04020017          	auipc	zero,0x4020
    1366:	0302                	c.slli64	t1
    1368:	0900                	addi	s0,sp,144
    136a:	0002                	c.slli64	zero
    136c:	0501                	addi	a0,a0,0
    136e:	0322                	slli	t1,t1,0x8
    1370:	097f                	.2byte	0x97f
    1372:	0006                	c.slli	zero,0x1
    1374:	0501                	addi	a0,a0,0
    1376:	09000303          	lb	t1,144(zero) # 90 <_prog_start-0x7fffff70>
    137a:	0000                	unimp
    137c:	0501                	addi	a0,a0,0
    137e:	0605                	addi	a2,a2,1
    1380:	02090103          	lb	sp,32(s2)
    1384:	0100                	addi	s0,sp,128
    1386:	0e05                	addi	t3,t3,1
    1388:	0306                	slli	t1,t1,0x1
    138a:	0904                	addi	s1,sp,144
    138c:	0002                	c.slli64	zero
    138e:	0501                	addi	a0,a0,0
    1390:	09010303          	lb	t1,144(sp)
    1394:	0000                	unimp
    1396:	0501                	addi	a0,a0,0
    1398:	0308                	addi	a0,sp,384
    139a:	0900                	addi	s0,sp,144
    139c:	0000                	unimp
    139e:	0501                	addi	a0,a0,0
    13a0:	031a                	slli	t1,t1,0x6
    13a2:	0900                	addi	s0,sp,144
    13a4:	0000                	unimp
    13a6:	0501                	addi	a0,a0,0
    13a8:	060e                	slli	a2,a2,0x3
    13aa:	00097f03          	.4byte	0x97f03
    13ae:	0100                	addi	s0,sp,128
    13b0:	02090203          	lb	tp,32(s2)
    13b4:	0100                	addi	s0,sp,128
    13b6:	02097e03          	.4byte	0x2097e03
    13ba:	0100                	addi	s0,sp,128
    13bc:	08090203          	lb	tp,128(s2)
    13c0:	0100                	addi	s0,sp,128
    13c2:	0c05                	addi	s8,s8,1
    13c4:	04097f03          	.4byte	0x4097f03
    13c8:	0100                	addi	s0,sp,128
    13ca:	1705                	addi	a4,a4,-31
    13cc:	24090103          	lb	sp,576(s2)
    13d0:	0100                	addi	s0,sp,128
    13d2:	1a05                	addi	s4,s4,-31
    13d4:	04097f03          	.4byte	0x4097f03
    13d8:	0100                	addi	s0,sp,128
    13da:	1705                	addi	a4,a4,-31
    13dc:	0306                	slli	t1,t1,0x1
    13de:	0901                	addi	s2,s2,0
    13e0:	0004                	.2byte	0x4
    13e2:	0501                	addi	a0,a0,0
    13e4:	060e                	slli	a2,a2,0x3
    13e6:	0c090003          	lb	zero,192(s2)
    13ea:	0100                	addi	s0,sp,128
    13ec:	1905                	addi	s2,s2,-31
    13ee:	0306                	slli	t1,t1,0x1
    13f0:	0901                	addi	s2,s2,0
    13f2:	0002                	c.slli64	zero
    13f4:	0501                	addi	a0,a0,0
    13f6:	0009                	c.nop	2
    13f8:	0402                	c.slli64	s0
    13fa:	09010303          	lb	t1,144(sp)
    13fe:	0008                	.2byte	0x8
    1400:	0501                	addi	a0,a0,0
    1402:	04020037          	lui	zero,0x4020
    1406:	00030603          	lb	a2,0(t1)
    140a:	0009                	c.nop	2
    140c:	0100                	addi	s0,sp,128
    140e:	2305                	addiw	t1,t1,1
    1410:	0200                	addi	s0,sp,256
    1412:	0304                	addi	s1,sp,384
    1414:	04090003          	lb	zero,64(s2)
    1418:	0100                	addi	s0,sp,128
    141a:	0e05                	addi	t3,t3,1
    141c:	0200                	addi	s0,sp,256
    141e:	0304                	addi	s1,sp,384
    1420:	04090003          	lb	zero,64(s2)
    1424:	0100                	addi	s0,sp,128
    1426:	3705                	addiw	a4,a4,-31
    1428:	0200                	addi	s0,sp,256
    142a:	0304                	addi	s1,sp,384
    142c:	04090003          	lb	zero,64(s2)
    1430:	0100                	addi	s0,sp,128
    1432:	2305                	addiw	t1,t1,1
    1434:	0200                	addi	s0,sp,256
    1436:	0304                	addi	s1,sp,384
    1438:	02090003          	lb	zero,32(s2)
    143c:	0100                	addi	s0,sp,128
    143e:	3705                	addiw	a4,a4,-31
    1440:	0200                	addi	s0,sp,256
    1442:	0304                	addi	s1,sp,384
    1444:	02090003          	lb	zero,32(s2)
    1448:	0100                	addi	s0,sp,128
    144a:	3005                	.2byte	0x3005
    144c:	0200                	addi	s0,sp,256
    144e:	0304                	addi	s1,sp,384
    1450:	02090003          	lb	zero,32(s2)
    1454:	0100                	addi	s0,sp,128
    1456:	0e05                	addi	t3,t3,1
    1458:	0200                	addi	s0,sp,256
    145a:	0304                	addi	s1,sp,384
    145c:	08090003          	lb	zero,128(s2)
    1460:	0100                	addi	s0,sp,128
    1462:	1b05                	addi	s6,s6,-31
    1464:	0200                	addi	s0,sp,256
    1466:	0304                	addi	s1,sp,384
    1468:	02090003          	lb	zero,32(s2)
    146c:	0100                	addi	s0,sp,128
    146e:	3005                	.2byte	0x3005
    1470:	0200                	addi	s0,sp,256
    1472:	0304                	addi	s1,sp,384
    1474:	04090003          	lb	zero,64(s2)
    1478:	0100                	addi	s0,sp,128
    147a:	1905                	addi	s2,s2,-31
    147c:	0200                	addi	s0,sp,256
    147e:	0304                	addi	s1,sp,384
    1480:	04097f03          	.4byte	0x4097f03
    1484:	0100                	addi	s0,sp,128
    1486:	1b05                	addi	s6,s6,-31
    1488:	0200                	addi	s0,sp,256
    148a:	0304                	addi	s1,sp,384
    148c:	04090103          	lb	sp,64(s2)
    1490:	0100                	addi	s0,sp,128
    1492:	2405                	addiw	s0,s0,1
    1494:	0200                	addi	s0,sp,256
    1496:	0304                	addi	s1,sp,384
    1498:	0306                	slli	t1,t1,0x1
    149a:	097f                	.2byte	0x97f
    149c:	0006                	c.slli	zero,0x1
    149e:	0501                	addi	a0,a0,0
    14a0:	0019                	c.nop	6
    14a2:	0402                	c.slli64	s0
    14a4:	09000303          	lb	t1,144(zero) # 90 <_prog_start-0x7fffff70>
    14a8:	0000                	unimp
    14aa:	0501                	addi	a0,a0,0
    14ac:	0021                	c.nop	8
    14ae:	0402                	c.slli64	s0
    14b0:	0302                	c.slli64	t1
    14b2:	097f                	.2byte	0x97f
    14b4:	0004                	.2byte	0x4
    14b6:	0501                	addi	a0,a0,0
    14b8:	04020017          	auipc	zero,0x4020
    14bc:	0302                	c.slli64	t1
    14be:	0900                	addi	s0,sp,144
    14c0:	0002                	c.slli64	zero
    14c2:	0501                	addi	a0,a0,0
    14c4:	0402002f          	.4byte	0x402002f
    14c8:	0302                	c.slli64	t1
    14ca:	097f                	.2byte	0x97f
    14cc:	0006                	c.slli	zero,0x1
    14ce:	0501                	addi	a0,a0,0
    14d0:	001a                	c.slli	zero,0x6
    14d2:	0402                	c.slli64	s0
    14d4:	0302                	c.slli64	t1
    14d6:	0900                	addi	s0,sp,144
    14d8:	0002                	c.slli64	zero
    14da:	0501                	addi	a0,a0,0
    14dc:	0601                	addi	a2,a2,0
    14de:	06090403          	lb	s0,96(s2)
    14e2:	0100                	addi	s0,sp,128
    14e4:	0e05                	addi	t3,t3,1
    14e6:	0306                	slli	t1,t1,0x1
    14e8:	0902                	c.slli64	s2
    14ea:	000c                	.2byte	0xc
    14ec:	0501                	addi	a0,a0,0
    14ee:	09010303          	lb	t1,144(sp)
    14f2:	0000                	unimp
    14f4:	0501                	addi	a0,a0,0
    14f6:	0308                	addi	a0,sp,384
    14f8:	0900                	addi	s0,sp,144
    14fa:	0000                	unimp
    14fc:	0501                	addi	a0,a0,0
    14fe:	09000323          	sb	a6,134(zero) # 86 <_prog_start-0x7fffff7a>
    1502:	0000                	unimp
    1504:	0501                	addi	a0,a0,0
    1506:	060e                	slli	a2,a2,0x3
    1508:	00097f03          	.4byte	0x97f03
    150c:	0100                	addi	s0,sp,128
    150e:	02090203          	lb	tp,32(s2)
    1512:	0100                	addi	s0,sp,128
    1514:	02097e03          	.4byte	0x2097e03
    1518:	0100                	addi	s0,sp,128
    151a:	06090203          	lb	tp,96(s2)
    151e:	0100                	addi	s0,sp,128
    1520:	0c05                	addi	s8,s8,1
    1522:	04097f03          	.4byte	0x4097f03
    1526:	0100                	addi	s0,sp,128
    1528:	1705                	addi	a4,a4,-31
    152a:	24090103          	lb	sp,576(s2)
    152e:	0100                	addi	s0,sp,128
    1530:	0306                	slli	t1,t1,0x1
    1532:	0900                	addi	s0,sp,144
    1534:	0004                	.2byte	0x4
    1536:	0501                	addi	a0,a0,0
    1538:	060e                	slli	a2,a2,0x3
    153a:	0c090003          	lb	zero,192(s2)
    153e:	0100                	addi	s0,sp,128
    1540:	1905                	addi	s2,s2,-31
    1542:	0306                	slli	t1,t1,0x1
    1544:	0901                	addi	s2,s2,0
    1546:	0002                	c.slli64	zero
    1548:	0501                	addi	a0,a0,0
    154a:	0009                	c.nop	2
    154c:	0402                	c.slli64	s0
    154e:	09010303          	lb	t1,144(sp)
    1552:	0008                	.2byte	0x8
    1554:	0501                	addi	a0,a0,0
    1556:	04020037          	lui	zero,0x4020
    155a:	00030603          	lb	a2,0(t1)
    155e:	0009                	c.nop	2
    1560:	0100                	addi	s0,sp,128
    1562:	2305                	addiw	t1,t1,1
    1564:	0200                	addi	s0,sp,256
    1566:	0304                	addi	s1,sp,384
    1568:	04090003          	lb	zero,64(s2)
    156c:	0100                	addi	s0,sp,128
    156e:	0e05                	addi	t3,t3,1
    1570:	0200                	addi	s0,sp,256
    1572:	0304                	addi	s1,sp,384
    1574:	04090003          	lb	zero,64(s2)
    1578:	0100                	addi	s0,sp,128
    157a:	3705                	addiw	a4,a4,-31
    157c:	0200                	addi	s0,sp,256
    157e:	0304                	addi	s1,sp,384
    1580:	04090003          	lb	zero,64(s2)
    1584:	0100                	addi	s0,sp,128
    1586:	2305                	addiw	t1,t1,1
    1588:	0200                	addi	s0,sp,256
    158a:	0304                	addi	s1,sp,384
    158c:	02090003          	lb	zero,32(s2)
    1590:	0100                	addi	s0,sp,128
    1592:	3705                	addiw	a4,a4,-31
    1594:	0200                	addi	s0,sp,256
    1596:	0304                	addi	s1,sp,384
    1598:	02090003          	lb	zero,32(s2)
    159c:	0100                	addi	s0,sp,128
    159e:	3005                	.2byte	0x3005
    15a0:	0200                	addi	s0,sp,256
    15a2:	0304                	addi	s1,sp,384
    15a4:	02090003          	lb	zero,32(s2)
    15a8:	0100                	addi	s0,sp,128
    15aa:	0e05                	addi	t3,t3,1
    15ac:	0200                	addi	s0,sp,256
    15ae:	0304                	addi	s1,sp,384
    15b0:	08090003          	lb	zero,128(s2)
    15b4:	0100                	addi	s0,sp,128
    15b6:	1b05                	addi	s6,s6,-31
    15b8:	0200                	addi	s0,sp,256
    15ba:	0304                	addi	s1,sp,384
    15bc:	02090003          	lb	zero,32(s2)
    15c0:	0100                	addi	s0,sp,128
    15c2:	3005                	.2byte	0x3005
    15c4:	0200                	addi	s0,sp,256
    15c6:	0304                	addi	s1,sp,384
    15c8:	04090003          	lb	zero,64(s2)
    15cc:	0100                	addi	s0,sp,128
    15ce:	1905                	addi	s2,s2,-31
    15d0:	0200                	addi	s0,sp,256
    15d2:	0304                	addi	s1,sp,384
    15d4:	04097f03          	.4byte	0x4097f03
    15d8:	0100                	addi	s0,sp,128
    15da:	1b05                	addi	s6,s6,-31
    15dc:	0200                	addi	s0,sp,256
    15de:	0304                	addi	s1,sp,384
    15e0:	04090103          	lb	sp,64(s2)
    15e4:	0100                	addi	s0,sp,128
    15e6:	2405                	addiw	s0,s0,1
    15e8:	0200                	addi	s0,sp,256
    15ea:	0304                	addi	s1,sp,384
    15ec:	0306                	slli	t1,t1,0x1
    15ee:	097f                	.2byte	0x97f
    15f0:	0006                	c.slli	zero,0x1
    15f2:	0501                	addi	a0,a0,0
    15f4:	0019                	c.nop	6
    15f6:	0402                	c.slli64	s0
    15f8:	09000303          	lb	t1,144(zero) # 90 <_prog_start-0x7fffff70>
    15fc:	0000                	unimp
    15fe:	0501                	addi	a0,a0,0
    1600:	0021                	c.nop	8
    1602:	0402                	c.slli64	s0
    1604:	0302                	c.slli64	t1
    1606:	097f                	.2byte	0x97f
    1608:	0004                	.2byte	0x4
    160a:	0501                	addi	a0,a0,0
    160c:	04020017          	auipc	zero,0x4020
    1610:	0302                	c.slli64	t1
    1612:	0900                	addi	s0,sp,144
    1614:	0002                	c.slli64	zero
    1616:	0501                	addi	a0,a0,0
    1618:	002d                	c.nop	11
    161a:	0402                	c.slli64	s0
    161c:	0302                	c.slli64	t1
    161e:	097f                	.2byte	0x97f
    1620:	0006                	c.slli	zero,0x1
    1622:	0501                	addi	a0,a0,0
    1624:	04020023          	sb	zero,64(tp) # 40 <_prog_start-0x7fffffc0>
    1628:	0302                	c.slli64	t1
    162a:	0900                	addi	s0,sp,144
    162c:	0002                	c.slli64	zero
    162e:	0501                	addi	a0,a0,0
    1630:	0601                	addi	a2,a2,0
    1632:	06090403          	lb	s0,96(s2)
    1636:	0100                	addi	s0,sp,128
    1638:	0a09                	addi	s4,s4,2
    163a:	0000                	unimp
    163c:	0101                	addi	sp,sp,0
    163e:	2005                	.2byte	0x2005
    1640:	0900                	addi	s0,sp,144
    1642:	a602                	fsd	ft0,264(sp)
    1644:	0009                	c.nop	2
    1646:	0080                	addi	s0,sp,64
    1648:	0000                	unimp
    164a:	0300                	addi	s0,sp,384
    164c:	0196                	slli	gp,gp,0x5
    164e:	0501                	addi	a0,a0,0
    1650:	09020303          	lb	t1,144(tp) # 90 <_prog_start-0x7fffff70>
    1654:	0000                	unimp
    1656:	0501                	addi	a0,a0,0
    1658:	0620                	addi	s0,sp,776
    165a:	00097e03          	.4byte	0x97e03
    165e:	0100                	addi	s0,sp,128
    1660:	1c090203          	lb	tp,448(s2)
    1664:	0100                	addi	s0,sp,128
    1666:	0305                	addi	t1,t1,1
    1668:	0306                	slli	t1,t1,0x1
    166a:	0901                	addi	s2,s2,0
    166c:	0008                	.2byte	0x8
    166e:	0301                	addi	t1,t1,0
    1670:	0901                	addi	s2,s2,0
    1672:	0000                	unimp
    1674:	0301                	addi	t1,t1,0
    1676:	0901                	addi	s2,s2,0
    1678:	0000                	unimp
    167a:	0301                	addi	t1,t1,0
    167c:	0901                	addi	s2,s2,0
    167e:	0000                	unimp
    1680:	0301                	addi	t1,t1,0
    1682:	0902                	c.slli64	s2
    1684:	0000                	unimp
    1686:	0301                	addi	t1,t1,0
    1688:	0901                	addi	s2,s2,0
    168a:	0000                	unimp
    168c:	0301                	addi	t1,t1,0
    168e:	0902                	c.slli64	s2
    1690:	0000                	unimp
    1692:	0301                	addi	t1,t1,0
    1694:	0902                	c.slli64	s2
    1696:	0010                	.2byte	0x10
    1698:	0501                	addi	a0,a0,0
    169a:	030d                	addi	t1,t1,3
    169c:	0900                	addi	s0,sp,144
    169e:	0000                	unimp
    16a0:	0301                	addi	t1,t1,0
    16a2:	0900                	addi	s0,sp,144
    16a4:	0000                	unimp
    16a6:	0301                	addi	t1,t1,0
    16a8:	0900                	addi	s0,sp,144
    16aa:	0004                	.2byte	0x4
    16ac:	0501                	addi	a0,a0,0
    16ae:	09010303          	lb	t1,144(sp)
    16b2:	0000                	unimp
    16b4:	0501                	addi	a0,a0,0
    16b6:	0311                	addi	t1,t1,4
    16b8:	0900                	addi	s0,sp,144
    16ba:	0000                	unimp
    16bc:	0301                	addi	t1,t1,0
    16be:	0900                	addi	s0,sp,144
    16c0:	0000                	unimp
    16c2:	0301                	addi	t1,t1,0
    16c4:	0900                	addi	s0,sp,144
    16c6:	0004                	.2byte	0x4
    16c8:	0501                	addi	a0,a0,0
    16ca:	09010303          	lb	t1,144(sp)
    16ce:	0000                	unimp
    16d0:	0501                	addi	a0,a0,0
    16d2:	0308                	addi	a0,sp,384
    16d4:	0900                	addi	s0,sp,144
    16d6:	0000                	unimp
    16d8:	0501                	addi	a0,a0,0
    16da:	0315                	addi	t1,t1,5
    16dc:	0900                	addi	s0,sp,144
    16de:	0000                	unimp
    16e0:	0501                	addi	a0,a0,0
    16e2:	0611                	addi	a2,a2,4
    16e4:	00097f03          	.4byte	0x97f03
    16e8:	0100                	addi	s0,sp,128
    16ea:	0c05                	addi	s8,s8,1
    16ec:	02090103          	lb	sp,32(s2)
    16f0:	0100                	addi	s0,sp,128
    16f2:	1705                	addi	a4,a4,-31
    16f4:	22090103          	lb	sp,544(s2)
    16f8:	0100                	addi	s0,sp,128
    16fa:	0306                	slli	t1,t1,0x1
    16fc:	0900                	addi	s0,sp,144
    16fe:	0004                	.2byte	0x4
    1700:	0501                	addi	a0,a0,0
    1702:	060e                	slli	a2,a2,0x3
    1704:	0c090003          	lb	zero,192(s2)
    1708:	0100                	addi	s0,sp,128
    170a:	1905                	addi	s2,s2,-31
    170c:	0306                	slli	t1,t1,0x1
    170e:	0901                	addi	s2,s2,0
    1710:	0002                	c.slli64	zero
    1712:	0501                	addi	a0,a0,0
    1714:	0009                	c.nop	2
    1716:	0402                	c.slli64	s0
    1718:	09010303          	lb	t1,144(sp)
    171c:	0008                	.2byte	0x8
    171e:	0501                	addi	a0,a0,0
    1720:	04020037          	lui	zero,0x4020
    1724:	00030603          	lb	a2,0(t1)
    1728:	0009                	c.nop	2
    172a:	0100                	addi	s0,sp,128
    172c:	2305                	addiw	t1,t1,1
    172e:	0200                	addi	s0,sp,256
    1730:	0304                	addi	s1,sp,384
    1732:	04090003          	lb	zero,64(s2)
    1736:	0100                	addi	s0,sp,128
    1738:	0e05                	addi	t3,t3,1
    173a:	0200                	addi	s0,sp,256
    173c:	0304                	addi	s1,sp,384
    173e:	04090003          	lb	zero,64(s2)
    1742:	0100                	addi	s0,sp,128
    1744:	3705                	addiw	a4,a4,-31
    1746:	0200                	addi	s0,sp,256
    1748:	0304                	addi	s1,sp,384
    174a:	02090003          	lb	zero,32(s2)
    174e:	0100                	addi	s0,sp,128
    1750:	2305                	addiw	t1,t1,1
    1752:	0200                	addi	s0,sp,256
    1754:	0304                	addi	s1,sp,384
    1756:	02090003          	lb	zero,32(s2)
    175a:	0100                	addi	s0,sp,128
    175c:	3705                	addiw	a4,a4,-31
    175e:	0200                	addi	s0,sp,256
    1760:	0304                	addi	s1,sp,384
    1762:	02090003          	lb	zero,32(s2)
    1766:	0100                	addi	s0,sp,128
    1768:	3005                	.2byte	0x3005
    176a:	0200                	addi	s0,sp,256
    176c:	0304                	addi	s1,sp,384
    176e:	02090003          	lb	zero,32(s2)
    1772:	0100                	addi	s0,sp,128
    1774:	0e05                	addi	t3,t3,1
    1776:	0200                	addi	s0,sp,256
    1778:	0304                	addi	s1,sp,384
    177a:	08090003          	lb	zero,128(s2)
    177e:	0100                	addi	s0,sp,128
    1780:	1b05                	addi	s6,s6,-31
    1782:	0200                	addi	s0,sp,256
    1784:	0304                	addi	s1,sp,384
    1786:	02090003          	lb	zero,32(s2)
    178a:	0100                	addi	s0,sp,128
    178c:	3005                	.2byte	0x3005
    178e:	0200                	addi	s0,sp,256
    1790:	0304                	addi	s1,sp,384
    1792:	04090003          	lb	zero,64(s2)
    1796:	0100                	addi	s0,sp,128
    1798:	1905                	addi	s2,s2,-31
    179a:	0200                	addi	s0,sp,256
    179c:	0304                	addi	s1,sp,384
    179e:	04097f03          	.4byte	0x4097f03
    17a2:	0100                	addi	s0,sp,128
    17a4:	1b05                	addi	s6,s6,-31
    17a6:	0200                	addi	s0,sp,256
    17a8:	0304                	addi	s1,sp,384
    17aa:	04090103          	lb	sp,64(s2)
    17ae:	0100                	addi	s0,sp,128
    17b0:	2305                	addiw	t1,t1,1
    17b2:	0200                	addi	s0,sp,256
    17b4:	0304                	addi	s1,sp,384
    17b6:	0306                	slli	t1,t1,0x1
    17b8:	097f                	.2byte	0x97f
    17ba:	0006                	c.slli	zero,0x1
    17bc:	0501                	addi	a0,a0,0
    17be:	0019                	c.nop	6
    17c0:	0402                	c.slli64	s0
    17c2:	09000303          	lb	t1,144(zero) # 90 <_prog_start-0x7fffff70>
    17c6:	0000                	unimp
    17c8:	0501                	addi	a0,a0,0
    17ca:	0021                	c.nop	8
    17cc:	0402                	c.slli64	s0
    17ce:	0302                	c.slli64	t1
    17d0:	097f                	.2byte	0x97f
    17d2:	0004                	.2byte	0x4
    17d4:	0501                	addi	a0,a0,0
    17d6:	04020017          	auipc	zero,0x4020
    17da:	0302                	c.slli64	t1
    17dc:	0900                	addi	s0,sp,144
    17de:	0002                	c.slli64	zero
    17e0:	0501                	addi	a0,a0,0
    17e2:	001f 0402 0302      	.byte	0x1f, 0x00, 0x02, 0x04, 0x02, 0x03
    17e8:	097f                	.2byte	0x97f
    17ea:	0006                	c.slli	zero,0x1
    17ec:	0501                	addi	a0,a0,0
    17ee:	0015                	c.nop	5
    17f0:	0402                	c.slli64	s0
    17f2:	0302                	c.slli64	t1
    17f4:	0900                	addi	s0,sp,144
    17f6:	0002                	c.slli64	zero
    17f8:	0501                	addi	a0,a0,0
    17fa:	09040303          	lb	t1,144(s0)
    17fe:	0006                	c.slli	zero,0x1
    1800:	0501                	addi	a0,a0,0
    1802:	0900030b          	.4byte	0x900030b
    1806:	0000                	unimp
    1808:	0301                	addi	t1,t1,0
    180a:	0900                	addi	s0,sp,144
    180c:	0000                	unimp
    180e:	0301                	addi	t1,t1,0
    1810:	0900                	addi	s0,sp,144
    1812:	0004                	.2byte	0x4
    1814:	0501                	addi	a0,a0,0
    1816:	09010303          	lb	t1,144(sp)
    181a:	0000                	unimp
    181c:	0501                	addi	a0,a0,0
    181e:	0900030f          	.4byte	0x900030f
    1822:	0000                	unimp
    1824:	0301                	addi	t1,t1,0
    1826:	0900                	addi	s0,sp,144
    1828:	0000                	unimp
    182a:	0301                	addi	t1,t1,0
    182c:	0900                	addi	s0,sp,144
    182e:	0004                	.2byte	0x4
    1830:	0501                	addi	a0,a0,0
    1832:	09010303          	lb	t1,144(sp)
    1836:	0000                	unimp
    1838:	0301                	addi	t1,t1,0
    183a:	0901                	addi	s2,s2,0
    183c:	0000                	unimp
    183e:	0601                	addi	a2,a2,0
    1840:	00090203          	lb	tp,0(s2)
    1844:	0100                	addi	s0,sp,128
    1846:	0d05                	addi	s10,s10,1
    1848:	0c097e03          	.4byte	0xc097e03
    184c:	0100                	addi	s0,sp,128
    184e:	0305                	addi	t1,t1,1
    1850:	0306                	slli	t1,t1,0x1
    1852:	0902                	c.slli64	s2
    1854:	0004                	.2byte	0x4
    1856:	0301                	addi	t1,t1,0
    1858:	0901                	addi	s2,s2,0
    185a:	0004                	.2byte	0x4
    185c:	0301                	addi	t1,t1,0
    185e:	0901                	addi	s2,s2,0
    1860:	000e                	c.slli	zero,0x3
    1862:	0501                	addi	a0,a0,0
    1864:	0308                	addi	a0,sp,384
    1866:	0900                	addi	s0,sp,144
    1868:	0000                	unimp
    186a:	0501                	addi	a0,a0,0
    186c:	0315                	addi	t1,t1,5
    186e:	0900                	addi	s0,sp,144
    1870:	0000                	unimp
    1872:	0501                	addi	a0,a0,0
    1874:	7f030603          	lb	a2,2032(t1)
    1878:	0209                	addi	tp,tp,2 # 2 <_prog_start-0x7ffffffe>
    187a:	0100                	addi	s0,sp,128
    187c:	1505                	addi	a0,a0,-31
    187e:	0e090103          	lb	sp,224(s2)
    1882:	0100                	addi	s0,sp,128
    1884:	1705                	addi	a4,a4,-31
    1886:	0306                	slli	t1,t1,0x1
    1888:	0901                	addi	s2,s2,0
    188a:	0004                	.2byte	0x4
    188c:	0501                	addi	a0,a0,0
    188e:	060c                	addi	a1,sp,768
    1890:	00097403          	.4byte	0x97403
    1894:	0100                	addi	s0,sp,128
    1896:	0705                	addi	a4,a4,1
    1898:	0200                	addi	s0,sp,256
    189a:	0304                	addi	s1,sp,384
    189c:	0306                	slli	t1,t1,0x1
    189e:	090d                	addi	s2,s2,3
    18a0:	0002                	c.slli64	zero
    18a2:	0501                	addi	a0,a0,0
    18a4:	0011                	c.nop	4
    18a6:	0402                	c.slli64	s0
    18a8:	00030603          	lb	a2,0(t1)
    18ac:	0009                	c.nop	2
    18ae:	0100                	addi	s0,sp,128
    18b0:	0705                	addi	a4,a4,1
    18b2:	0200                	addi	s0,sp,256
    18b4:	0304                	addi	s1,sp,384
    18b6:	02090003          	lb	zero,32(s2)
    18ba:	0100                	addi	s0,sp,128
    18bc:	1105                	addi	sp,sp,-31
    18be:	0200                	addi	s0,sp,256
    18c0:	0304                	addi	s1,sp,384
    18c2:	02090003          	lb	zero,32(s2)
    18c6:	0100                	addi	s0,sp,128
    18c8:	1705                	addi	a4,a4,-31
    18ca:	0200                	addi	s0,sp,256
    18cc:	0304                	addi	s1,sp,384
    18ce:	06097f03          	.4byte	0x6097f03
    18d2:	0100                	addi	s0,sp,128
    18d4:	0a05                	addi	s4,s4,1
    18d6:	0200                	addi	s0,sp,256
    18d8:	0304                	addi	s1,sp,384
    18da:	02090103          	lb	sp,32(s2)
    18de:	0100                	addi	s0,sp,128
    18e0:	2105                	addiw	sp,sp,1
    18e2:	0200                	addi	s0,sp,256
    18e4:	0304                	addi	s1,sp,384
    18e6:	0306                	slli	t1,t1,0x1
    18e8:	097f                	.2byte	0x97f
    18ea:	0004                	.2byte	0x4
    18ec:	0501                	addi	a0,a0,0
    18ee:	04020017          	auipc	zero,0x4020
    18f2:	09000303          	lb	t1,144(zero) # 90 <_prog_start-0x7fffff70>
    18f6:	0000                	unimp
    18f8:	0501                	addi	a0,a0,0
    18fa:	001f 0402 0302      	.byte	0x1f, 0x00, 0x02, 0x04, 0x02, 0x03
    1900:	097f                	.2byte	0x97f
    1902:	0004                	.2byte	0x4
    1904:	0501                	addi	a0,a0,0
    1906:	0015                	c.nop	5
    1908:	0402                	c.slli64	s0
    190a:	0302                	c.slli64	t1
    190c:	0900                	addi	s0,sp,144
    190e:	0000                	unimp
    1910:	0501                	addi	a0,a0,0
    1912:	09050303          	lb	t1,144(a0)
    1916:	000c                	.2byte	0xc
    1918:	0501                	addi	a0,a0,0
    191a:	030d                	addi	t1,t1,3
    191c:	0900                	addi	s0,sp,144
    191e:	0000                	unimp
    1920:	0301                	addi	t1,t1,0
    1922:	0900                	addi	s0,sp,144
    1924:	0000                	unimp
    1926:	0301                	addi	t1,t1,0
    1928:	0900                	addi	s0,sp,144
    192a:	0004                	.2byte	0x4
    192c:	0501                	addi	a0,a0,0
    192e:	09010303          	lb	t1,144(sp)
    1932:	0000                	unimp
    1934:	0501                	addi	a0,a0,0
    1936:	061d                	addi	a2,a2,7
    1938:	00090003          	lb	zero,0(s2)
    193c:	0100                	addi	s0,sp,128
    193e:	0305                	addi	t1,t1,1
    1940:	0306                	slli	t1,t1,0x1
    1942:	0901                	addi	s2,s2,0
    1944:	0008                	.2byte	0x8
    1946:	0501                	addi	a0,a0,0
    1948:	061d                	addi	a2,a2,7
    194a:	00090003          	lb	zero,0(s2)
    194e:	0100                	addi	s0,sp,128
    1950:	0305                	addi	t1,t1,1
    1952:	0306                	slli	t1,t1,0x1
    1954:	0901                	addi	s2,s2,0
    1956:	0002                	c.slli64	zero
    1958:	0501                	addi	a0,a0,0
    195a:	061d                	addi	a2,a2,7
    195c:	00090003          	lb	zero,0(s2)
    1960:	0100                	addi	s0,sp,128
    1962:	0305                	addi	t1,t1,1
    1964:	0306                	slli	t1,t1,0x1
    1966:	0901                	addi	s2,s2,0
    1968:	0002                	c.slli64	zero
    196a:	0301                	addi	t1,t1,0
    196c:	0901                	addi	s2,s2,0
    196e:	0004                	.2byte	0x4
    1970:	0501                	addi	a0,a0,0
    1972:	0900030b          	.4byte	0x900030b
    1976:	0000                	unimp
    1978:	0301                	addi	t1,t1,0
    197a:	0900                	addi	s0,sp,144
    197c:	0000                	unimp
    197e:	0301                	addi	t1,t1,0
    1980:	0900                	addi	s0,sp,144
    1982:	0004                	.2byte	0x4
    1984:	0501                	addi	a0,a0,0
    1986:	09010303          	lb	t1,144(sp)
    198a:	0000                	unimp
    198c:	0301                	addi	t1,t1,0
    198e:	0901                	addi	s2,s2,0
    1990:	0000                	unimp
    1992:	0301                	addi	t1,t1,0
    1994:	0902                	c.slli64	s2
    1996:	000e                	c.slli	zero,0x3
    1998:	0301                	addi	t1,t1,0
    199a:	0902                	c.slli64	s2
    199c:	0010                	.2byte	0x10
    199e:	0501                	addi	a0,a0,0
    19a0:	030d                	addi	t1,t1,3
    19a2:	0900                	addi	s0,sp,144
    19a4:	0000                	unimp
    19a6:	0301                	addi	t1,t1,0
    19a8:	0900                	addi	s0,sp,144
    19aa:	0000                	unimp
    19ac:	0301                	addi	t1,t1,0
    19ae:	0900                	addi	s0,sp,144
    19b0:	0004                	.2byte	0x4
    19b2:	0501                	addi	a0,a0,0
    19b4:	09010303          	lb	t1,144(sp)
    19b8:	0000                	unimp
    19ba:	0501                	addi	a0,a0,0
    19bc:	0311                	addi	t1,t1,4
    19be:	0900                	addi	s0,sp,144
    19c0:	0000                	unimp
    19c2:	0301                	addi	t1,t1,0
    19c4:	0900                	addi	s0,sp,144
    19c6:	0000                	unimp
    19c8:	0301                	addi	t1,t1,0
    19ca:	0900                	addi	s0,sp,144
    19cc:	0004                	.2byte	0x4
    19ce:	0501                	addi	a0,a0,0
    19d0:	09010303          	lb	t1,144(sp)
    19d4:	0000                	unimp
    19d6:	0301                	addi	t1,t1,0
    19d8:	0901                	addi	s2,s2,0
    19da:	0004                	.2byte	0x4
    19dc:	0301                	addi	t1,t1,0
    19de:	0901                	addi	s2,s2,0
    19e0:	0004                	.2byte	0x4
    19e2:	0301                	addi	t1,t1,0
    19e4:	0901                	addi	s2,s2,0
    19e6:	0004                	.2byte	0x4
    19e8:	0301                	addi	t1,t1,0
    19ea:	0901                	addi	s2,s2,0
    19ec:	0004                	.2byte	0x4
    19ee:	0301                	addi	t1,t1,0
    19f0:	00097efb          	.4byte	0x97efb
    19f4:	0100                	addi	s0,sp,128
    19f6:	0805                	addi	a6,a6,1
    19f8:	00090003          	lb	zero,0(s2)
    19fc:	0100                	addi	s0,sp,128
    19fe:	1505                	addi	a0,a0,-31
    1a00:	00090003          	lb	zero,0(s2)
    1a04:	0100                	addi	s0,sp,128
    1a06:	0305                	addi	t1,t1,1
    1a08:	0306                	slli	t1,t1,0x1
    1a0a:	0184                	addi	s1,sp,192
    1a0c:	1809                	addi	a6,a6,-30
    1a0e:	0100                	addi	s0,sp,128
    1a10:	1505                	addi	a0,a0,-31
    1a12:	097efc03          	.4byte	0x97efc03
    1a16:	0002                	c.slli64	zero
    1a18:	0501                	addi	a0,a0,0
    1a1a:	0609                	addi	a2,a2,2
    1a1c:	04090103          	lb	sp,64(s2)
    1a20:	0100                	addi	s0,sp,128
    1a22:	1205                	addi	tp,tp,-31 # ffffffffffffffe1 <a+0xffffffff7ffff029>
    1a24:	0306                	slli	t1,t1,0x1
    1a26:	0900                	addi	s0,sp,144
    1a28:	0000                	unimp
    1a2a:	0501                	addi	a0,a0,0
    1a2c:	031a                	slli	t1,t1,0x6
    1a2e:	0900                	addi	s0,sp,144
    1a30:	0004                	.2byte	0x4
    1a32:	0501                	addi	a0,a0,0
    1a34:	030e                	slli	t1,t1,0x3
    1a36:	0900                	addi	s0,sp,144
    1a38:	0004                	.2byte	0x4
    1a3a:	0501                	addi	a0,a0,0
    1a3c:	0312                	slli	t1,t1,0x4
    1a3e:	0900                	addi	s0,sp,144
    1a40:	0002                	c.slli64	zero
    1a42:	0501                	addi	a0,a0,0
    1a44:	031a                	slli	t1,t1,0x6
    1a46:	0900                	addi	s0,sp,144
    1a48:	0002                	c.slli64	zero
    1a4a:	0501                	addi	a0,a0,0
    1a4c:	0316                	slli	t1,t1,0x5
    1a4e:	0900                	addi	s0,sp,144
    1a50:	0002                	c.slli64	zero
    1a52:	0501                	addi	a0,a0,0
    1a54:	030e                	slli	t1,t1,0x3
    1a56:	0900                	addi	s0,sp,144
    1a58:	0008                	.2byte	0x8
    1a5a:	0501                	addi	a0,a0,0
    1a5c:	0315                	addi	t1,t1,5
    1a5e:	097f                	.2byte	0x97f
    1a60:	0002                	c.slli64	zero
    1a62:	0501                	addi	a0,a0,0
    1a64:	0316                	slli	t1,t1,0x5
    1a66:	0901                	addi	s2,s2,0
    1a68:	0002                	c.slli64	zero
    1a6a:	0501                	addi	a0,a0,0
    1a6c:	030e                	slli	t1,t1,0x3
    1a6e:	0900                	addi	s0,sp,144
    1a70:	0002                	c.slli64	zero
    1a72:	0501                	addi	a0,a0,0
    1a74:	0620                	addi	s0,sp,776
    1a76:	04097f03          	.4byte	0x4097f03
    1a7a:	0100                	addi	s0,sp,128
    1a7c:	1505                	addi	a0,a0,-31
    1a7e:	00090003          	lb	zero,0(s2)
    1a82:	0100                	addi	s0,sp,128
    1a84:	0306                	slli	t1,t1,0x1
    1a86:	0905                	addi	s2,s2,1
    1a88:	001e                	c.slli	zero,0x7
    1a8a:	0501                	addi	a0,a0,0
    1a8c:	0609                	addi	a2,a2,2
    1a8e:	04090103          	lb	sp,64(s2)
    1a92:	0100                	addi	s0,sp,128
    1a94:	1205                	addi	tp,tp,-31 # ffffffffffffffe1 <a+0xffffffff7ffff029>
    1a96:	0306                	slli	t1,t1,0x1
    1a98:	0900                	addi	s0,sp,144
    1a9a:	0000                	unimp
    1a9c:	0501                	addi	a0,a0,0
    1a9e:	031a                	slli	t1,t1,0x6
    1aa0:	0900                	addi	s0,sp,144
    1aa2:	0004                	.2byte	0x4
    1aa4:	0501                	addi	a0,a0,0
    1aa6:	030e                	slli	t1,t1,0x3
    1aa8:	0900                	addi	s0,sp,144
    1aaa:	0002                	c.slli64	zero
    1aac:	0501                	addi	a0,a0,0
    1aae:	0312                	slli	t1,t1,0x4
    1ab0:	0900                	addi	s0,sp,144
    1ab2:	0002                	c.slli64	zero
    1ab4:	0501                	addi	a0,a0,0
    1ab6:	031a                	slli	t1,t1,0x6
    1ab8:	0900                	addi	s0,sp,144
    1aba:	0002                	c.slli64	zero
    1abc:	0501                	addi	a0,a0,0
    1abe:	0316                	slli	t1,t1,0x5
    1ac0:	0900                	addi	s0,sp,144
    1ac2:	0002                	c.slli64	zero
    1ac4:	0501                	addi	a0,a0,0
    1ac6:	030e                	slli	t1,t1,0x3
    1ac8:	0900                	addi	s0,sp,144
    1aca:	0008                	.2byte	0x8
    1acc:	0501                	addi	a0,a0,0
    1ace:	0315                	addi	t1,t1,5
    1ad0:	097f                	.2byte	0x97f
    1ad2:	0002                	c.slli64	zero
    1ad4:	0501                	addi	a0,a0,0
    1ad6:	0316                	slli	t1,t1,0x5
    1ad8:	0901                	addi	s2,s2,0
    1ada:	0002                	c.slli64	zero
    1adc:	0501                	addi	a0,a0,0
    1ade:	030e                	slli	t1,t1,0x3
    1ae0:	0900                	addi	s0,sp,144
    1ae2:	0002                	c.slli64	zero
    1ae4:	0501                	addi	a0,a0,0
    1ae6:	0620                	addi	s0,sp,776
    1ae8:	04097f03          	.4byte	0x4097f03
    1aec:	0100                	addi	s0,sp,128
    1aee:	1505                	addi	a0,a0,-31
    1af0:	00090003          	lb	zero,0(s2)
    1af4:	0100                	addi	s0,sp,128
    1af6:	0305                	addi	t1,t1,1
    1af8:	09018203          	lb	tp,144(gp)
    1afc:	0004                	.2byte	0x4
    1afe:	0301                	addi	t1,t1,0
    1b00:	0901                	addi	s2,s2,0
    1b02:	0004                	.2byte	0x4
    1b04:	0301                	addi	t1,t1,0
    1b06:	0901                	addi	s2,s2,0
    1b08:	0004                	.2byte	0x4
    1b0a:	0301                	addi	t1,t1,0
    1b0c:	0901                	addi	s2,s2,0
    1b0e:	0004                	.2byte	0x4
    1b10:	0301                	addi	t1,t1,0
    1b12:	0901                	addi	s2,s2,0
    1b14:	0004                	.2byte	0x4
    1b16:	0501                	addi	a0,a0,0
    1b18:	0315                	addi	t1,t1,5
    1b1a:	7fa5                	lui	t6,0xfffe9
    1b1c:	0009                	c.nop	2
    1b1e:	0100                	addi	s0,sp,128
    1b20:	0305                	addi	t1,t1,1
    1b22:	0306                	slli	t1,t1,0x1
    1b24:	00da                	slli	ra,ra,0x16
    1b26:	0809                	addi	a6,a6,2
    1b28:	0100                	addi	s0,sp,128
    1b2a:	1505                	addi	a0,a0,-31
    1b2c:	097fa603          	lw	a2,151(t6) # fffffffffffe9097 <a+0xffffffff7ffe80df>
    1b30:	0002                	c.slli64	zero
    1b32:	0501                	addi	a0,a0,0
    1b34:	0609                	addi	a2,a2,2
    1b36:	04090103          	lb	sp,64(s2)
    1b3a:	0100                	addi	s0,sp,128
    1b3c:	1205                	addi	tp,tp,-31 # ffffffffffffffe1 <a+0xffffffff7ffff029>
    1b3e:	0306                	slli	t1,t1,0x1
    1b40:	0900                	addi	s0,sp,144
    1b42:	0000                	unimp
    1b44:	0501                	addi	a0,a0,0
    1b46:	031a                	slli	t1,t1,0x6
    1b48:	0900                	addi	s0,sp,144
    1b4a:	0004                	.2byte	0x4
    1b4c:	0501                	addi	a0,a0,0
    1b4e:	030e                	slli	t1,t1,0x3
    1b50:	0900                	addi	s0,sp,144
    1b52:	0004                	.2byte	0x4
    1b54:	0501                	addi	a0,a0,0
    1b56:	0312                	slli	t1,t1,0x4
    1b58:	0900                	addi	s0,sp,144
    1b5a:	0004                	.2byte	0x4
    1b5c:	0501                	addi	a0,a0,0
    1b5e:	031a                	slli	t1,t1,0x6
    1b60:	0900                	addi	s0,sp,144
    1b62:	0002                	c.slli64	zero
    1b64:	0501                	addi	a0,a0,0
    1b66:	0316                	slli	t1,t1,0x5
    1b68:	0900                	addi	s0,sp,144
    1b6a:	0002                	c.slli64	zero
    1b6c:	0501                	addi	a0,a0,0
    1b6e:	030e                	slli	t1,t1,0x3
    1b70:	0900                	addi	s0,sp,144
    1b72:	0008                	.2byte	0x8
    1b74:	0501                	addi	a0,a0,0
    1b76:	0315                	addi	t1,t1,5
    1b78:	097f                	.2byte	0x97f
    1b7a:	0002                	c.slli64	zero
    1b7c:	0501                	addi	a0,a0,0
    1b7e:	0316                	slli	t1,t1,0x5
    1b80:	0901                	addi	s2,s2,0
    1b82:	0002                	c.slli64	zero
    1b84:	0501                	addi	a0,a0,0
    1b86:	030e                	slli	t1,t1,0x3
    1b88:	0900                	addi	s0,sp,144
    1b8a:	0002                	c.slli64	zero
    1b8c:	0501                	addi	a0,a0,0
    1b8e:	0620                	addi	s0,sp,776
    1b90:	04097f03          	.4byte	0x4097f03
    1b94:	0100                	addi	s0,sp,128
    1b96:	1505                	addi	a0,a0,-31
    1b98:	00090003          	lb	zero,0(s2)
    1b9c:	0100                	addi	s0,sp,128
    1b9e:	0306                	slli	t1,t1,0x1
    1ba0:	0905                	addi	s2,s2,1
    1ba2:	000e                	c.slli	zero,0x3
    1ba4:	0501                	addi	a0,a0,0
    1ba6:	0609                	addi	a2,a2,2
    1ba8:	04090103          	lb	sp,64(s2)
    1bac:	0100                	addi	s0,sp,128
    1bae:	1205                	addi	tp,tp,-31 # ffffffffffffffe1 <a+0xffffffff7ffff029>
    1bb0:	0306                	slli	t1,t1,0x1
    1bb2:	0900                	addi	s0,sp,144
    1bb4:	0000                	unimp
    1bb6:	0501                	addi	a0,a0,0
    1bb8:	031a                	slli	t1,t1,0x6
    1bba:	0900                	addi	s0,sp,144
    1bbc:	0004                	.2byte	0x4
    1bbe:	0501                	addi	a0,a0,0
    1bc0:	030e                	slli	t1,t1,0x3
    1bc2:	0900                	addi	s0,sp,144
    1bc4:	0002                	c.slli64	zero
    1bc6:	0501                	addi	a0,a0,0
    1bc8:	0312                	slli	t1,t1,0x4
    1bca:	0900                	addi	s0,sp,144
    1bcc:	0002                	c.slli64	zero
    1bce:	0501                	addi	a0,a0,0
    1bd0:	031a                	slli	t1,t1,0x6
    1bd2:	0900                	addi	s0,sp,144
    1bd4:	0002                	c.slli64	zero
    1bd6:	0501                	addi	a0,a0,0
    1bd8:	0316                	slli	t1,t1,0x5
    1bda:	0900                	addi	s0,sp,144
    1bdc:	0002                	c.slli64	zero
    1bde:	0501                	addi	a0,a0,0
    1be0:	030e                	slli	t1,t1,0x3
    1be2:	0900                	addi	s0,sp,144
    1be4:	0008                	.2byte	0x8
    1be6:	0501                	addi	a0,a0,0
    1be8:	0315                	addi	t1,t1,5
    1bea:	097f                	.2byte	0x97f
    1bec:	0002                	c.slli64	zero
    1bee:	0501                	addi	a0,a0,0
    1bf0:	0316                	slli	t1,t1,0x5
    1bf2:	0901                	addi	s2,s2,0
    1bf4:	0002                	c.slli64	zero
    1bf6:	0501                	addi	a0,a0,0
    1bf8:	030e                	slli	t1,t1,0x3
    1bfa:	0900                	addi	s0,sp,144
    1bfc:	0002                	c.slli64	zero
    1bfe:	0501                	addi	a0,a0,0
    1c00:	0620                	addi	s0,sp,776
    1c02:	04097f03          	.4byte	0x4097f03
    1c06:	0100                	addi	s0,sp,128
    1c08:	1505                	addi	a0,a0,-31
    1c0a:	00090003          	lb	zero,0(s2)
    1c0e:	0100                	addi	s0,sp,128
    1c10:	0305                	addi	t1,t1,1
    1c12:	0900d803          	lhu	a6,144(ra)
    1c16:	0004                	.2byte	0x4
    1c18:	0501                	addi	a0,a0,0
    1c1a:	0900030b          	.4byte	0x900030b
    1c1e:	0000                	unimp
    1c20:	0301                	addi	t1,t1,0
    1c22:	0900                	addi	s0,sp,144
    1c24:	0000                	unimp
    1c26:	0301                	addi	t1,t1,0
    1c28:	0900                	addi	s0,sp,144
    1c2a:	0004                	.2byte	0x4
    1c2c:	0501                	addi	a0,a0,0
    1c2e:	09010303          	lb	t1,144(sp)
    1c32:	0000                	unimp
    1c34:	0501                	addi	a0,a0,0
    1c36:	0900030f          	.4byte	0x900030f
    1c3a:	0000                	unimp
    1c3c:	0301                	addi	t1,t1,0
    1c3e:	0900                	addi	s0,sp,144
    1c40:	0000                	unimp
    1c42:	0301                	addi	t1,t1,0
    1c44:	0900                	addi	s0,sp,144
    1c46:	0004                	.2byte	0x4
    1c48:	0501                	addi	a0,a0,0
    1c4a:	09010303          	lb	t1,144(sp)
    1c4e:	0000                	unimp
    1c50:	0301                	addi	t1,t1,0
    1c52:	0901                	addi	s2,s2,0
    1c54:	0000                	unimp
    1c56:	0601                	addi	a2,a2,0
    1c58:	00090103          	lb	sp,0(s2)
    1c5c:	0100                	addi	s0,sp,128
    1c5e:	0d05                	addi	s10,s10,1
    1c60:	10097f03          	.4byte	0x10097f03
    1c64:	0100                	addi	s0,sp,128
    1c66:	0305                	addi	t1,t1,1
    1c68:	0306                	slli	t1,t1,0x1
    1c6a:	0901                	addi	s2,s2,0
    1c6c:	0004                	.2byte	0x4
    1c6e:	0301                	addi	t1,t1,0
    1c70:	0901                	addi	s2,s2,0
    1c72:	0000                	unimp
    1c74:	0501                	addi	a0,a0,0
    1c76:	0305                	addi	t1,t1,1
    1c78:	000e0903          	lb	s2,0(t3)
    1c7c:	0501                	addi	a0,a0,0
    1c7e:	0900030f          	.4byte	0x900030f
    1c82:	0000                	unimp
    1c84:	0301                	addi	t1,t1,0
    1c86:	0900                	addi	s0,sp,144
    1c88:	0000                	unimp
    1c8a:	0301                	addi	t1,t1,0
    1c8c:	0900                	addi	s0,sp,144
    1c8e:	0004                	.2byte	0x4
    1c90:	0501                	addi	a0,a0,0
    1c92:	0305                	addi	t1,t1,1
    1c94:	0901                	addi	s2,s2,0
    1c96:	0000                	unimp
    1c98:	0301                	addi	t1,t1,0
    1c9a:	0902                	c.slli64	s2
    1c9c:	0000                	unimp
    1c9e:	0501                	addi	a0,a0,0
    1ca0:	061f 0003 0009      	.byte	0x1f, 0x06, 0x03, 0x00, 0x09, 0x00
    1ca6:	0100                	addi	s0,sp,128
    1ca8:	0505                	addi	a0,a0,1
    1caa:	0306                	slli	t1,t1,0x1
    1cac:	0901                	addi	s2,s2,0
    1cae:	000a                	c.slli	zero,0x2
    1cb0:	0501                	addi	a0,a0,0
    1cb2:	061f 0003 0009      	.byte	0x1f, 0x06, 0x03, 0x00, 0x09, 0x00
    1cb8:	0100                	addi	s0,sp,128
    1cba:	0505                	addi	a0,a0,1
    1cbc:	0306                	slli	t1,t1,0x1
    1cbe:	0901                	addi	s2,s2,0
    1cc0:	0004                	.2byte	0x4
    1cc2:	0501                	addi	a0,a0,0
    1cc4:	061f 0003 0009      	.byte	0x1f, 0x06, 0x03, 0x00, 0x09, 0x00
    1cca:	0100                	addi	s0,sp,128
    1ccc:	0505                	addi	a0,a0,1
    1cce:	0306                	slli	t1,t1,0x1
    1cd0:	0901                	addi	s2,s2,0
    1cd2:	0004                	.2byte	0x4
    1cd4:	0301                	addi	t1,t1,0
    1cd6:	0901                	addi	s2,s2,0
    1cd8:	0004                	.2byte	0x4
    1cda:	0501                	addi	a0,a0,0
    1cdc:	030e                	slli	t1,t1,0x3
    1cde:	0900                	addi	s0,sp,144
    1ce0:	0000                	unimp
    1ce2:	0301                	addi	t1,t1,0
    1ce4:	0900                	addi	s0,sp,144
    1ce6:	0000                	unimp
    1ce8:	0301                	addi	t1,t1,0
    1cea:	0900                	addi	s0,sp,144
    1cec:	0004                	.2byte	0x4
    1cee:	0501                	addi	a0,a0,0
    1cf0:	0305                	addi	t1,t1,1
    1cf2:	00000903          	lb	s2,0(zero) # 0 <_prog_start-0x80000000>
    1cf6:	0501                	addi	a0,a0,0
    1cf8:	0310                	addi	a2,sp,384
    1cfa:	0900                	addi	s0,sp,144
    1cfc:	0000                	unimp
    1cfe:	0301                	addi	t1,t1,0
    1d00:	0900                	addi	s0,sp,144
    1d02:	0000                	unimp
    1d04:	0301                	addi	t1,t1,0
    1d06:	0900                	addi	s0,sp,144
    1d08:	0004                	.2byte	0x4
    1d0a:	0501                	addi	a0,a0,0
    1d0c:	0305                	addi	t1,t1,1
    1d0e:	0901                	addi	s2,s2,0
    1d10:	0000                	unimp
    1d12:	0501                	addi	a0,a0,0
    1d14:	061f 0003 0009      	.byte	0x1f, 0x06, 0x03, 0x00, 0x09, 0x00
    1d1a:	0100                	addi	s0,sp,128
    1d1c:	0505                	addi	a0,a0,1
    1d1e:	0306                	slli	t1,t1,0x1
    1d20:	0901                	addi	s2,s2,0
    1d22:	0006                	c.slli	zero,0x1
    1d24:	0501                	addi	a0,a0,0
    1d26:	0315                	addi	t1,t1,5
    1d28:	7edf 0009 0100      	.byte	0xdf, 0x7e, 0x09, 0x00, 0x00, 0x01
    1d2e:	0905                	addi	s2,s2,1
    1d30:	04090103          	lb	sp,64(s2)
    1d34:	0100                	addi	s0,sp,128
    1d36:	1205                	addi	tp,tp,-31 # ffffffffffffffe1 <a+0xffffffff7ffff029>
    1d38:	0306                	slli	t1,t1,0x1
    1d3a:	0900                	addi	s0,sp,144
    1d3c:	0000                	unimp
    1d3e:	0501                	addi	a0,a0,0
    1d40:	031a                	slli	t1,t1,0x6
    1d42:	0900                	addi	s0,sp,144
    1d44:	0004                	.2byte	0x4
    1d46:	0501                	addi	a0,a0,0
    1d48:	030e                	slli	t1,t1,0x3
    1d4a:	0900                	addi	s0,sp,144
    1d4c:	0004                	.2byte	0x4
    1d4e:	0501                	addi	a0,a0,0
    1d50:	0312                	slli	t1,t1,0x4
    1d52:	0900                	addi	s0,sp,144
    1d54:	0002                	c.slli64	zero
    1d56:	0501                	addi	a0,a0,0
    1d58:	031a                	slli	t1,t1,0x6
    1d5a:	0900                	addi	s0,sp,144
    1d5c:	0002                	c.slli64	zero
    1d5e:	0501                	addi	a0,a0,0
    1d60:	0316                	slli	t1,t1,0x5
    1d62:	0900                	addi	s0,sp,144
    1d64:	0002                	c.slli64	zero
    1d66:	0501                	addi	a0,a0,0
    1d68:	030e                	slli	t1,t1,0x3
    1d6a:	0900                	addi	s0,sp,144
    1d6c:	0008                	.2byte	0x8
    1d6e:	0501                	addi	a0,a0,0
    1d70:	0315                	addi	t1,t1,5
    1d72:	097f                	.2byte	0x97f
    1d74:	0002                	c.slli64	zero
    1d76:	0501                	addi	a0,a0,0
    1d78:	0316                	slli	t1,t1,0x5
    1d7a:	0901                	addi	s2,s2,0
    1d7c:	0002                	c.slli64	zero
    1d7e:	0501                	addi	a0,a0,0
    1d80:	030e                	slli	t1,t1,0x3
    1d82:	0900                	addi	s0,sp,144
    1d84:	0002                	c.slli64	zero
    1d86:	0501                	addi	a0,a0,0
    1d88:	0620                	addi	s0,sp,776
    1d8a:	04097f03          	.4byte	0x4097f03
    1d8e:	0100                	addi	s0,sp,128
    1d90:	1505                	addi	a0,a0,-31
    1d92:	00090003          	lb	zero,0(s2)
    1d96:	0100                	addi	s0,sp,128
    1d98:	0505                	addi	a0,a0,1
    1d9a:	0901a203          	lw	tp,144(gp)
    1d9e:	0004                	.2byte	0x4
    1da0:	0501                	addi	a0,a0,0
    1da2:	030e                	slli	t1,t1,0x3
    1da4:	0900                	addi	s0,sp,144
    1da6:	0000                	unimp
    1da8:	0301                	addi	t1,t1,0
    1daa:	0900                	addi	s0,sp,144
    1dac:	0000                	unimp
    1dae:	0301                	addi	t1,t1,0
    1db0:	0900                	addi	s0,sp,144
    1db2:	0004                	.2byte	0x4
    1db4:	0501                	addi	a0,a0,0
    1db6:	0305                	addi	t1,t1,1
    1db8:	00000903          	lb	s2,0(zero) # 0 <_prog_start-0x80000000>
    1dbc:	0501                	addi	a0,a0,0
    1dbe:	0310                	addi	a2,sp,384
    1dc0:	0900                	addi	s0,sp,144
    1dc2:	0000                	unimp
    1dc4:	0301                	addi	t1,t1,0
    1dc6:	0900                	addi	s0,sp,144
    1dc8:	0000                	unimp
    1dca:	0301                	addi	t1,t1,0
    1dcc:	0900                	addi	s0,sp,144
    1dce:	0004                	.2byte	0x4
    1dd0:	0501                	addi	a0,a0,0
    1dd2:	0305                	addi	t1,t1,1
    1dd4:	0901                	addi	s2,s2,0
    1dd6:	0000                	unimp
    1dd8:	0501                	addi	a0,a0,0
    1dda:	061f 0003 0009      	.byte	0x1f, 0x06, 0x03, 0x00, 0x09, 0x00
    1de0:	0100                	addi	s0,sp,128
    1de2:	0505                	addi	a0,a0,1
    1de4:	0306                	slli	t1,t1,0x1
    1de6:	0901                	addi	s2,s2,0
    1de8:	0008                	.2byte	0x8
    1dea:	0501                	addi	a0,a0,0
    1dec:	061f 0003 0009      	.byte	0x1f, 0x06, 0x03, 0x00, 0x09, 0x00
    1df2:	0100                	addi	s0,sp,128
    1df4:	0505                	addi	a0,a0,1
    1df6:	0306                	slli	t1,t1,0x1
    1df8:	0901                	addi	s2,s2,0
    1dfa:	0002                	c.slli64	zero
    1dfc:	0501                	addi	a0,a0,0
    1dfe:	061f 0003 0009      	.byte	0x1f, 0x06, 0x03, 0x00, 0x09, 0x00
    1e04:	0100                	addi	s0,sp,128
    1e06:	0505                	addi	a0,a0,1
    1e08:	0306                	slli	t1,t1,0x1
    1e0a:	0901                	addi	s2,s2,0
    1e0c:	0002                	c.slli64	zero
    1e0e:	0301                	addi	t1,t1,0
    1e10:	0901                	addi	s2,s2,0
    1e12:	0004                	.2byte	0x4
    1e14:	0501                	addi	a0,a0,0
    1e16:	030e                	slli	t1,t1,0x3
    1e18:	0900                	addi	s0,sp,144
    1e1a:	0000                	unimp
    1e1c:	0301                	addi	t1,t1,0
    1e1e:	0900                	addi	s0,sp,144
    1e20:	0000                	unimp
    1e22:	0301                	addi	t1,t1,0
    1e24:	0900                	addi	s0,sp,144
    1e26:	0004                	.2byte	0x4
    1e28:	0501                	addi	a0,a0,0
    1e2a:	0305                	addi	t1,t1,1
    1e2c:	00000903          	lb	s2,0(zero) # 0 <_prog_start-0x80000000>
    1e30:	0501                	addi	a0,a0,0
    1e32:	0310                	addi	a2,sp,384
    1e34:	0900                	addi	s0,sp,144
    1e36:	0000                	unimp
    1e38:	0301                	addi	t1,t1,0
    1e3a:	0900                	addi	s0,sp,144
    1e3c:	0000                	unimp
    1e3e:	0301                	addi	t1,t1,0
    1e40:	0900                	addi	s0,sp,144
    1e42:	0004                	.2byte	0x4
    1e44:	0501                	addi	a0,a0,0
    1e46:	0305                	addi	t1,t1,1
    1e48:	0901                	addi	s2,s2,0
    1e4a:	0000                	unimp
    1e4c:	0501                	addi	a0,a0,0
    1e4e:	061f 0003 0009      	.byte	0x1f, 0x06, 0x03, 0x00, 0x09, 0x00
    1e54:	0100                	addi	s0,sp,128
    1e56:	0505                	addi	a0,a0,1
    1e58:	0306                	slli	t1,t1,0x1
    1e5a:	0901                	addi	s2,s2,0
    1e5c:	0004                	.2byte	0x4
    1e5e:	0501                	addi	a0,a0,0
    1e60:	0315                	addi	t1,t1,5
    1e62:	7f81                	lui	t6,0xfffe0
    1e64:	0009                	c.nop	2
    1e66:	0100                	addi	s0,sp,128
    1e68:	0905                	addi	s2,s2,1
    1e6a:	04090103          	lb	sp,64(s2)
    1e6e:	0100                	addi	s0,sp,128
    1e70:	1205                	addi	tp,tp,-31 # ffffffffffffffe1 <a+0xffffffff7ffff029>
    1e72:	0306                	slli	t1,t1,0x1
    1e74:	0900                	addi	s0,sp,144
    1e76:	0000                	unimp
    1e78:	0501                	addi	a0,a0,0
    1e7a:	031a                	slli	t1,t1,0x6
    1e7c:	0900                	addi	s0,sp,144
    1e7e:	0004                	.2byte	0x4
    1e80:	0501                	addi	a0,a0,0
    1e82:	030e                	slli	t1,t1,0x3
    1e84:	0900                	addi	s0,sp,144
    1e86:	0004                	.2byte	0x4
    1e88:	0501                	addi	a0,a0,0
    1e8a:	0312                	slli	t1,t1,0x4
    1e8c:	0900                	addi	s0,sp,144
    1e8e:	0004                	.2byte	0x4
    1e90:	0501                	addi	a0,a0,0
    1e92:	031a                	slli	t1,t1,0x6
    1e94:	0900                	addi	s0,sp,144
    1e96:	0002                	c.slli64	zero
    1e98:	0501                	addi	a0,a0,0
    1e9a:	0316                	slli	t1,t1,0x5
    1e9c:	0900                	addi	s0,sp,144
    1e9e:	0002                	c.slli64	zero
    1ea0:	0501                	addi	a0,a0,0
    1ea2:	030e                	slli	t1,t1,0x3
    1ea4:	0900                	addi	s0,sp,144
    1ea6:	0008                	.2byte	0x8
    1ea8:	0501                	addi	a0,a0,0
    1eaa:	0315                	addi	t1,t1,5
    1eac:	097f                	.2byte	0x97f
    1eae:	0002                	c.slli64	zero
    1eb0:	0501                	addi	a0,a0,0
    1eb2:	0316                	slli	t1,t1,0x5
    1eb4:	0901                	addi	s2,s2,0
    1eb6:	0002                	c.slli64	zero
    1eb8:	0501                	addi	a0,a0,0
    1eba:	030e                	slli	t1,t1,0x3
    1ebc:	0900                	addi	s0,sp,144
    1ebe:	0002                	c.slli64	zero
    1ec0:	0501                	addi	a0,a0,0
    1ec2:	0620                	addi	s0,sp,776
    1ec4:	04097f03          	.4byte	0x4097f03
    1ec8:	0100                	addi	s0,sp,128
    1eca:	1505                	addi	a0,a0,-31
    1ecc:	00090003          	lb	zero,0(s2)
    1ed0:	0100                	addi	s0,sp,128
    1ed2:	0505                	addi	a0,a0,1
    1ed4:	09018003          	lb	zero,144(gp)
    1ed8:	0004                	.2byte	0x4
    1eda:	0501                	addi	a0,a0,0
    1edc:	030e                	slli	t1,t1,0x3
    1ede:	0900                	addi	s0,sp,144
    1ee0:	0000                	unimp
    1ee2:	0301                	addi	t1,t1,0
    1ee4:	0900                	addi	s0,sp,144
    1ee6:	0000                	unimp
    1ee8:	0301                	addi	t1,t1,0
    1eea:	0900                	addi	s0,sp,144
    1eec:	0004                	.2byte	0x4
    1eee:	0501                	addi	a0,a0,0
    1ef0:	0305                	addi	t1,t1,1
    1ef2:	0901                	addi	s2,s2,0
    1ef4:	0000                	unimp
    1ef6:	0501                	addi	a0,a0,0
    1ef8:	030d                	addi	t1,t1,3
    1efa:	0900                	addi	s0,sp,144
    1efc:	0000                	unimp
    1efe:	0301                	addi	t1,t1,0
    1f00:	0900                	addi	s0,sp,144
    1f02:	0000                	unimp
    1f04:	0301                	addi	t1,t1,0
    1f06:	0900                	addi	s0,sp,144
    1f08:	0004                	.2byte	0x4
    1f0a:	0501                	addi	a0,a0,0
    1f0c:	0305                	addi	t1,t1,1
    1f0e:	0901                	addi	s2,s2,0
    1f10:	0000                	unimp
    1f12:	0301                	addi	t1,t1,0
    1f14:	0902                	c.slli64	s2
    1f16:	0000                	unimp
    1f18:	0301                	addi	t1,t1,0
    1f1a:	0901                	addi	s2,s2,0
    1f1c:	0010                	.2byte	0x10
    1f1e:	0301                	addi	t1,t1,0
    1f20:	0901                	addi	s2,s2,0
    1f22:	0010                	.2byte	0x10
    1f24:	0301                	addi	t1,t1,0
    1f26:	0901                	addi	s2,s2,0
    1f28:	0010                	.2byte	0x10
    1f2a:	0301                	addi	t1,t1,0
    1f2c:	0901                	addi	s2,s2,0
    1f2e:	0010                	.2byte	0x10
    1f30:	0501                	addi	a0,a0,0
    1f32:	09020303          	lb	t1,144(tp) # 90 <_prog_start-0x7fffff70>
    1f36:	0010                	.2byte	0x10
    1f38:	0501                	addi	a0,a0,0
    1f3a:	0601                	addi	a2,a2,0
    1f3c:	00090103          	lb	sp,0(s2)
    1f40:	0100                	addi	s0,sp,128
    1f42:	2009                	.2byte	0x2009
    1f44:	0000                	unimp
    1f46:	0101                	addi	sp,sp,0
    1f48:	000006f3          	.4byte	0x6f3
    1f4c:	0005                	c.nop	1
    1f4e:	0008                	.2byte	0x8
    1f50:	004a                	c.slli	zero,0x12
    1f52:	0000                	unimp
    1f54:	0101                	addi	sp,sp,0
    1f56:	fb01                	bnez	a4,1e66 <_prog_start-0x7fffe19a>
    1f58:	0d0e                	slli	s10,s10,0x3
    1f5a:	0100                	addi	s0,sp,128
    1f5c:	0101                	addi	sp,sp,0
    1f5e:	0001                	nop
    1f60:	0000                	unimp
    1f62:	0001                	nop
    1f64:	0100                	addi	s0,sp,128
    1f66:	0101                	addi	sp,sp,0
    1f68:	041f 0000 0000      	.byte	0x1f, 0x04, 0x00, 0x00, 0x00, 0x00
    1f6e:	0000013f 0000004e 	.8byte	0x4e0000013f
    1f76:	00b1                	addi	ra,ra,12
    1f78:	0000                	unimp
    1f7a:	0102                	c.slli64	sp
    1f7c:	021f 060f 0135      	.byte	0x1f, 0x02, 0x0f, 0x06, 0x35, 0x01
    1f82:	0000                	unimp
    1f84:	3500                	fld	fs0,40(a0)
    1f86:	0001                	nop
    1f88:	0000                	unimp
    1f8a:	0000012b          	.4byte	0x12b
    1f8e:	a900                	fsd	fs0,16(a0)
    1f90:	0001                	nop
    1f92:	0100                	addi	s0,sp,128
    1f94:	0110                	addi	a2,sp,128
    1f96:	0000                	unimp
    1f98:	2102                	fld	ft2,0(sp)
    1f9a:	0001                	nop
    1f9c:	0300                	addi	s0,sp,384
    1f9e:	0105                	addi	sp,sp,1
    1fa0:	0900                	addi	s0,sp,144
    1fa2:	4402                	lw	s0,0(sp)
    1fa4:	000d                	c.nop	3
    1fa6:	0080                	addi	s0,sp,64
    1fa8:	0000                	unimp
    1faa:	0300                	addi	s0,sp,384
    1fac:	0205010f          	.4byte	0x205010f
    1fb0:	00090103          	lb	sp,0(s2)
    1fb4:	0100                	addi	s0,sp,128
    1fb6:	00097903          	.4byte	0x97903
    1fba:	0100                	addi	s0,sp,128
    1fbc:	00090103          	lb	sp,0(s2)
    1fc0:	0100                	addi	s0,sp,128
    1fc2:	1205                	addi	tp,tp,-31 # ffffffffffffffe1 <a+0xffffffff7ffff029>
    1fc4:	00090003          	lb	zero,0(s2)
    1fc8:	0100                	addi	s0,sp,128
    1fca:	0c05                	addi	s8,s8,1
    1fcc:	0306                	slli	t1,t1,0x1
    1fce:	0900                	addi	s0,sp,144
    1fd0:	0000                	unimp
    1fd2:	0501                	addi	a0,a0,0
    1fd4:	0312                	slli	t1,t1,0x4
    1fd6:	0900                	addi	s0,sp,144
    1fd8:	0004                	.2byte	0x4
    1fda:	0401                	addi	s0,s0,0
    1fdc:	0502                	c.slli64	a0
    1fde:	09100303          	lb	t1,145(zero) # 91 <_prog_start-0x7fffff6f>
    1fe2:	0002                	c.slli64	zero
    1fe4:	0501                	addi	a0,a0,0
    1fe6:	0602                	c.slli64	a2
    1fe8:	04097e03          	.4byte	0x4097e03
    1fec:	0100                	addi	s0,sp,128
    1fee:	00090103          	lb	sp,0(s2)
    1ff2:	0100                	addi	s0,sp,128
    1ff4:	0305                	addi	t1,t1,1
    1ff6:	00090103          	lb	sp,0(s2)
    1ffa:	0100                	addi	s0,sp,128
    1ffc:	0d05                	addi	s10,s10,1
    1ffe:	06090403          	lb	s0,96(s2)
    2002:	0100                	addi	s0,sp,128
    2004:	0104                	addi	s1,sp,128
    2006:	1c05                	addi	s8,s8,-31
    2008:	04096c03          	lwu	s8,64(s2)
    200c:	0100                	addi	s0,sp,128
    200e:	0c05                	addi	s8,s8,1
    2010:	0306                	slli	t1,t1,0x1
    2012:	0900                	addi	s0,sp,144
    2014:	0000                	unimp
    2016:	0501                	addi	a0,a0,0
    2018:	031c                	addi	a5,sp,384
    201a:	0900                	addi	s0,sp,144
    201c:	0004                	.2byte	0x4
    201e:	0501                	addi	a0,a0,0
    2020:	0612                	slli	a2,a2,0x4
    2022:	02090003          	lb	zero,32(s2)
    2026:	0100                	addi	s0,sp,128
    2028:	0204                	addi	s1,sp,256
    202a:	0305                	addi	t1,t1,1
    202c:	0306                	slli	t1,t1,0x1
    202e:	0910                	addi	a2,sp,144
    2030:	0002                	c.slli64	zero
    2032:	0501                	addi	a0,a0,0
    2034:	0602                	c.slli64	a2
    2036:	06097e03          	.4byte	0x6097e03
    203a:	0100                	addi	s0,sp,128
    203c:	00090103          	lb	sp,0(s2)
    2040:	0100                	addi	s0,sp,128
    2042:	0305                	addi	t1,t1,1
    2044:	00090103          	lb	sp,0(s2)
    2048:	0100                	addi	s0,sp,128
    204a:	0d05                	addi	s10,s10,1
    204c:	06090403          	lb	s0,96(s2)
    2050:	0100                	addi	s0,sp,128
    2052:	0305                	addi	t1,t1,1
    2054:	0306                	slli	t1,t1,0x1
    2056:	097c                	addi	a5,sp,156
    2058:	0004                	.2byte	0x4
    205a:	0501                	addi	a0,a0,0
    205c:	0602                	c.slli64	a2
    205e:	06097e03          	.4byte	0x6097e03
    2062:	0100                	addi	s0,sp,128
    2064:	00090103          	lb	sp,0(s2)
    2068:	0100                	addi	s0,sp,128
    206a:	0305                	addi	t1,t1,1
    206c:	00090103          	lb	sp,0(s2)
    2070:	0100                	addi	s0,sp,128
    2072:	0d05                	addi	s10,s10,1
    2074:	06090403          	lb	s0,96(s2)
    2078:	0100                	addi	s0,sp,128
    207a:	0104                	addi	s1,sp,128
    207c:	0105                	addi	sp,sp,1
    207e:	0306                	slli	t1,t1,0x1
    2080:	0975                	addi	s2,s2,29
    2082:	0004                	.2byte	0x4
    2084:	0601                	addi	a2,a2,0
    2086:	02090303          	lb	t1,32(s2)
    208a:	0100                	addi	s0,sp,128
    208c:	0205                	addi	tp,tp,1 # 1 <_prog_start-0x7fffffff>
    208e:	00090103          	lb	sp,0(s2)
    2092:	0100                	addi	s0,sp,128
    2094:	00090103          	lb	sp,0(s2)
    2098:	0100                	addi	s0,sp,128
    209a:	00090103          	lb	sp,0(s2)
    209e:	0100                	addi	s0,sp,128
    20a0:	00090203          	lb	tp,0(s2)
    20a4:	0100                	addi	s0,sp,128
    20a6:	0105                	addi	sp,sp,1
    20a8:	0306                	slli	t1,t1,0x1
    20aa:	0000097b          	.4byte	0x97b
    20ae:	0501                	addi	a0,a0,0
    20b0:	030c                	addi	a1,sp,384
    20b2:	0909                	addi	s2,s2,2
    20b4:	0002                	c.slli64	zero
    20b6:	0501                	addi	a0,a0,0
    20b8:	0301                	addi	t1,t1,0
    20ba:	00040977          	.4byte	0x40977
    20be:	0501                	addi	a0,a0,0
    20c0:	0302                	c.slli64	t1
    20c2:	0905                	addi	s2,s2,1
    20c4:	0002                	c.slli64	zero
    20c6:	0501                	addi	a0,a0,0
    20c8:	0301                	addi	t1,t1,0
    20ca:	0002097b          	.4byte	0x2097b
    20ce:	0501                	addi	a0,a0,0
    20d0:	0302                	c.slli64	t1
    20d2:	0905                	addi	s2,s2,1
    20d4:	000c                	.2byte	0xc
    20d6:	0601                	addi	a2,a2,0
    20d8:	02090103          	lb	sp,32(s2)
    20dc:	0100                	addi	s0,sp,128
    20de:	00090103          	lb	sp,0(s2)
    20e2:	0100                	addi	s0,sp,128
    20e4:	00090103          	lb	sp,0(s2)
    20e8:	0100                	addi	s0,sp,128
    20ea:	00090103          	lb	sp,0(s2)
    20ee:	0100                	addi	s0,sp,128
    20f0:	1605                	addi	a2,a2,-31
    20f2:	00090003          	lb	zero,0(s2)
    20f6:	0100                	addi	s0,sp,128
    20f8:	0d05                	addi	s10,s10,1
    20fa:	0306                	slli	t1,t1,0x1
    20fc:	0931                	addi	s2,s2,12
    20fe:	000a                	c.slli	zero,0x2
    2100:	0401                	addi	s0,s0,0
    2102:	0502                	c.slli64	a0
    2104:	094a0303          	lb	t1,148(s4)
    2108:	0004                	.2byte	0x4
    210a:	0401                	addi	s0,s0,0
    210c:	0501                	addi	a0,a0,0
    210e:	0304                	addi	s1,sp,384
    2110:	00040907          	.4byte	0x40907
    2114:	0501                	addi	a0,a0,0
    2116:	7f030603          	lb	a2,2032(t1)
    211a:	0a09                	addi	s4,s4,2
    211c:	0100                	addi	s0,sp,128
    211e:	0605                	addi	a2,a2,1
    2120:	0306                	slli	t1,t1,0x1
    2122:	0900                	addi	s0,sp,144
    2124:	0000                	unimp
    2126:	0501                	addi	a0,a0,0
    2128:	0604                	addi	s1,sp,768
    212a:	02090103          	lb	sp,32(s2)
    212e:	0100                	addi	s0,sp,128
    2130:	0505                	addi	a0,a0,1
    2132:	18092903          	lw	s2,384(s2)
    2136:	0100                	addi	s0,sp,128
    2138:	0b05                	addi	s6,s6,1
    213a:	0306                	slli	t1,t1,0x1
    213c:	0900                	addi	s0,sp,144
    213e:	0000                	unimp
    2140:	0401                	addi	s0,s0,0
    2142:	0502                	c.slli64	a0
    2144:	09500303          	lb	t1,149(zero) # 95 <_prog_start-0x7fffff6b>
    2148:	0002                	c.slli64	zero
    214a:	0401                	addi	s0,s0,0
    214c:	0501                	addi	a0,a0,0
    214e:	0305                	addi	t1,t1,1
    2150:	0930                	addi	a2,sp,152
    2152:	0004                	.2byte	0x4
    2154:	0401                	addi	s0,s0,0
    2156:	0502                	c.slli64	a0
    2158:	0602                	c.slli64	a2
    215a:	04094c03          	lbu	s8,64(s2)
    215e:	0100                	addi	s0,sp,128
    2160:	0104                	addi	s1,sp,128
    2162:	0b05                	addi	s6,s6,1
    2164:	0306                	slli	t1,t1,0x1
    2166:	0934                	addi	a3,sp,152
    2168:	0000                	unimp
    216a:	0401                	addi	s0,s0,0
    216c:	0502                	c.slli64	a0
    216e:	0602                	c.slli64	a2
    2170:	04094e03          	lbu	t3,64(s2)
    2174:	0100                	addi	s0,sp,128
    2176:	00090103          	lb	sp,0(s2)
    217a:	0100                	addi	s0,sp,128
    217c:	0305                	addi	t1,t1,1
    217e:	00090103          	lb	sp,0(s2)
    2182:	0100                	addi	s0,sp,128
    2184:	0d05                	addi	s10,s10,1
    2186:	06090403          	lb	s0,96(s2)
    218a:	0100                	addi	s0,sp,128
    218c:	0104                	addi	s1,sp,128
    218e:	0c05                	addi	s8,s8,1
    2190:	0306                	slli	t1,t1,0x1
    2192:	0931                	addi	s2,s2,12
    2194:	0004                	.2byte	0x4
    2196:	0501                	addi	a0,a0,0
    2198:	030e                	slli	t1,t1,0x3
    219a:	097e                	slli	s2,s2,0x1f
    219c:	0002                	c.slli64	zero
    219e:	0501                	addi	a0,a0,0
    21a0:	0616                	slli	a2,a2,0x5
    21a2:	02095203          	lhu	tp,32(s2)
    21a6:	0100                	addi	s0,sp,128
    21a8:	0c05                	addi	s8,s8,1
    21aa:	0306                	slli	t1,t1,0x1
    21ac:	0900                	addi	s0,sp,144
    21ae:	0000                	unimp
    21b0:	0501                	addi	a0,a0,0
    21b2:	0312                	slli	t1,t1,0x4
    21b4:	0900                	addi	s0,sp,144
    21b6:	0004                	.2byte	0x4
    21b8:	0501                	addi	a0,a0,0
    21ba:	0316                	slli	t1,t1,0x5
    21bc:	0900                	addi	s0,sp,144
    21be:	0002                	c.slli64	zero
    21c0:	0501                	addi	a0,a0,0
    21c2:	0301                	addi	t1,t1,0
    21c4:	0938                	addi	a4,sp,152
    21c6:	0004                	.2byte	0x4
    21c8:	0501                	addi	a0,a0,0
    21ca:	0605                	addi	a2,a2,1
    21cc:	04095f03          	lhu	t5,64(s2)
    21d0:	0100                	addi	s0,sp,128
    21d2:	00090103          	lb	sp,0(s2)
    21d6:	0100                	addi	s0,sp,128
    21d8:	00090103          	lb	sp,0(s2)
    21dc:	0100                	addi	s0,sp,128
    21de:	0605                	addi	a2,a2,1
    21e0:	00090403          	lb	s0,0(s2)
    21e4:	0100                	addi	s0,sp,128
    21e6:	0a05                	addi	s4,s4,1
    21e8:	0306                	slli	t1,t1,0x1
    21ea:	0900                	addi	s0,sp,144
    21ec:	0000                	unimp
    21ee:	0501                	addi	a0,a0,0
    21f0:	0316                	slli	t1,t1,0x5
    21f2:	0901                	addi	s2,s2,0
    21f4:	0002                	c.slli64	zero
    21f6:	0501                	addi	a0,a0,0
    21f8:	030a                	slli	t1,t1,0x2
    21fa:	097f                	.2byte	0x97f
    21fc:	0002                	c.slli64	zero
    21fe:	0501                	addi	a0,a0,0
    2200:	0308                	addi	a0,sp,384
    2202:	0900                	addi	s0,sp,144
    2204:	0006                	c.slli	zero,0x1
    2206:	0501                	addi	a0,a0,0
    2208:	0606                	slli	a2,a2,0x1
    220a:	04090103          	lb	sp,64(s2)
    220e:	0100                	addi	s0,sp,128
    2210:	1605                	addi	a2,a2,-31
    2212:	0306                	slli	t1,t1,0x1
    2214:	0900                	addi	s0,sp,144
    2216:	0000                	unimp
    2218:	0501                	addi	a0,a0,0
    221a:	0306                	slli	t1,t1,0x1
    221c:	0905                	addi	s2,s2,1
    221e:	0002                	c.slli64	zero
    2220:	0401                	addi	s0,s0,0
    2222:	0502                	c.slli64	a0
    2224:	09580303          	lb	t1,149(a6)
    2228:	0002                	c.slli64	zero
    222a:	0401                	addi	s0,s0,0
    222c:	0501                	addi	a0,a0,0
    222e:	030e                	slli	t1,t1,0x3
    2230:	0925                	addi	s2,s2,9
    2232:	0004                	.2byte	0x4
    2234:	0501                	addi	a0,a0,0
    2236:	0606                	slli	a2,a2,0x1
    2238:	02090103          	lb	sp,32(s2)
    223c:	0100                	addi	s0,sp,128
    223e:	00090103          	lb	sp,0(s2)
    2242:	0100                	addi	s0,sp,128
    2244:	0d05                	addi	s10,s10,1
    2246:	0306                	slli	t1,t1,0x1
    2248:	0900                	addi	s0,sp,144
    224a:	0000                	unimp
    224c:	0501                	addi	a0,a0,0
    224e:	0319                	addi	t1,t1,6
    2250:	0901                	addi	s2,s2,0
    2252:	0004                	.2byte	0x4
    2254:	0501                	addi	a0,a0,0
    2256:	0606                	slli	a2,a2,0x1
    2258:	04090003          	lb	zero,64(s2)
    225c:	0100                	addi	s0,sp,128
    225e:	0200                	addi	s0,sp,256
    2260:	0104                	addi	s1,sp,128
    2262:	0306                	slli	t1,t1,0x1
    2264:	0900                	addi	s0,sp,144
    2266:	0008                	.2byte	0x8
    2268:	0401                	addi	s0,s0,0
    226a:	0502                	c.slli64	a0
    226c:	0602                	c.slli64	a2
    226e:	04095603          	lhu	a2,64(s2)
    2272:	0100                	addi	s0,sp,128
    2274:	00090103          	lb	sp,0(s2)
    2278:	0100                	addi	s0,sp,128
    227a:	0305                	addi	t1,t1,1
    227c:	00090103          	lb	sp,0(s2)
    2280:	0100                	addi	s0,sp,128
    2282:	0d05                	addi	s10,s10,1
    2284:	06090403          	lb	s0,96(s2)
    2288:	0100                	addi	s0,sp,128
    228a:	0104                	addi	s1,sp,128
    228c:	1605                	addi	a2,a2,-31
    228e:	0200                	addi	s0,sp,256
    2290:	0404                	addi	s1,sp,512
    2292:	04092103          	lw	sp,64(s2)
    2296:	0100                	addi	s0,sp,128
    2298:	0e05                	addi	t3,t3,1
    229a:	0200                	addi	s0,sp,256
    229c:	0404                	addi	s1,sp,512
    229e:	02090003          	lb	zero,32(s2)
    22a2:	0100                	addi	s0,sp,128
    22a4:	0505                	addi	a0,a0,1
    22a6:	06090803          	lb	a6,96(s2)
    22aa:	0100                	addi	s0,sp,128
    22ac:	0205                	addi	tp,tp,1 # 1 <_prog_start-0x7fffffff>
    22ae:	04094203          	lbu	tp,64(s2)
    22b2:	0100                	addi	s0,sp,128
    22b4:	00090103          	lb	sp,0(s2)
    22b8:	0100                	addi	s0,sp,128
    22ba:	1205                	addi	tp,tp,-31 # ffffffffffffffe1 <a+0xffffffff7ffff029>
    22bc:	00090003          	lb	zero,0(s2)
    22c0:	0100                	addi	s0,sp,128
    22c2:	0505                	addi	a0,a0,1
    22c4:	0306                	slli	t1,t1,0x1
    22c6:	093d                	addi	s2,s2,15
    22c8:	0000                	unimp
    22ca:	0501                	addi	a0,a0,0
    22cc:	030c                	addi	a1,sp,384
    22ce:	00040943          	fmadd.s	fs2,fs0,ft0,ft0,rne
    22d2:	0501                	addi	a0,a0,0
    22d4:	0312                	slli	t1,t1,0x4
    22d6:	0900                	addi	s0,sp,144
    22d8:	0004                	.2byte	0x4
    22da:	0401                	addi	s0,s0,0
    22dc:	0502                	c.slli64	a0
    22de:	09100303          	lb	t1,145(zero) # 91 <_prog_start-0x7fffff6f>
    22e2:	0002                	c.slli64	zero
    22e4:	0501                	addi	a0,a0,0
    22e6:	0602                	c.slli64	a2
    22e8:	04097e03          	.4byte	0x4097e03
    22ec:	0100                	addi	s0,sp,128
    22ee:	00090103          	lb	sp,0(s2)
    22f2:	0100                	addi	s0,sp,128
    22f4:	0305                	addi	t1,t1,1
    22f6:	00090103          	lb	sp,0(s2)
    22fa:	0100                	addi	s0,sp,128
    22fc:	0d05                	addi	s10,s10,1
    22fe:	06090403          	lb	s0,96(s2)
    2302:	0100                	addi	s0,sp,128
    2304:	0104                	addi	s1,sp,128
    2306:	1c05                	addi	s8,s8,-31
    2308:	04096c03          	lwu	s8,64(s2)
    230c:	0100                	addi	s0,sp,128
    230e:	0c05                	addi	s8,s8,1
    2310:	0306                	slli	t1,t1,0x1
    2312:	0900                	addi	s0,sp,144
    2314:	0000                	unimp
    2316:	0501                	addi	a0,a0,0
    2318:	031c                	addi	a5,sp,384
    231a:	0900                	addi	s0,sp,144
    231c:	0004                	.2byte	0x4
    231e:	0501                	addi	a0,a0,0
    2320:	0612                	slli	a2,a2,0x4
    2322:	02090003          	lb	zero,32(s2)
    2326:	0100                	addi	s0,sp,128
    2328:	0505                	addi	a0,a0,1
    232a:	04091903          	lh	s2,64(s2)
    232e:	0100                	addi	s0,sp,128
    2330:	00090103          	lb	sp,0(s2)
    2334:	0100                	addi	s0,sp,128
    2336:	0705                	addi	a4,a4,1
    2338:	0306                	slli	t1,t1,0x1
    233a:	0900                	addi	s0,sp,144
    233c:	0000                	unimp
    233e:	0501                	addi	a0,a0,0
    2340:	0328                	addi	a0,sp,392
    2342:	0902                	c.slli64	s2
    2344:	0002                	c.slli64	zero
    2346:	0501                	addi	a0,a0,0
    2348:	097e0307          	.4byte	0x97e0307
    234c:	0004                	.2byte	0x4
    234e:	0501                	addi	a0,a0,0
    2350:	0605                	addi	a2,a2,1
    2352:	04090103          	lb	sp,64(s2)
    2356:	0100                	addi	s0,sp,128
    2358:	00090103          	lb	sp,0(s2)
    235c:	0100                	addi	s0,sp,128
    235e:	0a05                	addi	s4,s4,1
    2360:	00090003          	lb	zero,0(s2)
    2364:	0100                	addi	s0,sp,128
    2366:	1705                	addi	a4,a4,-31
    2368:	00090003          	lb	zero,0(s2)
    236c:	0100                	addi	s0,sp,128
    236e:	2305                	addiw	t1,t1,1
    2370:	00090003          	lb	zero,0(s2)
    2374:	0100                	addi	s0,sp,128
    2376:	1f05                	addi	t5,t5,-31
    2378:	00090003          	lb	zero,0(s2)
    237c:	0100                	addi	s0,sp,128
    237e:	1705                	addi	a4,a4,-31
    2380:	00090003          	lb	zero,0(s2)
    2384:	0100                	addi	s0,sp,128
    2386:	2305                	addiw	t1,t1,1
    2388:	00090003          	lb	zero,0(s2)
    238c:	0100                	addi	s0,sp,128
    238e:	1f05                	addi	t5,t5,-31
    2390:	00090003          	lb	zero,0(s2)
    2394:	0100                	addi	s0,sp,128
    2396:	1705                	addi	a4,a4,-31
    2398:	00090003          	lb	zero,0(s2)
    239c:	0100                	addi	s0,sp,128
    239e:	2305                	addiw	t1,t1,1
    23a0:	00090003          	lb	zero,0(s2)
    23a4:	0100                	addi	s0,sp,128
    23a6:	0705                	addi	a4,a4,1
    23a8:	0306                	slli	t1,t1,0x1
    23aa:	097e                	slli	s2,s2,0x1f
    23ac:	0000                	unimp
    23ae:	0501                	addi	a0,a0,0
    23b0:	0328                	addi	a0,sp,392
    23b2:	0902                	c.slli64	s2
    23b4:	0004                	.2byte	0x4
    23b6:	0501                	addi	a0,a0,0
    23b8:	061f 0003 0209      	.byte	0x1f, 0x06, 0x03, 0x00, 0x09, 0x02
    23be:	0100                	addi	s0,sp,128
    23c0:	1705                	addi	a4,a4,-31
    23c2:	00090003          	lb	zero,0(s2)
    23c6:	0100                	addi	s0,sp,128
    23c8:	2305                	addiw	t1,t1,1
    23ca:	00090003          	lb	zero,0(s2)
    23ce:	0100                	addi	s0,sp,128
    23d0:	2805                	addiw	a6,a6,1
    23d2:	0306                	slli	t1,t1,0x1
    23d4:	0900                	addi	s0,sp,144
    23d6:	0000                	unimp
    23d8:	0501                	addi	a0,a0,0
    23da:	061f 0003 0209      	.byte	0x1f, 0x06, 0x03, 0x00, 0x09, 0x02
    23e0:	0100                	addi	s0,sp,128
    23e2:	1705                	addi	a4,a4,-31
    23e4:	00090003          	lb	zero,0(s2)
    23e8:	0100                	addi	s0,sp,128
    23ea:	2305                	addiw	t1,t1,1
    23ec:	00090003          	lb	zero,0(s2)
    23f0:	0100                	addi	s0,sp,128
    23f2:	2805                	addiw	a6,a6,1
    23f4:	0306                	slli	t1,t1,0x1
    23f6:	0900                	addi	s0,sp,144
    23f8:	0000                	unimp
    23fa:	0501                	addi	a0,a0,0
    23fc:	061f 0003 0209      	.byte	0x1f, 0x06, 0x03, 0x00, 0x09, 0x02
    2402:	0100                	addi	s0,sp,128
    2404:	1705                	addi	a4,a4,-31
    2406:	00090003          	lb	zero,0(s2)
    240a:	0100                	addi	s0,sp,128
    240c:	2305                	addiw	t1,t1,1
    240e:	00090003          	lb	zero,0(s2)
    2412:	0100                	addi	s0,sp,128
    2414:	2805                	addiw	a6,a6,1
    2416:	0306                	slli	t1,t1,0x1
    2418:	0900                	addi	s0,sp,144
    241a:	0000                	unimp
    241c:	0501                	addi	a0,a0,0
    241e:	061f 0003 0209      	.byte	0x1f, 0x06, 0x03, 0x00, 0x09, 0x02
    2424:	0100                	addi	s0,sp,128
    2426:	1705                	addi	a4,a4,-31
    2428:	00090003          	lb	zero,0(s2)
    242c:	0100                	addi	s0,sp,128
    242e:	2305                	addiw	t1,t1,1
    2430:	00090003          	lb	zero,0(s2)
    2434:	0100                	addi	s0,sp,128
    2436:	2805                	addiw	a6,a6,1
    2438:	0306                	slli	t1,t1,0x1
    243a:	0900                	addi	s0,sp,144
    243c:	0000                	unimp
    243e:	0501                	addi	a0,a0,0
    2440:	061f 0003 0209      	.byte	0x1f, 0x06, 0x03, 0x00, 0x09, 0x02
    2446:	0100                	addi	s0,sp,128
    2448:	1705                	addi	a4,a4,-31
    244a:	00090003          	lb	zero,0(s2)
    244e:	0100                	addi	s0,sp,128
    2450:	2305                	addiw	t1,t1,1
    2452:	00090003          	lb	zero,0(s2)
    2456:	0100                	addi	s0,sp,128
    2458:	2805                	addiw	a6,a6,1
    245a:	0306                	slli	t1,t1,0x1
    245c:	0900                	addi	s0,sp,144
    245e:	0000                	unimp
    2460:	0501                	addi	a0,a0,0
    2462:	061f 0003 0209      	.byte	0x1f, 0x06, 0x03, 0x00, 0x09, 0x02
    2468:	0100                	addi	s0,sp,128
    246a:	1705                	addi	a4,a4,-31
    246c:	00090003          	lb	zero,0(s2)
    2470:	0100                	addi	s0,sp,128
    2472:	0505                	addi	a0,a0,1
    2474:	00090103          	lb	sp,0(s2)
    2478:	0100                	addi	s0,sp,128
    247a:	0805                	addi	a6,a6,1
    247c:	0306                	slli	t1,t1,0x1
    247e:	0900                	addi	s0,sp,144
    2480:	0000                	unimp
    2482:	0401                	addi	s0,s0,0
    2484:	0502                	c.slli64	a0
    2486:	09730303          	lb	t1,151(t1)
    248a:	0004                	.2byte	0x4
    248c:	0501                	addi	a0,a0,0
    248e:	0602                	c.slli64	a2
    2490:	08097e03          	.4byte	0x8097e03
    2494:	0100                	addi	s0,sp,128
    2496:	00090103          	lb	sp,0(s2)
    249a:	0100                	addi	s0,sp,128
    249c:	0305                	addi	t1,t1,1
    249e:	00090103          	lb	sp,0(s2)
    24a2:	0100                	addi	s0,sp,128
    24a4:	0d05                	addi	s10,s10,1
    24a6:	06090403          	lb	s0,96(s2)
    24aa:	0100                	addi	s0,sp,128
    24ac:	0104                	addi	s1,sp,128
    24ae:	0505                	addi	a0,a0,1
    24b0:	0200                	addi	s0,sp,256
    24b2:	0104                	addi	s1,sp,128
    24b4:	06091503          	lh	a0,96(s2)
    24b8:	0100                	addi	s0,sp,128
    24ba:	0200                	addi	s0,sp,256
    24bc:	0104                	addi	s1,sp,128
    24be:	00090103          	lb	sp,0(s2)
    24c2:	0100                	addi	s0,sp,128
    24c4:	0d05                	addi	s10,s10,1
    24c6:	0200                	addi	s0,sp,256
    24c8:	0104                	addi	s1,sp,128
    24ca:	0306                	slli	t1,t1,0x1
    24cc:	097f                	.2byte	0x97f
    24ce:	0000                	unimp
    24d0:	0501                	addi	a0,a0,0
    24d2:	060a                	slli	a2,a2,0x2
    24d4:	04091d03          	lh	s10,64(s2)
    24d8:	0100                	addi	s0,sp,128
    24da:	0d05                	addi	s10,s10,1
    24dc:	0306                	slli	t1,t1,0x1
    24de:	0900                	addi	s0,sp,144
    24e0:	0000                	unimp
    24e2:	0501                	addi	a0,a0,0
    24e4:	030e                	slli	t1,t1,0x3
    24e6:	0901                	addi	s2,s2,0
    24e8:	0004                	.2byte	0x4
    24ea:	0401                	addi	s0,s0,0
    24ec:	0502                	c.slli64	a0
    24ee:	0602                	c.slli64	a2
    24f0:	04094703          	lbu	a4,64(s2)
    24f4:	0100                	addi	s0,sp,128
    24f6:	00090103          	lb	sp,0(s2)
    24fa:	0100                	addi	s0,sp,128
    24fc:	0305                	addi	t1,t1,1
    24fe:	00090103          	lb	sp,0(s2)
    2502:	0100                	addi	s0,sp,128
    2504:	0d05                	addi	s10,s10,1
    2506:	06090403          	lb	s0,96(s2)
    250a:	0100                	addi	s0,sp,128
    250c:	0205                	addi	tp,tp,1 # 1 <_prog_start-0x7fffffff>
    250e:	04097a03          	.4byte	0x4097a03
    2512:	0100                	addi	s0,sp,128
    2514:	00090103          	lb	sp,0(s2)
    2518:	0100                	addi	s0,sp,128
    251a:	0305                	addi	t1,t1,1
    251c:	00090103          	lb	sp,0(s2)
    2520:	0100                	addi	s0,sp,128
    2522:	0d05                	addi	s10,s10,1
    2524:	06090403          	lb	s0,96(s2)
    2528:	0100                	addi	s0,sp,128
    252a:	0104                	addi	s1,sp,128
    252c:	1505                	addi	a0,a0,-31
    252e:	0306                	slli	t1,t1,0x1
    2530:	0008090f          	.4byte	0x8090f
    2534:	0501                	addi	a0,a0,0
    2536:	030d                	addi	t1,t1,3
    2538:	097e                	slli	s2,s2,0x1f
    253a:	0002                	c.slli64	zero
    253c:	0501                	addi	a0,a0,0
    253e:	0619                	addi	a2,a2,6
    2540:	02090103          	lb	sp,32(s2)
    2544:	0100                	addi	s0,sp,128
    2546:	2305                	addiw	t1,t1,1
    2548:	0200                	addi	s0,sp,256
    254a:	0304                	addi	s1,sp,384
    254c:	04090003          	lb	zero,64(s2)
    2550:	0100                	addi	s0,sp,128
    2552:	2805                	addiw	a6,a6,1
    2554:	0200                	addi	s0,sp,256
    2556:	0304                	addi	s1,sp,384
    2558:	0306                	slli	t1,t1,0x1
    255a:	0900                	addi	s0,sp,144
    255c:	0000                	unimp
    255e:	0501                	addi	a0,a0,0
    2560:	0019                	c.nop	6
    2562:	0402                	c.slli64	s0
    2564:	09000303          	lb	t1,144(zero) # 90 <_prog_start-0x7fffff70>
    2568:	0006                	c.slli	zero,0x1
    256a:	0501                	addi	a0,a0,0
    256c:	0028                	addi	a0,sp,8
    256e:	0402                	c.slli64	s0
    2570:	09000303          	lb	t1,144(zero) # 90 <_prog_start-0x7fffff70>
    2574:	0002                	c.slli64	zero
    2576:	0501                	addi	a0,a0,0
    2578:	001f 0402 0603      	.byte	0x1f, 0x00, 0x02, 0x04, 0x03, 0x06
    257e:	04090003          	lb	zero,64(s2)
    2582:	0100                	addi	s0,sp,128
    2584:	1905                	addi	s2,s2,-31
    2586:	0200                	addi	s0,sp,256
    2588:	0304                	addi	s1,sp,384
    258a:	00090003          	lb	zero,0(s2)
    258e:	0100                	addi	s0,sp,128
    2590:	0605                	addi	a2,a2,1
    2592:	04090103          	lb	sp,64(s2)
    2596:	0100                	addi	s0,sp,128
    2598:	1505                	addi	a0,a0,-31
    259a:	0306                	slli	t1,t1,0x1
    259c:	0900                	addi	s0,sp,144
    259e:	0000                	unimp
    25a0:	0501                	addi	a0,a0,0
    25a2:	0311                	addi	t1,t1,4
    25a4:	0900                	addi	s0,sp,144
    25a6:	0004                	.2byte	0x4
    25a8:	0501                	addi	a0,a0,0
    25aa:	0900030b          	.4byte	0x900030b
    25ae:	0004                	.2byte	0x4
    25b0:	0501                	addi	a0,a0,0
    25b2:	0606                	slli	a2,a2,0x1
    25b4:	04090103          	lb	sp,64(s2)
    25b8:	0100                	addi	s0,sp,128
    25ba:	0805                	addi	a6,a6,1
    25bc:	0306                	slli	t1,t1,0x1
    25be:	0900                	addi	s0,sp,144
    25c0:	0000                	unimp
    25c2:	0501                	addi	a0,a0,0
    25c4:	060d                	addi	a2,a2,3
    25c6:	04097d03          	.4byte	0x4097d03
    25ca:	0100                	addi	s0,sp,128
    25cc:	0805                	addi	a6,a6,1
    25ce:	0306                	slli	t1,t1,0x1
    25d0:	00040903          	lb	s2,0(s0)
    25d4:	0501                	addi	a0,a0,0
    25d6:	0316                	slli	t1,t1,0x5
    25d8:	0004090f          	.4byte	0x4090f
    25dc:	0401                	addi	s0,s0,0
    25de:	0502                	c.slli64	a0
    25e0:	095d0303          	lb	t1,149(s10)
    25e4:	0008                	.2byte	0x8
    25e6:	0501                	addi	a0,a0,0
    25e8:	0602                	c.slli64	a2
    25ea:	04097e03          	.4byte	0x4097e03
    25ee:	0100                	addi	s0,sp,128
    25f0:	00090103          	lb	sp,0(s2)
    25f4:	0100                	addi	s0,sp,128
    25f6:	0305                	addi	t1,t1,1
    25f8:	00090103          	lb	sp,0(s2)
    25fc:	0100                	addi	s0,sp,128
    25fe:	0d05                	addi	s10,s10,1
    2600:	06090403          	lb	s0,96(s2)
    2604:	0100                	addi	s0,sp,128
    2606:	0104                	addi	s1,sp,128
    2608:	2105                	addiw	sp,sp,1
    260a:	0200                	addi	s0,sp,256
    260c:	0304                	addi	s1,sp,384
    260e:	04091203          	lh	tp,64(s2)
    2612:	0100                	addi	s0,sp,128
    2614:	1a05                	addi	s4,s4,-31
    2616:	0200                	addi	s0,sp,256
    2618:	0304                	addi	s1,sp,384
    261a:	00090003          	lb	zero,0(s2)
    261e:	0100                	addi	s0,sp,128
    2620:	1605                	addi	a2,a2,-31
    2622:	0200                	addi	s0,sp,256
    2624:	0304                	addi	s1,sp,384
    2626:	0306                	slli	t1,t1,0x1
    2628:	0900                	addi	s0,sp,144
    262a:	0000                	unimp
    262c:	0501                	addi	a0,a0,0
    262e:	001a                	c.slli	zero,0x6
    2630:	0402                	c.slli64	s0
    2632:	09000303          	lb	t1,144(zero) # 90 <_prog_start-0x7fffff70>
    2636:	0004                	.2byte	0x4
    2638:	0901                	addi	s2,s2,0
    263a:	0006                	c.slli	zero,0x1
    263c:	0100                	addi	s0,sp,128
    263e:	01              	Address 0x000000000000263e is out of bounds.


Disassembly of section .debug_line_str:

0000000000000000 <.debug_line_str>:
   0:	6d6f682f          	.4byte	0x6d6f682f
   4:	2f65                	addiw	t5,t5,25
   6:	6962                	ld	s2,24(sp)
   8:	686e                	ld	a6,216(sp)
   a:	7565696b          	.4byte	0x7565696b
   e:	6f64                	ld	s1,216(a4)
  10:	726f572f          	.4byte	0x726f572f
  14:	6170736b          	.4byte	0x6170736b
  18:	4e2f6563          	bltu	t5,sp,502 <_prog_start-0x7ffffafe>
  1c:	7765                	lui	a4,0xffff9
  1e:	7246                	ld	tp,112(sp)
  20:	6d61                	lui	s10,0x18
  22:	7765                	lui	a4,0xffff9
  24:	2f6b726f          	jal	tp,b731a <_prog_start-0x7ff48ce6>
  28:	7266                	ld	tp,120(sp)
  2a:	6d61                	lui	s10,0x18
  2c:	7765                	lui	a4,0xffff9
  2e:	2f6b726f          	jal	tp,b7324 <_prog_start-0x7ff48cdc>
  32:	6d2f7773          	csrrci	a4,0x6d2,30
  36:	7461                	lui	s0,0xffff8
  38:	6972                	ld	s2,280(sp)
  3a:	5f78                	lw	a4,124(a4)
  3c:	756d                	lui	a0,0xffffb
  3e:	006c                	addi	a1,sp,12
  40:	30747263          	bgeu	s0,t2,344 <_prog_start-0x7ffffcbc>
  44:	532e                	lw	t1,232(sp)
  46:	6d00                	ld	s0,24(a0)
  48:	6961                	lui	s2,0x18
  4a:	2e6e                	fld	ft8,216(sp)
  4c:	682f0063          	beq	t5,sp,6cc <_prog_start-0x7ffff934>
  50:	2f656d6f          	jal	s10,56346 <_prog_start-0x7ffa9cba>
  54:	6962                	ld	s2,24(sp)
  56:	686e                	ld	a6,216(sp)
  58:	7565696b          	.4byte	0x7565696b
  5c:	6f64                	ld	s1,216(a4)
  5e:	726f572f          	.4byte	0x726f572f
  62:	6170736b          	.4byte	0x6170736b
  66:	4e2f6563          	bltu	t5,sp,550 <_prog_start-0x7ffffab0>
  6a:	7765                	lui	a4,0xffff9
  6c:	7246                	ld	tp,112(sp)
  6e:	6d61                	lui	s10,0x18
  70:	7765                	lui	a4,0xffff9
  72:	2f6b726f          	jal	tp,b7368 <_prog_start-0x7ff48c98>
  76:	632e                	ld	t1,200(sp)
  78:	61646e6f          	jal	t3,4668e <_prog_start-0x7ffb9972>
  7c:	652d                	lui	a0,0xb
  7e:	766e                	ld	a2,248(sp)
  80:	7369722f          	.4byte	0x7369722f
  84:	742d7663          	bgeu	s10,sp,7d0 <_prog_start-0x7ffff830>
  88:	736c6f6f          	jal	t5,c67be <_prog_start-0x7ff39842>
  8c:	7369722f          	.4byte	0x7369722f
  90:	34367663          	bgeu	a2,gp,3dc <_prog_start-0x7ffffc24>
  94:	752d                	lui	a0,0xfffeb
  96:	6b6e                	ld	s6,216(sp)
  98:	6f6e                	ld	t5,216(sp)
  9a:	652d6e77          	.4byte	0x652d6e77
  9e:	666c                	ld	a1,200(a2)
  a0:	636e692f          	.4byte	0x636e692f
  a4:	756c                	ld	a1,232(a0)
  a6:	6564                	ld	s1,200(a0)
  a8:	63616d2f          	.4byte	0x63616d2f
  ac:	6968                	ld	a0,208(a0)
  ae:	656e                	ld	a0,216(sp)
  b0:	2f00                	fld	fs0,24(a4)
  b2:	6f68                	ld	a0,216(a4)
  b4:	656d                	lui	a0,0x1b
  b6:	6e69622f          	.4byte	0x6e69622f
  ba:	6b68                	ld	a0,208(a4)
  bc:	6569                	lui	a0,0x1a
  be:	6475                	lui	s0,0x1d
  c0:	6f572f6f          	jal	t5,72fb4 <_prog_start-0x7ff8d04c>
  c4:	6b72                	ld	s6,280(sp)
  c6:	63617073          	csrci	0x636,2
  ca:	2f65                	addiw	t5,t5,25
  cc:	654e                	ld	a0,208(sp)
  ce:	61724677          	.4byte	0x61724677
  d2:	656d                	lui	a0,0x1b
  d4:	6b726f77          	.4byte	0x6b726f77
  d8:	6f632e2f          	.4byte	0x6f632e2f
  dc:	646e                	ld	s0,216(sp)
  de:	2d61                	addiw	s10,s10,24 # 18018 <_prog_start-0x7ffe7fe8>
  e0:	6e65                	lui	t3,0x19
  e2:	2f76                	fld	ft10,344(sp)
  e4:	6972                	ld	s2,280(sp)
  e6:	2d766373          	csrrsi	t1,0x2d7,12
  ea:	6f74                	ld	a3,216(a4)
  ec:	2f736c6f          	jal	s8,36be2 <_prog_start-0x7ffc941e>
  f0:	6972                	ld	s2,280(sp)
  f2:	36766373          	csrrsi	t1,0x367,12
  f6:	2d34                	fld	fa3,88(a0)
  f8:	6e75                	lui	t3,0x1d
  fa:	776f6e6b          	.4byte	0x776f6e6b
  fe:	2d6e                	fld	fs10,216(sp)
 100:	6c65                	lui	s8,0x19
 102:	2f66                	fld	ft10,88(sp)
 104:	6e69                	lui	t3,0x1a
 106:	64756c63          	bltu	a0,t2,75e <_prog_start-0x7ffff8a2>
 10a:	2f65                	addiw	t5,t5,25
 10c:	00737973          	csrrci	s2,0x7,6
 110:	645f 6665 7561      	.byte	0x5f, 0x64, 0x65, 0x66, 0x61, 0x75
 116:	746c                	ld	a1,232(s0)
 118:	745f 7079 7365      	.byte	0x5f, 0x74, 0x79, 0x70, 0x65, 0x73
 11e:	682e                	ld	a6,200(sp)
 120:	5f00                	lw	s0,56(a4)
 122:	69647473          	csrrci	s0,0x696,8
 126:	746e                	ld	s0,248(sp)
 128:	682e                	ld	a6,200(sp)
 12a:	6b00                	ld	s0,16(a4)
 12c:	7270                	ld	a2,224(a2)
 12e:	6e69                	lui	t3,0x1a
 130:	6674                	ld	a3,200(a2)
 132:	682e                	ld	a6,200(sp)
 134:	6b00                	ld	s0,16(a4)
 136:	7270                	ld	a2,224(a2)
 138:	6e69                	lui	t3,0x1a
 13a:	6674                	ld	a3,200(a2)
 13c:	632e                	ld	t1,200(sp)
 13e:	2f00                	fld	fs0,24(a4)
 140:	6f68                	ld	a0,216(a4)
 142:	656d                	lui	a0,0x1b
 144:	6e69622f          	.4byte	0x6e69622f
 148:	6b68                	ld	a0,208(a4)
 14a:	6569                	lui	a0,0x1a
 14c:	6475                	lui	s0,0x1d
 14e:	6f572f6f          	jal	t5,73042 <_prog_start-0x7ff8cfbe>
 152:	6b72                	ld	s6,280(sp)
 154:	63617073          	csrci	0x636,2
 158:	2f65                	addiw	t5,t5,25
 15a:	654e                	ld	a0,208(sp)
 15c:	61724677          	.4byte	0x61724677
 160:	656d                	lui	a0,0x1b
 162:	6b726f77          	.4byte	0x6b726f77
 166:	6f632e2f          	.4byte	0x6f632e2f
 16a:	646e                	ld	s0,216(sp)
 16c:	2d61                	addiw	s10,s10,24
 16e:	6e65                	lui	t3,0x19
 170:	2f76                	fld	ft10,344(sp)
 172:	6972                	ld	s2,280(sp)
 174:	2d766373          	csrrsi	t1,0x2d7,12
 178:	6f74                	ld	a3,216(a4)
 17a:	2f736c6f          	jal	s8,36c70 <_prog_start-0x7ffc9390>
 17e:	696c                	ld	a1,208(a0)
 180:	2f62                	fld	ft10,24(sp)
 182:	2f636367          	.4byte	0x2f636367
 186:	6972                	ld	s2,280(sp)
 188:	36766373          	csrrsi	t1,0x367,12
 18c:	2d34                	fld	fa3,88(a0)
 18e:	6e75                	lui	t3,0x1d
 190:	776f6e6b          	.4byte	0x776f6e6b
 194:	2d6e                	fld	fs10,216(sp)
 196:	6c65                	lui	s8,0x19
 198:	2f66                	fld	ft10,88(sp)
 19a:	3231                	addiw	tp,tp,-20 # ffffffffffffffec <a+0xffffffff7ffff034>
 19c:	322e                	fld	ft4,232(sp)
 19e:	302e                	fld	ft0,232(sp)
 1a0:	636e692f          	.4byte	0x636e692f
 1a4:	756c                	ld	a1,232(a0)
 1a6:	6564                	ld	s1,200(a0)
 1a8:	7300                	ld	s0,32(a4)
 1aa:	6474                	ld	a3,200(s0)
 1ac:	7261                	lui	tp,0xffff8
 1ae:	00682e67          	.4byte	0x682e67

Disassembly of section .debug_info:

0000000000000000 <.debug_info>:
       0:	0025                	c.nop	9
       2:	0000                	unimp
       4:	0005                	c.nop	1
       6:	0801                	addi	a6,a6,0
       8:	0000                	unimp
       a:	0000                	unimp
       c:	0001                	nop
       e:	0000                	unimp
      10:	0000                	unimp
      12:	0000                	unimp
      14:	0080                	addi	s0,sp,64
      16:	0000                	unimp
      18:	e400                	sd	s0,8(s0)
      1a:	0004                	.2byte	0x4
      1c:	0000                	unimp
      1e:	0700                	addi	s0,sp,896
      20:	0000                	unimp
      22:	4700                	lw	s0,8(a4)
      24:	0000                	unimp
      26:	0100                	addi	s0,sp,128
      28:	db80                	sw	s0,48(a5)
      2a:	000e                	c.slli	zero,0x3
      2c:	0500                	addi	s0,sp,640
      2e:	0100                	addi	s0,sp,128
      30:	1408                	addi	a0,sp,544
      32:	0000                	unimp
      34:	1b00                	addi	s0,sp,432
      36:	000000b3          	add	ra,zero,zero
      3a:	471d                	li	a4,7
      3c:	0000                	unimp
      3e:	0000                	unimp
      40:	0000                	unimp
      42:	7200                	ld	s0,32(a2)
      44:	0008                	.2byte	0x8
	...
      4e:	0800                	addi	s0,sp,16
      50:	0b000003          	lb	zero,176(zero) # b0 <_prog_start-0x7fffff50>
      54:	0601                	addi	a2,a2,0
      56:	0164                	addi	s1,sp,140
      58:	0000                	unimp
      5a:	a90c                	fsd	fa1,16(a0)
      5c:	0000                	unimp
      5e:	0200                	addi	s0,sp,256
      60:	003d182b          	.4byte	0x3d182b
      64:	0000                	unimp
      66:	6208010b          	.4byte	0x6208010b
      6a:	0001                	nop
      6c:	0b00                	addi	s0,sp,400
      6e:	0502                	c.slli64	a0
      70:	00000053          	fadd.s	ft0,ft0,ft0,rne
      74:	8707020b          	.4byte	0x8707020b
      78:	0001                	nop
      7a:	1c00                	addi	s0,sp,560
      7c:	0504                	addi	s1,sp,640
      7e:	6e69                	lui	t3,0x1a
      80:	0074                	addi	a3,sp,12
      82:	760c                	ld	a1,40(a2)
      84:	0000                	unimp
      86:	0200                	addi	s0,sp,256
      88:	0065194f          	fnmadd.s	fs2,fa0,ft6,ft0,rtz
      8c:	0000                	unimp
      8e:	bc07040b          	.4byte	0xbc07040b
      92:	0001                	nop
      94:	0b00                	addi	s0,sp,400
      96:	0508                	addi	a0,sp,640
      98:	00a0                	addi	s0,sp,72
      9a:	0000                	unimp
      9c:	9a0c                	.2byte	0x9a0c
      9e:	0001                	nop
      a0:	0200                	addi	s0,sp,256
      a2:	1969                	addi	s2,s2,-6 # 17ffa <_prog_start-0x7ffe8006>
      a4:	007f                	.2byte	0x7f
      a6:	0000                	unimp
      a8:	b707080b          	.4byte	0xb707080b
      ac:	0001                	nop
      ae:	0c00                	addi	s0,sp,528
      b0:	000000ab          	.4byte	0xab
      b4:	31131803          	lh	a6,785(t1)
      b8:	0000                	unimp
      ba:	0c00                	addi	s0,sp,528
      bc:	0078                	addi	a4,sp,12
      be:	0000                	unimp
      c0:	59143003          	ld	zero,1425(s0) # 1d591 <_prog_start-0x7ffe2a6f>
      c4:	0000                	unimp
      c6:	1d00                	addi	s0,sp,688
      c8:	0092                	slli	ra,ra,0x4
      ca:	0000                	unimp
      cc:	9c0c                	.2byte	0x9c0c
      ce:	0001                	nop
      d0:	0300                	addi	s0,sp,384
      d2:	143c                	addi	a5,sp,552
      d4:	00000073          	ecall
      d8:	8118                	.2byte	0x8118
      da:	0000                	unimp
      dc:	0400                	addi	s0,sp,512
      de:	0000c313          	xori	t1,ra,0
      e2:	0000                	unimp
      e4:	0000                	unimp
      e6:	0f64                	addi	s1,sp,924
      e8:	009e                	slli	ra,ra,0x7
      ea:	0000                	unimp
      ec:	be19                	j	fffffffffffffc02 <a+0xffffffff7fffec4a>
      ee:	0000                	unimp
      f0:	1800                	addi	s0,sp,48
      f2:	013a                	slli	sp,sp,0xe
      f4:	0000                	unimp
      f6:	0701                	addi	a4,a4,0 # ffffffffffff9000 <a+0xffffffff7fff8048>
      f8:	000000c3          	fmadd.s	ft1,ft0,ft0,ft0,rne
      fc:	0000                	unimp
      fe:	0200                	addi	s0,sp,256
     100:	6106                	ld	sp,64(sp)
     102:	1000                	addi	s0,sp,32
     104:	00e9                	addi	ra,ra,26
     106:	0000                	unimp
     108:	0309                	addi	t1,t1,2
     10a:	0fb8                	addi	a4,sp,984
     10c:	8000                	.2byte	0x8000
     10e:	0000                	unimp
     110:	0000                	unimp
     112:	0000860f          	.4byte	0x860f
     116:	0600                	addi	s0,sp,768
     118:	0062                	c.slli	zero,0x18
     11a:	e911                	bnez	a0,12e <_prog_start-0x7ffffed2>
     11c:	0000                	unimp
     11e:	0900                	addi	s0,sp,144
     120:	000fb003          	ld	zero,0(t6) # fffffffffffe0000 <a+0xffffffff7ffdf048>
     124:	0080                	addi	s0,sp,64
     126:	0000                	unimp
     128:	0600                	addi	s0,sp,768
     12a:	e9120063          	beq	tp,a7,fffffffffffff7aa <a+0xffffffff7fffe7f2>
     12e:	0000                	unimp
     130:	0900                	addi	s0,sp,144
     132:	000fa803          	lw	a6,0(t6)
     136:	0080                	addi	s0,sp,64
     138:	0000                	unimp
     13a:	0600                	addi	s0,sp,768
     13c:	0064                	addi	s1,sp,12
     13e:	0000e913          	ori	s2,ra,0
     142:	0900                	addi	s0,sp,144
     144:	000fa003          	lw	zero,0(t6)
     148:	0080                	addi	s0,sp,64
     14a:	0000                	unimp
     14c:	0600                	addi	s0,sp,768
     14e:	6561                	lui	a0,0x18
     150:	1500                	addi	s0,sp,672
     152:	00e9                	addi	ra,ra,26
     154:	0000                	unimp
     156:	0309                	addi	t1,t1,2
     158:	0f98                	addi	a4,sp,976
     15a:	8000                	.2byte	0x8000
     15c:	0000                	unimp
     15e:	0000                	unimp
     160:	6206                	ld	tp,64(sp)
     162:	e9160067          	jr	-367(a2)
     166:	0000                	unimp
     168:	0900                	addi	s0,sp,144
     16a:	000f9003          	lh	zero,0(t6)
     16e:	0080                	addi	s0,sp,64
     170:	0000                	unimp
     172:	0600                	addi	s0,sp,768
     174:	17006563          	bltu	zero,a6,2de <_prog_start-0x7ffffd22>
     178:	00e9                	addi	ra,ra,26
     17a:	0000                	unimp
     17c:	0309                	addi	t1,t1,2
     17e:	0f88                	addi	a0,sp,976
     180:	8000                	.2byte	0x8000
     182:	0000                	unimp
     184:	0000                	unimp
     186:	6406                	ld	s0,64(sp)
     188:	e9180067          	jr	-367(a6)
     18c:	0000                	unimp
     18e:	0900                	addi	s0,sp,144
     190:	000f8003          	lb	zero,0(t6)
     194:	0080                	addi	s0,sp,64
     196:	0000                	unimp
     198:	0600                	addi	s0,sp,768
     19a:	0065                	c.nop	25
     19c:	e91a                	sd	t1,144(sp)
     19e:	0000                	unimp
     1a0:	0900                	addi	s0,sp,144
     1a2:	000f7803          	.4byte	0xf7803
     1a6:	0080                	addi	s0,sp,64
     1a8:	0000                	unimp
     1aa:	0600                	addi	s0,sp,768
     1ac:	0066                	c.slli	zero,0x19
     1ae:	0000e91b          	.4byte	0xe91b
     1b2:	0900                	addi	s0,sp,144
     1b4:	000f7003          	.4byte	0xf7003
     1b8:	0080                	addi	s0,sp,64
     1ba:	0000                	unimp
     1bc:	0600                	addi	s0,sp,768
     1be:	e91c0067          	jr	-367(s8) # 18e91 <_prog_start-0x7ffe716f>
     1c2:	0000                	unimp
     1c4:	0900                	addi	s0,sp,144
     1c6:	000f6803          	lwu	a6,0(t5)
     1ca:	0080                	addi	s0,sp,64
     1cc:	0000                	unimp
     1ce:	0600                	addi	s0,sp,768
     1d0:	0068                	addi	a0,sp,12
     1d2:	e91d                	bnez	a0,208 <_prog_start-0x7ffffdf8>
     1d4:	0000                	unimp
     1d6:	0900                	addi	s0,sp,144
     1d8:	000f6003          	lwu	zero,0(t5)
     1dc:	0080                	addi	s0,sp,64
     1de:	0000                	unimp
     1e0:	1500                	addi	s0,sp,672
     1e2:	01a5                	addi	gp,gp,9
     1e4:	0000                	unimp
     1e6:	e91f 0000 0900      	.byte	0x1f, 0xe9, 0x00, 0x00, 0x00, 0x09
     1ec:	000f5803          	lhu	a6,0(t5)
     1f0:	0080                	addi	s0,sp,64
     1f2:	0000                	unimp
     1f4:	1500                	addi	s0,sp,672
     1f6:	000001ab          	.4byte	0x1ab
     1fa:	e920                	sd	s0,80(a0)
     1fc:	0000                	unimp
     1fe:	0900                	addi	s0,sp,144
     200:	000f5003          	lhu	zero,0(t5)
     204:	0080                	addi	s0,sp,64
     206:	0000                	unimp
     208:	1500                	addi	s0,sp,672
     20a:	01b1                	addi	gp,gp,12
     20c:	0000                	unimp
     20e:	e921                	bnez	a0,25e <_prog_start-0x7ffffda2>
     210:	0000                	unimp
     212:	0900                	addi	s0,sp,144
     214:	000f4803          	lbu	a6,0(t5)
     218:	0080                	addi	s0,sp,64
     21a:	0000                	unimp
     21c:	1e00                	addi	s0,sp,816
     21e:	00000063          	beqz	zero,21e <_prog_start-0x7ffffde2>
     222:	2704                	fld	fs1,8(a4)
     224:	070d                	addi	a4,a4,3
     226:	0002                	c.slli64	zero
     228:	1f00                	addi	s0,sp,944
     22a:	00000207          	.4byte	0x207
     22e:	0020                	addi	s0,sp,8
     230:	0002130f          	.4byte	0x2130f
     234:	0b00                	addi	s0,sp,400
     236:	0801                	addi	a6,a6,0
     238:	0000016b          	.4byte	0x16b
     23c:	0c19                	addi	s8,s8,6
     23e:	0002                	c.slli64	zero
     240:	2100                	fld	fs0,0(a0)
     242:	0071                	c.nop	28
     244:	0000                	unimp
     246:	9701                	srai	a4,a4,0x20
     248:	5205                	li	tp,-31
     24a:	0000                	unimp
     24c:	a600                	fsd	fs0,8(a2)
     24e:	0009                	c.nop	2
     250:	0080                	addi	s0,sp,64
     252:	0000                	unimp
     254:	9e00                	.2byte	0x9e00
     256:	00000003          	lb	zero,0(zero) # 0 <_prog_start-0x80000000>
     25a:	0000                	unimp
     25c:	0100                	addi	s0,sp,128
     25e:	809c                	.2byte	0x809c
     260:	0009                	c.nop	2
     262:	2200                	fld	fs0,0(a2)
     264:	0182                	c.slli64	gp
     266:	0000                	unimp
     268:	9701                	srai	a4,a4,0x20
     26a:	520e                	lw	tp,224(sp)
     26c:	0000                	unimp
     26e:	0c00                	addi	s0,sp,528
     270:	0000                	unimp
     272:	2300                	fld	fs0,0(a4)
     274:	7261                	lui	tp,0xffff8
     276:	0076                	c.slli	zero,0x1d
     278:	9701                	srai	a4,a4,0x20
     27a:	0009801b          	sext.w	zero,s3
     27e:	3600                	fld	fs0,40(a2)
     280:	0000                	unimp
     282:	0300                	addi	s0,sp,384
     284:	0098                	addi	a4,sp,64
     286:	0000                	unimp
     288:	0c9a                	slli	s9,s9,0x6
     28a:	000000a3          	sb	zero,1(zero) # 1 <_prog_start-0x7fffffff>
     28e:	0060                	addi	s0,sp,12
     290:	0000                	unimp
     292:	0001df03          	lhu	t5,0(gp)
     296:	9a00                	.2byte	0x9a00
     298:	a315                	j	7bc <_prog_start-0x7ffff844>
     29a:	0000                	unimp
     29c:	9a00                	.2byte	0x9a00
     29e:	0000                	unimp
     2a0:	0300                	addi	s0,sp,384
     2a2:	0092                	slli	ra,ra,0x4
     2a4:	0000                	unimp
     2a6:	098a0c9b          	addiw	s9,s4,152
     2aa:	0000                	unimp
     2ac:	000000e7          	jalr	zero # 0 <_prog_start-0x80000000>
     2b0:	0001e503          	lwu	a0,0(gp)
     2b4:	9c00                	.2byte	0x9c00
     2b6:	a30c                	fsd	fa1,0(a4)
     2b8:	0000                	unimp
     2ba:	bc00                	fsd	fs0,56(s0)
     2bc:	0001                	nop
     2be:	0300                	addi	s0,sp,384
     2c0:	0140                	addi	s0,sp,132
     2c2:	0000                	unimp
     2c4:	199c                	addi	a5,sp,240
     2c6:	000000a3          	sb	zero,1(zero) # 1 <_prog_start-0x7fffffff>
     2ca:	000001e3          	beqz	zero,acc <_prog_start-0x7ffff534>
     2ce:	0001c903          	lbu	s2,0(gp)
     2d2:	9d00                	.2byte	0x9d00
     2d4:	a30c                	fsd	fa1,0(a4)
     2d6:	0000                	unimp
     2d8:	0a00                	addi	s0,sp,272
     2da:	0002                	c.slli64	zero
     2dc:	0300                	addi	s0,sp,384
     2de:	000001eb          	.4byte	0x1eb
     2e2:	0c9f 098a 0000      	.byte	0x9f, 0x0c, 0x8a, 0x09, 0x00, 0x00
     2e8:	0231                	addi	tp,tp,12 # ffffffffffff800c <a+0xffffffff7fff7054>
     2ea:	0000                	unimp
     2ec:	6501                	.2byte	0x6501
     2ee:	646e                	ld	s0,216(sp)
     2f0:	a000                	fsd	fs0,0(s0)
     2f2:	8a0c                	.2byte	0x8a0c
     2f4:	0009                	c.nop	2
     2f6:	ec00                	sd	s0,24(s0)
     2f8:	0002                	c.slli64	zero
     2fa:	0500                	addi	s0,sp,640
     2fc:	09da                	slli	s3,s3,0x16
     2fe:	8000                	.2byte	0x8000
     300:	0000                	unimp
     302:	0000                	unimp
     304:	0004                	.2byte	0x4
     306:	0000                	unimp
     308:	0000                	unimp
     30a:	0000                	unimp
     30c:	000002f7          	.4byte	0x2f7
     310:	00005d03          	lhu	s10,0(zero) # 0 <_prog_start-0x80000000>
     314:	a400                	fsd	fs0,8(s0)
     316:	7f0d                	lui	t5,0xfffe3
     318:	0000                	unimp
     31a:	ab00                	fsd	fs0,16(a4)
     31c:	00000003          	lb	zero,0(zero) # 0 <_prog_start-0x80000000>
     320:	7e16                	ld	t3,352(sp)
     322:	10000007          	.4byte	0x10000007
     326:	03000003          	lb	zero,48(zero) # 30 <_prog_start-0x7fffffd0>
     32a:	005d                	c.nop	23
     32c:	0000                	unimp
     32e:	11a5                	addi	gp,gp,-23
     330:	007f                	.2byte	0x7f
     332:	0000                	unimp
     334:	000003bf 07a11600 	.8byte	0x7a11600000003bf
     33c:	0000                	unimp
     33e:	0365                	addi	t1,t1,25
     340:	0000                	unimp
     342:	6901                	.2byte	0x6901
     344:	a600                	fsd	fs0,8(a2)
     346:	520c                	lw	a1,32(a2)
     348:	0000                	unimp
     34a:	d300                	sw	s0,32(a4)
     34c:	0d000003          	lb	zero,208(zero) # d0 <_prog_start-0x7fffff30>
     350:	0a06                	slli	s4,s4,0x1
     352:	8000                	.2byte	0x8000
     354:	0000                	unimp
     356:	0000                	unimp
     358:	0052                	c.slli	zero,0x14
     35a:	0000                	unimp
     35c:	0000                	unimp
     35e:	0000                	unimp
     360:	6a01                	.2byte	0x6a01
     362:	a700                	fsd	fs0,8(a4)
     364:	520e                	lw	tp,224(sp)
     366:	0000                	unimp
     368:	fb00                	sd	s0,48(a4)
     36a:	0d000003          	lb	zero,208(zero) # d0 <_prog_start-0x7fffff30>
     36e:	0a18                	addi	a4,sp,272
     370:	8000                	.2byte	0x8000
     372:	0000                	unimp
     374:	0000                	unimp
     376:	0038                	addi	a4,sp,8
     378:	0000                	unimp
     37a:	0000                	unimp
     37c:	0000                	unimp
     37e:	6b01                	.2byte	0x6b01
     380:	a800                	fsd	fs0,16(s0)
     382:	5210                	lw	a2,32(a2)
     384:	0000                	unimp
     386:	2300                	fld	fs0,0(a4)
     388:	0004                	.2byte	0x4
     38a:	0000                	unimp
     38c:	0000                	unimp
     38e:	6005                	c.lui	zero,0x1
     390:	000a                	c.slli	zero,0x2
     392:	0080                	addi	s0,sp,64
     394:	0000                	unimp
     396:	0400                	addi	s0,sp,512
     398:	0000                	unimp
     39a:	0000                	unimp
     39c:	0000                	unimp
     39e:	8a00                	.2byte	0x8a00
     3a0:	03000003          	lb	zero,48(zero) # 30 <_prog_start-0x7fffffd0>
     3a4:	005d                	c.nop	23
     3a6:	0000                	unimp
     3a8:	0baa                	slli	s7,s7,0xa
     3aa:	007f                	.2byte	0x7f
     3ac:	0000                	unimp
     3ae:	0000047b          	.4byte	0x47b
     3b2:	0500                	addi	s0,sp,640
     3b4:	0a64                	addi	s1,sp,284
     3b6:	8000                	.2byte	0x8000
     3b8:	0000                	unimp
     3ba:	0000                	unimp
     3bc:	0004                	.2byte	0x4
     3be:	0000                	unimp
     3c0:	0000                	unimp
     3c2:	0000                	unimp
     3c4:	000003af          	.4byte	0x3af
     3c8:	00005d03          	lhu	s10,0(zero) # 0 <_prog_start-0x80000000>
     3cc:	ab00                	fsd	fs0,16(a4)
     3ce:	00007f0f          	.4byte	0x7f0f
     3d2:	8f00                	.2byte	0x8f00
     3d4:	0004                	.2byte	0x4
     3d6:	0000                	unimp
     3d8:	d516                	sw	t0,168(sp)
     3da:	d9000007          	.4byte	0xd9000007
     3de:	01000003          	lb	zero,16(zero) # 10 <_prog_start-0x7ffffff0>
     3e2:	0069                	c.nop	26
     3e4:	0cb1                	addi	s9,s9,12
     3e6:	0052                	c.slli	zero,0x14
     3e8:	0000                	unimp
     3ea:	000004a3          	sb	zero,9(zero) # 9 <_prog_start-0x7ffffff7>
     3ee:	0902                	c.slli64	s2
     3f0:	0008                	.2byte	0x8
     3f2:	0100                	addi	s0,sp,128
     3f4:	006a                	c.slli	zero,0x1a
     3f6:	0eb2                	slli	t4,t4,0xc
     3f8:	0052                	c.slli	zero,0x14
     3fa:	0000                	unimp
     3fc:	0502                	c.slli64	a0
     3fe:	0000                	unimp
     400:	0000                	unimp
     402:	c005                	beqz	s0,422 <_prog_start-0x7ffffbde>
     404:	000a                	c.slli	zero,0x2
     406:	0080                	addi	s0,sp,64
     408:	0000                	unimp
     40a:	0400                	addi	s0,sp,512
     40c:	0000                	unimp
     40e:	0000                	unimp
     410:	0000                	unimp
     412:	fe00                	sd	s0,56(a2)
     414:	03000003          	lb	zero,48(zero) # 30 <_prog_start-0x7fffffd0>
     418:	005d                	c.nop	23
     41a:	0000                	unimp
     41c:	0db6                	slli	s11,s11,0xd
     41e:	007f                	.2byte	0x7f
     420:	0000                	unimp
     422:	0000052f          	.4byte	0x52f
     426:	0500                	addi	s0,sp,640
     428:	0ad4                	addi	a3,sp,340
     42a:	8000                	.2byte	0x8000
     42c:	0000                	unimp
     42e:	0000                	unimp
     430:	0004                	.2byte	0x4
     432:	0000                	unimp
     434:	0000                	unimp
     436:	0000                	unimp
     438:	00000423          	sb	zero,8(zero) # 8 <_prog_start-0x7ffffff8>
     43c:	00005d03          	lhu	s10,0(zero) # 0 <_prog_start-0x80000000>
     440:	bb00                	fsd	fs0,48(a4)
     442:	00007f0b          	.4byte	0x7f0b
     446:	4300                	lw	s0,0(a4)
     448:	0005                	c.nop	1
     44a:	0000                	unimp
     44c:	f605                	bnez	a2,374 <_prog_start-0x7ffffc8c>
     44e:	000a                	c.slli	zero,0x2
     450:	0080                	addi	s0,sp,64
     452:	0000                	unimp
     454:	0400                	addi	s0,sp,512
     456:	0000                	unimp
     458:	0000                	unimp
     45a:	0000                	unimp
     45c:	4800                	lw	s0,16(s0)
     45e:	0004                	.2byte	0x4
     460:	0300                	addi	s0,sp,384
     462:	005d                	c.nop	23
     464:	0000                	unimp
     466:	0dc1                	addi	s11,s11,16
     468:	007f                	.2byte	0x7f
     46a:	0000                	unimp
     46c:	00000557          	.4byte	0x557
     470:	0500                	addi	s0,sp,640
     472:	0afa                	slli	s5,s5,0x1e
     474:	8000                	.2byte	0x8000
     476:	0000                	unimp
     478:	0000                	unimp
     47a:	0004                	.2byte	0x4
     47c:	0000                	unimp
     47e:	0000                	unimp
     480:	0000                	unimp
     482:	046d                	addi	s0,s0,27
     484:	0000                	unimp
     486:	00005d03          	lhu	s10,0(zero) # 0 <_prog_start-0x80000000>
     48a:	c200                	sw	s0,0(a2)
     48c:	7f11                	lui	t5,0xfffe4
     48e:	0000                	unimp
     490:	6b00                	ld	s0,16(a4)
     492:	0005                	c.nop	1
     494:	0000                	unimp
     496:	0405                	addi	s0,s0,1
     498:	000c                	.2byte	0xc
     49a:	0080                	addi	s0,sp,64
     49c:	0000                	unimp
     49e:	0400                	addi	s0,sp,512
     4a0:	0000                	unimp
     4a2:	0000                	unimp
     4a4:	0000                	unimp
     4a6:	9200                	.2byte	0x9200
     4a8:	0004                	.2byte	0x4
     4aa:	0300                	addi	s0,sp,384
     4ac:	005d                	c.nop	23
     4ae:	0000                	unimp
     4b0:	007f0bcf          	fnmadd.s	fs7,ft10,ft7,ft0,rne
     4b4:	0000                	unimp
     4b6:	057f                	.2byte	0x57f
     4b8:	0000                	unimp
     4ba:	0500                	addi	s0,sp,640
     4bc:	0c08                	addi	a0,sp,528
     4be:	8000                	.2byte	0x8000
     4c0:	0000                	unimp
     4c2:	0000                	unimp
     4c4:	0004                	.2byte	0x4
     4c6:	0000                	unimp
     4c8:	0000                	unimp
     4ca:	0000                	unimp
     4cc:	000004b7          	lui	s1,0x0
     4d0:	00005d03          	lhu	s10,0(zero) # 0 <_prog_start-0x80000000>
     4d4:	d000                	sw	s0,32(s0)
     4d6:	00007f0f          	.4byte	0x7f0f
     4da:	9300                	.2byte	0x9300
     4dc:	0005                	c.nop	1
     4de:	0000                	unimp
     4e0:	2e05                	addiw	t3,t3,1 # 1a001 <_prog_start-0x7ffe5fff>
     4e2:	000c                	.2byte	0xc
     4e4:	0080                	addi	s0,sp,64
     4e6:	0000                	unimp
     4e8:	0400                	addi	s0,sp,512
     4ea:	0000                	unimp
     4ec:	0000                	unimp
     4ee:	0000                	unimp
     4f0:	dc00                	sw	s0,56(s0)
     4f2:	0004                	.2byte	0x4
     4f4:	0300                	addi	s0,sp,384
     4f6:	005d                	c.nop	23
     4f8:	0000                	unimp
     4fa:	007f0fd7          	.4byte	0x7f0fd7
     4fe:	0000                	unimp
     500:	000005a7          	.4byte	0x5a7
     504:	0500                	addi	s0,sp,640
     506:	0c48                	addi	a0,sp,532
     508:	8000                	.2byte	0x8000
     50a:	0000                	unimp
     50c:	0000                	unimp
     50e:	0004                	.2byte	0x4
     510:	0000                	unimp
     512:	0000                	unimp
     514:	0000                	unimp
     516:	0501                	addi	a0,a0,0 # 18000 <_prog_start-0x7ffe8000>
     518:	0000                	unimp
     51a:	00005d03          	lhu	s10,0(zero) # 0 <_prog_start-0x80000000>
     51e:	de00                	sw	s0,56(a2)
     520:	7f0e                	ld	t5,224(sp)
     522:	0000                	unimp
     524:	bb00                	fsd	fs0,48(a4)
     526:	0005                	c.nop	1
     528:	0000                	unimp
     52a:	4c05                	li	s8,1
     52c:	000c                	.2byte	0xc
     52e:	0080                	addi	s0,sp,64
     530:	0000                	unimp
     532:	0400                	addi	s0,sp,512
     534:	0000                	unimp
     536:	0000                	unimp
     538:	0000                	unimp
     53a:	2600                	fld	fs0,8(a2)
     53c:	0005                	c.nop	1
     53e:	0300                	addi	s0,sp,384
     540:	005d                	c.nop	23
     542:	0000                	unimp
     544:	10e1                	addi	ra,ra,-8
     546:	007f                	.2byte	0x7f
     548:	0000                	unimp
     54a:	000005cf          	fnmadd.s	fa1,ft0,ft0,ft0,rne
     54e:	0500                	addi	s0,sp,640
     550:	0c7e                	slli	s8,s8,0x1f
     552:	8000                	.2byte	0x8000
     554:	0000                	unimp
     556:	0000                	unimp
     558:	0004                	.2byte	0x4
     55a:	0000                	unimp
     55c:	0000                	unimp
     55e:	0000                	unimp
     560:	0000054b          	fnmsub.s	fa0,ft0,ft0,ft0,rne
     564:	00005d03          	lhu	s10,0(zero) # 0 <_prog_start-0x80000000>
     568:	e400                	sd	s0,8(s0)
     56a:	7f0e                	ld	t5,224(sp)
     56c:	0000                	unimp
     56e:	e300                	sd	s0,0(a4)
     570:	0005                	c.nop	1
     572:	0000                	unimp
     574:	8205                	srli	a2,a2,0x1
     576:	000c                	.2byte	0xc
     578:	0080                	addi	s0,sp,64
     57a:	0000                	unimp
     57c:	0400                	addi	s0,sp,512
     57e:	0000                	unimp
     580:	0000                	unimp
     582:	0000                	unimp
     584:	7000                	ld	s0,32(s0)
     586:	0005                	c.nop	1
     588:	0300                	addi	s0,sp,384
     58a:	005d                	c.nop	23
     58c:	0000                	unimp
     58e:	007f10e7          	.4byte	0x7f10e7
     592:	0000                	unimp
     594:	000005f7          	.4byte	0x5f7
     598:	0500                	addi	s0,sp,640
     59a:	0c96                	slli	s9,s9,0x5
     59c:	8000                	.2byte	0x8000
     59e:	0000                	unimp
     5a0:	0000                	unimp
     5a2:	0004                	.2byte	0x4
     5a4:	0000                	unimp
     5a6:	0000                	unimp
     5a8:	0000                	unimp
     5aa:	0595                	addi	a1,a1,5 # 64000005 <_prog_start-0x1bfffffb>
     5ac:	0000                	unimp
     5ae:	00005d03          	lhu	s10,0(zero) # 0 <_prog_start-0x80000000>
     5b2:	ec00                	sd	s0,24(s0)
     5b4:	7f0e                	ld	t5,224(sp)
     5b6:	0000                	unimp
     5b8:	0b00                	addi	s0,sp,400
     5ba:	0006                	c.slli	zero,0x1
     5bc:	0000                	unimp
     5be:	9a05                	andi	a2,a2,-31
     5c0:	000c                	.2byte	0xc
     5c2:	0080                	addi	s0,sp,64
     5c4:	0000                	unimp
     5c6:	0400                	addi	s0,sp,512
     5c8:	0000                	unimp
     5ca:	0000                	unimp
     5cc:	0000                	unimp
     5ce:	ba00                	fsd	fs0,48(a2)
     5d0:	0005                	c.nop	1
     5d2:	0300                	addi	s0,sp,384
     5d4:	005d                	c.nop	23
     5d6:	0000                	unimp
     5d8:	007f10ef          	jal	ra,f1dde <_prog_start-0x7ff0e222>
     5dc:	0000                	unimp
     5de:	061f 0000 0500      	.byte	0x1f, 0x06, 0x00, 0x00, 0x00, 0x05
     5e4:	0ccc                	addi	a1,sp,596
     5e6:	8000                	.2byte	0x8000
     5e8:	0000                	unimp
     5ea:	0000                	unimp
     5ec:	0004                	.2byte	0x4
     5ee:	0000                	unimp
     5f0:	0000                	unimp
     5f2:	0000                	unimp
     5f4:	05df 0000 5d03      	.byte	0xdf, 0x05, 0x00, 0x00, 0x03, 0x5d
     5fa:	0000                	unimp
     5fc:	f200                	sd	s0,32(a2)
     5fe:	7f0e                	ld	t5,224(sp)
     600:	0000                	unimp
     602:	3300                	fld	fs0,32(a4)
     604:	0006                	c.slli	zero,0x1
     606:	0000                	unimp
     608:	d005                	beqz	s0,528 <_prog_start-0x7ffffad8>
     60a:	000c                	.2byte	0xc
     60c:	0080                	addi	s0,sp,64
     60e:	0000                	unimp
     610:	0400                	addi	s0,sp,512
     612:	0000                	unimp
     614:	0000                	unimp
     616:	0000                	unimp
     618:	0400                	addi	s0,sp,512
     61a:	0006                	c.slli	zero,0x1
     61c:	0300                	addi	s0,sp,384
     61e:	005d                	c.nop	23
     620:	0000                	unimp
     622:	007f0df3          	.4byte	0x7f0df3
     626:	0000                	unimp
     628:	00000647          	fmsub.s	fa2,ft0,ft0,ft0,rne
     62c:	1a00                	addi	s0,sp,304
     62e:	0cb9                	addi	s9,s9,14
     630:	0000                	unimp
     632:	0b0e                	slli	s6,s6,0x3
     634:	8000                	.2byte	0x8000
     636:	0000                	unimp
     638:	0000                	unimp
     63a:	082c                	addi	a1,sp,24
     63c:	0000                	unimp
     63e:	00062ec7          	fmsub.s	ft9,fa2,ft0,ft0,rdn
     642:	0e00                	addi	s0,sp,784
     644:	00000cc3          	fmadd.s	fs9,ft0,ft0,ft0,rne
     648:	082c                	addi	a1,sp,24
     64a:	0000                	unimp
     64c:	c40a                	sw	sp,8(sp)
     64e:	000c                	.2byte	0xc
     650:	5b00                	lw	s0,48(a4)
     652:	0006                	c.slli	zero,0x1
     654:	0000                	unimp
     656:	1000                	addi	s0,sp,32
     658:	0ca4                	addi	s1,sp,600
     65a:	0000                	unimp
     65c:	0b6a                	slli	s6,s6,0x1a
     65e:	8000                	.2byte	0x8000
     660:	0000                	unimp
     662:	0000                	unimp
     664:	0026                	c.slli	zero,0x9
     666:	0000                	unimp
     668:	0000                	unimp
     66a:	0000                	unimp
     66c:	03c8                	addi	a0,sp,452
     66e:	0669                	addi	a2,a2,26
     670:	0000                	unimp
     672:	ae11                	j	986 <_prog_start-0x7ffff67a>
     674:	000c                	.2byte	0xc
     676:	6a00                	ld	s0,16(a2)
     678:	0080000b          	.4byte	0x80000b
     67c:	0000                	unimp
     67e:	2600                	fld	fs0,8(a2)
     680:	0000                	unimp
     682:	0000                	unimp
     684:	0000                	unimp
     686:	0a00                	addi	s0,sp,272
     688:	00000caf          	.4byte	0xcaf
     68c:	00000683          	lb	a3,0(zero) # 0 <_prog_start-0x80000000>
     690:	0000                	unimp
     692:	371a                	fld	fa4,416(sp)
     694:	a000000b          	.4byte	0xa000000b
     698:	0080000b          	.4byte	0x80000b
     69c:	0000                	unimp
     69e:	4f00                	lw	s0,24(a4)
     6a0:	0008                	.2byte	0x8
     6a2:	cd00                	sw	s0,24(a0)
     6a4:	00000693          	li	a3,0
     6a8:	410e                	lw	sp,192(sp)
     6aa:	4f00000b          	.4byte	0x4f00000b
     6ae:	0008                	.2byte	0x8
     6b0:	0a00                	addi	s0,sp,272
     6b2:	0b42                	slli	s6,s6,0x10
     6b4:	0000                	unimp
     6b6:	00000697          	auipc	a3,0x0
     6ba:	0000                	unimp
     6bc:	2210                	fld	fa2,0(a2)
     6be:	de00000b          	.4byte	0xde00000b
     6c2:	0080000b          	.4byte	0x80000b
     6c6:	0000                	unimp
     6c8:	2600                	fld	fs0,8(a2)
     6ca:	0000                	unimp
     6cc:	0000                	unimp
     6ce:	0000                	unimp
     6d0:	ce00                	sw	s0,24(a2)
     6d2:	0006ce03          	lbu	t3,0(a3) # 6b6 <_prog_start-0x7ffff94a>
     6d6:	1100                	addi	s0,sp,160
     6d8:	0b2c                	addi	a1,sp,408
     6da:	0000                	unimp
     6dc:	0bde                	slli	s7,s7,0x17
     6de:	8000                	.2byte	0x8000
     6e0:	0000                	unimp
     6e2:	0000                	unimp
     6e4:	0026                	c.slli	zero,0x9
     6e6:	0000                	unimp
     6e8:	0000                	unimp
     6ea:	0000                	unimp
     6ec:	2d0a                	fld	fs10,128(sp)
     6ee:	bf00000b          	.4byte	0xbf00000b
     6f2:	0006                	c.slli	zero,0x1
     6f4:	0000                	unimp
     6f6:	1000                	addi	s0,sp,32
     6f8:	0cb9                	addi	s9,s9,14
     6fa:	0000                	unimp
     6fc:	0c56                	slli	s8,s8,0x15
     6fe:	8000                	.2byte	0x8000
     700:	0000                	unimp
     702:	0000                	unimp
     704:	0028                	addi	a0,sp,8
     706:	0000                	unimp
     708:	0000                	unimp
     70a:	0000                	unimp
     70c:	070905e3          	beq	s2,a6,f76 <_prog_start-0x7ffff08a>
     710:	0000                	unimp
     712:	c311                	beqz	a4,716 <_prog_start-0x7ffff8ea>
     714:	000c                	.2byte	0xc
     716:	5600                	lw	s0,40(a2)
     718:	000c                	.2byte	0xc
     71a:	0080                	addi	s0,sp,64
     71c:	0000                	unimp
     71e:	2800                	fld	fs0,16(s0)
     720:	0000                	unimp
     722:	0000                	unimp
     724:	0000                	unimp
     726:	0a00                	addi	s0,sp,272
     728:	0cc4                	addi	s1,sp,596
     72a:	0000                	unimp
     72c:	000006d3          	fadd.s	fa3,ft0,ft0,rne
     730:	0000                	unimp
     732:	3710                	fld	fa2,40(a4)
     734:	a200000b          	.4byte	0xa200000b
     738:	000c                	.2byte	0xc
     73a:	0080                	addi	s0,sp,64
     73c:	0000                	unimp
     73e:	2a00                	fld	fs0,16(a2)
     740:	0000                	unimp
     742:	0000                	unimp
     744:	0000                	unimp
     746:	f100                	sd	s0,32(a0)
     748:	4405                	li	s0,1
     74a:	11000007          	.4byte	0x11000007
     74e:	0b41                	addi	s6,s6,16
     750:	0000                	unimp
     752:	0ca2                	slli	s9,s9,0x8
     754:	8000                	.2byte	0x8000
     756:	0000                	unimp
     758:	0000                	unimp
     75a:	002a                	c.slli	zero,0xa
     75c:	0000                	unimp
     75e:	0000                	unimp
     760:	0000                	unimp
     762:	420a                	lw	tp,128(sp)
     764:	fb00000b          	.4byte	0xfb00000b
     768:	0006                	c.slli	zero,0x1
     76a:	0000                	unimp
     76c:	0800                	addi	s0,sp,16
     76e:	09da                	slli	s3,s3,0x16
     770:	8000                	.2byte	0x8000
     772:	0000                	unimp
     774:	0000                	unimp
     776:	01f4                	addi	a3,sp,204
     778:	0000                	unimp
     77a:	0769                	addi	a4,a4,26
     77c:	0000                	unimp
     77e:	0104                	addi	s1,sp,128
     780:	095a                	slli	s2,s2,0x16
     782:	000fc003          	lbu	zero,0(t6)
     786:	0080                	addi	s0,sp,64
     788:	0000                	unimp
     78a:	0400                	addi	s0,sp,512
     78c:	5b01                	li	s6,-32
     78e:	0802                	c.slli64	a6
     790:	0040                	addi	s0,sp,4
     792:	7c08                	ld	a0,56(s0)
     794:	000a                	c.slli	zero,0x2
     796:	0080                	addi	s0,sp,64
     798:	0000                	unimp
     79a:	f400                	sd	s0,40(s0)
     79c:	0001                	nop
     79e:	8800                	.2byte	0x8800
     7a0:	04000007          	.4byte	0x4000007
     7a4:	5a01                	li	s4,-32
     7a6:	0309                	addi	t1,t1,2
     7a8:	0ff0                	addi	a2,sp,988
     7aa:	8000                	.2byte	0x8000
     7ac:	0000                	unimp
     7ae:	0000                	unimp
     7b0:	0800                	addi	s0,sp,16
     7b2:	0a8a                	slli	s5,s5,0x2
     7b4:	8000                	.2byte	0x8000
     7b6:	0000                	unimp
     7b8:	0000                	unimp
     7ba:	01f4                	addi	a3,sp,204
     7bc:	0000                	unimp
     7be:	07ad                	addi	a5,a5,11
     7c0:	0000                	unimp
     7c2:	0104                	addi	s1,sp,128
     7c4:	095a                	slli	s2,s2,0x16
     7c6:	00102003          	lw	zero,1(zero) # 1 <_prog_start-0x7fffffff>
     7ca:	0080                	addi	s0,sp,64
     7cc:	0000                	unimp
     7ce:	0400                	addi	s0,sp,512
     7d0:	5b01                	li	s6,-32
     7d2:	7902                	ld	s2,32(sp)
     7d4:	0000                	unimp
     7d6:	d409                	beqz	s0,6e0 <_prog_start-0x7ffff920>
     7d8:	000a                	c.slli	zero,0x2
     7da:	0080                	addi	s0,sp,64
     7dc:	0000                	unimp
     7de:	c000                	sw	s0,0(s0)
     7e0:	000a                	c.slli	zero,0x2
     7e2:	0800                	addi	s0,sp,16
     7e4:	0ae6                	slli	s5,s5,0x19
     7e6:	8000                	.2byte	0x8000
     7e8:	0000                	unimp
     7ea:	0000                	unimp
     7ec:	01f4                	addi	a3,sp,204
     7ee:	0000                	unimp
     7f0:	07d9                	addi	a5,a5,22
     7f2:	0000                	unimp
     7f4:	0104                	addi	s1,sp,128
     7f6:	095a                	slli	s2,s2,0x16
     7f8:	00103803          	ld	a6,1(zero) # 1 <_prog_start-0x7fffffff>
     7fc:	0080                	addi	s0,sp,64
     7fe:	0000                	unimp
     800:	0000                	unimp
     802:	f608                	sd	a0,40(a2)
     804:	000a                	c.slli	zero,0x2
     806:	0080                	addi	s0,sp,64
     808:	0000                	unimp
     80a:	f400                	sd	s0,40(s0)
     80c:	0001                	nop
     80e:	fe00                	sd	s0,56(a2)
     810:	04000007          	.4byte	0x4000007
     814:	5a01                	li	s4,-32
     816:	0309                	addi	t1,t1,2
     818:	1068                	addi	a0,sp,44
     81a:	8000                	.2byte	0x8000
     81c:	0000                	unimp
     81e:	0000                	unimp
     820:	0104                	addi	s1,sp,128
     822:	4008025b          	.4byte	0x4008025b
     826:	0900                	addi	s0,sp,144
     828:	0b02                	c.slli64	s6
     82a:	8000                	.2byte	0x8000
     82c:	0000                	unimp
     82e:	0000                	unimp
     830:	0dd0                	addi	a2,sp,724
     832:	0000                	unimp
     834:	0609                	addi	a2,a2,2
     836:	0080000b          	.4byte	0x80000b
     83a:	0000                	unimp
     83c:	7a00                	ld	s0,48(a2)
     83e:	000d                	c.nop	3
     840:	0900                	addi	s0,sp,144
     842:	0b0a                	slli	s6,s6,0x2
     844:	8000                	.2byte	0x8000
     846:	0000                	unimp
     848:	0000                	unimp
     84a:	0d24                	addi	s1,sp,664
     84c:	0000                	unimp
     84e:	0e09                	addi	t3,t3,2
     850:	0080000b          	.4byte	0x80000b
     854:	0000                	unimp
     856:	ce00                	sw	s0,24(a2)
     858:	000c                	.2byte	0xc
     85a:	0900                	addi	s0,sp,144
     85c:	0b94                	addi	a3,sp,464
     85e:	8000                	.2byte	0x8000
     860:	0000                	unimp
     862:	0000                	unimp
     864:	0c4e                	slli	s8,s8,0x13
     866:	0000                	unimp
     868:	9809                	andi	s0,s0,-30
     86a:	0080000b          	.4byte	0x80000b
     86e:	0000                	unimp
     870:	f800                	sd	s0,48(s0)
     872:	0900000b          	.4byte	0x900000b
     876:	0b9c                	addi	a5,sp,464
     878:	8000                	.2byte	0x8000
     87a:	0000                	unimp
     87c:	0000                	unimp
     87e:	0ba2                	slli	s7,s7,0x8
     880:	0000                	unimp
     882:	a009                	j	884 <_prog_start-0x7ffff77c>
     884:	0080000b          	.4byte	0x80000b
     888:	0000                	unimp
     88a:	4c00                	lw	s0,24(s0)
     88c:	0800000b          	.4byte	0x800000b
     890:	0c1c                	addi	a5,sp,528
     892:	8000                	.2byte	0x8000
     894:	0000                	unimp
     896:	0000                	unimp
     898:	01f4                	addi	a3,sp,204
     89a:	0000                	unimp
     89c:	0885                	addi	a7,a7,1
     89e:	0000                	unimp
     8a0:	0104                	addi	s1,sp,128
     8a2:	095a                	slli	s2,s2,0x16
     8a4:	000ff003          	.4byte	0xff003
     8a8:	0080                	addi	s0,sp,64
     8aa:	0000                	unimp
     8ac:	0000                	unimp
     8ae:	2e08                	fld	fa0,24(a2)
     8b0:	000c                	.2byte	0xc
     8b2:	0080                	addi	s0,sp,64
     8b4:	0000                	unimp
     8b6:	f400                	sd	s0,40(s0)
     8b8:	0001                	nop
     8ba:	aa00                	fsd	fs0,16(a2)
     8bc:	0008                	.2byte	0x8
     8be:	0400                	addi	s0,sp,512
     8c0:	5a01                	li	s4,-32
     8c2:	0309                	addi	t1,t1,2
     8c4:	1020                	addi	s0,sp,40
     8c6:	8000                	.2byte	0x8000
     8c8:	0000                	unimp
     8ca:	0000                	unimp
     8cc:	0104                	addi	s1,sp,128
     8ce:	0078025b          	.4byte	0x78025b
     8d2:	0900                	addi	s0,sp,144
     8d4:	0c48                	addi	a0,sp,532
     8d6:	8000                	.2byte	0x8000
     8d8:	0000                	unimp
     8da:	0000                	unimp
     8dc:	0dd0                	addi	a2,sp,724
     8de:	0000                	unimp
     8e0:	9609                	srai	a2,a2,0x22
     8e2:	000c                	.2byte	0xc
     8e4:	0080                	addi	s0,sp,64
     8e6:	0000                	unimp
     8e8:	4e00                	lw	s0,24(a2)
     8ea:	000c                	.2byte	0xc
     8ec:	0800                	addi	s0,sp,16
     8ee:	0ce4                	addi	s1,sp,604
     8f0:	8000                	.2byte	0x8000
     8f2:	0000                	unimp
     8f4:	0000                	unimp
     8f6:	01f4                	addi	a3,sp,204
     8f8:	0000                	unimp
     8fa:	000008e3          	beqz	zero,110a <_prog_start-0x7fffeef6>
     8fe:	0104                	addi	s1,sp,128
     900:	095a                	slli	s2,s2,0x16
     902:	00103803          	ld	a6,1(zero) # 1 <_prog_start-0x7fffffff>
     906:	0080                	addi	s0,sp,64
     908:	0000                	unimp
     90a:	0000                	unimp
     90c:	f408                	sd	a0,40(s0)
     90e:	000c                	.2byte	0xc
     910:	0080                	addi	s0,sp,64
     912:	0000                	unimp
     914:	f400                	sd	s0,40(s0)
     916:	0001                	nop
     918:	0b00                	addi	s0,sp,400
     91a:	0009                	c.nop	2
     91c:	0400                	addi	s0,sp,512
     91e:	5a01                	li	s4,-32
     920:	0309                	addi	t1,t1,2
     922:	10a0                	addi	s0,sp,104
     924:	8000                	.2byte	0x8000
     926:	0000                	unimp
     928:	0000                	unimp
     92a:	0104                	addi	s1,sp,128
     92c:	0087055b          	.4byte	0x87055b
     930:	0084                	addi	s1,sp,64
     932:	001c                	.2byte	0x1c
     934:	0408                	addi	a0,sp,512
     936:	000d                	c.nop	3
     938:	0080                	addi	s0,sp,64
     93a:	0000                	unimp
     93c:	f400                	sd	s0,40(s0)
     93e:	0001                	nop
     940:	3300                	fld	fs0,32(a4)
     942:	0009                	c.nop	2
     944:	0400                	addi	s0,sp,512
     946:	5a01                	li	s4,-32
     948:	0309                	addi	t1,t1,2
     94a:	10b8                	addi	a4,sp,104
     94c:	8000                	.2byte	0x8000
     94e:	0000                	unimp
     950:	0000                	unimp
     952:	0104                	addi	s1,sp,128
     954:	0089055b          	.4byte	0x89055b
     958:	0086                	slli	ra,ra,0x1
     95a:	001c                	.2byte	0x1c
     95c:	1408                	addi	a0,sp,544
     95e:	000d                	c.nop	3
     960:	0080                	addi	s0,sp,64
     962:	0000                	unimp
     964:	f400                	sd	s0,40(s0)
     966:	0001                	nop
     968:	5b00                	lw	s0,48(a4)
     96a:	0009                	c.nop	2
     96c:	0400                	addi	s0,sp,512
     96e:	5a01                	li	s4,-32
     970:	0309                	addi	t1,t1,2
     972:	10d0                	addi	a2,sp,100
     974:	8000                	.2byte	0x8000
     976:	0000                	unimp
     978:	0000                	unimp
     97a:	0104                	addi	s1,sp,128
     97c:	008b055b          	.4byte	0x8b055b
     980:	0088                	addi	a0,sp,64
     982:	001c                	.2byte	0x1c
     984:	2424                	fld	fs1,72(s0)
     986:	000d                	c.nop	3
     988:	0080                	addi	s0,sp,64
     98a:	0000                	unimp
     98c:	f400                	sd	s0,40(s0)
     98e:	0001                	nop
     990:	0400                	addi	s0,sp,512
     992:	5a01                	li	s4,-32
     994:	0309                	addi	t1,t1,2
     996:	10e8                	addi	a0,sp,108
     998:	8000                	.2byte	0x8000
     99a:	0000                	unimp
     99c:	0000                	unimp
     99e:	0104                	addi	s1,sp,128
     9a0:	0078055b          	.4byte	0x78055b
     9a4:	008a                	slli	ra,ra,0x2
     9a6:	001c                	.2byte	0x1c
     9a8:	0f00                	addi	s0,sp,912
     9aa:	0985                	addi	s3,s3,1
     9ac:	0000                	unimp
     9ae:	00020c0f          	.4byte	0x20c0f
     9b2:	2500                	fld	fs0,8(a0)
     9b4:	000000a3          	sb	zero,1(zero) # 1 <_prog_start-0x7fffffff>
     9b8:	099a                	slli	s3,s3,0x6
     9ba:	0000                	unimp
     9bc:	7f26                	ld	t5,104(sp)
     9be:	0000                	unimp
     9c0:	0300                	addi	s0,sp,384
     9c2:	0700                	addi	s0,sp,896
     9c4:	017c                	addi	a5,sp,140
     9c6:	0000                	unimp
     9c8:	0e90                	addi	a2,sp,848
     9ca:	0009                	c.nop	2
     9cc:	0080                	addi	s0,sp,64
     9ce:	0000                	unimp
     9d0:	9800                	.2byte	0x9800
     9d2:	0000                	unimp
     9d4:	0000                	unimp
     9d6:	0000                	unimp
     9d8:	0100                	addi	s0,sp,128
     9da:	fc9c                	sd	a5,56(s1)
     9dc:	0009                	c.nop	2
     9de:	0200                	addi	s0,sp,256
     9e0:	0716                	slli	a4,a4,0x5
     9e2:	0000                	unimp
     9e4:	6901                	.2byte	0x6901
     9e6:	9100                	.2byte	0x9100
     9e8:	520c                	lw	a1,32(a2)
     9ea:	0000                	unimp
     9ec:	2300                	fld	fs0,0(a4)
     9ee:	02000007          	.4byte	0x2000007
     9f2:	074a                	slli	a4,a4,0x12
     9f4:	0000                	unimp
     9f6:	6a01                	.2byte	0x6a01
     9f8:	9200                	.2byte	0x9200
     9fa:	520e                	lw	tp,224(sp)
     9fc:	0000                	unimp
     9fe:	4c00                	lw	s0,24(s0)
     a00:	0d000007          	.4byte	0xd000007
     a04:	0952                	slli	s2,s2,0x14
     a06:	8000                	.2byte	0x8000
     a08:	0000                	unimp
     a0a:	0000                	unimp
     a0c:	003a                	c.slli	zero,0xe
     a0e:	0000                	unimp
     a10:	0000                	unimp
     a12:	0000                	unimp
     a14:	6b01                	.2byte	0x6b01
     a16:	9300                	.2byte	0x9300
     a18:	5210                	lw	a2,32(a2)
     a1a:	0000                	unimp
     a1c:	7400                	ld	s0,40(s0)
     a1e:	00000007          	.4byte	0x7
     a22:	0000                	unimp
     a24:	0700                	addi	s0,sp,896
     a26:	0176                	slli	sp,sp,0x1d
     a28:	0000                	unimp
     a2a:	6e89                	lui	t4,0x2
     a2c:	0008                	.2byte	0x8
     a2e:	0080                	addi	s0,sp,64
     a30:	0000                	unimp
     a32:	a000                	fsd	fs0,0(s0)
     a34:	0000                	unimp
     a36:	0000                	unimp
     a38:	0000                	unimp
     a3a:	0100                	addi	s0,sp,128
     a3c:	5e9c                	lw	a5,56(a3)
     a3e:	000a                	c.slli	zero,0x2
     a40:	0200                	addi	s0,sp,256
     a42:	069d                	addi	a3,a3,7
     a44:	0000                	unimp
     a46:	6901                	.2byte	0x6901
     a48:	8a00                	.2byte	0x8a00
     a4a:	520c                	lw	a1,32(a2)
     a4c:	0000                	unimp
     a4e:	cc00                	sw	s0,24(s0)
     a50:	02000007          	.4byte	0x2000007
     a54:	06d1                	addi	a3,a3,20
     a56:	0000                	unimp
     a58:	6a01                	.2byte	0x6a01
     a5a:	8b00                	.2byte	0x8b00
     a5c:	520e                	lw	tp,224(sp)
     a5e:	0000                	unimp
     a60:	f500                	sd	s0,40(a0)
     a62:	0d000007          	.4byte	0xd000007
     a66:	08b8                	addi	a4,sp,88
     a68:	8000                	.2byte	0x8000
     a6a:	0000                	unimp
     a6c:	0000                	unimp
     a6e:	003a                	c.slli	zero,0xe
     a70:	0000                	unimp
     a72:	0000                	unimp
     a74:	0000                	unimp
     a76:	6b01                	.2byte	0x6b01
     a78:	8c00                	.2byte	0x8c00
     a7a:	5210                	lw	a2,32(a2)
     a7c:	0000                	unimp
     a7e:	1d00                	addi	s0,sp,688
     a80:	0008                	.2byte	0x8
     a82:	0000                	unimp
     a84:	0000                	unimp
     a86:	0700                	addi	s0,sp,896
     a88:	0170                	addi	a2,sp,140
     a8a:	0000                	unimp
     a8c:	0007ec83          	lwu	s9,0(a5)
     a90:	0080                	addi	s0,sp,64
     a92:	0000                	unimp
     a94:	8200                	.2byte	0x8200
     a96:	0000                	unimp
     a98:	0000                	unimp
     a9a:	0000                	unimp
     a9c:	0100                	addi	s0,sp,128
     a9e:	c09c                	sw	a5,0(s1)
     aa0:	000a                	c.slli	zero,0x2
     aa2:	0200                	addi	s0,sp,256
     aa4:	00000657          	.4byte	0x657
     aa8:	6901                	.2byte	0x6901
     aaa:	8400                	.2byte	0x8400
     aac:	520c                	lw	a1,32(a2)
     aae:	0000                	unimp
     ab0:	7500                	ld	s0,40(a0)
     ab2:	0008                	.2byte	0x8
     ab4:	0200                	addi	s0,sp,256
     ab6:	067a                	slli	a2,a2,0x1e
     ab8:	0000                	unimp
     aba:	6a01                	.2byte	0x6a01
     abc:	8500                	.2byte	0x8500
     abe:	520e                	lw	tp,224(sp)
     ac0:	0000                	unimp
     ac2:	8a00                	.2byte	0x8a00
     ac4:	0008                	.2byte	0x8
     ac6:	0d00                	addi	s0,sp,656
     ac8:	0828                	addi	a0,sp,24
     aca:	8000                	.2byte	0x8000
     acc:	0000                	unimp
     ace:	0000                	unimp
     ad0:	003a                	c.slli	zero,0xe
     ad2:	0000                	unimp
     ad4:	0000                	unimp
     ad6:	0000                	unimp
     ad8:	6b01                	.2byte	0x6b01
     ada:	8600                	.2byte	0x8600
     adc:	5210                	lw	a2,32(a2)
     ade:	0000                	unimp
     ae0:	b200                	fsd	fs0,32(a2)
     ae2:	0008                	.2byte	0x8
     ae4:	0000                	unimp
     ae6:	0000                	unimp
     ae8:	0700                	addi	s0,sp,896
     aea:	0000006b          	.4byte	0x6b
     aee:	547c                	lw	a5,108(s0)
     af0:	00800007          	.4byte	0x800007
     af4:	0000                	unimp
     af6:	9800                	.2byte	0x9800
     af8:	0000                	unimp
     afa:	0000                	unimp
     afc:	0000                	unimp
     afe:	0100                	addi	s0,sp,128
     b00:	229c                	fld	fa5,0(a3)
     b02:	0200000b          	.4byte	0x200000b
     b06:	0600                	addi	s0,sp,768
     b08:	0000                	unimp
     b0a:	6901                	.2byte	0x6901
     b0c:	7d00                	ld	s0,56(a0)
     b0e:	520c                	lw	a1,32(a2)
     b10:	0000                	unimp
     b12:	c700                	sw	s0,8(a4)
     b14:	0008                	.2byte	0x8
     b16:	0200                	addi	s0,sp,256
     b18:	00000623          	sb	zero,12(zero) # c <_prog_start-0x7ffffff4>
     b1c:	6a01                	.2byte	0x6a01
     b1e:	7e00                	ld	s0,56(a2)
     b20:	520e                	lw	tp,224(sp)
     b22:	0000                	unimp
     b24:	ef00                	sd	s0,24(a4)
     b26:	0008                	.2byte	0x8
     b28:	0d00                	addi	s0,sp,656
     b2a:	0796                	slli	a5,a5,0x5
     b2c:	8000                	.2byte	0x8000
     b2e:	0000                	unimp
     b30:	0000                	unimp
     b32:	003a                	c.slli	zero,0xe
     b34:	0000                	unimp
     b36:	0000                	unimp
     b38:	0000                	unimp
     b3a:	6b01                	.2byte	0x6b01
     b3c:	7f00                	ld	s0,56(a4)
     b3e:	5210                	lw	a2,32(a2)
     b40:	0000                	unimp
     b42:	1700                	addi	s0,sp,928
     b44:	0009                	c.nop	2
     b46:	0000                	unimp
     b48:	0000                	unimp
     b4a:	1200                	addi	s0,sp,288
     b4c:	01d9                	addi	gp,gp,22
     b4e:	0000                	unimp
     b50:	3776                	fld	fa4,376(sp)
     b52:	1300000b          	.4byte	0x1300000b
     b56:	6914                	ld	a3,16(a0)
     b58:	7700                	ld	s0,40(a4)
     b5a:	0052                	c.slli	zero,0x14
     b5c:	0000                	unimp
     b5e:	0000                	unimp
     b60:	d312                	sw	tp,164(sp)
     b62:	0001                	nop
     b64:	7100                	ld	s0,32(a0)
     b66:	0b4c                	addi	a1,sp,404
     b68:	0000                	unimp
     b6a:	00691413          	slli	s0,s2,0x6
     b6e:	5272                	lw	tp,60(sp)
     b70:	0000                	unimp
     b72:	0000                	unimp
     b74:	0700                	addi	s0,sp,896
     b76:	015c                	addi	a5,sp,132
     b78:	0000                	unimp
     b7a:	00064867          	.4byte	0x64867
     b7e:	0080                	addi	s0,sp,64
     b80:	0000                	unimp
     b82:	8400                	.2byte	0x8400
     b84:	0000                	unimp
     b86:	0000                	unimp
     b88:	0000                	unimp
     b8a:	0100                	addi	s0,sp,128
     b8c:	a29c                	fsd	fa5,0(a3)
     b8e:	0200000b          	.4byte	0x200000b
     b92:	050d                	addi	a0,a0,3
     b94:	0000                	unimp
     b96:	6901                	.2byte	0x6901
     b98:	6800                	ld	s0,16(s0)
     b9a:	520c                	lw	a1,32(a2)
     b9c:	0000                	unimp
     b9e:	6f00                	ld	s0,24(a4)
     ba0:	0009                	c.nop	2
     ba2:	0200                	addi	s0,sp,256
     ba4:	0552                	slli	a0,a0,0x14
     ba6:	0000                	unimp
     ba8:	6a01                	.2byte	0x6a01
     baa:	6900                	ld	s0,16(a0)
     bac:	520e                	lw	tp,224(sp)
     bae:	0000                	unimp
     bb0:	ac00                	fsd	fs0,24(s0)
     bb2:	0009                	c.nop	2
     bb4:	0200                	addi	s0,sp,256
     bb6:	00000597          	auipc	a1,0x0
     bba:	6b01                	.2byte	0x6b01
     bbc:	6b00                	ld	s0,16(a4)
     bbe:	5210                	lw	a2,32(a2)
     bc0:	0000                	unimp
     bc2:	f300                	sd	s0,32(a4)
     bc4:	0009                	c.nop	2
     bc6:	0000                	unimp
     bc8:	0000                	unimp
     bca:	0700                	addi	s0,sp,896
     bcc:	0156                	slli	sp,sp,0x15
     bce:	0000                	unimp
     bd0:	c45e                	sw	s7,8(sp)
     bd2:	0005                	c.nop	1
     bd4:	0080                	addi	s0,sp,64
     bd6:	0000                	unimp
     bd8:	8400                	.2byte	0x8400
     bda:	0000                	unimp
     bdc:	0000                	unimp
     bde:	0000                	unimp
     be0:	0100                	addi	s0,sp,128
     be2:	f89c                	sd	a5,48(s1)
     be4:	0200000b          	.4byte	0x200000b
     be8:	0460                	addi	s0,sp,524
     bea:	0000                	unimp
     bec:	6901                	.2byte	0x6901
     bee:	5f00                	lw	s0,56(a4)
     bf0:	520c                	lw	a1,32(a2)
     bf2:	0000                	unimp
     bf4:	2000                	fld	fs0,0(s0)
     bf6:	000a                	c.slli	zero,0x2
     bf8:	0200                	addi	s0,sp,256
     bfa:	04a5                	addi	s1,s1,9 # 9 <_prog_start-0x7ffffff7>
     bfc:	0000                	unimp
     bfe:	6a01                	.2byte	0x6a01
     c00:	6000                	ld	s0,0(s0)
     c02:	520e                	lw	tp,224(sp)
     c04:	0000                	unimp
     c06:	5d00                	lw	s0,56(a0)
     c08:	000a                	c.slli	zero,0x2
     c0a:	0200                	addi	s0,sp,256
     c0c:	04ea                	slli	s1,s1,0x1a
     c0e:	0000                	unimp
     c10:	6b01                	.2byte	0x6b01
     c12:	6200                	ld	s0,0(a2)
     c14:	5210                	lw	a2,32(a2)
     c16:	0000                	unimp
     c18:	a400                	fsd	fs0,8(s0)
     c1a:	000a                	c.slli	zero,0x2
     c1c:	0000                	unimp
     c1e:	0000                	unimp
     c20:	0700                	addi	s0,sp,896
     c22:	0150                	addi	a2,sp,132
     c24:	0000                	unimp
     c26:	4055                	c.li	zero,21
     c28:	0005                	c.nop	1
     c2a:	0080                	addi	s0,sp,64
     c2c:	0000                	unimp
     c2e:	8400                	.2byte	0x8400
     c30:	0000                	unimp
     c32:	0000                	unimp
     c34:	0000                	unimp
     c36:	0100                	addi	s0,sp,128
     c38:	4e9c                	lw	a5,24(a3)
     c3a:	000c                	.2byte	0xc
     c3c:	0200                	addi	s0,sp,256
     c3e:	000003b3          	add	t2,zero,zero
     c42:	6901                	.2byte	0x6901
     c44:	5600                	lw	s0,40(a2)
     c46:	520c                	lw	a1,32(a2)
     c48:	0000                	unimp
     c4a:	d100                	sw	s0,32(a0)
     c4c:	000a                	c.slli	zero,0x2
     c4e:	0200                	addi	s0,sp,256
     c50:	03f8                	addi	a4,sp,460
     c52:	0000                	unimp
     c54:	6a01                	.2byte	0x6a01
     c56:	5700                	lw	s0,40(a4)
     c58:	520e                	lw	tp,224(sp)
     c5a:	0000                	unimp
     c5c:	0e00                	addi	s0,sp,784
     c5e:	0200000b          	.4byte	0x200000b
     c62:	043d                	addi	s0,s0,15
     c64:	0000                	unimp
     c66:	6b01                	.2byte	0x6b01
     c68:	5900                	lw	s0,48(a0)
     c6a:	5210                	lw	a2,32(a2)
     c6c:	0000                	unimp
     c6e:	5500                	lw	s0,40(a0)
     c70:	0000000b          	.4byte	0xb
     c74:	0000                	unimp
     c76:	0700                	addi	s0,sp,896
     c78:	014a                	slli	sp,sp,0x12
     c7a:	0000                	unimp
     c7c:	bc4c                	fsd	fa1,184(s0)
     c7e:	0004                	.2byte	0x4
     c80:	0080                	addi	s0,sp,64
     c82:	0000                	unimp
     c84:	8400                	.2byte	0x8400
     c86:	0000                	unimp
     c88:	0000                	unimp
     c8a:	0000                	unimp
     c8c:	0100                	addi	s0,sp,128
     c8e:	a49c                	fsd	fa5,8(s1)
     c90:	000c                	.2byte	0xc
     c92:	0200                	addi	s0,sp,256
     c94:	0306                	slli	t1,t1,0x1
     c96:	0000                	unimp
     c98:	6901                	.2byte	0x6901
     c9a:	4d00                	lw	s0,24(a0)
     c9c:	520c                	lw	a1,32(a2)
     c9e:	0000                	unimp
     ca0:	8200                	.2byte	0x8200
     ca2:	0200000b          	.4byte	0x200000b
     ca6:	0000034b          	fnmsub.s	ft6,ft0,ft0,ft0,rne
     caa:	6a01                	.2byte	0x6a01
     cac:	4e00                	lw	s0,24(a2)
     cae:	520e                	lw	tp,224(sp)
     cb0:	0000                	unimp
     cb2:	bf00                	fsd	fs0,56(a4)
     cb4:	0200000b          	.4byte	0x200000b
     cb8:	0390                	addi	a2,sp,448
     cba:	0000                	unimp
     cbc:	6b01                	.2byte	0x6b01
     cbe:	5000                	lw	s0,32(s0)
     cc0:	5210                	lw	a2,32(a2)
     cc2:	0000                	unimp
     cc4:	0600                	addi	s0,sp,768
     cc6:	000c                	.2byte	0xc
     cc8:	0000                	unimp
     cca:	0000                	unimp
     ccc:	1200                	addi	s0,sp,288
     cce:	008c                	addi	a1,sp,64
     cd0:	0000                	unimp
     cd2:	b946                	fsd	fa7,176(sp)
     cd4:	000c                	.2byte	0xc
     cd6:	1300                	addi	s0,sp,416
     cd8:	6914                	ld	a3,16(a0)
     cda:	4700                	lw	s0,8(a4)
     cdc:	0052                	c.slli	zero,0x14
     cde:	0000                	unimp
     ce0:	0000                	unimp
     ce2:	8612                	mv	a2,tp
     ce4:	0000                	unimp
     ce6:	4100                	lw	s0,0(a0)
     ce8:	0cce                	slli	s9,s9,0x13
     cea:	0000                	unimp
     cec:	00691413          	slli	s0,s2,0x6
     cf0:	5242                	lw	tp,48(sp)
     cf2:	0000                	unimp
     cf4:	0000                	unimp
     cf6:	0700                	addi	s0,sp,896
     cf8:	00000203          	lb	tp,0(zero) # 0 <_prog_start-0x80000000>
     cfc:	b039                	j	50a <_prog_start-0x7ffffaf6>
     cfe:	00800003          	lb	zero,8(zero) # 8 <_prog_start-0x7ffffff8>
     d02:	0000                	unimp
     d04:	8400                	.2byte	0x8400
     d06:	0000                	unimp
     d08:	0000                	unimp
     d0a:	0000                	unimp
     d0c:	0100                	addi	s0,sp,128
     d0e:	249c                	fld	fa5,8(s1)
     d10:	000d                	c.nop	3
     d12:	0200                	addi	s0,sp,256
     d14:	00000213          	li	tp,0
     d18:	6901                	.2byte	0x6901
     d1a:	3a00                	fld	fs0,48(a2)
     d1c:	520c                	lw	a1,32(a2)
     d1e:	0000                	unimp
     d20:	3300                	fld	fs0,32(a4)
     d22:	000c                	.2byte	0xc
     d24:	0200                	addi	s0,sp,256
     d26:	0258                	addi	a4,sp,260
     d28:	0000                	unimp
     d2a:	6a01                	.2byte	0x6a01
     d2c:	3b00                	fld	fs0,48(a4)
     d2e:	520e                	lw	tp,224(sp)
     d30:	0000                	unimp
     d32:	7000                	ld	s0,32(s0)
     d34:	000c                	.2byte	0xc
     d36:	0200                	addi	s0,sp,256
     d38:	029d                	addi	t0,t0,7
     d3a:	0000                	unimp
     d3c:	6b01                	.2byte	0x6b01
     d3e:	3c00                	fld	fs0,56(s0)
     d40:	5210                	lw	a2,32(a2)
     d42:	0000                	unimp
     d44:	b700                	fsd	fs0,40(a4)
     d46:	000c                	.2byte	0xc
     d48:	0000                	unimp
     d4a:	0000                	unimp
     d4c:	0700                	addi	s0,sp,896
     d4e:	01fd                	addi	gp,gp,31
     d50:	0000                	unimp
     d52:	2c32                	fld	fs8,264(sp)
     d54:	00800003          	lb	zero,8(zero) # 8 <_prog_start-0x7ffffff8>
     d58:	0000                	unimp
     d5a:	8400                	.2byte	0x8400
     d5c:	0000                	unimp
     d5e:	0000                	unimp
     d60:	0000                	unimp
     d62:	0100                	addi	s0,sp,128
     d64:	7a9c                	ld	a5,48(a3)
     d66:	000d                	c.nop	3
     d68:	0200                	addi	s0,sp,256
     d6a:	0166                	slli	sp,sp,0x19
     d6c:	0000                	unimp
     d6e:	6901                	.2byte	0x6901
     d70:	3300                	fld	fs0,32(a4)
     d72:	520c                	lw	a1,32(a2)
     d74:	0000                	unimp
     d76:	e400                	sd	s0,8(s0)
     d78:	000c                	.2byte	0xc
     d7a:	0200                	addi	s0,sp,256
     d7c:	000001ab          	.4byte	0x1ab
     d80:	6a01                	.2byte	0x6a01
     d82:	3400                	fld	fs0,40(s0)
     d84:	520e                	lw	tp,224(sp)
     d86:	0000                	unimp
     d88:	2100                	fld	fs0,0(a0)
     d8a:	000d                	c.nop	3
     d8c:	0200                	addi	s0,sp,256
     d8e:	01f0                	addi	a2,sp,204
     d90:	0000                	unimp
     d92:	6b01                	.2byte	0x6b01
     d94:	3500                	fld	fs0,40(a0)
     d96:	5210                	lw	a2,32(a2)
     d98:	0000                	unimp
     d9a:	6800                	ld	s0,16(s0)
     d9c:	000d                	c.nop	3
     d9e:	0000                	unimp
     da0:	0000                	unimp
     da2:	0700                	addi	s0,sp,896
     da4:	000001f7          	.4byte	0x1f7
     da8:	0002a82b          	.4byte	0x2a82b
     dac:	0080                	addi	s0,sp,64
     dae:	0000                	unimp
     db0:	8400                	.2byte	0x8400
     db2:	0000                	unimp
     db4:	0000                	unimp
     db6:	0000                	unimp
     db8:	0100                	addi	s0,sp,128
     dba:	d09c                	sw	a5,32(s1)
     dbc:	000d                	c.nop	3
     dbe:	0200                	addi	s0,sp,256
     dc0:	00b9                	addi	ra,ra,14
     dc2:	0000                	unimp
     dc4:	6901                	.2byte	0x6901
     dc6:	2c00                	fld	fs0,24(s0)
     dc8:	520c                	lw	a1,32(a2)
     dca:	0000                	unimp
     dcc:	9500                	.2byte	0x9500
     dce:	000d                	c.nop	3
     dd0:	0200                	addi	s0,sp,256
     dd2:	00fe                	slli	ra,ra,0x1f
     dd4:	0000                	unimp
     dd6:	6a01                	.2byte	0x6a01
     dd8:	2d00                	fld	fs0,24(a0)
     dda:	520e                	lw	tp,224(sp)
     ddc:	0000                	unimp
     dde:	d200                	sw	s0,32(a2)
     de0:	000d                	c.nop	3
     de2:	0200                	addi	s0,sp,256
     de4:	00000143          	fmadd.s	ft2,ft0,ft0,ft0,rne
     de8:	6b01                	.2byte	0x6b01
     dea:	2e00                	fld	fs0,24(a2)
     dec:	5210                	lw	a2,32(a2)
     dee:	0000                	unimp
     df0:	1900                	addi	s0,sp,176
     df2:	000e                	c.slli	zero,0x3
     df4:	0000                	unimp
     df6:	0000                	unimp
     df8:	0700                	addi	s0,sp,896
     dfa:	01f1                	addi	gp,gp,28
     dfc:	0000                	unimp
     dfe:	3424                	fld	fs1,104(s0)
     e00:	0002                	c.slli64	zero
     e02:	0080                	addi	s0,sp,64
     e04:	0000                	unimp
     e06:	7400                	ld	s0,40(s0)
     e08:	0000                	unimp
     e0a:	0000                	unimp
     e0c:	0000                	unimp
     e0e:	0100                	addi	s0,sp,128
     e10:	269c                	fld	fa5,8(a3)
     e12:	000e                	c.slli	zero,0x3
     e14:	0200                	addi	s0,sp,256
     e16:	000c                	.2byte	0xc
     e18:	0000                	unimp
     e1a:	6901                	.2byte	0x6901
     e1c:	2500                	fld	fs0,8(a0)
     e1e:	520c                	lw	a1,32(a2)
     e20:	0000                	unimp
     e22:	4600                	lw	s0,8(a2)
     e24:	000e                	c.slli	zero,0x3
     e26:	0200                	addi	s0,sp,256
     e28:	0051                	c.nop	20
     e2a:	0000                	unimp
     e2c:	6a01                	.2byte	0x6a01
     e2e:	2600                	fld	fs0,8(a2)
     e30:	520e                	lw	tp,224(sp)
     e32:	0000                	unimp
     e34:	8300                	.2byte	0x8300
     e36:	000e                	c.slli	zero,0x3
     e38:	0200                	addi	s0,sp,256
     e3a:	0096                	slli	ra,ra,0x5
     e3c:	0000                	unimp
     e3e:	6b01                	.2byte	0x6b01
     e40:	2700                	fld	fs0,8(a4)
     e42:	5210                	lw	a2,32(a2)
     e44:	0000                	unimp
     e46:	ca00                	sw	s0,16(a2)
     e48:	000e                	c.slli	zero,0x3
     e4a:	0000                	unimp
     e4c:	0000                	unimp
     e4e:	1700                	addi	s0,sp,928
     e50:	0cb9                	addi	s9,s9,14
     e52:	0000                	unimp
     e54:	0434                	addi	a3,sp,520
     e56:	8000                	.2byte	0x8000
     e58:	0000                	unimp
     e5a:	0000                	unimp
     e5c:	0044                	addi	s1,sp,4
     e5e:	0000                	unimp
     e60:	0000                	unimp
     e62:	0000                	unimp
     e64:	9c01                	subw	s0,s0,s0
     e66:	0e55                	addi	t3,t3,21
     e68:	0000                	unimp
     e6a:	c30e                	sw	gp,132(sp)
     e6c:	000c                	.2byte	0xc
     e6e:	c000                	sw	s0,0(s0)
     e70:	0002                	c.slli64	zero
     e72:	0a00                	addi	s0,sp,272
     e74:	0cc4                	addi	s1,sp,596
     e76:	0000                	unimp
     e78:	00000ef7          	.4byte	0xef7
     e7c:	0000                	unimp
     e7e:	000ca417          	auipc	s0,0xca
     e82:	7800                	ld	s0,48(s0)
     e84:	0004                	.2byte	0x4
     e86:	0080                	addi	s0,sp,64
     e88:	0000                	unimp
     e8a:	4400                	lw	s0,8(s0)
     e8c:	0000                	unimp
     e8e:	0000                	unimp
     e90:	0000                	unimp
     e92:	0100                	addi	s0,sp,128
     e94:	849c                	.2byte	0x849c
     e96:	000e                	c.slli	zero,0x3
     e98:	0e00                	addi	s0,sp,784
     e9a:	0cae                	slli	s9,s9,0xb
     e9c:	0000                	unimp
     e9e:	000002e3          	beqz	zero,16a2 <_prog_start-0x7fffe95e>
     ea2:	af0a                	fsd	ft2,408(sp)
     ea4:	000c                	.2byte	0xc
     ea6:	1f00                	addi	s0,sp,944
     ea8:	0000000f          	fence	unknown,unknown
     eac:	1700                	addi	s0,sp,928
     eae:	00000b37          	lui	s6,0x0
     eb2:	06cc                	addi	a1,sp,836
     eb4:	8000                	.2byte	0x8000
     eb6:	0000                	unimp
     eb8:	0000                	unimp
     eba:	0044                	addi	s1,sp,4
     ebc:	0000                	unimp
     ebe:	0000                	unimp
     ec0:	0000                	unimp
     ec2:	9c01                	subw	s0,s0,s0
     ec4:	00000eb3          	add	t4,zero,zero
     ec8:	410e                	lw	sp,192(sp)
     eca:	ba00000b          	.4byte	0xba00000b
     ece:	0005                	c.nop	1
     ed0:	0a00                	addi	s0,sp,272
     ed2:	0b42                	slli	s6,s6,0x10
     ed4:	0000                	unimp
     ed6:	00000f47          	fmsub.s	ft10,ft0,ft0,ft0,rne
     eda:	0000                	unimp
     edc:	000b2227          	fsw	ft0,4(s6) # 4 <_prog_start-0x7ffffffc>
     ee0:	1000                	addi	s0,sp,32
     ee2:	00800007          	.4byte	0x800007
     ee6:	0000                	unimp
     ee8:	4400                	lw	s0,8(s0)
     eea:	0000                	unimp
     eec:	0000                	unimp
     eee:	0000                	unimp
     ef0:	0100                	addi	s0,sp,128
     ef2:	0e9c                	addi	a5,sp,848
     ef4:	0b2c                	addi	a1,sp,408
     ef6:	0000                	unimp
     ef8:	05dd                	addi	a1,a1,23 # bcd <_prog_start-0x7ffff433>
     efa:	0000                	unimp
     efc:	2d0a                	fld	fs10,128(sp)
     efe:	6f00000b          	.4byte	0x6f00000b
     f02:	0000000f          	fence	unknown,unknown
     f06:	0000                	unimp
     f08:	0482                	c.slli64	s1
     f0a:	0000                	unimp
     f0c:	0005                	c.nop	1
     f0e:	0801                	addi	a6,a6,0
     f10:	022e                	slli	tp,tp,0xb
     f12:	0000                	unimp
     f14:	0000b317          	auipc	t1,0xb
     f18:	1d00                	addi	s0,sp,688
     f1a:	0135                	addi	sp,sp,13
     f1c:	0000                	unimp
     f1e:	0000                	unimp
     f20:	0000                	unimp
     f22:	0d44                	addi	s1,sp,660
     f24:	8000                	.2byte	0x8000
     f26:	0000                	unimp
     f28:	0000                	unimp
     f2a:	01c0                	addi	s0,sp,196
     f2c:	0000                	unimp
     f2e:	0000                	unimp
     f30:	0000                	unimp
     f32:	1f48                	addi	a0,sp,948
     f34:	0000                	unimp
     f36:	0802                	c.slli64	a6
     f38:	0001b707          	fld	fa4,0(gp)
     f3c:	0600                	addi	s0,sp,768
     f3e:	0235                	addi	tp,tp,13 # d <_prog_start-0x7ffffff3>
     f40:	0000                	unimp
     f42:	411b2803          	lw	a6,1041(s6)
     f46:	0000                	unimp
     f48:	1800                	addi	s0,sp,48
     f4a:	1108                	addi	a0,sp,160
     f4c:	0002                	c.slli64	zero
     f4e:	0600                	addi	s0,sp,768
     f50:	023c                	addi	a5,sp,264
     f52:	0000                	unimp
     f54:	35186303          	lwu	t1,849(a6)
     f58:	0000                	unimp
     f5a:	0200                	addi	s0,sp,256
     f5c:	0601                	addi	a2,a2,0
     f5e:	0164                	addi	s1,sp,140
     f60:	0000                	unimp
     f62:	0102                	c.slli64	sp
     f64:	6208                	ld	a0,0(a2)
     f66:	0001                	nop
     f68:	0200                	addi	s0,sp,256
     f6a:	0502                	c.slli64	a0
     f6c:	00000053          	fadd.s	ft0,ft0,ft0,rne
     f70:	0202                	c.slli64	tp
     f72:	00018707          	.4byte	0x18707
     f76:	0600                	addi	s0,sp,768
     f78:	00000223          	sb	zero,4(zero) # 4 <_prog_start-0x7ffffffc>
     f7c:	4d04                	lw	s1,24(a0)
     f7e:	7b18                	ld	a4,48(a4)
     f80:	0000                	unimp
     f82:	1900                	addi	s0,sp,176
     f84:	0504                	addi	s1,sp,640
     f86:	6e69                	lui	t3,0x1a
     f88:	0074                	addi	a3,sp,12
     f8a:	7606                	ld	a2,96(sp)
     f8c:	0000                	unimp
     f8e:	0400                	addi	s0,sp,512
     f90:	008e194f          	fnmadd.s	fs2,ft8,fs0,ft0,rtz
     f94:	0000                	unimp
     f96:	0402                	c.slli64	s0
     f98:	0001bc07          	fld	fs8,0(gp)
     f9c:	0200                	addi	s0,sp,256
     f9e:	0508                	addi	a0,sp,640
     fa0:	00a0                	addi	s0,sp,72
     fa2:	0000                	unimp
     fa4:	2506                	fld	fa0,64(sp)
     fa6:	0002                	c.slli64	zero
     fa8:	0500                	addi	s0,sp,640
     faa:	132c                	addi	a1,sp,424
     fac:	0000006f          	j	fac <_prog_start-0x7ffff054>
     fb0:	7806                	ld	a6,96(sp)
     fb2:	0000                	unimp
     fb4:	0500                	addi	s0,sp,640
     fb6:	1430                	addi	a2,sp,552
     fb8:	0082                	c.slli64	ra
     fba:	0000                	unimp
     fbc:	a81a                	fsd	ft6,16(sp)
     fbe:	0000                	unimp
     fc0:	1b00                	addi	s0,sp,432
     fc2:	0081                	addi	ra,ra,0
     fc4:	0000                	unimp
     fc6:	1302                	slli	t1,t1,0x20
     fc8:	ce22                	sw	s0,28(sp)
     fca:	0000                	unimp
     fcc:	0000                	unimp
     fce:	0000                	unimp
     fd0:	0c64                	addi	s1,sp,540
     fd2:	00b4                	addi	a3,sp,72
     fd4:	0000                	unimp
     fd6:	c90d                	beqz	a0,1008 <_prog_start-0x7fffeff8>
     fd8:	0000                	unimp
     fda:	0e00                	addi	s0,sp,784
     fdc:	00000063          	beqz	zero,fdc <_prog_start-0x7ffff024>
     fe0:	8216                	mv	tp,t0
     fe2:	000d                	c.nop	3
     fe4:	0080                	addi	s0,sp,64
     fe6:	0000                	unimp
     fe8:	8200                	.2byte	0x8200
     fea:	0001                	nop
     fec:	0000                	unimp
     fee:	0000                	unimp
     ff0:	0100                	addi	s0,sp,128
     ff2:	399c                	fld	fa5,48(a1)
     ff4:	0f000003          	lb	zero,240(zero) # f0 <_prog_start-0x7fffff10>
     ff8:	6d66                	ld	s10,88(sp)
     ffa:	0074                	addi	a3,sp,12
     ffc:	1a16                	slli	s4,s4,0x25
     ffe:	0339                	addi	t1,t1,14 # bf22 <_prog_start-0x7fff40de>
    1000:	0000                	unimp
    1002:	00000fa3          	sb	zero,31(zero) # 1f <_prog_start-0x7fffffe1>
    1006:	101c                	addi	a5,sp,32
    1008:	6c76                	ld	s8,344(sp)
    100a:	1800                	addi	s0,sp,48
    100c:	00000047          	fmsub.s	ft0,ft0,ft0,ft0,rne
    1010:	7ef89103          	lh	sp,2031(a7)
    1014:	4411                	li	s0,4
    1016:	0002                	c.slli64	zero
    1018:	0700                	addi	s0,sp,896
    101a:	034a                	slli	t1,t1,0x12
    101c:	0000                	unimp
    101e:	0ff2                	slli	t6,t6,0x1c
    1020:	0000                	unimp
    1022:	2d1d                	addiw	s10,s10,7
    1024:	0002                	c.slli64	zero
    1026:	0100                	addi	s0,sp,128
    1028:	1219                	addi	tp,tp,-26 # ffffffffffffffe6 <a+0xffffffff7ffff02e>
    102a:	034a                	slli	t1,t1,0x12
    102c:	0000                	unimp
    102e:	1100                	addi	s0,sp,160
    1030:	0209                	addi	tp,tp,2 # 2 <_prog_start-0x7ffffffe>
    1032:	0000                	unimp
    1034:	00034a1b          	.4byte	0x34a1b
    1038:	a000                	fsd	fs0,0(s0)
    103a:	0010                	.2byte	0x10
    103c:	0500                	addi	s0,sp,640
    103e:	071a0063          	beq	s4,a7,109e <_prog_start-0x7fffef62>
    1042:	033e                	slli	t1,t1,0xf
    1044:	0000                	unimp
    1046:	114e                	slli	sp,sp,0x33
    1048:	0000                	unimp
    104a:	c40a                	sw	sp,8(sp)
    104c:	0008                	.2byte	0x8
    104e:	0b00                	addi	s0,sp,400
    1050:	05000003          	lb	zero,80(zero) # 50 <_prog_start-0x7fffffb0>
    1054:	006e                	c.slli	zero,0x1b
    1056:	1324                	addi	s1,sp,424
    1058:	002e                	c.slli	zero,0xb
    105a:	0000                	unimp
    105c:	1188                	addi	a0,sp,224
    105e:	0000                	unimp
    1060:	6310                	ld	a2,0(a4)
    1062:	2600                	fld	fs0,8(a2)
    1064:	0351                	addi	t1,t1,20
    1066:	0000                	unimp
    1068:	7f809103          	lh	sp,2040(ra)
    106c:	b80a                	fsd	ft2,48(sp)
    106e:	0009                	c.nop	2
    1070:	7800                	ld	s0,48(s0)
    1072:	0001                	nop
    1074:	0900                	addi	s0,sp,144
    1076:	0069                	c.nop	26
    1078:	2701                	sext.w	a4,a4
    107a:	7b0e                	ld	s6,224(sp)
    107c:	0000                	unimp
    107e:	0000                	unimp
    1080:	b812                	fsd	ft4,48(sp)
    1082:	000e                	c.slli	zero,0x3
    1084:	0080                	addi	s0,sp,64
    1086:	0000                	unimp
    1088:	1400                	addi	s0,sp,544
    108a:	0000                	unimp
    108c:	0000                	unimp
    108e:	0000                	unimp
    1090:	9b00                	.2byte	0x9b00
    1092:	0001                	nop
    1094:	0500                	addi	s0,sp,640
    1096:	0069                	c.nop	26
    1098:	0f2d                	addi	t5,t5,11 # fffffffffffe400b <a+0xffffffff7ffe3053>
    109a:	0000007b          	.4byte	0x7b
    109e:	11e0                	addi	s0,sp,236
    10a0:	0000                	unimp
    10a2:	1200                	addi	s0,sp,288
    10a4:	0eec                	addi	a1,sp,860
    10a6:	8000                	.2byte	0x8000
    10a8:	0000                	unimp
    10aa:	0000                	unimp
    10ac:	0018                	.2byte	0x18
    10ae:	0000                	unimp
    10b0:	0000                	unimp
    10b2:	0000                	unimp
    10b4:	01e9                	addi	gp,gp,26
    10b6:	0000                	unimp
    10b8:	6905                	lui	s2,0x1
    10ba:	3100                	fld	fs0,32(a0)
    10bc:	7b0e                	ld	s6,224(sp)
    10be:	0000                	unimp
    10c0:	1100                	addi	s0,sp,160
    10c2:	0012                	c.slli	zero,0x4
    10c4:	0700                	addi	s0,sp,896
    10c6:	045c                	addi	a5,sp,516
    10c8:	0000                	unimp
    10ca:	0eec                	addi	a1,sp,860
    10cc:	8000                	.2byte	0x8000
    10ce:	0000                	unimp
    10d0:	0000                	unimp
    10d2:	000e                	c.slli	zero,0x3
    10d4:	0000                	unimp
    10d6:	0000                	unimp
    10d8:	0000                	unimp
    10da:	2531                	addiw	a0,a0,12
    10dc:	00046503          	lwu	a0,0(s0) # cae7e <_prog_start-0x7ff35182>
    10e0:	0400                	addi	s0,sp,512
    10e2:	0000046f          	jal	s0,10e2 <_prog_start-0x7fffef1e>
    10e6:	7a01                	lui	s4,0xfffe0
    10e8:	0004                	.2byte	0x4
    10ea:	2d00                	fld	fs0,24(a0)
    10ec:	0012                	c.slli	zero,0x4
    10ee:	0000                	unimp
    10f0:	0a00                	addi	s0,sp,272
    10f2:	092c                	addi	a1,sp,152
    10f4:	0000                	unimp
    10f6:	024d                	addi	tp,tp,19 # 13 <_prog_start-0x7fffffed>
    10f8:	0000                	unimp
    10fa:	6e05                	lui	t3,0x1
    10fc:	3700                	fld	fs0,40(a4)
    10fe:	00002e13          	slti	t3,zero,0
    1102:	4100                	lw	s0,0(a0)
    1104:	0012                	c.slli	zero,0x4
    1106:	0500                	addi	s0,sp,640
    1108:	0069                	c.nop	26
    110a:	0a38                	addi	a4,sp,280
    110c:	0095                	addi	ra,ra,5
    110e:	0000                	unimp
    1110:	0000127b          	.4byte	0x127b
    1114:	4f08                	lw	a0,24(a4)
    1116:	0009                	c.nop	2
    1118:	0500                	addi	s0,sp,640
    111a:	0064                	addi	s1,sp,12
    111c:	0b41                	addi	s6,s6,16
    111e:	0095                	addi	ra,ra,5
    1120:	0000                	unimp
    1122:	0000128f          	.4byte	0x128f
    1126:	00045c13          	srli	s8,s0,0x0
    112a:	0c00                	addi	s0,sp,528
    112c:	000e                	c.slli	zero,0x3
    112e:	0080                	addi	s0,sp,64
    1130:	0000                	unimp
    1132:	7200                	ld	s0,32(a2)
    1134:	0009                	c.nop	2
    1136:	4300                	lw	s0,0(a4)
    1138:	0306                	slli	t1,t1,0x1
    113a:	0465                	addi	s0,s0,25
    113c:	0000                	unimp
    113e:	7208                	ld	a0,32(a2)
    1140:	0009                	c.nop	2
    1142:	0400                	addi	s0,sp,512
    1144:	0000046f          	jal	s0,1144 <_prog_start-0x7fffeebc>
    1148:	7a01                	lui	s4,0xfffe0
    114a:	0004                	.2byte	0x4
    114c:	a300                	fsd	fs0,0(a4)
    114e:	0012                	c.slli	zero,0x4
    1150:	0000                	unimp
    1152:	0000                	unimp
    1154:	1400                	addi	s0,sp,544
    1156:	045c                	addi	a5,sp,516
    1158:	0000                	unimp
    115a:	0dd2                	slli	s11,s11,0x14
    115c:	8000                	.2byte	0x8000
    115e:	0000                	unimp
    1160:	0000                	unimp
    1162:	08f8                	addi	a4,sp,92
    1164:	0000                	unimp
    1166:	0002854b          	fnmsub.s	fa0,ft5,ft0,ft0,rne
    116a:	0b00                	addi	s0,sp,400
    116c:	0465                	addi	s0,s0,25
    116e:	0000                	unimp
    1170:	000012b7          	lui	t0,0x1
    1174:	f808                	sd	a0,48(s0)
    1176:	0008                	.2byte	0x8
    1178:	0100                	addi	s0,sp,128
    117a:	0000046f          	jal	s0,117a <_prog_start-0x7fffee86>
    117e:	000012cb          	fnmsub.s	ft5,ft0,ft0,ft0,rtz
    1182:	7a01                	lui	s4,0xfffe0
    1184:	0004                	.2byte	0x4
    1186:	e200                	sd	s0,0(a2)
    1188:	0012                	c.slli	zero,0x4
    118a:	0000                	unimp
    118c:	1400                	addi	s0,sp,544
    118e:	043a                	slli	s0,s0,0xe
    1190:	0000                	unimp
    1192:	0e3c                	addi	a5,sp,792
    1194:	8000                	.2byte	0x8000
    1196:	0000                	unimp
    1198:	0000                	unimp
    119a:	0995                	addi	s3,s3,5
    119c:	0000                	unimp
    119e:	df48                	sw	a0,60(a4)
    11a0:	0002                	c.slli64	zero
    11a2:	0b00                	addi	s0,sp,400
    11a4:	00000447          	fmsub.s	fs0,ft0,ft0,ft0,rne
    11a8:	12f6                	slli	t0,t0,0x3d
    11aa:	0000                	unimp
    11ac:	9508                	.2byte	0x9508
    11ae:	0009                	c.nop	2
    11b0:	0100                	addi	s0,sp,128
    11b2:	0451                	addi	s0,s0,20
    11b4:	0000                	unimp
    11b6:	130a                	slli	t1,t1,0x22
    11b8:	0000                	unimp
    11ba:	00045c07          	.4byte	0x45c07
    11be:	4600                	lw	s0,8(a2)
    11c0:	000e                	c.slli	zero,0x3
    11c2:	0080                	addi	s0,sp,64
    11c4:	0000                	unimp
    11c6:	0e00                	addi	s0,sp,784
    11c8:	0000                	unimp
    11ca:	0000                	unimp
    11cc:	0000                	unimp
    11ce:	0c00                	addi	s0,sp,528
    11d0:	04650303          	lb	t1,70(a0)
    11d4:	0000                	unimp
    11d6:	6f04                	ld	s1,24(a4)
    11d8:	0004                	.2byte	0x4
    11da:	0100                	addi	s0,sp,128
    11dc:	047a                	slli	s0,s0,0x1e
    11de:	0000                	unimp
    11e0:	1331                	addi	t1,t1,-20
    11e2:	0000                	unimp
    11e4:	0000                	unimp
    11e6:	0700                	addi	s0,sp,896
    11e8:	045c                	addi	a5,sp,516
    11ea:	0000                	unimp
    11ec:	0e7c                	addi	a5,sp,796
    11ee:	8000                	.2byte	0x8000
    11f0:	0000                	unimp
    11f2:	0000                	unimp
    11f4:	0014                	.2byte	0x14
    11f6:	0000                	unimp
    11f8:	0000                	unimp
    11fa:	0000                	unimp
    11fc:	0629                	addi	a2,a2,10
    11fe:	00046503          	lwu	a0,0(s0)
    1202:	0400                	addi	s0,sp,512
    1204:	0000046f          	jal	s0,1204 <_prog_start-0x7fffedfc>
    1208:	7a01                	lui	s4,0xfffe0
    120a:	0004                	.2byte	0x4
    120c:	4500                	lw	s0,8(a0)
    120e:	00000013          	nop
    1212:	1300                	addi	s0,sp,416
    1214:	045c                	addi	a5,sp,516
    1216:	0000                	unimp
    1218:	0da8                	addi	a0,sp,728
    121a:	8000                	.2byte	0x8000
    121c:	0000                	unimp
    121e:	0000                	unimp
    1220:	08a1                	addi	a7,a7,8
    1222:	0000                	unimp
    1224:	0454                	addi	a3,sp,516
    1226:	00046503          	lwu	a0,0(s0)
    122a:	0800                	addi	s0,sp,16
    122c:	08a1                	addi	a7,a7,8
    122e:	0000                	unimp
    1230:	6f04                	ld	s1,24(a4)
    1232:	0004                	.2byte	0x4
    1234:	0100                	addi	s0,sp,128
    1236:	047a                	slli	s0,s0,0x1e
    1238:	0000                	unimp
    123a:	1359                	addi	t1,t1,-10
    123c:	0000                	unimp
    123e:	0000                	unimp
    1240:	0c00                	addi	s0,sp,528
    1242:	0345                	addi	t1,t1,17
    1244:	0000                	unimp
    1246:	0102                	c.slli64	sp
    1248:	6b08                	ld	a0,16(a4)
    124a:	0001                	nop
    124c:	0d00                	addi	s0,sp,656
    124e:	033e                	slli	t1,t1,0xf
    1250:	0000                	unimp
    1252:	0102                	c.slli64	sp
    1254:	5b02                	lw	s6,32(sp)
    1256:	0002                	c.slli64	zero
    1258:	1e00                	addi	s0,sp,816
    125a:	033e                	slli	t1,t1,0xf
    125c:	0000                	unimp
    125e:	0361                	addi	t1,t1,24
    1260:	0000                	unimp
    1262:	2e1f 0000 3f00      	.byte	0x1f, 0x2e, 0x00, 0x00, 0x00, 0x3f
    1268:	0e00                	addi	s0,sp,784
    126a:	0000024f          	fnmadd.s	ft4,ft0,ft0,ft0,rne
    126e:	000d440f          	.4byte	0xd440f
    1272:	0080                	addi	s0,sp,64
    1274:	0000                	unimp
    1276:	3e00                	fld	fs0,56(a2)
    1278:	0000                	unimp
    127a:	0000                	unimp
    127c:	0000                	unimp
    127e:	0100                	addi	s0,sp,128
    1280:	3a9c                	fld	fa5,48(a3)
    1282:	0004                	.2byte	0x4
    1284:	0f00                	addi	s0,sp,912
    1286:	180f0073          	.4byte	0x180f0073
    128a:	0339                	addi	t1,t1,14
    128c:	0000                	unimp
    128e:	1380                	addi	s0,sp,480
    1290:	0000                	unimp
    1292:	3a15                	addiw	s4,s4,-27 # fffffffffffdffe5 <a+0xffffffff7ffdf02d>
    1294:	0004                	.2byte	0x4
    1296:	4400                	lw	s0,8(s0)
    1298:	000d                	c.nop	3
    129a:	0080                	addi	s0,sp,64
    129c:	0000                	unimp
    129e:	1c00                	addi	s0,sp,560
    12a0:	0000                	unimp
    12a2:	0000                	unimp
    12a4:	0000                	unimp
    12a6:	1100                	addi	s0,sp,160
    12a8:	03e2                	slli	t2,t2,0x18
    12aa:	0000                	unimp
    12ac:	0004470b          	.4byte	0x4470b
    12b0:	aa00                	fsd	fs0,16(a2)
    12b2:	01000013          	li	zero,16
    12b6:	0451                	addi	s0,s0,20
    12b8:	0000                	unimp
    12ba:	13be                	slli	t2,t2,0x2f
    12bc:	0000                	unimp
    12be:	00045c07          	.4byte	0x45c07
    12c2:	4a00                	lw	s0,16(a2)
    12c4:	000d                	c.nop	3
    12c6:	0080                	addi	s0,sp,64
    12c8:	0000                	unimp
    12ca:	0e00                	addi	s0,sp,784
    12cc:	0000                	unimp
    12ce:	0000                	unimp
    12d0:	0000                	unimp
    12d2:	0c00                	addi	s0,sp,528
    12d4:	04650303          	lb	t1,70(a0)
    12d8:	0000                	unimp
    12da:	6f04                	ld	s1,24(a4)
    12dc:	0004                	.2byte	0x4
    12de:	0100                	addi	s0,sp,128
    12e0:	047a                	slli	s0,s0,0x1e
    12e2:	0000                	unimp
    12e4:	13e5                	addi	t2,t2,-7 # ffffffffffffeff9 <a+0xffffffff7fffe041>
    12e6:	0000                	unimp
    12e8:	0000                	unimp
    12ea:	5c15                	li	s8,-27
    12ec:	0004                	.2byte	0x4
    12ee:	6000                	ld	s0,0(s0)
    12f0:	000d                	c.nop	3
    12f2:	0080                	addi	s0,sp,64
    12f4:	0000                	unimp
    12f6:	1000                	addi	s0,sp,32
    12f8:	0000                	unimp
    12fa:	0000                	unimp
    12fc:	0000                	unimp
    12fe:	1200                	addi	s0,sp,288
    1300:	0410                	addi	a2,sp,512
    1302:	0000                	unimp
    1304:	00046503          	lwu	a0,0(s0)
    1308:	0400                	addi	s0,sp,512
    130a:	0000046f          	jal	s0,130a <_prog_start-0x7fffecf6>
    130e:	7a01                	lui	s4,0xfffe0
    1310:	0004                	.2byte	0x4
    1312:	f900                	sd	s0,48(a0)
    1314:	00000013          	nop
    1318:	00045c07          	.4byte	0x45c07
    131c:	7000                	ld	s0,32(s0)
    131e:	000d                	c.nop	3
    1320:	0080                	addi	s0,sp,64
    1322:	0000                	unimp
    1324:	1000                	addi	s0,sp,32
    1326:	0000                	unimp
    1328:	0000                	unimp
    132a:	0000                	unimp
    132c:	1300                	addi	s0,sp,416
    132e:	0302                	c.slli64	t1
    1330:	0465                	addi	s0,s0,25
    1332:	0000                	unimp
    1334:	6f04                	ld	s1,24(a4)
    1336:	0004                	.2byte	0x4
    1338:	2000                	fld	fs0,0(s0)
    133a:	047a                	slli	s0,s0,0x1e
    133c:	0000                	unimp
    133e:	5f01                	li	t5,-32
    1340:	0000                	unimp
    1342:	4e21                	li	t3,8
    1344:	0002                	c.slli64	zero
    1346:	0100                	addi	s0,sp,128
    1348:	1408                	addi	a0,sp,544
    134a:	00045c03          	lhu	s8,0(s0)
    134e:	1600                	addi	s0,sp,800
    1350:	08010073          	.4byte	0x8010073
    1354:	00033927          	fsd	ft0,18(t1)
    1358:	0900                	addi	s0,sp,144
    135a:	0a010063          	beqz	sp,13fa <_prog_start-0x7fffec06>
    135e:	00033e07          	fld	ft8,0(t1)
    1362:	0000                	unimp
    1364:	5522                	lw	a0,40(sp)
    1366:	0002                	c.slli64	zero
    1368:	0200                	addi	s0,sp,256
    136a:	1415                	addi	s0,s0,-27
    136c:	00631603          	lh	a2,6(t1)
    1370:	1502                	slli	a0,a0,0x20
    1372:	3e1f 0003 0900      	.byte	0x1f, 0x3e, 0x03, 0x00, 0x00, 0x09
    1378:	7874                	ld	a3,240(s0)
    137a:	0200                	addi	s0,sp,256
    137c:	00c91517          	auipc	a0,0xc91
    1380:	0000                	unimp
    1382:	7209                	lui	tp,0xfffe2
    1384:	0200                	addi	s0,sp,256
    1386:	0a19                	addi	s4,s4,6 # fffffffffffe0006 <a+0xffffffff7ffdf04e>
    1388:	009c                	addi	a5,sp,64
    138a:	0000                	unimp
	...

Disassembly of section .debug_abbrev:

0000000000000000 <.debug_abbrev>:
   0:	1101                	addi	sp,sp,-32
   2:	1000                	addi	s0,sp,32
   4:	12011117          	auipc	sp,0x12011
   8:	1b0e030f          	.4byte	0x1b0e030f
   c:	250e                	fld	fa0,192(sp)
   e:	130e                	slli	t1,t1,0x23
  10:	0005                	c.nop	1
  12:	0000                	unimp
  14:	3401                	addiw	s0,s0,-32
  16:	0300                	addi	s0,sp,384
  18:	3a08                	fld	fa0,48(a2)
  1a:	0121                	addi	sp,sp,8 # 1201100c <_prog_start-0x6dfeeff4>
  1c:	0b390b3b          	.4byte	0xb390b3b
  20:	1349                	addi	t1,t1,-14
  22:	1702                	slli	a4,a4,0x20
  24:	0000                	unimp
  26:	0b02                	c.slli64	s6
  28:	5501                	li	a0,-32
  2a:	03000017          	auipc	zero,0x3000
  2e:	0034                	addi	a3,sp,8
  30:	213a0e03          	lb	t3,531(s4)
  34:	3b01                	addiw	s6,s6,-32
  36:	490b390b          	.4byte	0x490b390b
  3a:	00170213          	addi	tp,a4,1
  3e:	0400                	addi	s0,sp,512
  40:	0049                	c.nop	18
  42:	1802                	slli	a6,a6,0x20
  44:	187e                	slli	a6,a6,0x3f
  46:	0000                	unimp
  48:	0b05                	addi	s6,s6,1
  4a:	1101                	addi	sp,sp,-32
  4c:	1201                	addi	tp,tp,-32 # fffffffffffe1fe0 <a+0xffffffff7ffe1028>
  4e:	00130107          	.4byte	0x130107
  52:	0600                	addi	s0,sp,768
  54:	0034                	addi	a3,sp,8
  56:	213a0803          	lb	a6,531(s4)
  5a:	3b01                	addiw	s6,s6,-32
  5c:	0a21390b          	.4byte	0xa21390b
  60:	1349                	addi	t1,t1,-14
  62:	1802193f 2e070000 	.8byte	0x2e0700001802193f
  6a:	3f01                	addiw	t5,t5,-32
  6c:	0319                	addi	t1,t1,6
  6e:	3a0e                	fld	fs4,224(sp)
  70:	0121                	addi	sp,sp,8
  72:	21390b3b          	.4byte	0x21390b3b
  76:	1106                	slli	sp,sp,0x21
  78:	1201                	addi	tp,tp,-32 # ffffffffffffffe0 <a+0xffffffff7ffff028>
  7a:	7a184007          	.4byte	0x7a184007
  7e:	0119                	addi	sp,sp,6
  80:	08000013          	li	zero,128
  84:	0148                	addi	a0,sp,132
  86:	017d                	addi	sp,sp,31
  88:	137f                	.2byte	0x137f
  8a:	1301                	addi	t1,t1,-32
  8c:	0000                	unimp
  8e:	4809                	li	a6,2
  90:	7d00                	ld	s0,56(a0)
  92:	7f01                	lui	t5,0xfffe0
  94:	0a000013          	li	zero,160
  98:	0034                	addi	a3,sp,8
  9a:	1331                	addi	t1,t1,-20
  9c:	1702                	slli	a4,a4,0x20
  9e:	0000                	unimp
  a0:	0b00240b          	.4byte	0xb00240b
  a4:	030b3e0b          	.4byte	0x30b3e0b
  a8:	000e                	c.slli	zero,0x3
  aa:	0c00                	addi	s0,sp,528
  ac:	0016                	c.slli	zero,0x5
  ae:	0b3a0e03          	lb	t3,179(s4)
  b2:	0b390b3b          	.4byte	0xb390b3b
  b6:	1349                	addi	t1,t1,-14
  b8:	0000                	unimp
  ba:	0b0d                	addi	s6,s6,3
  bc:	1101                	addi	sp,sp,-32
  be:	1201                	addi	tp,tp,-32 # ffffffffffffffe0 <a+0xffffffff7ffff028>
  c0:	0e000007          	.4byte	0xe000007
  c4:	1331010b          	.4byte	0x1331010b
  c8:	1755                	addi	a4,a4,-11
  ca:	0000                	unimp
  cc:	0b000f0f          	.4byte	0xb000f0f
  d0:	0821                	addi	a6,a6,8
  d2:	1349                	addi	t1,t1,-14
  d4:	0000                	unimp
  d6:	1d10                	addi	a2,sp,688
  d8:	3101                	addiw	sp,sp,-32
  da:	12011113          	.4byte	0x12011113
  de:	01215807          	.4byte	0x1215807
  e2:	0b59                	addi	s6,s6,22
  e4:	13010b57          	.4byte	0x13010b57
  e8:	0000                	unimp
  ea:	0b11                	addi	s6,s6,4
  ec:	3101                	addiw	sp,sp,-32
  ee:	12011113          	.4byte	0x12011113
  f2:	12000007          	.4byte	0x12000007
  f6:	012e                	slli	sp,sp,0xb
  f8:	0e03193f 3b01213a 	.8byte	0x3b01213a0e03193f
 100:	0621390b          	.4byte	0x621390b
 104:	2120                	fld	fs0,64(a0)
 106:	0101                	addi	sp,sp,0
 108:	13000013          	li	zero,304
 10c:	0000010b          	.4byte	0x10b
 110:	3414                	fld	fa3,40(s0)
 112:	0300                	addi	s0,sp,384
 114:	3a08                	fld	fa0,48(a2)
 116:	0121                	addi	sp,sp,8
 118:	21390b3b          	.4byte	0x21390b3b
 11c:	490c                	lw	a1,16(a0)
 11e:	15000013          	li	zero,336
 122:	0034                	addi	a3,sp,8
 124:	213a0e03          	lb	t3,531(s4)
 128:	3b01                	addiw	s6,s6,-32
 12a:	0a21390b          	.4byte	0xa21390b
 12e:	1349                	addi	t1,t1,-14
 130:	1802193f 0b160000 	.8byte	0xb1600001802193f
 138:	5501                	li	a0,-32
 13a:	00130117          	auipc	sp,0x130
 13e:	1700                	addi	s0,sp,928
 140:	012e                	slli	sp,sp,0xb
 142:	1331                	addi	t1,t1,-20
 144:	0111                	addi	sp,sp,4 # 13013e <_prog_start-0x7fecfec2>
 146:	0712                	slli	a4,a4,0x4
 148:	1840                	addi	s0,sp,52
 14a:	197a                	slli	s2,s2,0x3e
 14c:	1301                	addi	t1,t1,-32
 14e:	0000                	unimp
 150:	3418                	fld	fa4,40(s0)
 152:	0300                	addi	s0,sp,384
 154:	3a0e                	fld	fs4,224(sp)
 156:	390b3b0b          	.4byte	0x390b3b0b
 15a:	2221                	addiw	tp,tp,8 # 8 <_prog_start-0x7ffffff8>
 15c:	1349                	addi	t1,t1,-14
 15e:	061c                	addi	a5,sp,768
 160:	0000                	unimp
 162:	2619                	addiw	a2,a2,6
 164:	4900                	lw	s0,16(a0)
 166:	1a000013          	li	zero,416
 16a:	011d                	addi	sp,sp,7
 16c:	1331                	addi	t1,t1,-20
 16e:	0152                	slli	sp,sp,0x14
 170:	1755                	addi	a4,a4,-11
 172:	2158                	fld	fa4,128(a0)
 174:	5901                	li	s2,-32
 176:	0321570b          	.4byte	0x321570b
 17a:	1301                	addi	t1,t1,-32
 17c:	0000                	unimp
 17e:	2501111b          	.4byte	0x2501111b
 182:	130e                	slli	t1,t1,0x23
 184:	1b1f030b          	.4byte	0x1b1f030b
 188:	551f 1117 1001      	.byte	0x1f, 0x55, 0x17, 0x11, 0x01, 0x10
 18e:	1c000017          	auipc	zero,0x1c000
 192:	0024                	addi	s1,sp,8
 194:	0b3e0b0b          	.4byte	0xb3e0b0b
 198:	00000803          	lb	a6,0(zero) # 0 <_prog_start-0x80000000>
 19c:	351d                	addiw	a0,a0,-25 # c92363 <_prog_start-0x7f36dc9d>
 19e:	4900                	lw	s0,16(a0)
 1a0:	1e000013          	li	zero,480
 1a4:	012e                	slli	sp,sp,0xb
 1a6:	0e03193f 0b3b0b3a 	.8byte	0xb3b0b3a0e03193f
 1ae:	0b39                	addi	s6,s6,14
 1b0:	193c1927          	.4byte	0x193c1927
 1b4:	1301                	addi	t1,t1,-32
 1b6:	0000                	unimp
 1b8:	051f 4900 0013      	.byte	0x1f, 0x05, 0x00, 0x49, 0x13, 0x00
 1be:	2000                	fld	fs0,0(s0)
 1c0:	0018                	.2byte	0x18
 1c2:	0000                	unimp
 1c4:	2e21                	addiw	t3,t3,8 # 1008 <_prog_start-0x7fffeff8>
 1c6:	3f01                	addiw	t5,t5,-32 # fffffffffffdffe0 <a+0xffffffff7ffdf028>
 1c8:	0319                	addi	t1,t1,6
 1ca:	3a0e                	fld	fs4,224(sp)
 1cc:	390b3b0b          	.4byte	0x390b3b0b
 1d0:	4919270b          	.4byte	0x4919270b
 1d4:	12011113          	.4byte	0x12011113
 1d8:	7a184007          	.4byte	0x7a184007
 1dc:	0119                	addi	sp,sp,6
 1de:	22000013          	li	zero,544
 1e2:	0005                	c.nop	1
 1e4:	0b3a0e03          	lb	t3,179(s4)
 1e8:	0b390b3b          	.4byte	0xb390b3b
 1ec:	1349                	addi	t1,t1,-14
 1ee:	1702                	slli	a4,a4,0x20
 1f0:	0000                	unimp
 1f2:	03000523          	sb	a6,42(zero) # 2a <_prog_start-0x7fffffd6>
 1f6:	3a08                	fld	fa0,48(a2)
 1f8:	390b3b0b          	.4byte	0x390b3b0b
 1fc:	0213490b          	.4byte	0x213490b
 200:	24000017          	auipc	zero,0x24000
 204:	0148                	addi	a0,sp,132
 206:	017d                	addi	sp,sp,31
 208:	137f                	.2byte	0x137f
 20a:	0000                	unimp
 20c:	0125                	addi	sp,sp,9
 20e:	4901                	li	s2,0
 210:	00130113          	addi	sp,t1,1
 214:	2600                	fld	fs0,8(a2)
 216:	0021                	c.nop	8
 218:	1349                	addi	t1,t1,-14
 21a:	00000b2f          	.4byte	0xb2f
 21e:	31012e27          	fsw	fa6,796(sp)
 222:	12011113          	.4byte	0x12011113
 226:	7a184007          	.4byte	0x7a184007
 22a:	0019                	c.nop	6
 22c:	0000                	unimp
 22e:	3401                	addiw	s0,s0,-32
 230:	3100                	fld	fs0,32(a0)
 232:	00170213          	addi	tp,a4,1
 236:	0200                	addi	s0,sp,256
 238:	0024                	addi	s1,sp,8
 23a:	0b3e0b0b          	.4byte	0xb3e0b0b
 23e:	00000e03          	lb	t3,0(zero) # 0 <_prog_start-0x80000000>
 242:	31000503          	lb	a0,784(zero) # 310 <_prog_start-0x7ffffcf0>
 246:	04000013          	li	zero,64
 24a:	0034                	addi	a3,sp,8
 24c:	1331                	addi	t1,t1,-20
 24e:	0000                	unimp
 250:	3405                	addiw	s0,s0,-31
 252:	0300                	addi	s0,sp,384
 254:	3a08                	fld	fa0,48(a2)
 256:	0121                	addi	sp,sp,8
 258:	0b390b3b          	.4byte	0xb390b3b
 25c:	1349                	addi	t1,t1,-14
 25e:	1702                	slli	a4,a4,0x20
 260:	0000                	unimp
 262:	1606                	slli	a2,a2,0x21
 264:	0300                	addi	s0,sp,384
 266:	3a0e                	fld	fs4,224(sp)
 268:	390b3b0b          	.4byte	0x390b3b0b
 26c:	0013490b          	.4byte	0x13490b
 270:	0700                	addi	s0,sp,896
 272:	011d                	addi	sp,sp,7
 274:	1331                	addi	t1,t1,-20
 276:	0111                	addi	sp,sp,4
 278:	0712                	slli	a4,a4,0x4
 27a:	2158                	fld	fa4,128(a0)
 27c:	5901                	li	s2,-32
 27e:	000b570b          	.4byte	0xb570b
 282:	0800                	addi	s0,sp,16
 284:	1755010b          	.4byte	0x1755010b
 288:	0000                	unimp
 28a:	3409                	addiw	s0,s0,-30
 28c:	0300                	addi	s0,sp,384
 28e:	3a08                	fld	fa0,48(a2)
 290:	390b3b0b          	.4byte	0x390b3b0b
 294:	0013490b          	.4byte	0x13490b
 298:	0a00                	addi	s0,sp,272
 29a:	1755010b          	.4byte	0x1755010b
 29e:	1301                	addi	t1,t1,-32
 2a0:	0000                	unimp
 2a2:	3100050b          	.4byte	0x3100050b
 2a6:	00170213          	addi	tp,a4,1
 2aa:	0c00                	addi	s0,sp,528
 2ac:	210b000f          	.4byte	0x210b000f
 2b0:	4908                	lw	a0,16(a0)
 2b2:	0d000013          	li	zero,208
 2b6:	0026                	c.slli	zero,0x9
 2b8:	1349                	addi	t1,t1,-14
 2ba:	0000                	unimp
 2bc:	2e0e                	fld	ft8,192(sp)
 2be:	3f01                	addiw	t5,t5,-32
 2c0:	0319                	addi	t1,t1,6
 2c2:	3a0e                	fld	fs4,224(sp)
 2c4:	0121                	addi	sp,sp,8
 2c6:	21390b3b          	.4byte	0x21390b3b
 2ca:	2706                	fld	fa4,64(sp)
 2cc:	1119                	addi	sp,sp,-26
 2ce:	1201                	addi	tp,tp,-32 # ffffffffffffffe0 <a+0xffffffff7ffff028>
 2d0:	7a184007          	.4byte	0x7a184007
 2d4:	0119                	addi	sp,sp,6
 2d6:	0f000013          	li	zero,240
 2da:	0005                	c.nop	1
 2dc:	213a0803          	lb	a6,531(s4)
 2e0:	3b01                	addiw	s6,s6,-32
 2e2:	490b390b          	.4byte	0x490b390b
 2e6:	00170213          	addi	tp,a4,1
 2ea:	1000                	addi	s0,sp,32
 2ec:	0034                	addi	a3,sp,8
 2ee:	213a0803          	lb	a6,531(s4)
 2f2:	3b01                	addiw	s6,s6,-32
 2f4:	0a21390b          	.4byte	0xa21390b
 2f8:	1349                	addi	t1,t1,-14
 2fa:	1802                	slli	a6,a6,0x20
 2fc:	0000                	unimp
 2fe:	3411                	addiw	s0,s0,-28
 300:	0300                	addi	s0,sp,384
 302:	3a0e                	fld	fs4,224(sp)
 304:	0121                	addi	sp,sp,8
 306:	3919213b          	.4byte	0x3919213b
 30a:	0213490b          	.4byte	0x213490b
 30e:	12000017          	auipc	zero,0x12000
 312:	0111010b          	.4byte	0x111010b
 316:	0712                	slli	a4,a4,0x4
 318:	1301                	addi	t1,t1,-32
 31a:	0000                	unimp
 31c:	31011d13          	.4byte	0x31011d13
 320:	55015213          	.4byte	0x55015213
 324:	01215817          	auipc	a6,0x1215
 328:	0b59                	addi	s6,s6,22
 32a:	00000b57          	.4byte	0xb57
 32e:	1d14                	addi	a3,sp,688
 330:	3101                	addiw	sp,sp,-32
 332:	55015213          	.4byte	0x55015213
 336:	01215817          	auipc	a6,0x1215
 33a:	0b59                	addi	s6,s6,22
 33c:	01052157          	.4byte	0x1052157
 340:	15000013          	li	zero,336
 344:	011d                	addi	sp,sp,7
 346:	1331                	addi	t1,t1,-20
 348:	0111                	addi	sp,sp,4
 34a:	0712                	slli	a4,a4,0x4
 34c:	2158                	fld	fa4,128(a0)
 34e:	5901                	li	s2,-32
 350:	0221570b          	.4byte	0x221570b
 354:	1301                	addi	t1,t1,-32
 356:	0000                	unimp
 358:	0516                	slli	a0,a0,0x5
 35a:	0300                	addi	s0,sp,384
 35c:	3a08                	fld	fa0,48(a2)
 35e:	390b3b0b          	.4byte	0x390b3b0b
 362:	0013490b          	.4byte	0x13490b
 366:	1700                	addi	s0,sp,928
 368:	0111                	addi	sp,sp,4
 36a:	0e25                	addi	t3,t3,9
 36c:	1f030b13          	addi	s6,t1,496
 370:	01111f1b          	slliw	t5,sp,0x11
 374:	0712                	slli	a4,a4,0x4
 376:	1710                	addi	a2,sp,928
 378:	0000                	unimp
 37a:	0f18                	addi	a4,sp,912
 37c:	0b00                	addi	s0,sp,400
 37e:	000e030b          	.4byte	0xe030b
 382:	1900                	addi	s0,sp,176
 384:	0024                	addi	s1,sp,8
 386:	0b3e0b0b          	.4byte	0xb3e0b0b
 38a:	00000803          	lb	a6,0(zero) # 0 <_prog_start-0x80000000>
 38e:	351a                	fld	fa0,416(sp)
 390:	4900                	lw	s0,16(a0)
 392:	1b000013          	li	zero,432
 396:	0034                	addi	a3,sp,8
 398:	0b3a0e03          	lb	t3,179(s4)
 39c:	0b390b3b          	.4byte	0xb390b3b
 3a0:	1349                	addi	t1,t1,-14
 3a2:	061c                	addi	a5,sp,768
 3a4:	0000                	unimp
 3a6:	181c                	addi	a5,sp,48
 3a8:	0000                	unimp
 3aa:	1d00                	addi	s0,sp,688
 3ac:	0034                	addi	a3,sp,8
 3ae:	0b3a0e03          	lb	t3,179(s4)
 3b2:	0b390b3b          	.4byte	0xb390b3b
 3b6:	1349                	addi	t1,t1,-14
 3b8:	0b1c                	addi	a5,sp,400
 3ba:	0000                	unimp
 3bc:	011e                	slli	sp,sp,0x7
 3be:	4901                	li	s2,0
 3c0:	00130113          	addi	sp,t1,1
 3c4:	1f00                	addi	s0,sp,944
 3c6:	0021                	c.nop	8
 3c8:	1349                	addi	t1,t1,-14
 3ca:	00000b2f          	.4byte	0xb2f
 3ce:	3420                	fld	fs0,104(s0)
 3d0:	3100                	fld	fs0,32(a0)
 3d2:	00180213          	addi	tp,a6,1 # 1215337 <_prog_start-0x7edeacc9>
 3d6:	2100                	fld	fs0,0(a0)
 3d8:	012e                	slli	sp,sp,0xb
 3da:	0b3a0e03          	lb	t3,179(s4)
 3de:	0b390b3b          	.4byte	0xb390b3b
 3e2:	0b201927          	.4byte	0xb201927
 3e6:	1301                	addi	t1,t1,-32
 3e8:	0000                	unimp
 3ea:	2e22                	fld	ft8,8(sp)
 3ec:	0301                	addi	t1,t1,0
 3ee:	3a0e                	fld	fs4,224(sp)
 3f0:	390b3b0b          	.4byte	0x390b3b0b
 3f4:	2019270b          	.4byte	0x2019270b
 3f8:	0000000b          	.4byte	0xb

Disassembly of section .debug_aranges:

0000000000000000 <.debug_aranges>:
   0:	002c                	addi	a1,sp,8
   2:	0000                	unimp
   4:	0002                	c.slli64	zero
   6:	0000                	unimp
   8:	0000                	unimp
   a:	0008                	.2byte	0x8
   c:	0000                	unimp
   e:	0000                	unimp
  10:	0000                	unimp
  12:	8000                	.2byte	0x8000
  14:	0000                	unimp
  16:	0000                	unimp
  18:	0234                	addi	a3,sp,264
	...
  2e:	0000                	unimp
  30:	003c                	addi	a5,sp,8
  32:	0000                	unimp
  34:	0002                	c.slli64	zero
  36:	0029                	c.nop	10
  38:	0000                	unimp
  3a:	0008                	.2byte	0x8
  3c:	0000                	unimp
  3e:	0000                	unimp
  40:	0234                	addi	a3,sp,264
  42:	8000                	.2byte	0x8000
  44:	0000                	unimp
  46:	0000                	unimp
  48:	0772                	slli	a4,a4,0x1c
  4a:	0000                	unimp
  4c:	0000                	unimp
  4e:	0000                	unimp
  50:	09a6                	slli	s3,s3,0x9
  52:	8000                	.2byte	0x8000
  54:	0000                	unimp
  56:	0000                	unimp
  58:	039e                	slli	t2,t2,0x7
	...
  6e:	0000                	unimp
  70:	002c                	addi	a1,sp,8
  72:	0000                	unimp
  74:	0002                	c.slli64	zero
  76:	0f08                	addi	a0,sp,912
  78:	0000                	unimp
  7a:	0008                	.2byte	0x8
  7c:	0000                	unimp
  7e:	0000                	unimp
  80:	0d44                	addi	s1,sp,660
  82:	8000                	.2byte	0x8000
  84:	0000                	unimp
  86:	0000                	unimp
  88:	01c0                	addi	s0,sp,196
	...

Disassembly of section .debug_str:

0000000000000000 <.debug_str>:
   0:	30747263          	bgeu	s0,t2,304 <_prog_start-0x7ffffcfc>
   4:	532e                	lw	t1,232(sp)
   6:	2f00                	fld	fs0,24(a4)
   8:	6f68                	ld	a0,216(a4)
   a:	656d                	lui	a0,0x1b
   c:	6e69622f          	.4byte	0x6e69622f
  10:	6b68                	ld	a0,208(a4)
  12:	6569                	lui	a0,0x1a
  14:	6475                	lui	s0,0x1d
  16:	6f572f6f          	jal	t5,72f0a <_prog_start-0x7ff8d0f6>
  1a:	6b72                	ld	s6,280(sp)
  1c:	63617073          	csrci	0x636,2
  20:	2f65                	addiw	t5,t5,25
  22:	654e                	ld	a0,208(sp)
  24:	61724677          	.4byte	0x61724677
  28:	656d                	lui	a0,0x1b
  2a:	6b726f77          	.4byte	0x6b726f77
  2e:	6172662f          	.4byte	0x6172662f
  32:	656d                	lui	a0,0x1b
  34:	6b726f77          	.4byte	0x6b726f77
  38:	2f77732f          	.4byte	0x2f77732f
  3c:	616d                	addi	sp,sp,240
  3e:	7274                	ld	a3,224(a2)
  40:	7869                	lui	a6,0xffffa
  42:	6d5f 6c75 4700      	.byte	0x5f, 0x6d, 0x75, 0x6c, 0x00, 0x47
  48:	554e                	lw	a0,240(sp)
  4a:	4120                	lw	s0,64(a0)
  4c:	2e322053          	.4byte	0x2e322053
  50:	73003933          	.4byte	0x73003933
  54:	6f68                	ld	a0,216(a4)
  56:	7472                	ld	s0,312(sp)
  58:	6920                	ld	s0,80(a0)
  5a:	746e                	ld	s0,248(sp)
  5c:	5f00                	lw	s0,56(a4)
  5e:	745f 706d 6b00      	.byte	0x5f, 0x74, 0x6d, 0x70, 0x00, 0x6b
  64:	7270                	ld	a2,224(a2)
  66:	6e69                	lui	t3,0x1a
  68:	6674                	ld	a3,200(a2)
  6a:	6300                	ld	s0,0(a4)
  6c:	3065726f          	jal	tp,57372 <_prog_start-0x7ffa8c8e>
  70:	6d00                	ld	s0,24(a0)
  72:	6961                	lui	s2,0x18
  74:	006e                	c.slli	zero,0x1b
  76:	5f5f 6975 746e      	.byte	0x5f, 0x5f, 0x75, 0x69, 0x6e, 0x74
  7c:	745f3233          	.4byte	0x745f3233
  80:	7500                	ld	s0,40(a0)
  82:	7261                	lui	tp,0xffff8
  84:	0074                	addi	a3,sp,12
  86:	635f3173          	csrrc	sp,0x635,t5
  8a:	0030                	addi	a2,sp,8
  8c:	635f3173          	csrrc	sp,0x635,t5
  90:	0032                	c.slli	zero,0xc
  92:	5f74                	lw	a3,124(a4)
  94:	00706167          	.4byte	0x706167
  98:	5f74                	lw	a3,124(a4)
  9a:	72617473          	csrrci	s0,mhpmevent6h,2
  9e:	0074                	addi	a3,sp,12
  a0:	6f6c                	ld	a1,216(a4)
  a2:	676e                	ld	a4,216(sp)
  a4:	6920                	ld	s0,80(a0)
  a6:	746e                	ld	s0,248(sp)
  a8:	5f00                	lw	s0,56(a4)
  aa:	755f 6e69 3874      	.byte	0x5f, 0x75, 0x69, 0x6e, 0x74, 0x38
  b0:	745f 4700 554e      	.byte	0x5f, 0x74, 0x00, 0x47, 0x4e, 0x55
  b6:	4320                	lw	s0,64(a4)
  b8:	3131                	addiw	sp,sp,-20
  ba:	3120                	fld	fs0,96(a0)
  bc:	2e32                	fld	ft8,264(sp)
  be:	2e32                	fld	ft8,264(sp)
  c0:	2030                	fld	fa2,64(s0)
  c2:	6d2d                	lui	s10,0xb
  c4:	646f6d63          	bltu	t5,t1,71e <_prog_start-0x7ffff8e2>
  c8:	6c65                	lui	s8,0x19
  ca:	6d3d                	lui	s10,0xf
  cc:	6465                	lui	s0,0x19
  ce:	6e61                	lui	t3,0x18
  d0:	2079                	.2byte	0x2079
  d2:	6d2d                	lui	s10,0xb
  d4:	6261                	lui	tp,0x18
  d6:	3d69                	addiw	s10,s10,-6 # affa <_prog_start-0x7fff5006>
  d8:	706c                	ld	a1,224(s0)
  da:	3436                	fld	fs0,360(sp)
  dc:	2d20                	fld	fs0,88(a0)
  de:	746d                	lui	s0,0xffffb
  e0:	6e75                	lui	t3,0x1d
  e2:	3d65                	addiw	s10,s10,-7
  e4:	6f72                	ld	t5,280(sp)
  e6:	74656b63          	bltu	a0,t1,83c <_prog_start-0x7ffff7c4>
  ea:	2d20                	fld	fs0,88(a0)
  ec:	696d                	lui	s2,0x1b
  ee:	732d6173          	csrrsi	sp,mhpmevent18h,26
  f2:	6570                	ld	a2,200(a0)
  f4:	2e323d63          	.4byte	0x2e323d63
  f8:	2032                	fld	ft0,264(sp)
  fa:	6d2d                	lui	s10,0xb
  fc:	7261                	lui	tp,0xffff8
  fe:	723d6863          	bltu	s10,gp,82e <_prog_start-0x7ffff7d2>
 102:	3676                	fld	fa2,376(sp)
 104:	6934                	ld	a3,80(a0)
 106:	616d                	addi	sp,sp,240
 108:	6466                	ld	s0,88(sp)
 10a:	672d2063          	.4byte	0x672d2063
 10e:	2d20                	fld	fs0,88(a0)
 110:	7361664f          	fnmadd.d	fa2,ft2,fs6,fa4,unknown
 114:	2074                	fld	fa3,192(s0)
 116:	732d                	lui	t1,0xfffeb
 118:	6474                	ld	a3,200(s0)
 11a:	673d                	lui	a4,0xf
 11c:	756e                	ld	a0,248(sp)
 11e:	3131                	addiw	sp,sp,-20
 120:	2d20                	fld	fs0,88(a0)
 122:	6e66                	ld	t3,88(sp)
 124:	6f632d6f          	jal	s10,3281a <_prog_start-0x7ffcd7e6>
 128:	6d6d                	lui	s10,0x1b
 12a:	2d206e6f          	jal	t3,63fc <_prog_start-0x7fff9c04>
 12e:	6e66                	ld	t3,88(sp)
 130:	75622d6f          	jal	s10,22886 <_prog_start-0x7ffdd77a>
 134:	6c69                	lui	s8,0x1a
 136:	6974                	ld	a3,208(a0)
 138:	006e                	c.slli	zero,0x1b
 13a:	6e696c63          	bltu	s2,t1,832 <_prog_start-0x7ffff7ce>
 13e:	0074                	addi	a3,sp,12
 140:	6e69                	lui	t3,0x1a
 142:	5f727473          	csrrci	s0,0x5f7,4
 146:	6e65                	lui	t3,0x19
 148:	0064                	addi	s1,sp,12
 14a:	635f3273          	csrrc	tp,0x635,t5
 14e:	0030                	addi	a2,sp,8
 150:	635f3273          	csrrc	tp,0x635,t5
 154:	0031                	c.nop	12
 156:	635f3273          	csrrc	tp,0x635,t5
 15a:	0032                	c.slli	zero,0xc
 15c:	635f3273          	csrrc	tp,0x635,t5
 160:	6e750033          	.4byte	0x6e750033
 164:	6e676973          	csrrsi	s2,0x6e6,14
 168:	6465                	lui	s0,0x19
 16a:	6320                	ld	s0,64(a4)
 16c:	6168                	ld	a0,192(a0)
 16e:	0072                	c.slli	zero,0x1c
 170:	65726f63          	bltu	tp,s7,7ce <_prog_start-0x7ffff832>
 174:	0031                	c.nop	12
 176:	65726f63          	bltu	tp,s7,7d4 <_prog_start-0x7ffff82c>
 17a:	0032                	c.slli	zero,0xc
 17c:	65726f63          	bltu	tp,s7,7da <_prog_start-0x7ffff826>
 180:	72610033          	.4byte	0x72610033
 184:	73006367          	.4byte	0x73006367
 188:	6f68                	ld	a0,216(a4)
 18a:	7472                	ld	s0,312(sp)
 18c:	7520                	ld	s0,104(a0)
 18e:	736e                	ld	t1,248(sp)
 190:	6769                	lui	a4,0x1a
 192:	656e                	ld	a0,216(sp)
 194:	2064                	fld	fs1,192(s0)
 196:	6e69                	lui	t3,0x1a
 198:	0074                	addi	a3,sp,12
 19a:	5f5f 6975 746e      	.byte	0x5f, 0x5f, 0x75, 0x69, 0x6e, 0x74
 1a0:	3436                	fld	fs0,360(sp)
 1a2:	745f 6d00 7461      	.byte	0x5f, 0x74, 0x00, 0x6d, 0x61, 0x74
 1a8:	615f 6d00 7461      	.byte	0x5f, 0x61, 0x00, 0x6d, 0x61, 0x74
 1ae:	625f 6d00 7461      	.byte	0x5f, 0x62, 0x00, 0x6d, 0x61, 0x74
 1b4:	635f 6c00 6e6f      	.byte	0x5f, 0x63, 0x00, 0x6c, 0x6f, 0x6e
 1ba:	6e752067          	.4byte	0x6e752067
 1be:	6e676973          	csrrsi	s2,0x6e6,14
 1c2:	6465                	lui	s0,0x19
 1c4:	6920                	ld	s0,80(a0)
 1c6:	746e                	ld	s0,248(sp)
 1c8:	6900                	ld	s0,16(a0)
 1ca:	736e                	ld	t1,248(sp)
 1cc:	7274                	ld	a3,224(a2)
 1ce:	675f 7061 7300      	.byte	0x5f, 0x67, 0x61, 0x70, 0x00, 0x73
 1d4:	30635f33          	.4byte	0x30635f33
 1d8:	7300                	ld	s0,32(a4)
 1da:	32635f33          	.4byte	0x32635f33
 1de:	7400                	ld	s0,40(s0)
 1e0:	655f 646e 6900      	.byte	0x5f, 0x65, 0x6e, 0x64, 0x00, 0x69
 1e6:	736e                	ld	t1,248(sp)
 1e8:	7274                	ld	a3,224(a2)
 1ea:	735f 6174 7472      	.byte	0x5f, 0x73, 0x74, 0x61, 0x72, 0x74
 1f0:	7300                	ld	s0,32(a4)
 1f2:	5f30                	lw	a2,120(a4)
 1f4:	73003063          	.4byte	0x73003063
 1f8:	5f30                	lw	a2,120(a4)
 1fa:	73003163          	.4byte	0x73003163
 1fe:	5f30                	lw	a2,120(a4)
 200:	73003263          	.4byte	0x73003263
 204:	5f30                	lw	a2,120(a4)
 206:	69003363          	.4byte	0x69003363
 20a:	68635f73          	csrrwi	t5,0x686,6
 20e:	7261                	lui	tp,0xffff8
 210:	5f00                	lw	s0,56(a4)
 212:	625f 6975 746c      	.byte	0x5f, 0x62, 0x75, 0x69, 0x6c, 0x74
 218:	6e69                	lui	t3,0x1a
 21a:	765f 5f61 696c      	.byte	0x5f, 0x76, 0x61, 0x5f, 0x6c, 0x69
 220:	5f007473          	csrrci	s0,0x5f0,0
 224:	695f 746e 3233      	.byte	0x5f, 0x69, 0x6e, 0x74, 0x33, 0x32
 22a:	745f 6900 5f73      	.byte	0x5f, 0x74, 0x00, 0x69, 0x73, 0x5f
 230:	6f6c                	ld	a1,216(a4)
 232:	676e                	ld	a4,216(sp)
 234:	5f00                	lw	s0,56(a4)
 236:	675f 756e 5f63      	.byte	0x5f, 0x67, 0x6e, 0x75, 0x63, 0x5f
 23c:	6176                	ld	sp,344(sp)
 23e:	6c5f 7369 0074      	.byte	0x5f, 0x6c, 0x69, 0x73, 0x74, 0x00
 244:	7369                	lui	t1,0xffffa
 246:	665f 726f 616d      	.byte	0x5f, 0x66, 0x6f, 0x72, 0x6d, 0x61
 24c:	0074                	addi	a3,sp,12
 24e:	6b5f 7570 7374      	.byte	0x5f, 0x6b, 0x70, 0x75, 0x74, 0x73
 254:	6b00                	ld	s0,16(a4)
 256:	7570                	ld	a2,232(a0)
 258:	6374                	ld	a3,192(a4)
 25a:	5f00                	lw	s0,56(a4)
 25c:	6f42                	ld	t5,16(sp)
 25e:	6f 6c 00            	Address 0x000000000000025e is out of bounds.


Disassembly of section .debug_loclists:

0000000000000000 <.debug_loclists>:
       0:	00000f93          	li	t6,0
       4:	0005                	c.nop	1
       6:	0008                	.2byte	0x8
       8:	0000                	unimp
       a:	0000                	unimp
       c:	0009a607          	flw	fa2,0(s3)
      10:	0080                	addi	s0,sp,64
      12:	0000                	unimp
      14:	d600                	sw	s0,40(a2)
      16:	0009                	c.nop	2
      18:	0080                	addi	s0,sp,64
      1a:	0000                	unimp
      1c:	0100                	addi	s0,sp,128
      1e:	075a                	slli	a4,a4,0x16
      20:	09d6                	slli	s3,s3,0x15
      22:	8000                	.2byte	0x8000
      24:	0000                	unimp
      26:	0000                	unimp
      28:	0d44                	addi	s1,sp,660
      2a:	8000                	.2byte	0x8000
      2c:	0000                	unimp
      2e:	0000                	unimp
      30:	a304                	fsd	fs1,0(a4)
      32:	5a01                	li	s4,-32
      34:	009f a607 0009      	.byte	0x9f, 0x00, 0x07, 0xa6, 0x09, 0x00
      3a:	0080                	addi	s0,sp,64
      3c:	0000                	unimp
      3e:	ce00                	sw	s0,24(a2)
      40:	0009                	c.nop	2
      42:	0080                	addi	s0,sp,64
      44:	0000                	unimp
      46:	0100                	addi	s0,sp,128
      48:	09ce075b          	.4byte	0x9ce075b
      4c:	8000                	.2byte	0x8000
      4e:	0000                	unimp
      50:	0000                	unimp
      52:	0d44                	addi	s1,sp,660
      54:	8000                	.2byte	0x8000
      56:	0000                	unimp
      58:	0000                	unimp
      5a:	a304                	fsd	fs1,0(a4)
      5c:	5b01                	li	s6,-32
      5e:	009f de07 0009      	.byte	0x9f, 0x00, 0x07, 0xde, 0x09, 0x00
      64:	0080                	addi	s0,sp,64
      66:	0000                	unimp
      68:	7c00                	ld	s0,56(s0)
      6a:	000a                	c.slli	zero,0x2
      6c:	0080                	addi	s0,sp,64
      6e:	0000                	unimp
      70:	0100                	addi	s0,sp,128
      72:	0751                	addi	a4,a4,20 # 1a014 <_prog_start-0x7ffe5fec>
      74:	0ac4                	addi	s1,sp,340
      76:	8000                	.2byte	0x8000
      78:	0000                	unimp
      7a:	0000                	unimp
      7c:	0afa                	slli	s5,s5,0x1e
      7e:	8000                	.2byte	0x8000
      80:	0000                	unimp
      82:	0000                	unimp
      84:	5801                	li	a6,-32
      86:	000afa07          	.4byte	0xafa07
      8a:	0080                	addi	s0,sp,64
      8c:	0000                	unimp
      8e:	3000                	fld	fs0,32(s0)
      90:	000d                	c.nop	3
      92:	0080                	addi	s0,sp,64
      94:	0000                	unimp
      96:	0100                	addi	s0,sp,128
      98:	0064                	addi	s1,sp,12
      9a:	000a6407          	.4byte	0xa6407
      9e:	0080                	addi	s0,sp,64
      a0:	0000                	unimp
      a2:	7400                	ld	s0,40(s0)
      a4:	000a                	c.slli	zero,0x2
      a6:	0080                	addi	s0,sp,64
      a8:	0000                	unimp
      aa:	0100                	addi	s0,sp,128
      ac:	0ad8075b          	.4byte	0xad8075b
      b0:	8000                	.2byte	0x8000
      b2:	0000                	unimp
      b4:	0000                	unimp
      b6:	0ae2                	slli	s5,s5,0x18
      b8:	8000                	.2byte	0x8000
      ba:	0000                	unimp
      bc:	0000                	unimp
      be:	5b01                	li	s6,-32
      c0:	000c0807          	.4byte	0xc0807
      c4:	0080                	addi	s0,sp,64
      c6:	0000                	unimp
      c8:	1800                	addi	s0,sp,48
      ca:	000c                	.2byte	0xc
      cc:	0080                	addi	s0,sp,64
      ce:	0000                	unimp
      d0:	0100                	addi	s0,sp,128
      d2:	0cd4075b          	.4byte	0xcd4075b
      d6:	8000                	.2byte	0x8000
      d8:	0000                	unimp
      da:	0000                	unimp
      dc:	0ce0                	addi	s0,sp,604
      de:	8000                	.2byte	0x8000
      e0:	0000                	unimp
      e2:	0000                	unimp
      e4:	5b01                	li	s6,-32
      e6:	0700                	addi	s0,sp,896
      e8:	0a68                	addi	a0,sp,284
      ea:	8000                	.2byte	0x8000
      ec:	0000                	unimp
      ee:	0000                	unimp
      f0:	0a74                	addi	a3,sp,284
      f2:	8000                	.2byte	0x8000
      f4:	0000                	unimp
      f6:	0000                	unimp
      f8:	7b0a                	ld	s6,160(sp)
      fa:	7100                	ld	s0,32(a0)
      fc:	1c00                	addi	s0,sp,560
      fe:	939f 9308 0718      	.byte	0x9f, 0x93, 0x08, 0x93, 0x18, 0x07
     104:	0a74                	addi	a3,sp,284
     106:	8000                	.2byte	0x8000
     108:	0000                	unimp
     10a:	0000                	unimp
     10c:	80000a7b          	.4byte	0x80000a7b
     110:	0000                	unimp
     112:	0000                	unimp
     114:	5b05                	li	s6,-31
     116:	18930893          	addi	a7,t1,393 # ffffffffffffa189 <a+0xffffffff7fff91d1>
     11a:	000ad807          	.4byte	0xad807
     11e:	0080                	addi	s0,sp,64
     120:	0000                	unimp
     122:	e200                	sd	s0,0(a2)
     124:	000a                	c.slli	zero,0x2
     126:	0080                	addi	s0,sp,64
     128:	0000                	unimp
     12a:	0c00                	addi	s0,sp,528
     12c:	007b0893          	addi	a7,s6,7
     130:	0078                	addi	a4,sp,12
     132:	9f1c                	.2byte	0x9f1c
     134:	10930893          	addi	a7,t1,265
     138:	000ae207          	.4byte	0xae207
     13c:	0080                	addi	s0,sp,64
     13e:	0000                	unimp
     140:	e500                	sd	s0,8(a0)
     142:	000a                	c.slli	zero,0x2
     144:	0080                	addi	s0,sp,64
     146:	0000                	unimp
     148:	0700                	addi	s0,sp,896
     14a:	935b0893          	addi	a7,s6,-1739
     14e:	9308                	.2byte	0x9308
     150:	0710                	addi	a2,sp,896
     152:	0c0c                	addi	a1,sp,528
     154:	8000                	.2byte	0x8000
     156:	0000                	unimp
     158:	0000                	unimp
     15a:	0c18                	addi	a4,sp,528
     15c:	8000                	.2byte	0x8000
     15e:	0000                	unimp
     160:	0000                	unimp
     162:	930c                	.2byte	0x930c
     164:	7b10                	ld	a2,48(a4)
     166:	8400                	.2byte	0x8400
     168:	1c00                	addi	s0,sp,560
     16a:	939f 9308 0708      	.byte	0x9f, 0x93, 0x08, 0x93, 0x08, 0x07
     170:	0c18                	addi	a4,sp,528
     172:	8000                	.2byte	0x8000
     174:	0000                	unimp
     176:	0000                	unimp
     178:	80000c1b          	addiw	s8,zero,-2048
     17c:	0000                	unimp
     17e:	0000                	unimp
     180:	5b109307          	.4byte	0x5b109307
     184:	08930893          	addi	a7,t1,137
     188:	000cd407          	.4byte	0xcd407
     18c:	0080                	addi	s0,sp,64
     18e:	0000                	unimp
     190:	e000                	sd	s0,0(s0)
     192:	000c                	.2byte	0xc
     194:	0080                	addi	s0,sp,64
     196:	0000                	unimp
     198:	0a00                	addi	s0,sp,272
     19a:	007b1893          	slli	a7,s6,0x7
     19e:	0084                	addi	s1,sp,64
     1a0:	9f1c                	.2byte	0x9f1c
     1a2:	e0070893          	addi	a7,a4,-512
     1a6:	000c                	.2byte	0xc
     1a8:	0080                	addi	s0,sp,64
     1aa:	0000                	unimp
     1ac:	e300                	sd	s0,0(a4)
     1ae:	000c                	.2byte	0xc
     1b0:	0080                	addi	s0,sp,64
     1b2:	0000                	unimp
     1b4:	0500                	addi	s0,sp,640
     1b6:	935b1893          	.4byte	0x935b1893
     1ba:	0008                	.2byte	0x8
     1bc:	0009e207          	.4byte	0x9e207
     1c0:	0080                	addi	s0,sp,64
     1c2:	0000                	unimp
     1c4:	7800                	ld	s0,48(s0)
     1c6:	000a                	c.slli	zero,0x2
     1c8:	0080                	addi	s0,sp,64
     1ca:	0000                	unimp
     1cc:	0100                	addi	s0,sp,128
     1ce:	0759                	addi	a4,a4,22
     1d0:	0afe                	slli	s5,s5,0x1f
     1d2:	8000                	.2byte	0x8000
     1d4:	0000                	unimp
     1d6:	0000                	unimp
     1d8:	0c50                	addi	a2,sp,532
     1da:	8000                	.2byte	0x8000
     1dc:	0000                	unimp
     1de:	0000                	unimp
     1e0:	6601                	.2byte	0x6601
     1e2:	0700                	addi	s0,sp,896
     1e4:	0a68                	addi	a0,sp,284
     1e6:	8000                	.2byte	0x8000
     1e8:	0000                	unimp
     1ea:	0000                	unimp
     1ec:	80000a7b          	.4byte	0x80000a7b
     1f0:	0000                	unimp
     1f2:	0000                	unimp
     1f4:	5f01                	li	t5,-32
     1f6:	000c0c07          	.4byte	0xc0c07
     1fa:	0080                	addi	s0,sp,64
     1fc:	0000                	unimp
     1fe:	2000                	fld	fs0,0(s0)
     200:	000c                	.2byte	0xc
     202:	0080                	addi	s0,sp,64
     204:	0000                	unimp
     206:	0100                	addi	s0,sp,128
     208:	0058                	addi	a4,sp,4
     20a:	000a7807          	.4byte	0xa7807
     20e:	0080                	addi	s0,sp,64
     210:	0000                	unimp
     212:	1600                	addi	s0,sp,800
     214:	0080000b          	.4byte	0x80000b
     218:	0000                	unimp
     21a:	0100                	addi	s0,sp,128
     21c:	0759                	addi	a4,a4,22
     21e:	0c20                	addi	s0,sp,536
     220:	8000                	.2byte	0x8000
     222:	0000                	unimp
     224:	0000                	unimp
     226:	0c36                	slli	s8,s8,0xd
     228:	8000                	.2byte	0x8000
     22a:	0000                	unimp
     22c:	0000                	unimp
     22e:	5801                	li	a6,-32
     230:	0700                	addi	s0,sp,896
     232:	0c32                	slli	s8,s8,0xc
     234:	8000                	.2byte	0x8000
     236:	0000                	unimp
     238:	0000                	unimp
     23a:	0c50                	addi	a2,sp,532
     23c:	8000                	.2byte	0x8000
     23e:	0000                	unimp
     240:	0000                	unimp
     242:	6405                	lui	s0,0x1
     244:	18930893          	addi	a7,t1,393
     248:	000c5007          	.4byte	0xc5007
     24c:	0080                	addi	s0,sp,64
     24e:	0000                	unimp
     250:	8600                	.2byte	0x8600
     252:	000c                	.2byte	0xc
     254:	0080                	addi	s0,sp,64
     256:	0000                	unimp
     258:	0800                	addi	s0,sp,16
     25a:	9364                	.2byte	0x9364
     25c:	6608                	ld	a0,8(a2)
     25e:	10930893          	addi	a7,t1,265
     262:	000c8607          	.4byte	0xc8607
     266:	0080                	addi	s0,sp,64
     268:	0000                	unimp
     26a:	9e00                	.2byte	0x9e00
     26c:	000c                	.2byte	0xc
     26e:	0080                	addi	s0,sp,64
     270:	0000                	unimp
     272:	0b00                	addi	s0,sp,400
     274:	9364                	.2byte	0x9364
     276:	6608                	ld	a0,8(a2)
     278:	93680893          	addi	a7,a6,-1738 # ffffffffffff9936 <a+0xffffffff7fff897e>
     27c:	9308                	.2byte	0x9308
     27e:	0708                	addi	a0,sp,896
     280:	0c9e                	slli	s9,s9,0x7
     282:	8000                	.2byte	0x8000
     284:	0000                	unimp
     286:	0000                	unimp
     288:	0d30                	addi	a2,sp,664
     28a:	8000                	.2byte	0x8000
     28c:	0000                	unimp
     28e:	0000                	unimp
     290:	640c                	ld	a1,8(s0)
     292:	93660893          	addi	a7,a2,-1738
     296:	6808                	ld	a0,16(s0)
     298:	936a0893          	addi	a7,s4,-1738
     29c:	0708                	addi	a0,sp,896
     29e:	0d30                	addi	a2,sp,664
     2a0:	8000                	.2byte	0x8000
     2a2:	0000                	unimp
     2a4:	0000                	unimp
     2a6:	0d34                	addi	a3,sp,664
     2a8:	8000                	.2byte	0x8000
     2aa:	0000                	unimp
     2ac:	0000                	unimp
     2ae:	6608930b          	.4byte	0x6608930b
     2b2:	93680893          	addi	a7,a6,-1738
     2b6:	6a08                	ld	a0,16(a2)
     2b8:	34070893          	addi	a7,a4,832
     2bc:	000d                	c.nop	3
     2be:	0080                	addi	s0,sp,64
     2c0:	0000                	unimp
     2c2:	3800                	fld	fs0,48(s0)
     2c4:	000d                	c.nop	3
     2c6:	0080                	addi	s0,sp,64
     2c8:	0000                	unimp
     2ca:	0800                	addi	s0,sp,16
     2cc:	93681093          	.4byte	0x93681093
     2d0:	6a08                	ld	a0,16(a2)
     2d2:	38070893          	addi	a7,a4,896
     2d6:	000d                	c.nop	3
     2d8:	0080                	addi	s0,sp,64
     2da:	0000                	unimp
     2dc:	3c00                	fld	fs0,56(s0)
     2de:	000d                	c.nop	3
     2e0:	0080                	addi	s0,sp,64
     2e2:	0000                	unimp
     2e4:	0500                	addi	s0,sp,640
     2e6:	936a1893          	.4byte	0x936a1893
     2ea:	0008                	.2byte	0x8
     2ec:	000c4c07          	.4byte	0xc4c07
     2f0:	0080                	addi	s0,sp,64
     2f2:	0000                	unimp
     2f4:	8200                	.2byte	0x8200
     2f6:	000c                	.2byte	0xc
     2f8:	0080                	addi	s0,sp,64
     2fa:	0000                	unimp
     2fc:	0500                	addi	s0,sp,640
     2fe:	93089367          	.4byte	0x93089367
     302:	0718                	addi	a4,sp,896
     304:	0c82                	c.slli64	s9
     306:	8000                	.2byte	0x8000
     308:	0000                	unimp
     30a:	0000                	unimp
     30c:	0c9a                	slli	s9,s9,0x6
     30e:	8000                	.2byte	0x8000
     310:	0000                	unimp
     312:	0000                	unimp
     314:	6708                	ld	a0,8(a4)
     316:	93690893          	addi	a7,s2,-1738 # 1a936 <_prog_start-0x7ffe56ca>
     31a:	9308                	.2byte	0x9308
     31c:	0710                	addi	a2,sp,896
     31e:	0c9a                	slli	s9,s9,0x6
     320:	8000                	.2byte	0x8000
     322:	0000                	unimp
     324:	0000                	unimp
     326:	0cd0                	addi	a2,sp,596
     328:	8000                	.2byte	0x8000
     32a:	0000                	unimp
     32c:	0000                	unimp
     32e:	0893670b          	.4byte	0x893670b
     332:	9369                	srli	a4,a4,0x3a
     334:	6b08                	ld	a0,16(a4)
     336:	08930893          	addi	a7,t1,137
     33a:	000cd007          	.4byte	0xcd007
     33e:	0080                	addi	s0,sp,64
     340:	0000                	unimp
     342:	2800                	fld	fs0,16(s0)
     344:	000d                	c.nop	3
     346:	0080                	addi	s0,sp,64
     348:	0000                	unimp
     34a:	0c00                	addi	s0,sp,528
     34c:	69089367          	.4byte	0x69089367
     350:	936b0893          	addi	a7,s6,-1738
     354:	5808                	lw	a0,48(s0)
     356:	28070893          	addi	a7,a4,640
     35a:	000d                	c.nop	3
     35c:	0080                	addi	s0,sp,64
     35e:	0000                	unimp
     360:	3600                	fld	fs0,40(a2)
     362:	000d                	c.nop	3
     364:	0080                	addi	s0,sp,64
     366:	0000                	unimp
     368:	0b00                	addi	s0,sp,400
     36a:	69089367          	.4byte	0x69089367
     36e:	936b0893          	addi	a7,s6,-1738
     372:	9308                	.2byte	0x9308
     374:	0708                	addi	a0,sp,896
     376:	0d36                	slli	s10,s10,0xd
     378:	8000                	.2byte	0x8000
     37a:	0000                	unimp
     37c:	0000                	unimp
     37e:	0d3a                	slli	s10,s10,0xe
     380:	8000                	.2byte	0x8000
     382:	0000                	unimp
     384:	0000                	unimp
     386:	930a                	add	t1,t1,sp
     388:	6908                	ld	a0,16(a0)
     38a:	936b0893          	addi	a7,s6,-1738
     38e:	9308                	.2byte	0x9308
     390:	0708                	addi	a0,sp,896
     392:	0d3a                	slli	s10,s10,0xe
     394:	8000                	.2byte	0x8000
     396:	0000                	unimp
     398:	0000                	unimp
     39a:	0d3e                	slli	s10,s10,0xf
     39c:	8000                	.2byte	0x8000
     39e:	0000                	unimp
     3a0:	0000                	unimp
     3a2:	6b109307          	.4byte	0x6b109307
     3a6:	08930893          	addi	a7,t1,137
     3aa:	0700                	addi	s0,sp,896
     3ac:	09de                	slli	s3,s3,0x17
     3ae:	8000                	.2byte	0x8000
     3b0:	0000                	unimp
     3b2:	0000                	unimp
     3b4:	0a7c                	addi	a5,sp,284
     3b6:	8000                	.2byte	0x8000
     3b8:	0000                	unimp
     3ba:	0000                	unimp
     3bc:	5101                	li	sp,-32
     3be:	0700                	addi	s0,sp,896
     3c0:	09e2                	slli	s3,s3,0x18
     3c2:	8000                	.2byte	0x8000
     3c4:	0000                	unimp
     3c6:	0000                	unimp
     3c8:	0a78                	addi	a4,sp,284
     3ca:	8000                	.2byte	0x8000
     3cc:	0000                	unimp
     3ce:	0000                	unimp
     3d0:	5901                	li	s2,-32
     3d2:	0700                	addi	s0,sp,896
     3d4:	09e2                	slli	s3,s3,0x18
     3d6:	8000                	.2byte	0x8000
     3d8:	0000                	unimp
     3da:	0000                	unimp
     3dc:	0a0a                	slli	s4,s4,0x2
     3de:	8000                	.2byte	0x8000
     3e0:	0000                	unimp
     3e2:	0000                	unimp
     3e4:	3002                	fld	ft0,32(sp)
     3e6:	079f 0a0a 8000      	.byte	0x9f, 0x07, 0x0a, 0x0a, 0x00, 0x80
     3ec:	0000                	unimp
     3ee:	0000                	unimp
     3f0:	0a5a                	slli	s4,s4,0x16
     3f2:	8000                	.2byte	0x8000
     3f4:	0000                	unimp
     3f6:	0000                	unimp
     3f8:	5b01                	li	s6,-32
     3fa:	0700                	addi	s0,sp,896
     3fc:	0a0a                	slli	s4,s4,0x2
     3fe:	8000                	.2byte	0x8000
     400:	0000                	unimp
     402:	0000                	unimp
     404:	0a18                	addi	a4,sp,272
     406:	8000                	.2byte	0x8000
     408:	0000                	unimp
     40a:	0000                	unimp
     40c:	3002                	fld	ft0,32(sp)
     40e:	079f 0a18 8000      	.byte	0x9f, 0x07, 0x18, 0x0a, 0x00, 0x80
     414:	0000                	unimp
     416:	0000                	unimp
     418:	0a52                	slli	s4,s4,0x14
     41a:	8000                	.2byte	0x8000
     41c:	0000                	unimp
     41e:	0000                	unimp
     420:	6e01                	.2byte	0x6e01
     422:	0700                	addi	s0,sp,896
     424:	0a18                	addi	a4,sp,272
     426:	8000                	.2byte	0x8000
     428:	0000                	unimp
     42a:	0000                	unimp
     42c:	0a20                	addi	s0,sp,280
     42e:	8000                	.2byte	0x8000
     430:	0000                	unimp
     432:	0000                	unimp
     434:	3002                	fld	ft0,32(sp)
     436:	079f 0a20 8000      	.byte	0x9f, 0x07, 0x20, 0x0a, 0x00, 0x80
     43c:	0000                	unimp
     43e:	0000                	unimp
     440:	0a46                	slli	s4,s4,0x11
     442:	8000                	.2byte	0x8000
     444:	0000                	unimp
     446:	0000                	unimp
     448:	7e0e                	ld	t3,224(sp)
     44a:	7b00                	ld	s0,48(a4)
     44c:	0800                	addi	s0,sp,16
     44e:	2420                	fld	fs0,72(s0)
     450:	2008                	fld	fa0,0(s0)
     452:	1c26                	slli	s8,s8,0x29
     454:	2536                	fld	fa0,328(sp)
     456:	079f 0a46 8000      	.byte	0x9f, 0x07, 0x46, 0x0a, 0x00, 0x80
     45c:	0000                	unimp
     45e:	0000                	unimp
     460:	0a4c                	addi	a1,sp,276
     462:	8000                	.2byte	0x8000
     464:	0000                	unimp
     466:	0000                	unimp
     468:	7e11                	lui	t3,0xfffe4
     46a:	7b00                	ld	s0,48(a4)
     46c:	0800                	addi	s0,sp,16
     46e:	2420                	fld	fs0,72(s0)
     470:	2008                	fld	fa0,0(s0)
     472:	1c26                	slli	s8,s8,0x29
     474:	4008                	lw	a0,0(s0)
     476:	361c                	fld	fa5,40(a2)
     478:	9f25                	addw	a4,a4,s1
     47a:	0700                	addi	s0,sp,896
     47c:	0a64                	addi	s1,sp,284
     47e:	8000                	.2byte	0x8000
     480:	0000                	unimp
     482:	0000                	unimp
     484:	0a74                	addi	a3,sp,284
     486:	8000                	.2byte	0x8000
     488:	0000                	unimp
     48a:	0000                	unimp
     48c:	5b01                	li	s6,-32
     48e:	0700                	addi	s0,sp,896
     490:	0a68                	addi	a0,sp,284
     492:	8000                	.2byte	0x8000
     494:	0000                	unimp
     496:	0000                	unimp
     498:	80000a7b          	.4byte	0x80000a7b
     49c:	0000                	unimp
     49e:	0000                	unimp
     4a0:	5f01                	li	t5,-32
     4a2:	0700                	addi	s0,sp,896
     4a4:	0a8a                	slli	s5,s5,0x2
     4a6:	8000                	.2byte	0x8000
     4a8:	0000                	unimp
     4aa:	0000                	unimp
     4ac:	0a9e                	slli	s5,s5,0x7
     4ae:	8000                	.2byte	0x8000
     4b0:	0000                	unimp
     4b2:	0000                	unimp
     4b4:	3002                	fld	ft0,32(sp)
     4b6:	079f 0a9e 8000      	.byte	0x9f, 0x07, 0x9e, 0x0a, 0x00, 0x80
     4bc:	0000                	unimp
     4be:	0000                	unimp
     4c0:	0ab4                	addi	a3,sp,344
     4c2:	8000                	.2byte	0x8000
     4c4:	0000                	unimp
     4c6:	0000                	unimp
     4c8:	7c05                	lui	s8,0xfffe1
     4ca:	3640                	fld	fs0,168(a2)
     4cc:	9f25                	addw	a4,a4,s1
     4ce:	000ab407          	fld	fs0,0(s5)
     4d2:	0080                	addi	s0,sp,64
     4d4:	0000                	unimp
     4d6:	b800                	fsd	fs0,48(s0)
     4d8:	000a                	c.slli	zero,0x2
     4da:	0080                	addi	s0,sp,64
     4dc:	0000                	unimp
     4de:	0700                	addi	s0,sp,896
     4e0:	407c                	lw	a5,68(s0)
     4e2:	2536                	fld	fa0,328(sp)
     4e4:	079f0123          	sb	s9,98(t5)
     4e8:	0ab8                	addi	a4,sp,344
     4ea:	8000                	.2byte	0x8000
     4ec:	0000                	unimp
     4ee:	0000                	unimp
     4f0:	80000ad3          	.4byte	0x80000ad3
     4f4:	0000                	unimp
     4f6:	0000                	unimp
     4f8:	7c08                	ld	a0,56(s0)
     4fa:	7f80                	ld	s0,56(a5)
     4fc:	2536                	fld	fa0,328(sp)
     4fe:	009f0123          	sb	s1,2(t5)
     502:	000a9e07          	.4byte	0xa9e07
     506:	0080                	addi	s0,sp,64
     508:	0000                	unimp
     50a:	a000                	fsd	fs0,0(s0)
     50c:	000a                	c.slli	zero,0x2
     50e:	0080                	addi	s0,sp,64
     510:	0000                	unimp
     512:	0200                	addi	s0,sp,256
     514:	9f30                	.2byte	0x9f30
     516:	000aa007          	flw	ft0,0(s5)
     51a:	0080                	addi	s0,sp,64
     51c:	0000                	unimp
     51e:	ac00                	fsd	fs0,24(s0)
     520:	000a                	c.slli	zero,0x2
     522:	0080                	addi	s0,sp,64
     524:	0000                	unimp
     526:	0600                	addi	s0,sp,768
     528:	007f                	.2byte	0x7f
     52a:	0080                	addi	s0,sp,64
     52c:	9f1c                	.2byte	0x9f1c
     52e:	0700                	addi	s0,sp,896
     530:	0ac4                	addi	s1,sp,340
     532:	8000                	.2byte	0x8000
     534:	0000                	unimp
     536:	0000                	unimp
     538:	0b6a                	slli	s6,s6,0x1a
     53a:	8000                	.2byte	0x8000
     53c:	0000                	unimp
     53e:	0000                	unimp
     540:	5801                	li	a6,-32
     542:	0700                	addi	s0,sp,896
     544:	0ad8                	addi	a4,sp,340
     546:	8000                	.2byte	0x8000
     548:	0000                	unimp
     54a:	0000                	unimp
     54c:	0ae2                	slli	s5,s5,0x18
     54e:	8000                	.2byte	0x8000
     550:	0000                	unimp
     552:	0000                	unimp
     554:	5b01                	li	s6,-32
     556:	0700                	addi	s0,sp,896
     558:	0afa                	slli	s5,s5,0x1e
     55a:	8000                	.2byte	0x8000
     55c:	0000                	unimp
     55e:	0000                	unimp
     560:	0c32                	slli	s8,s8,0xc
     562:	8000                	.2byte	0x8000
     564:	0000                	unimp
     566:	0000                	unimp
     568:	6401                	.2byte	0x6401
     56a:	0700                	addi	s0,sp,896
     56c:	0afe                	slli	s5,s5,0x1f
     56e:	8000                	.2byte	0x8000
     570:	0000                	unimp
     572:	0000                	unimp
     574:	0c50                	addi	a2,sp,532
     576:	8000                	.2byte	0x8000
     578:	0000                	unimp
     57a:	0000                	unimp
     57c:	6601                	.2byte	0x6601
     57e:	0700                	addi	s0,sp,896
     580:	0c08                	addi	a0,sp,528
     582:	8000                	.2byte	0x8000
     584:	0000                	unimp
     586:	0000                	unimp
     588:	0c18                	addi	a4,sp,528
     58a:	8000                	.2byte	0x8000
     58c:	0000                	unimp
     58e:	0000                	unimp
     590:	5b01                	li	s6,-32
     592:	0700                	addi	s0,sp,896
     594:	0c0c                	addi	a1,sp,528
     596:	8000                	.2byte	0x8000
     598:	0000                	unimp
     59a:	0000                	unimp
     59c:	0c20                	addi	s0,sp,536
     59e:	8000                	.2byte	0x8000
     5a0:	0000                	unimp
     5a2:	0000                	unimp
     5a4:	5801                	li	a6,-32
     5a6:	0700                	addi	s0,sp,896
     5a8:	0c32                	slli	s8,s8,0xc
     5aa:	8000                	.2byte	0x8000
     5ac:	0000                	unimp
     5ae:	0000                	unimp
     5b0:	0d30                	addi	a2,sp,664
     5b2:	8000                	.2byte	0x8000
     5b4:	0000                	unimp
     5b6:	0000                	unimp
     5b8:	6401                	.2byte	0x6401
     5ba:	0700                	addi	s0,sp,896
     5bc:	0c4c                	addi	a1,sp,532
     5be:	8000                	.2byte	0x8000
     5c0:	0000                	unimp
     5c2:	0000                	unimp
     5c4:	0d36                	slli	s10,s10,0xd
     5c6:	8000                	.2byte	0x8000
     5c8:	0000                	unimp
     5ca:	0000                	unimp
     5cc:	6701                	.2byte	0x6701
     5ce:	0700                	addi	s0,sp,896
     5d0:	0c50                	addi	a2,sp,532
     5d2:	8000                	.2byte	0x8000
     5d4:	0000                	unimp
     5d6:	0000                	unimp
     5d8:	0d34                	addi	a3,sp,664
     5da:	8000                	.2byte	0x8000
     5dc:	0000                	unimp
     5de:	0000                	unimp
     5e0:	6601                	.2byte	0x6601
     5e2:	0700                	addi	s0,sp,896
     5e4:	0c82                	c.slli64	s9
     5e6:	8000                	.2byte	0x8000
     5e8:	0000                	unimp
     5ea:	0000                	unimp
     5ec:	0d3a                	slli	s10,s10,0xe
     5ee:	8000                	.2byte	0x8000
     5f0:	0000                	unimp
     5f2:	0000                	unimp
     5f4:	6901                	.2byte	0x6901
     5f6:	0700                	addi	s0,sp,896
     5f8:	0c86                	slli	s9,s9,0x1
     5fa:	8000                	.2byte	0x8000
     5fc:	0000                	unimp
     5fe:	0000                	unimp
     600:	0d38                	addi	a4,sp,664
     602:	8000                	.2byte	0x8000
     604:	0000                	unimp
     606:	0000                	unimp
     608:	6801                	.2byte	0x6801
     60a:	0700                	addi	s0,sp,896
     60c:	0c9a                	slli	s9,s9,0x6
     60e:	8000                	.2byte	0x8000
     610:	0000                	unimp
     612:	0000                	unimp
     614:	0d3e                	slli	s10,s10,0xf
     616:	8000                	.2byte	0x8000
     618:	0000                	unimp
     61a:	0000                	unimp
     61c:	6b01                	.2byte	0x6b01
     61e:	0700                	addi	s0,sp,896
     620:	0c9e                	slli	s9,s9,0x7
     622:	8000                	.2byte	0x8000
     624:	0000                	unimp
     626:	0000                	unimp
     628:	0d3c                	addi	a5,sp,664
     62a:	8000                	.2byte	0x8000
     62c:	0000                	unimp
     62e:	0000                	unimp
     630:	6a01                	.2byte	0x6a01
     632:	0700                	addi	s0,sp,896
     634:	0cd0                	addi	a2,sp,596
     636:	8000                	.2byte	0x8000
     638:	0000                	unimp
     63a:	0000                	unimp
     63c:	0d28                	addi	a0,sp,664
     63e:	8000                	.2byte	0x8000
     640:	0000                	unimp
     642:	0000                	unimp
     644:	5801                	li	a6,-32
     646:	0700                	addi	s0,sp,896
     648:	0cd4                	addi	a3,sp,596
     64a:	8000                	.2byte	0x8000
     64c:	0000                	unimp
     64e:	0000                	unimp
     650:	0ce0                	addi	s0,sp,604
     652:	8000                	.2byte	0x8000
     654:	0000                	unimp
     656:	0000                	unimp
     658:	5b01                	li	s6,-32
     65a:	0700                	addi	s0,sp,896
     65c:	0b0e                	slli	s6,s6,0x3
     65e:	8000                	.2byte	0x8000
     660:	0000                	unimp
     662:	0000                	unimp
     664:	0b2c                	addi	a1,sp,408
     666:	8000                	.2byte	0x8000
     668:	0000                	unimp
     66a:	0000                	unimp
     66c:	3002                	fld	ft0,32(sp)
     66e:	079f 0b2c 8000      	.byte	0x9f, 0x07, 0x2c, 0x0b, 0x00, 0x80
     674:	0000                	unimp
     676:	0000                	unimp
     678:	0b46                	slli	s6,s6,0x11
     67a:	8000                	.2byte	0x8000
     67c:	0000                	unimp
     67e:	0000                	unimp
     680:	5f01                	li	t5,-32
     682:	0700                	addi	s0,sp,896
     684:	0b6e                	slli	s6,s6,0x1b
     686:	8000                	.2byte	0x8000
     688:	0000                	unimp
     68a:	0000                	unimp
     68c:	0b86                	slli	s7,s7,0x1
     68e:	8000                	.2byte	0x8000
     690:	0000                	unimp
     692:	0000                	unimp
     694:	5f01                	li	t5,-32
     696:	0700                	addi	s0,sp,896
     698:	0ba0                	addi	s0,sp,472
     69a:	8000                	.2byte	0x8000
     69c:	0000                	unimp
     69e:	0000                	unimp
     6a0:	0bae                	slli	s7,s7,0xb
     6a2:	8000                	.2byte	0x8000
     6a4:	0000                	unimp
     6a6:	0000                	unimp
     6a8:	3002                	fld	ft0,32(sp)
     6aa:	079f 0bae 8000      	.byte	0x9f, 0x07, 0xae, 0x0b, 0x00, 0x80
     6b0:	0000                	unimp
     6b2:	0000                	unimp
     6b4:	0bca                	slli	s7,s7,0x12
     6b6:	8000                	.2byte	0x8000
     6b8:	0000                	unimp
     6ba:	0000                	unimp
     6bc:	5f01                	li	t5,-32
     6be:	0700                	addi	s0,sp,896
     6c0:	0be2                	slli	s7,s7,0x18
     6c2:	8000                	.2byte	0x8000
     6c4:	0000                	unimp
     6c6:	0000                	unimp
     6c8:	0bfa                	slli	s7,s7,0x1e
     6ca:	8000                	.2byte	0x8000
     6cc:	0000                	unimp
     6ce:	0000                	unimp
     6d0:	5f01                	li	t5,-32
     6d2:	0700                	addi	s0,sp,896
     6d4:	0c56                	slli	s8,s8,0x15
     6d6:	8000                	.2byte	0x8000
     6d8:	0000                	unimp
     6da:	0000                	unimp
     6dc:	0c5a                	slli	s8,s8,0x16
     6de:	8000                	.2byte	0x8000
     6e0:	0000                	unimp
     6e2:	0000                	unimp
     6e4:	3002                	fld	ft0,32(sp)
     6e6:	079f 0c5a 8000      	.byte	0x9f, 0x07, 0x5a, 0x0c, 0x00, 0x80
     6ec:	0000                	unimp
     6ee:	0000                	unimp
     6f0:	0c74                	addi	a3,sp,540
     6f2:	8000                	.2byte	0x8000
     6f4:	0000                	unimp
     6f6:	0000                	unimp
     6f8:	5f01                	li	t5,-32
     6fa:	0700                	addi	s0,sp,896
     6fc:	0ca2                	slli	s9,s9,0x8
     6fe:	8000                	.2byte	0x8000
     700:	0000                	unimp
     702:	0000                	unimp
     704:	0ca6                	slli	s9,s9,0x9
     706:	8000                	.2byte	0x8000
     708:	0000                	unimp
     70a:	0000                	unimp
     70c:	3002                	fld	ft0,32(sp)
     70e:	079f 0ca6 8000      	.byte	0x9f, 0x07, 0xa6, 0x0c, 0x00, 0x80
     714:	0000                	unimp
     716:	0000                	unimp
     718:	0cc2                	slli	s9,s9,0x10
     71a:	8000                	.2byte	0x8000
     71c:	0000                	unimp
     71e:	0000                	unimp
     720:	5f01                	li	t5,-32
     722:	0700                	addi	s0,sp,896
     724:	090e                	slli	s2,s2,0x3
     726:	8000                	.2byte	0x8000
     728:	0000                	unimp
     72a:	0000                	unimp
     72c:	0944                	addi	s1,sp,148
     72e:	8000                	.2byte	0x8000
     730:	0000                	unimp
     732:	0000                	unimp
     734:	9f300803          	lb	a6,-1549(zero) # fffffffffffff9f3 <a+0xffffffff7fffea3b>
     738:	00094407          	.4byte	0x94407
     73c:	0080                	addi	s0,sp,64
     73e:	0000                	unimp
     740:	9600                	.2byte	0x9600
     742:	0009                	c.nop	2
     744:	0080                	addi	s0,sp,64
     746:	0000                	unimp
     748:	0100                	addi	s0,sp,128
     74a:	0058                	addi	a4,sp,4
     74c:	00094407          	.4byte	0x94407
     750:	0080                	addi	s0,sp,64
     752:	0000                	unimp
     754:	5200                	lw	s0,32(a2)
     756:	0009                	c.nop	2
     758:	0080                	addi	s0,sp,64
     75a:	0000                	unimp
     75c:	0200                	addi	s0,sp,256
     75e:	9f30                	.2byte	0x9f30
     760:	00095207          	.4byte	0x95207
     764:	0080                	addi	s0,sp,64
     766:	0000                	unimp
     768:	8e00                	.2byte	0x8e00
     76a:	0009                	c.nop	2
     76c:	0080                	addi	s0,sp,64
     76e:	0000                	unimp
     770:	0100                	addi	s0,sp,128
     772:	006e                	c.slli	zero,0x1b
     774:	00095207          	.4byte	0x95207
     778:	0080                	addi	s0,sp,64
     77a:	0000                	unimp
     77c:	5a00                	lw	s0,48(a2)
     77e:	0009                	c.nop	2
     780:	0080                	addi	s0,sp,64
     782:	0000                	unimp
     784:	0200                	addi	s0,sp,256
     786:	9f30                	.2byte	0x9f30
     788:	00095a07          	.4byte	0x95a07
     78c:	0080                	addi	s0,sp,64
     78e:	0000                	unimp
     790:	8200                	.2byte	0x8200
     792:	0009                	c.nop	2
     794:	0080                	addi	s0,sp,64
     796:	0000                	unimp
     798:	0e00                	addi	s0,sp,784
     79a:	007e                	c.slli	zero,0x1f
     79c:	0078                	addi	a4,sp,12
     79e:	2008                	fld	fa0,0(s0)
     7a0:	0824                	addi	s1,sp,24
     7a2:	2620                	fld	fs0,72(a2)
     7a4:	361c                	fld	fa5,40(a2)
     7a6:	9f25                	addw	a4,a4,s1
     7a8:	00098207          	.4byte	0x98207
     7ac:	0080                	addi	s0,sp,64
     7ae:	0000                	unimp
     7b0:	8800                	.2byte	0x8800
     7b2:	0009                	c.nop	2
     7b4:	0080                	addi	s0,sp,64
     7b6:	0000                	unimp
     7b8:	1100                	addi	s0,sp,160
     7ba:	007e                	c.slli	zero,0x1f
     7bc:	0078                	addi	a4,sp,12
     7be:	2008                	fld	fa0,0(s0)
     7c0:	0824                	addi	s1,sp,24
     7c2:	2620                	fld	fs0,72(a2)
     7c4:	081c                	addi	a5,sp,16
     7c6:	1c40                	addi	s0,sp,564
     7c8:	2536                	fld	fa0,328(sp)
     7ca:	009f 6e07 0008      	.byte	0x9f, 0x00, 0x07, 0x6e, 0x08, 0x00
     7d0:	0080                	addi	s0,sp,64
     7d2:	0000                	unimp
     7d4:	aa00                	fsd	fs0,16(a2)
     7d6:	0008                	.2byte	0x8
     7d8:	0080                	addi	s0,sp,64
     7da:	0000                	unimp
     7dc:	0300                	addi	s0,sp,384
     7de:	2008                	fld	fa0,0(s0)
     7e0:	079f 08aa 8000      	.byte	0x9f, 0x07, 0xaa, 0x08, 0x00, 0x80
     7e6:	0000                	unimp
     7e8:	0000                	unimp
     7ea:	08fc                	addi	a5,sp,92
     7ec:	8000                	.2byte	0x8000
     7ee:	0000                	unimp
     7f0:	0000                	unimp
     7f2:	5801                	li	a6,-32
     7f4:	0700                	addi	s0,sp,896
     7f6:	08aa                	slli	a7,a7,0xa
     7f8:	8000                	.2byte	0x8000
     7fa:	0000                	unimp
     7fc:	0000                	unimp
     7fe:	08b8                	addi	a4,sp,88
     800:	8000                	.2byte	0x8000
     802:	0000                	unimp
     804:	0000                	unimp
     806:	3002                	fld	ft0,32(sp)
     808:	079f 08b8 8000      	.byte	0x9f, 0x07, 0xb8, 0x08, 0x00, 0x80
     80e:	0000                	unimp
     810:	0000                	unimp
     812:	08f4                	addi	a3,sp,92
     814:	8000                	.2byte	0x8000
     816:	0000                	unimp
     818:	0000                	unimp
     81a:	6e01                	.2byte	0x6e01
     81c:	0700                	addi	s0,sp,896
     81e:	08b8                	addi	a4,sp,88
     820:	8000                	.2byte	0x8000
     822:	0000                	unimp
     824:	0000                	unimp
     826:	08c0                	addi	s0,sp,84
     828:	8000                	.2byte	0x8000
     82a:	0000                	unimp
     82c:	0000                	unimp
     82e:	3002                	fld	ft0,32(sp)
     830:	079f 08c0 8000      	.byte	0x9f, 0x07, 0xc0, 0x08, 0x00, 0x80
     836:	0000                	unimp
     838:	0000                	unimp
     83a:	08e8                	addi	a0,sp,92
     83c:	8000                	.2byte	0x8000
     83e:	0000                	unimp
     840:	0000                	unimp
     842:	7e0e                	ld	t3,224(sp)
     844:	7800                	ld	s0,48(s0)
     846:	0800                	addi	s0,sp,16
     848:	2420                	fld	fs0,72(s0)
     84a:	2008                	fld	fa0,0(s0)
     84c:	1c26                	slli	s8,s8,0x29
     84e:	2536                	fld	fa0,328(sp)
     850:	079f 08e8 8000      	.byte	0x9f, 0x07, 0xe8, 0x08, 0x00, 0x80
     856:	0000                	unimp
     858:	0000                	unimp
     85a:	08ee                	slli	a7,a7,0x1b
     85c:	8000                	.2byte	0x8000
     85e:	0000                	unimp
     860:	0000                	unimp
     862:	7e11                	lui	t3,0xfffe4
     864:	7800                	ld	s0,48(s0)
     866:	0800                	addi	s0,sp,16
     868:	2420                	fld	fs0,72(s0)
     86a:	2008                	fld	fa0,0(s0)
     86c:	1c26                	slli	s8,s8,0x29
     86e:	4008                	lw	a0,0(s0)
     870:	361c                	fld	fa5,40(a2)
     872:	9f25                	addw	a4,a4,s1
     874:	0700                	addi	s0,sp,896
     876:	07ec                	addi	a1,sp,972
     878:	8000                	.2byte	0x8000
     87a:	0000                	unimp
     87c:	0000                	unimp
     87e:	081a                	slli	a6,a6,0x6
     880:	8000                	.2byte	0x8000
     882:	0000                	unimp
     884:	0000                	unimp
     886:	4002                	.2byte	0x4002
     888:	009f 1a07 0008      	.byte	0x9f, 0x00, 0x07, 0x1a, 0x08, 0x00
     88e:	0080                	addi	s0,sp,64
     890:	0000                	unimp
     892:	2800                	fld	fs0,16(s0)
     894:	0008                	.2byte	0x8
     896:	0080                	addi	s0,sp,64
     898:	0000                	unimp
     89a:	0200                	addi	s0,sp,256
     89c:	9f30                	.2byte	0x9f30
     89e:	00082807          	flw	fa6,0(a6)
     8a2:	0080                	addi	s0,sp,64
     8a4:	0000                	unimp
     8a6:	6400                	ld	s0,8(s0)
     8a8:	0008                	.2byte	0x8
     8aa:	0080                	addi	s0,sp,64
     8ac:	0000                	unimp
     8ae:	0100                	addi	s0,sp,128
     8b0:	006e                	c.slli	zero,0x1b
     8b2:	00082807          	flw	fa6,0(a6)
     8b6:	0080                	addi	s0,sp,64
     8b8:	0000                	unimp
     8ba:	3000                	fld	fs0,32(s0)
     8bc:	0008                	.2byte	0x8
     8be:	0080                	addi	s0,sp,64
     8c0:	0000                	unimp
     8c2:	0200                	addi	s0,sp,256
     8c4:	9f30                	.2byte	0x9f30
     8c6:	0700                	addi	s0,sp,896
     8c8:	0754                	addi	a3,sp,900
     8ca:	8000                	.2byte	0x8000
     8cc:	0000                	unimp
     8ce:	0000                	unimp
     8d0:	0788                	addi	a0,sp,960
     8d2:	8000                	.2byte	0x8000
     8d4:	0000                	unimp
     8d6:	0000                	unimp
     8d8:	3002                	fld	ft0,32(sp)
     8da:	079f 0788 8000      	.byte	0x9f, 0x07, 0x88, 0x07, 0x00, 0x80
     8e0:	0000                	unimp
     8e2:	0000                	unimp
     8e4:	07da                	slli	a5,a5,0x16
     8e6:	8000                	.2byte	0x8000
     8e8:	0000                	unimp
     8ea:	0000                	unimp
     8ec:	5801                	li	a6,-32
     8ee:	0700                	addi	s0,sp,896
     8f0:	0788                	addi	a0,sp,960
     8f2:	8000                	.2byte	0x8000
     8f4:	0000                	unimp
     8f6:	0000                	unimp
     8f8:	0796                	slli	a5,a5,0x5
     8fa:	8000                	.2byte	0x8000
     8fc:	0000                	unimp
     8fe:	0000                	unimp
     900:	3002                	fld	ft0,32(sp)
     902:	079f 0796 8000      	.byte	0x9f, 0x07, 0x96, 0x07, 0x00, 0x80
     908:	0000                	unimp
     90a:	0000                	unimp
     90c:	07d2                	slli	a5,a5,0x14
     90e:	8000                	.2byte	0x8000
     910:	0000                	unimp
     912:	0000                	unimp
     914:	6e01                	.2byte	0x6e01
     916:	0700                	addi	s0,sp,896
     918:	0796                	slli	a5,a5,0x5
     91a:	8000                	.2byte	0x8000
     91c:	0000                	unimp
     91e:	0000                	unimp
     920:	079e                	slli	a5,a5,0x7
     922:	8000                	.2byte	0x8000
     924:	0000                	unimp
     926:	0000                	unimp
     928:	3002                	fld	ft0,32(sp)
     92a:	079f 079e 8000      	.byte	0x9f, 0x07, 0x9e, 0x07, 0x00, 0x80
     930:	0000                	unimp
     932:	0000                	unimp
     934:	07c6                	slli	a5,a5,0x11
     936:	8000                	.2byte	0x8000
     938:	0000                	unimp
     93a:	0000                	unimp
     93c:	7e0e                	ld	t3,224(sp)
     93e:	7800                	ld	s0,48(s0)
     940:	0800                	addi	s0,sp,16
     942:	2420                	fld	fs0,72(s0)
     944:	2008                	fld	fa0,0(s0)
     946:	1c26                	slli	s8,s8,0x29
     948:	2536                	fld	fa0,328(sp)
     94a:	079f 07c6 8000      	.byte	0x9f, 0x07, 0xc6, 0x07, 0x00, 0x80
     950:	0000                	unimp
     952:	0000                	unimp
     954:	07cc                	addi	a1,sp,964
     956:	8000                	.2byte	0x8000
     958:	0000                	unimp
     95a:	0000                	unimp
     95c:	7e11                	lui	t3,0xfffe4
     95e:	7800                	ld	s0,48(s0)
     960:	0800                	addi	s0,sp,16
     962:	2420                	fld	fs0,72(s0)
     964:	2008                	fld	fa0,0(s0)
     966:	1c26                	slli	s8,s8,0x29
     968:	4008                	lw	a0,0(s0)
     96a:	361c                	fld	fa5,40(a2)
     96c:	9f25                	addw	a4,a4,s1
     96e:	0700                	addi	s0,sp,896
     970:	0648                	addi	a0,sp,772
     972:	8000                	.2byte	0x8000
     974:	0000                	unimp
     976:	0000                	unimp
     978:	0670                	addi	a2,sp,780
     97a:	8000                	.2byte	0x8000
     97c:	0000                	unimp
     97e:	0000                	unimp
     980:	3002                	fld	ft0,32(sp)
     982:	079f 0670 8000      	.byte	0x9f, 0x07, 0x70, 0x06, 0x00, 0x80
     988:	0000                	unimp
     98a:	0000                	unimp
     98c:	06bc                	addi	a5,sp,840
     98e:	8000                	.2byte	0x8000
     990:	0000                	unimp
     992:	0000                	unimp
     994:	6f01                	.2byte	0x6f01
     996:	0006bc07          	fld	fs8,0(a3)
     99a:	0080                	addi	s0,sp,64
     99c:	0000                	unimp
     99e:	be00                	fsd	fs0,56(a2)
     9a0:	0006                	c.slli	zero,0x1
     9a2:	0080                	addi	s0,sp,64
     9a4:	0000                	unimp
     9a6:	0300                	addi	s0,sp,384
     9a8:	009f018f          	.4byte	0x9f018f
     9ac:	00067007          	.4byte	0x67007
     9b0:	0080                	addi	s0,sp,64
     9b2:	0000                	unimp
     9b4:	7800                	ld	s0,48(s0)
     9b6:	0006                	c.slli	zero,0x1
     9b8:	0080                	addi	s0,sp,64
     9ba:	0000                	unimp
     9bc:	0200                	addi	s0,sp,256
     9be:	9f30                	.2byte	0x9f30
     9c0:	00067807          	.4byte	0x67807
     9c4:	0080                	addi	s0,sp,64
     9c6:	0000                	unimp
     9c8:	ae00                	fsd	fs0,24(a2)
     9ca:	0006                	c.slli	zero,0x1
     9cc:	0080                	addi	s0,sp,64
     9ce:	0000                	unimp
     9d0:	0600                	addi	s0,sp,768
     9d2:	0081                	addi	ra,ra,0
     9d4:	9f1c0077          	.4byte	0x9f1c0077
     9d8:	0006ae07          	flw	ft8,0(a3)
     9dc:	0080                	addi	s0,sp,64
     9de:	0000                	unimp
     9e0:	b800                	fsd	fs0,48(s0)
     9e2:	0006                	c.slli	zero,0x1
     9e4:	0080                	addi	s0,sp,64
     9e6:	0000                	unimp
     9e8:	0800                	addi	s0,sp,16
     9ea:	0081                	addi	ra,ra,0
     9ec:	231c0077          	.4byte	0x231c0077
     9f0:	9f01                	subw	a4,a4,s0
     9f2:	0700                	addi	s0,sp,896
     9f4:	0678                	addi	a4,sp,780
     9f6:	8000                	.2byte	0x8000
     9f8:	0000                	unimp
     9fa:	0000                	unimp
     9fc:	067c                	addi	a5,sp,780
     9fe:	8000                	.2byte	0x8000
     a00:	0000                	unimp
     a02:	0000                	unimp
     a04:	3002                	fld	ft0,32(sp)
     a06:	079f 067c 8000      	.byte	0x9f, 0x07, 0x7c, 0x06, 0x00, 0x80
     a0c:	0000                	unimp
     a0e:	0000                	unimp
     a10:	06a0                	addi	s0,sp,840
     a12:	8000                	.2byte	0x8000
     a14:	0000                	unimp
     a16:	0000                	unimp
     a18:	7d06                	ld	s10,96(sp)
     a1a:	8e00                	.2byte	0x8e00
     a1c:	1c00                	addi	s0,sp,560
     a1e:	009f c407 0005      	.byte	0x9f, 0x00, 0x07, 0xc4, 0x05, 0x00
     a24:	0080                	addi	s0,sp,64
     a26:	0000                	unimp
     a28:	ec00                	sd	s0,24(s0)
     a2a:	0005                	c.nop	1
     a2c:	0080                	addi	s0,sp,64
     a2e:	0000                	unimp
     a30:	0200                	addi	s0,sp,256
     a32:	9f30                	.2byte	0x9f30
     a34:	0005ec07          	.4byte	0x5ec07
     a38:	0080                	addi	s0,sp,64
     a3a:	0000                	unimp
     a3c:	3800                	fld	fs0,48(s0)
     a3e:	0006                	c.slli	zero,0x1
     a40:	0080                	addi	s0,sp,64
     a42:	0000                	unimp
     a44:	0100                	addi	s0,sp,128
     a46:	0638076f          	jal	a4,812a8 <_prog_start-0x7ff7ed58>
     a4a:	8000                	.2byte	0x8000
     a4c:	0000                	unimp
     a4e:	0000                	unimp
     a50:	063a                	slli	a2,a2,0xe
     a52:	8000                	.2byte	0x8000
     a54:	0000                	unimp
     a56:	0000                	unimp
     a58:	9f018f03          	lb	t5,-1552(gp)
     a5c:	0700                	addi	s0,sp,896
     a5e:	05ec                	addi	a1,sp,716
     a60:	8000                	.2byte	0x8000
     a62:	0000                	unimp
     a64:	0000                	unimp
     a66:	05f4                	addi	a3,sp,716
     a68:	8000                	.2byte	0x8000
     a6a:	0000                	unimp
     a6c:	0000                	unimp
     a6e:	3002                	fld	ft0,32(sp)
     a70:	079f 05f4 8000      	.byte	0x9f, 0x07, 0xf4, 0x05, 0x00, 0x80
     a76:	0000                	unimp
     a78:	0000                	unimp
     a7a:	062a                	slli	a2,a2,0xa
     a7c:	8000                	.2byte	0x8000
     a7e:	0000                	unimp
     a80:	0000                	unimp
     a82:	8106                	mv	sp,ra
     a84:	7700                	ld	s0,40(a4)
     a86:	1c00                	addi	s0,sp,560
     a88:	079f 062a 8000      	.byte	0x9f, 0x07, 0x2a, 0x06, 0x00, 0x80
     a8e:	0000                	unimp
     a90:	0000                	unimp
     a92:	0634                	addi	a3,sp,776
     a94:	8000                	.2byte	0x8000
     a96:	0000                	unimp
     a98:	0000                	unimp
     a9a:	8108                	.2byte	0x8108
     a9c:	7700                	ld	s0,40(a4)
     a9e:	1c00                	addi	s0,sp,560
     aa0:	009f0123          	sb	s1,2(t5)
     aa4:	0005f407          	.4byte	0x5f407
     aa8:	0080                	addi	s0,sp,64
     aaa:	0000                	unimp
     aac:	f800                	sd	s0,48(s0)
     aae:	0005                	c.nop	1
     ab0:	0080                	addi	s0,sp,64
     ab2:	0000                	unimp
     ab4:	0200                	addi	s0,sp,256
     ab6:	9f30                	.2byte	0x9f30
     ab8:	0005f807          	.4byte	0x5f807
     abc:	0080                	addi	s0,sp,64
     abe:	0000                	unimp
     ac0:	1c00                	addi	s0,sp,560
     ac2:	0006                	c.slli	zero,0x1
     ac4:	0080                	addi	s0,sp,64
     ac6:	0000                	unimp
     ac8:	0600                	addi	s0,sp,768
     aca:	007d                	c.nop	31
     acc:	008e                	slli	ra,ra,0x3
     ace:	9f1c                	.2byte	0x9f1c
     ad0:	0700                	addi	s0,sp,896
     ad2:	0540                	addi	s0,sp,644
     ad4:	8000                	.2byte	0x8000
     ad6:	0000                	unimp
     ad8:	0000                	unimp
     ada:	0568                	addi	a0,sp,652
     adc:	8000                	.2byte	0x8000
     ade:	0000                	unimp
     ae0:	0000                	unimp
     ae2:	3002                	fld	ft0,32(sp)
     ae4:	079f 0568 8000      	.byte	0x9f, 0x07, 0x68, 0x05, 0x00, 0x80
     aea:	0000                	unimp
     aec:	0000                	unimp
     aee:	05b4                	addi	a3,sp,712
     af0:	8000                	.2byte	0x8000
     af2:	0000                	unimp
     af4:	0000                	unimp
     af6:	6f01                	.2byte	0x6f01
     af8:	0005b407          	fld	fs0,0(a1)
     afc:	0080                	addi	s0,sp,64
     afe:	0000                	unimp
     b00:	b600                	fsd	fs0,40(a2)
     b02:	0005                	c.nop	1
     b04:	0080                	addi	s0,sp,64
     b06:	0000                	unimp
     b08:	0300                	addi	s0,sp,384
     b0a:	009f018f          	.4byte	0x9f018f
     b0e:	00056807          	.4byte	0x56807
     b12:	0080                	addi	s0,sp,64
     b14:	0000                	unimp
     b16:	7000                	ld	s0,32(s0)
     b18:	0005                	c.nop	1
     b1a:	0080                	addi	s0,sp,64
     b1c:	0000                	unimp
     b1e:	0200                	addi	s0,sp,256
     b20:	9f30                	.2byte	0x9f30
     b22:	00057007          	.4byte	0x57007
     b26:	0080                	addi	s0,sp,64
     b28:	0000                	unimp
     b2a:	a600                	fsd	fs0,8(a2)
     b2c:	0005                	c.nop	1
     b2e:	0080                	addi	s0,sp,64
     b30:	0000                	unimp
     b32:	0600                	addi	s0,sp,768
     b34:	0081                	addi	ra,ra,0
     b36:	9f1c0077          	.4byte	0x9f1c0077
     b3a:	0005a607          	flw	fa2,0(a1)
     b3e:	0080                	addi	s0,sp,64
     b40:	0000                	unimp
     b42:	b000                	fsd	fs0,32(s0)
     b44:	0005                	c.nop	1
     b46:	0080                	addi	s0,sp,64
     b48:	0000                	unimp
     b4a:	0800                	addi	s0,sp,16
     b4c:	0081                	addi	ra,ra,0
     b4e:	231c0077          	.4byte	0x231c0077
     b52:	9f01                	subw	a4,a4,s0
     b54:	0700                	addi	s0,sp,896
     b56:	0570                	addi	a2,sp,652
     b58:	8000                	.2byte	0x8000
     b5a:	0000                	unimp
     b5c:	0000                	unimp
     b5e:	0574                	addi	a3,sp,652
     b60:	8000                	.2byte	0x8000
     b62:	0000                	unimp
     b64:	0000                	unimp
     b66:	3002                	fld	ft0,32(sp)
     b68:	079f 0574 8000      	.byte	0x9f, 0x07, 0x74, 0x05, 0x00, 0x80
     b6e:	0000                	unimp
     b70:	0000                	unimp
     b72:	0598                	addi	a4,sp,704
     b74:	8000                	.2byte	0x8000
     b76:	0000                	unimp
     b78:	0000                	unimp
     b7a:	7d06                	ld	s10,96(sp)
     b7c:	8e00                	.2byte	0x8e00
     b7e:	1c00                	addi	s0,sp,560
     b80:	009f bc07 0004      	.byte	0x9f, 0x00, 0x07, 0xbc, 0x04, 0x00
     b86:	0080                	addi	s0,sp,64
     b88:	0000                	unimp
     b8a:	e400                	sd	s0,8(s0)
     b8c:	0004                	.2byte	0x4
     b8e:	0080                	addi	s0,sp,64
     b90:	0000                	unimp
     b92:	0200                	addi	s0,sp,256
     b94:	9f30                	.2byte	0x9f30
     b96:	0004e407          	.4byte	0x4e407
     b9a:	0080                	addi	s0,sp,64
     b9c:	0000                	unimp
     b9e:	3000                	fld	fs0,32(s0)
     ba0:	0005                	c.nop	1
     ba2:	0080                	addi	s0,sp,64
     ba4:	0000                	unimp
     ba6:	0100                	addi	s0,sp,128
     ba8:	0530076f          	jal	a4,13fa <_prog_start-0x7fffec06>
     bac:	8000                	.2byte	0x8000
     bae:	0000                	unimp
     bb0:	0000                	unimp
     bb2:	0532                	slli	a0,a0,0xc
     bb4:	8000                	.2byte	0x8000
     bb6:	0000                	unimp
     bb8:	0000                	unimp
     bba:	9f018f03          	lb	t5,-1552(gp)
     bbe:	0700                	addi	s0,sp,896
     bc0:	04e4                	addi	s1,sp,588
     bc2:	8000                	.2byte	0x8000
     bc4:	0000                	unimp
     bc6:	0000                	unimp
     bc8:	04ec                	addi	a1,sp,588
     bca:	8000                	.2byte	0x8000
     bcc:	0000                	unimp
     bce:	0000                	unimp
     bd0:	3002                	fld	ft0,32(sp)
     bd2:	079f 04ec 8000      	.byte	0x9f, 0x07, 0xec, 0x04, 0x00, 0x80
     bd8:	0000                	unimp
     bda:	0000                	unimp
     bdc:	0522                	slli	a0,a0,0x8
     bde:	8000                	.2byte	0x8000
     be0:	0000                	unimp
     be2:	0000                	unimp
     be4:	8106                	mv	sp,ra
     be6:	7700                	ld	s0,40(a4)
     be8:	1c00                	addi	s0,sp,560
     bea:	079f 0522 8000      	.byte	0x9f, 0x07, 0x22, 0x05, 0x00, 0x80
     bf0:	0000                	unimp
     bf2:	0000                	unimp
     bf4:	052c                	addi	a1,sp,648
     bf6:	8000                	.2byte	0x8000
     bf8:	0000                	unimp
     bfa:	0000                	unimp
     bfc:	8108                	.2byte	0x8108
     bfe:	7700                	ld	s0,40(a4)
     c00:	1c00                	addi	s0,sp,560
     c02:	009f0123          	sb	s1,2(t5)
     c06:	0004ec07          	.4byte	0x4ec07
     c0a:	0080                	addi	s0,sp,64
     c0c:	0000                	unimp
     c0e:	f000                	sd	s0,32(s0)
     c10:	0004                	.2byte	0x4
     c12:	0080                	addi	s0,sp,64
     c14:	0000                	unimp
     c16:	0200                	addi	s0,sp,256
     c18:	9f30                	.2byte	0x9f30
     c1a:	0004f007          	.4byte	0x4f007
     c1e:	0080                	addi	s0,sp,64
     c20:	0000                	unimp
     c22:	1400                	addi	s0,sp,544
     c24:	0005                	c.nop	1
     c26:	0080                	addi	s0,sp,64
     c28:	0000                	unimp
     c2a:	0600                	addi	s0,sp,768
     c2c:	007d                	c.nop	31
     c2e:	008e                	slli	ra,ra,0x3
     c30:	9f1c                	.2byte	0x9f1c
     c32:	0700                	addi	s0,sp,896
     c34:	03b0                	addi	a2,sp,456
     c36:	8000                	.2byte	0x8000
     c38:	0000                	unimp
     c3a:	0000                	unimp
     c3c:	03d8                	addi	a4,sp,452
     c3e:	8000                	.2byte	0x8000
     c40:	0000                	unimp
     c42:	0000                	unimp
     c44:	3002                	fld	ft0,32(sp)
     c46:	079f 03d8 8000      	.byte	0x9f, 0x07, 0xd8, 0x03, 0x00, 0x80
     c4c:	0000                	unimp
     c4e:	0000                	unimp
     c50:	0424                	addi	s1,sp,520
     c52:	8000                	.2byte	0x8000
     c54:	0000                	unimp
     c56:	0000                	unimp
     c58:	6f01                	.2byte	0x6f01
     c5a:	00042407          	flw	fs0,0(s0) # 1000 <_prog_start-0x7ffff000>
     c5e:	0080                	addi	s0,sp,64
     c60:	0000                	unimp
     c62:	2600                	fld	fs0,8(a2)
     c64:	0004                	.2byte	0x4
     c66:	0080                	addi	s0,sp,64
     c68:	0000                	unimp
     c6a:	0300                	addi	s0,sp,384
     c6c:	009f018f          	.4byte	0x9f018f
     c70:	0003d807          	.4byte	0x3d807
     c74:	0080                	addi	s0,sp,64
     c76:	0000                	unimp
     c78:	e000                	sd	s0,0(s0)
     c7a:	00800003          	lb	zero,8(zero) # 8 <_prog_start-0x7ffffff8>
     c7e:	0000                	unimp
     c80:	0200                	addi	s0,sp,256
     c82:	9f30                	.2byte	0x9f30
     c84:	0003e007          	.4byte	0x3e007
     c88:	0080                	addi	s0,sp,64
     c8a:	0000                	unimp
     c8c:	1600                	addi	s0,sp,800
     c8e:	0004                	.2byte	0x4
     c90:	0080                	addi	s0,sp,64
     c92:	0000                	unimp
     c94:	0600                	addi	s0,sp,768
     c96:	0081                	addi	ra,ra,0
     c98:	9f1c0077          	.4byte	0x9f1c0077
     c9c:	00041607          	.4byte	0x41607
     ca0:	0080                	addi	s0,sp,64
     ca2:	0000                	unimp
     ca4:	2000                	fld	fs0,0(s0)
     ca6:	0004                	.2byte	0x4
     ca8:	0080                	addi	s0,sp,64
     caa:	0000                	unimp
     cac:	0800                	addi	s0,sp,16
     cae:	0081                	addi	ra,ra,0
     cb0:	231c0077          	.4byte	0x231c0077
     cb4:	9f01                	subw	a4,a4,s0
     cb6:	0700                	addi	s0,sp,896
     cb8:	03e0                	addi	s0,sp,460
     cba:	8000                	.2byte	0x8000
     cbc:	0000                	unimp
     cbe:	0000                	unimp
     cc0:	03e4                	addi	s1,sp,460
     cc2:	8000                	.2byte	0x8000
     cc4:	0000                	unimp
     cc6:	0000                	unimp
     cc8:	3002                	fld	ft0,32(sp)
     cca:	079f 03e4 8000      	.byte	0x9f, 0x07, 0xe4, 0x03, 0x00, 0x80
     cd0:	0000                	unimp
     cd2:	0000                	unimp
     cd4:	0408                	addi	a0,sp,512
     cd6:	8000                	.2byte	0x8000
     cd8:	0000                	unimp
     cda:	0000                	unimp
     cdc:	7d06                	ld	s10,96(sp)
     cde:	8e00                	.2byte	0x8e00
     ce0:	1c00                	addi	s0,sp,560
     ce2:	009f 2c07 0003      	.byte	0x9f, 0x00, 0x07, 0x2c, 0x03, 0x00
     ce8:	0080                	addi	s0,sp,64
     cea:	0000                	unimp
     cec:	5400                	lw	s0,40(s0)
     cee:	00800003          	lb	zero,8(zero) # 8 <_prog_start-0x7ffffff8>
     cf2:	0000                	unimp
     cf4:	0200                	addi	s0,sp,256
     cf6:	9f30                	.2byte	0x9f30
     cf8:	00035407          	.4byte	0x35407
     cfc:	0080                	addi	s0,sp,64
     cfe:	0000                	unimp
     d00:	a000                	fsd	fs0,0(s0)
     d02:	00800003          	lb	zero,8(zero) # 8 <_prog_start-0x7ffffff8>
     d06:	0000                	unimp
     d08:	0100                	addi	s0,sp,128
     d0a:	03a0076f          	jal	a4,d44 <_prog_start-0x7ffff2bc>
     d0e:	8000                	.2byte	0x8000
     d10:	0000                	unimp
     d12:	0000                	unimp
     d14:	03a2                	slli	t2,t2,0x8
     d16:	8000                	.2byte	0x8000
     d18:	0000                	unimp
     d1a:	0000                	unimp
     d1c:	9f018f03          	lb	t5,-1552(gp)
     d20:	0700                	addi	s0,sp,896
     d22:	0354                	addi	a3,sp,388
     d24:	8000                	.2byte	0x8000
     d26:	0000                	unimp
     d28:	0000                	unimp
     d2a:	035c                	addi	a5,sp,388
     d2c:	8000                	.2byte	0x8000
     d2e:	0000                	unimp
     d30:	0000                	unimp
     d32:	3002                	fld	ft0,32(sp)
     d34:	079f 035c 8000      	.byte	0x9f, 0x07, 0x5c, 0x03, 0x00, 0x80
     d3a:	0000                	unimp
     d3c:	0000                	unimp
     d3e:	0392                	slli	t2,t2,0x4
     d40:	8000                	.2byte	0x8000
     d42:	0000                	unimp
     d44:	0000                	unimp
     d46:	8106                	mv	sp,ra
     d48:	7700                	ld	s0,40(a4)
     d4a:	1c00                	addi	s0,sp,560
     d4c:	079f 0392 8000      	.byte	0x9f, 0x07, 0x92, 0x03, 0x00, 0x80
     d52:	0000                	unimp
     d54:	0000                	unimp
     d56:	039c                	addi	a5,sp,448
     d58:	8000                	.2byte	0x8000
     d5a:	0000                	unimp
     d5c:	0000                	unimp
     d5e:	8108                	.2byte	0x8108
     d60:	7700                	ld	s0,40(a4)
     d62:	1c00                	addi	s0,sp,560
     d64:	009f0123          	sb	s1,2(t5)
     d68:	00035c07          	.4byte	0x35c07
     d6c:	0080                	addi	s0,sp,64
     d6e:	0000                	unimp
     d70:	6000                	ld	s0,0(s0)
     d72:	00800003          	lb	zero,8(zero) # 8 <_prog_start-0x7ffffff8>
     d76:	0000                	unimp
     d78:	0200                	addi	s0,sp,256
     d7a:	9f30                	.2byte	0x9f30
     d7c:	00036007          	.4byte	0x36007
     d80:	0080                	addi	s0,sp,64
     d82:	0000                	unimp
     d84:	8400                	.2byte	0x8400
     d86:	00800003          	lb	zero,8(zero) # 8 <_prog_start-0x7ffffff8>
     d8a:	0000                	unimp
     d8c:	0600                	addi	s0,sp,768
     d8e:	007d                	c.nop	31
     d90:	008e                	slli	ra,ra,0x3
     d92:	9f1c                	.2byte	0x9f1c
     d94:	0700                	addi	s0,sp,896
     d96:	02a8                	addi	a0,sp,328
     d98:	8000                	.2byte	0x8000
     d9a:	0000                	unimp
     d9c:	0000                	unimp
     d9e:	02d0                	addi	a2,sp,324
     da0:	8000                	.2byte	0x8000
     da2:	0000                	unimp
     da4:	0000                	unimp
     da6:	3002                	fld	ft0,32(sp)
     da8:	079f 02d0 8000      	.byte	0x9f, 0x07, 0xd0, 0x02, 0x00, 0x80
     dae:	0000                	unimp
     db0:	0000                	unimp
     db2:	031c                	addi	a5,sp,384
     db4:	8000                	.2byte	0x8000
     db6:	0000                	unimp
     db8:	0000                	unimp
     dba:	6f01                	.2byte	0x6f01
     dbc:	00031c07          	.4byte	0x31c07
     dc0:	0080                	addi	s0,sp,64
     dc2:	0000                	unimp
     dc4:	1e00                	addi	s0,sp,816
     dc6:	00800003          	lb	zero,8(zero) # 8 <_prog_start-0x7ffffff8>
     dca:	0000                	unimp
     dcc:	0300                	addi	s0,sp,384
     dce:	009f018f          	.4byte	0x9f018f
     dd2:	0002d007          	.4byte	0x2d007
     dd6:	0080                	addi	s0,sp,64
     dd8:	0000                	unimp
     dda:	d800                	sw	s0,48(s0)
     ddc:	0002                	c.slli64	zero
     dde:	0080                	addi	s0,sp,64
     de0:	0000                	unimp
     de2:	0200                	addi	s0,sp,256
     de4:	9f30                	.2byte	0x9f30
     de6:	0002d807          	.4byte	0x2d807
     dea:	0080                	addi	s0,sp,64
     dec:	0000                	unimp
     dee:	0e00                	addi	s0,sp,784
     df0:	00800003          	lb	zero,8(zero) # 8 <_prog_start-0x7ffffff8>
     df4:	0000                	unimp
     df6:	0600                	addi	s0,sp,768
     df8:	0081                	addi	ra,ra,0
     dfa:	9f1c0077          	.4byte	0x9f1c0077
     dfe:	00030e07          	.4byte	0x30e07
     e02:	0080                	addi	s0,sp,64
     e04:	0000                	unimp
     e06:	1800                	addi	s0,sp,48
     e08:	00800003          	lb	zero,8(zero) # 8 <_prog_start-0x7ffffff8>
     e0c:	0000                	unimp
     e0e:	0800                	addi	s0,sp,16
     e10:	0081                	addi	ra,ra,0
     e12:	231c0077          	.4byte	0x231c0077
     e16:	9f01                	subw	a4,a4,s0
     e18:	0700                	addi	s0,sp,896
     e1a:	02d8                	addi	a4,sp,324
     e1c:	8000                	.2byte	0x8000
     e1e:	0000                	unimp
     e20:	0000                	unimp
     e22:	02dc                	addi	a5,sp,324
     e24:	8000                	.2byte	0x8000
     e26:	0000                	unimp
     e28:	0000                	unimp
     e2a:	3002                	fld	ft0,32(sp)
     e2c:	079f 02dc 8000      	.byte	0x9f, 0x07, 0xdc, 0x02, 0x00, 0x80
     e32:	0000                	unimp
     e34:	0000                	unimp
     e36:	0300                	addi	s0,sp,384
     e38:	8000                	.2byte	0x8000
     e3a:	0000                	unimp
     e3c:	0000                	unimp
     e3e:	7d06                	ld	s10,96(sp)
     e40:	8e00                	.2byte	0x8e00
     e42:	1c00                	addi	s0,sp,560
     e44:	009f 3407 0002      	.byte	0x9f, 0x00, 0x07, 0x34, 0x02, 0x00
     e4a:	0080                	addi	s0,sp,64
     e4c:	0000                	unimp
     e4e:	5800                	lw	s0,48(s0)
     e50:	0002                	c.slli64	zero
     e52:	0080                	addi	s0,sp,64
     e54:	0000                	unimp
     e56:	0200                	addi	s0,sp,256
     e58:	9f30                	.2byte	0x9f30
     e5a:	00025807          	.4byte	0x25807
     e5e:	0080                	addi	s0,sp,64
     e60:	0000                	unimp
     e62:	9c00                	.2byte	0x9c00
     e64:	0002                	c.slli64	zero
     e66:	0080                	addi	s0,sp,64
     e68:	0000                	unimp
     e6a:	0100                	addi	s0,sp,128
     e6c:	076e                	slli	a4,a4,0x1b
     e6e:	029c                	addi	a5,sp,320
     e70:	8000                	.2byte	0x8000
     e72:	0000                	unimp
     e74:	0000                	unimp
     e76:	029e                	slli	t0,t0,0x7
     e78:	8000                	.2byte	0x8000
     e7a:	0000                	unimp
     e7c:	0000                	unimp
     e7e:	9f018e03          	lb	t3,-1552(gp)
     e82:	0700                	addi	s0,sp,896
     e84:	0258                	addi	a4,sp,260
     e86:	8000                	.2byte	0x8000
     e88:	0000                	unimp
     e8a:	0000                	unimp
     e8c:	0260                	addi	s0,sp,268
     e8e:	8000                	.2byte	0x8000
     e90:	0000                	unimp
     e92:	0000                	unimp
     e94:	3002                	fld	ft0,32(sp)
     e96:	079f 0260 8000      	.byte	0x9f, 0x07, 0x60, 0x02, 0x00, 0x80
     e9c:	0000                	unimp
     e9e:	0000                	unimp
     ea0:	028e                	slli	t0,t0,0x3
     ea2:	8000                	.2byte	0x8000
     ea4:	0000                	unimp
     ea6:	0000                	unimp
     ea8:	8006                	c.mv	zero,ra
     eaa:	7500                	ld	s0,40(a0)
     eac:	1c00                	addi	s0,sp,560
     eae:	079f 028e 8000      	.byte	0x9f, 0x07, 0x8e, 0x02, 0x00, 0x80
     eb4:	0000                	unimp
     eb6:	0000                	unimp
     eb8:	0298                	addi	a4,sp,320
     eba:	8000                	.2byte	0x8000
     ebc:	0000                	unimp
     ebe:	0000                	unimp
     ec0:	8008                	.2byte	0x8008
     ec2:	7500                	ld	s0,40(a0)
     ec4:	1c00                	addi	s0,sp,560
     ec6:	009f0123          	sb	s1,2(t5)
     eca:	00026007          	.4byte	0x26007
     ece:	0080                	addi	s0,sp,64
     ed0:	0000                	unimp
     ed2:	6400                	ld	s0,8(s0)
     ed4:	0002                	c.slli64	zero
     ed6:	0080                	addi	s0,sp,64
     ed8:	0000                	unimp
     eda:	0200                	addi	s0,sp,256
     edc:	9f30                	.2byte	0x9f30
     ede:	00026407          	.4byte	0x26407
     ee2:	0080                	addi	s0,sp,64
     ee4:	0000                	unimp
     ee6:	8000                	.2byte	0x8000
     ee8:	0002                	c.slli64	zero
     eea:	0080                	addi	s0,sp,64
     eec:	0000                	unimp
     eee:	0600                	addi	s0,sp,768
     ef0:	007f                	.2byte	0x7f
     ef2:	008d                	addi	ra,ra,3
     ef4:	9f1c                	.2byte	0x9f1c
     ef6:	0700                	addi	s0,sp,896
     ef8:	0434                	addi	a3,sp,520
     efa:	8000                	.2byte	0x8000
     efc:	0000                	unimp
     efe:	0000                	unimp
     f00:	0452                	slli	s0,s0,0x14
     f02:	8000                	.2byte	0x8000
     f04:	0000                	unimp
     f06:	0000                	unimp
     f08:	3002                	fld	ft0,32(sp)
     f0a:	079f 0452 8000      	.byte	0x9f, 0x07, 0x52, 0x04, 0x00, 0x80
     f10:	0000                	unimp
     f12:	0000                	unimp
     f14:	046c                	addi	a1,sp,524
     f16:	8000                	.2byte	0x8000
     f18:	0000                	unimp
     f1a:	0000                	unimp
     f1c:	5f01                	li	t5,-32
     f1e:	0700                	addi	s0,sp,896
     f20:	0478                	addi	a4,sp,524
     f22:	8000                	.2byte	0x8000
     f24:	0000                	unimp
     f26:	0000                	unimp
     f28:	0496                	slli	s1,s1,0x5
     f2a:	8000                	.2byte	0x8000
     f2c:	0000                	unimp
     f2e:	0000                	unimp
     f30:	3002                	fld	ft0,32(sp)
     f32:	079f 0496 8000      	.byte	0x9f, 0x07, 0x96, 0x04, 0x00, 0x80
     f38:	0000                	unimp
     f3a:	0000                	unimp
     f3c:	04b0                	addi	a2,sp,584
     f3e:	8000                	.2byte	0x8000
     f40:	0000                	unimp
     f42:	0000                	unimp
     f44:	5f01                	li	t5,-32
     f46:	0700                	addi	s0,sp,896
     f48:	06cc                	addi	a1,sp,836
     f4a:	8000                	.2byte	0x8000
     f4c:	0000                	unimp
     f4e:	0000                	unimp
     f50:	06ea                	slli	a3,a3,0x1a
     f52:	8000                	.2byte	0x8000
     f54:	0000                	unimp
     f56:	0000                	unimp
     f58:	3002                	fld	ft0,32(sp)
     f5a:	079f 06ea 8000      	.byte	0x9f, 0x07, 0xea, 0x06, 0x00, 0x80
     f60:	0000                	unimp
     f62:	0000                	unimp
     f64:	0704                	addi	s1,sp,896
     f66:	8000                	.2byte	0x8000
     f68:	0000                	unimp
     f6a:	0000                	unimp
     f6c:	5f01                	li	t5,-32
     f6e:	0700                	addi	s0,sp,896
     f70:	0710                	addi	a2,sp,896
     f72:	8000                	.2byte	0x8000
     f74:	0000                	unimp
     f76:	0000                	unimp
     f78:	072e                	slli	a4,a4,0xb
     f7a:	8000                	.2byte	0x8000
     f7c:	0000                	unimp
     f7e:	0000                	unimp
     f80:	3002                	fld	ft0,32(sp)
     f82:	079f 072e 8000      	.byte	0x9f, 0x07, 0x2e, 0x07, 0x00, 0x80
     f88:	0000                	unimp
     f8a:	0000                	unimp
     f8c:	0748                	addi	a0,sp,900
     f8e:	8000                	.2byte	0x8000
     f90:	0000                	unimp
     f92:	0000                	unimp
     f94:	5f01                	li	t5,-32
     f96:	7200                	ld	s0,32(a2)
     f98:	0004                	.2byte	0x4
     f9a:	0500                	addi	s0,sp,640
     f9c:	0800                	addi	s0,sp,16
     f9e:	0000                	unimp
     fa0:	0000                	unimp
     fa2:	0700                	addi	s0,sp,896
     fa4:	0d82                	c.slli64	s11
     fa6:	8000                	.2byte	0x8000
     fa8:	0000                	unimp
     faa:	0000                	unimp
     fac:	0d9a                	slli	s11,s11,0x6
     fae:	8000                	.2byte	0x8000
     fb0:	0000                	unimp
     fb2:	0000                	unimp
     fb4:	5a01                	li	s4,-32
     fb6:	000d9a07          	.4byte	0xd9a07
     fba:	0080                	addi	s0,sp,64
     fbc:	0000                	unimp
     fbe:	a000                	fsd	fs0,0(s0)
     fc0:	000d                	c.nop	3
     fc2:	0080                	addi	s0,sp,64
     fc4:	0000                	unimp
     fc6:	0300                	addi	s0,sp,384
     fc8:	017a                	slli	sp,sp,0x1e
     fca:	079f 0da0 8000      	.byte	0x9f, 0x07, 0xa0, 0x0d, 0x00, 0x80
     fd0:	0000                	unimp
     fd2:	0000                	unimp
     fd4:	0df6                	slli	s11,s11,0x1d
     fd6:	8000                	.2byte	0x8000
     fd8:	0000                	unimp
     fda:	0000                	unimp
     fdc:	5a01                	li	s4,-32
     fde:	000dfa07          	.4byte	0xdfa07
     fe2:	0080                	addi	s0,sp,64
     fe4:	0000                	unimp
     fe6:	0400                	addi	s0,sp,512
     fe8:	0080000f          	fence	unknown,i
     fec:	0000                	unimp
     fee:	0100                	addi	s0,sp,128
     ff0:	005a                	c.slli	zero,0x16
     ff2:	000d9a07          	.4byte	0xd9a07
     ff6:	0080                	addi	s0,sp,64
     ff8:	0000                	unimp
     ffa:	b600                	fsd	fs0,40(a2)
     ffc:	000d                	c.nop	3
     ffe:	0080                	addi	s0,sp,64
    1000:	0000                	unimp
    1002:	0200                	addi	s0,sp,256
    1004:	9f30                	.2byte	0x9f30
    1006:	000db607          	fld	fa2,0(s11)
    100a:	0080                	addi	s0,sp,64
    100c:	0000                	unimp
    100e:	d600                	sw	s0,40(a2)
    1010:	000d                	c.nop	3
    1012:	0080                	addi	s0,sp,64
    1014:	0000                	unimp
    1016:	0100                	addi	s0,sp,128
    1018:	075e                	slli	a4,a4,0x17
    101a:	0dec                	addi	a1,sp,732
    101c:	8000                	.2byte	0x8000
    101e:	0000                	unimp
    1020:	0000                	unimp
    1022:	0df6                	slli	s11,s11,0x1d
    1024:	8000                	.2byte	0x8000
    1026:	0000                	unimp
    1028:	0000                	unimp
    102a:	5e01                	li	t3,-32
    102c:	000dfa07          	.4byte	0xdfa07
    1030:	0080                	addi	s0,sp,64
    1032:	0000                	unimp
    1034:	0200                	addi	s0,sp,256
    1036:	000e                	c.slli	zero,0x3
    1038:	0080                	addi	s0,sp,64
    103a:	0000                	unimp
    103c:	0100                	addi	s0,sp,128
    103e:	075e                	slli	a4,a4,0x17
    1040:	0e38                	addi	a4,sp,792
    1042:	8000                	.2byte	0x8000
    1044:	0000                	unimp
    1046:	0000                	unimp
    1048:	0e4a                	slli	t3,t3,0x12
    104a:	8000                	.2byte	0x8000
    104c:	0000                	unimp
    104e:	0000                	unimp
    1050:	5e01                	li	t3,-32
    1052:	000e5e07          	.4byte	0xe5e07
    1056:	0080                	addi	s0,sp,64
    1058:	0000                	unimp
    105a:	8000                	.2byte	0x8000
    105c:	000e                	c.slli	zero,0x3
    105e:	0080                	addi	s0,sp,64
    1060:	0000                	unimp
    1062:	0100                	addi	s0,sp,128
    1064:	075e                	slli	a4,a4,0x17
    1066:	0e90                	addi	a2,sp,848
    1068:	8000                	.2byte	0x8000
    106a:	0000                	unimp
    106c:	0000                	unimp
    106e:	0e94                	addi	a3,sp,848
    1070:	8000                	.2byte	0x8000
    1072:	0000                	unimp
    1074:	0000                	unimp
    1076:	5e01                	li	t3,-32
    1078:	000e9407          	.4byte	0xe9407
    107c:	0080                	addi	s0,sp,64
    107e:	0000                	unimp
    1080:	b200                	fsd	fs0,32(a2)
    1082:	000e                	c.slli	zero,0x3
    1084:	0080                	addi	s0,sp,64
    1086:	0000                	unimp
    1088:	0200                	addi	s0,sp,256
    108a:	9f30                	.2byte	0x9f30
    108c:	000eb207          	fld	ft4,0(t4) # 2000 <_prog_start-0x7fffe000>
    1090:	0080                	addi	s0,sp,64
    1092:	0000                	unimp
    1094:	b800                	fsd	fs0,48(s0)
    1096:	000e                	c.slli	zero,0x3
    1098:	0080                	addi	s0,sp,64
    109a:	0000                	unimp
    109c:	0100                	addi	s0,sp,128
    109e:	005e                	c.slli	zero,0x17
    10a0:	000d9a07          	.4byte	0xd9a07
    10a4:	0080                	addi	s0,sp,64
    10a6:	0000                	unimp
    10a8:	b600                	fsd	fs0,40(a2)
    10aa:	000d                	c.nop	3
    10ac:	0080                	addi	s0,sp,64
    10ae:	0000                	unimp
    10b0:	0200                	addi	s0,sp,256
    10b2:	9f30                	.2byte	0x9f30
    10b4:	000db607          	fld	fa2,0(s11)
    10b8:	0080                	addi	s0,sp,64
    10ba:	0000                	unimp
    10bc:	da00                	sw	s0,48(a2)
    10be:	000d                	c.nop	3
    10c0:	0080                	addi	s0,sp,64
    10c2:	0000                	unimp
    10c4:	0100                	addi	s0,sp,128
    10c6:	075d                	addi	a4,a4,23
    10c8:	0dec                	addi	a1,sp,732
    10ca:	8000                	.2byte	0x8000
    10cc:	0000                	unimp
    10ce:	0000                	unimp
    10d0:	0df6                	slli	s11,s11,0x1d
    10d2:	8000                	.2byte	0x8000
    10d4:	0000                	unimp
    10d6:	0000                	unimp
    10d8:	5d01                	li	s10,-32
    10da:	000dfa07          	.4byte	0xdfa07
    10de:	0080                	addi	s0,sp,64
    10e0:	0000                	unimp
    10e2:	1200                	addi	s0,sp,288
    10e4:	000e                	c.slli	zero,0x3
    10e6:	0080                	addi	s0,sp,64
    10e8:	0000                	unimp
    10ea:	0100                	addi	s0,sp,128
    10ec:	075d                	addi	a4,a4,23
    10ee:	0e38                	addi	a4,sp,792
    10f0:	8000                	.2byte	0x8000
    10f2:	0000                	unimp
    10f4:	0000                	unimp
    10f6:	0e44                	addi	s1,sp,788
    10f8:	8000                	.2byte	0x8000
    10fa:	0000                	unimp
    10fc:	0000                	unimp
    10fe:	5d01                	li	s10,-32
    1100:	000e5e07          	.4byte	0xe5e07
    1104:	0080                	addi	s0,sp,64
    1106:	0000                	unimp
    1108:	8400                	.2byte	0x8400
    110a:	000e                	c.slli	zero,0x3
    110c:	0080                	addi	s0,sp,64
    110e:	0000                	unimp
    1110:	0100                	addi	s0,sp,128
    1112:	075d                	addi	a4,a4,23
    1114:	0e90                	addi	a2,sp,848
    1116:	8000                	.2byte	0x8000
    1118:	0000                	unimp
    111a:	0000                	unimp
    111c:	0e94                	addi	a3,sp,848
    111e:	8000                	.2byte	0x8000
    1120:	0000                	unimp
    1122:	0000                	unimp
    1124:	3102                	fld	ft2,32(sp)
    1126:	079f 0e94 8000      	.byte	0x9f, 0x07, 0x94, 0x0e, 0x00, 0x80
    112c:	0000                	unimp
    112e:	0000                	unimp
    1130:	0eb8                	addi	a4,sp,856
    1132:	8000                	.2byte	0x8000
    1134:	0000                	unimp
    1136:	0000                	unimp
    1138:	5d01                	li	s10,-32
    113a:	000ee407          	.4byte	0xee407
    113e:	0080                	addi	s0,sp,64
    1140:	0000                	unimp
    1142:	e800                	sd	s0,16(s0)
    1144:	000e                	c.slli	zero,0x3
    1146:	0080                	addi	s0,sp,64
    1148:	0000                	unimp
    114a:	0100                	addi	s0,sp,128
    114c:	005d                	c.nop	23
    114e:	000d9a07          	.4byte	0xd9a07
    1152:	0080                	addi	s0,sp,64
    1154:	0000                	unimp
    1156:	bc00                	fsd	fs0,56(s0)
    1158:	000d                	c.nop	3
    115a:	0080                	addi	s0,sp,64
    115c:	0000                	unimp
    115e:	0100                	addi	s0,sp,128
    1160:	0756                	slli	a4,a4,0x15
    1162:	0df2                	slli	s11,s11,0x1c
    1164:	8000                	.2byte	0x8000
    1166:	0000                	unimp
    1168:	0000                	unimp
    116a:	0dfa                	slli	s11,s11,0x1e
    116c:	8000                	.2byte	0x8000
    116e:	0000                	unimp
    1170:	0000                	unimp
    1172:	5601                	li	a2,-32
    1174:	000e9407          	.4byte	0xe9407
    1178:	0080                	addi	s0,sp,64
    117a:	0000                	unimp
    117c:	b200                	fsd	fs0,32(a2)
    117e:	000e                	c.slli	zero,0x3
    1180:	0080                	addi	s0,sp,64
    1182:	0000                	unimp
    1184:	0100                	addi	s0,sp,128
    1186:	0056                	c.slli	zero,0x15
    1188:	000eb807          	fld	fa6,0(t4)
    118c:	0080                	addi	s0,sp,64
    118e:	0000                	unimp
    1190:	dc00                	sw	s0,56(s0)
    1192:	000e                	c.slli	zero,0x3
    1194:	0080                	addi	s0,sp,64
    1196:	0000                	unimp
    1198:	0100                	addi	s0,sp,128
    119a:	0756                	slli	a4,a4,0x15
    119c:	0edc                	addi	a5,sp,852
    119e:	8000                	.2byte	0x8000
    11a0:	0000                	unimp
    11a2:	0000                	unimp
    11a4:	0ee4                	addi	s1,sp,860
    11a6:	8000                	.2byte	0x8000
    11a8:	0000                	unimp
    11aa:	0000                	unimp
    11ac:	5f01                	li	t5,-32
    11ae:	000ee807          	.4byte	0xee807
    11b2:	0080                	addi	s0,sp,64
    11b4:	0000                	unimp
    11b6:	f000                	sd	s0,32(s0)
    11b8:	000e                	c.slli	zero,0x3
    11ba:	0080                	addi	s0,sp,64
    11bc:	0000                	unimp
    11be:	0100                	addi	s0,sp,128
    11c0:	075f 0ef0 8000      	.byte	0x5f, 0x07, 0xf0, 0x0e, 0x00, 0x80
    11c6:	0000                	unimp
    11c8:	0000                	unimp
    11ca:	0f04                	addi	s1,sp,912
    11cc:	8000                	.2byte	0x8000
    11ce:	0000                	unimp
    11d0:	0000                	unimp
    11d2:	760c                	ld	a1,40(a2)
    11d4:	a800                	fsd	fs0,16(s0)
    11d6:	8d2e                	mv	s10,a1
    11d8:	a800                	fsd	fs0,16(s0)
    11da:	1b2e                	slli	s6,s6,0x2b
    11dc:	00a8                	addi	a0,sp,72
    11de:	009f b807 000e      	.byte	0x9f, 0x00, 0x07, 0xb8, 0x0e, 0x00
    11e4:	0080                	addi	s0,sp,64
    11e6:	0000                	unimp
    11e8:	bc00                	fsd	fs0,56(s0)
    11ea:	000e                	c.slli	zero,0x3
    11ec:	0080                	addi	s0,sp,64
    11ee:	0000                	unimp
    11f0:	0300                	addi	s0,sp,384
    11f2:	3f08                	fld	fa0,56(a4)
    11f4:	079f 0ebc 8000      	.byte	0x9f, 0x07, 0xbc, 0x0e, 0x00, 0x80
    11fa:	0000                	unimp
    11fc:	0000                	unimp
    11fe:	0ec4                	addi	s1,sp,852
    1200:	8000                	.2byte	0x8000
    1202:	0000                	unimp
    1204:	0000                	unimp
    1206:	7f09                	lui	t5,0xfffe2
    1208:	9100                	.2byte	0x9100
    120a:	7fbe                	ld	t6,488(sp)
    120c:	231c                	fld	fa5,0(a4)
    120e:	07009f3f 80000efa 	.8byte	0x80000efa07009f3f
    1216:	0000                	unimp
    1218:	0000                	unimp
    121a:	0f00                	addi	s0,sp,912
    121c:	8000                	.2byte	0x8000
    121e:	0000                	unimp
    1220:	0000                	unimp
    1222:	7c09                	lui	s8,0xfffe2
    1224:	9100                	.2byte	0x9100
    1226:	7f81                	lui	t6,0xfffe0
    1228:	231c                	fld	fa5,0(a4)
    122a:	9f01                	subw	a4,a4,s0
    122c:	0700                	addi	s0,sp,896
    122e:	0ef6                	slli	t4,t4,0x1d
    1230:	8000                	.2byte	0x8000
    1232:	0000                	unimp
    1234:	0000                	unimp
    1236:	0efa                	slli	t4,t4,0x1e
    1238:	8000                	.2byte	0x8000
    123a:	0000                	unimp
    123c:	0000                	unimp
    123e:	5f01                	li	t5,-32
    1240:	0700                	addi	s0,sp,896
    1242:	0e08                	addi	a0,sp,784
    1244:	8000                	.2byte	0x8000
    1246:	0000                	unimp
    1248:	0000                	unimp
    124a:	0e0a                	slli	t3,t3,0x2
    124c:	8000                	.2byte	0x8000
    124e:	0000                	unimp
    1250:	0000                	unimp
    1252:	6f01                	.2byte	0x6f01
    1254:	000e1207          	.4byte	0xe1207
    1258:	0080                	addi	s0,sp,64
    125a:	0000                	unimp
    125c:	3800                	fld	fs0,48(s0)
    125e:	000e                	c.slli	zero,0x3
    1260:	0080                	addi	s0,sp,64
    1262:	0000                	unimp
    1264:	0100                	addi	s0,sp,128
    1266:	0ee4076f          	jal	a4,41354 <_prog_start-0x7ffbecac>
    126a:	8000                	.2byte	0x8000
    126c:	0000                	unimp
    126e:	0000                	unimp
    1270:	0ee8                	addi	a0,sp,860
    1272:	8000                	.2byte	0x8000
    1274:	0000                	unimp
    1276:	0000                	unimp
    1278:	6f01                	.2byte	0x6f01
    127a:	0700                	addi	s0,sp,896
    127c:	0e12                	slli	t3,t3,0x4
    127e:	8000                	.2byte	0x8000
    1280:	0000                	unimp
    1282:	0000                	unimp
    1284:	0e38                	addi	a4,sp,792
    1286:	8000                	.2byte	0x8000
    1288:	0000                	unimp
    128a:	0000                	unimp
    128c:	5c01                	li	s8,-32
    128e:	0700                	addi	s0,sp,896
    1290:	0e1a                	slli	t3,t3,0x6
    1292:	8000                	.2byte	0x8000
    1294:	0000                	unimp
    1296:	0000                	unimp
    1298:	0e38                	addi	a4,sp,792
    129a:	8000                	.2byte	0x8000
    129c:	0000                	unimp
    129e:	0000                	unimp
    12a0:	5601                	li	a2,-32
    12a2:	0700                	addi	s0,sp,896
    12a4:	0e2c                	addi	a1,sp,792
    12a6:	8000                	.2byte	0x8000
    12a8:	0000                	unimp
    12aa:	0000                	unimp
    12ac:	0e30                	addi	a2,sp,792
    12ae:	8000                	.2byte	0x8000
    12b0:	0000                	unimp
    12b2:	0000                	unimp
    12b4:	5f01                	li	t5,-32
    12b6:	0700                	addi	s0,sp,896
    12b8:	0dda                	slli	s11,s11,0x16
    12ba:	8000                	.2byte	0x8000
    12bc:	0000                	unimp
    12be:	0000                	unimp
    12c0:	0de8                	addi	a0,sp,732
    12c2:	8000                	.2byte	0x8000
    12c4:	0000                	unimp
    12c6:	0000                	unimp
    12c8:	5d01                	li	s10,-32
    12ca:	0700                	addi	s0,sp,896
    12cc:	0dda                	slli	s11,s11,0x16
    12ce:	8000                	.2byte	0x8000
    12d0:	0000                	unimp
    12d2:	0000                	unimp
    12d4:	0de8                	addi	a0,sp,732
    12d6:	8000                	.2byte	0x8000
    12d8:	0000                	unimp
    12da:	0000                	unimp
    12dc:	4904                	lw	s1,16(a0)
    12de:	244a                	fld	fs0,144(sp)
    12e0:	009f e407 000d      	.byte	0x9f, 0x00, 0x07, 0xe4, 0x0d, 0x00
    12e6:	0080                	addi	s0,sp,64
    12e8:	0000                	unimp
    12ea:	e800                	sd	s0,16(s0)
    12ec:	000d                	c.nop	3
    12ee:	0080                	addi	s0,sp,64
    12f0:	0000                	unimp
    12f2:	0100                	addi	s0,sp,128
    12f4:	005f 3c07 000e      	.byte	0x5f, 0x00, 0x07, 0x3c, 0x0e, 0x00
    12fa:	0080                	addi	s0,sp,64
    12fc:	0000                	unimp
    12fe:	5e00                	lw	s0,56(a2)
    1300:	000e                	c.slli	zero,0x3
    1302:	0080                	addi	s0,sp,64
    1304:	0000                	unimp
    1306:	0100                	addi	s0,sp,128
    1308:	005c                	addi	a5,sp,4
    130a:	000e4407          	.4byte	0xe4407
    130e:	0080                	addi	s0,sp,64
    1310:	0000                	unimp
    1312:	5800                	lw	s0,48(s0)
    1314:	000e                	c.slli	zero,0x3
    1316:	0080                	addi	s0,sp,64
    1318:	0000                	unimp
    131a:	0100                	addi	s0,sp,128
    131c:	075d                	addi	a4,a4,23
    131e:	0e5a                	slli	t3,t3,0x16
    1320:	8000                	.2byte	0x8000
    1322:	0000                	unimp
    1324:	0000                	unimp
    1326:	0e5e                	slli	t3,t3,0x17
    1328:	8000                	.2byte	0x8000
    132a:	0000                	unimp
    132c:	0000                	unimp
    132e:	5d01                	li	s10,-32
    1330:	0700                	addi	s0,sp,896
    1332:	0e50                	addi	a2,sp,788
    1334:	8000                	.2byte	0x8000
    1336:	0000                	unimp
    1338:	0000                	unimp
    133a:	0e54                	addi	a3,sp,788
    133c:	8000                	.2byte	0x8000
    133e:	0000                	unimp
    1340:	0000                	unimp
    1342:	5f01                	li	t5,-32
    1344:	0700                	addi	s0,sp,896
    1346:	0e8a                	slli	t4,t4,0x2
    1348:	8000                	.2byte	0x8000
    134a:	0000                	unimp
    134c:	0000                	unimp
    134e:	0e90                	addi	a2,sp,848
    1350:	8000                	.2byte	0x8000
    1352:	0000                	unimp
    1354:	0000                	unimp
    1356:	5f01                	li	t5,-32
    1358:	0700                	addi	s0,sp,896
    135a:	0ea2                	slli	t4,t4,0x8
    135c:	8000                	.2byte	0x8000
    135e:	0000                	unimp
    1360:	0000                	unimp
    1362:	0eaa                	slli	t4,t4,0xa
    1364:	8000                	.2byte	0x8000
    1366:	0000                	unimp
    1368:	0000                	unimp
    136a:	5f01                	li	t5,-32
    136c:	000eac07          	flw	fs8,0(t4)
    1370:	0080                	addi	s0,sp,64
    1372:	0000                	unimp
    1374:	b200                	fsd	fs0,32(a2)
    1376:	000e                	c.slli	zero,0x3
    1378:	0080                	addi	s0,sp,64
    137a:	0000                	unimp
    137c:	0100                	addi	s0,sp,128
    137e:	005f 4407 000d      	.byte	0x5f, 0x00, 0x07, 0x44, 0x0d, 0x00
    1384:	0080                	addi	s0,sp,64
    1386:	0000                	unimp
    1388:	4e00                	lw	s0,24(a2)
    138a:	000d                	c.nop	3
    138c:	0080                	addi	s0,sp,64
    138e:	0000                	unimp
    1390:	0100                	addi	s0,sp,128
    1392:	075a                	slli	a4,a4,0x16
    1394:	0d4e                	slli	s10,s10,0x13
    1396:	8000                	.2byte	0x8000
    1398:	0000                	unimp
    139a:	0000                	unimp
    139c:	0d82                	c.slli64	s11
    139e:	8000                	.2byte	0x8000
    13a0:	0000                	unimp
    13a2:	0000                	unimp
    13a4:	a304                	fsd	fs1,0(a4)
    13a6:	5a01                	li	s4,-32
    13a8:	009f 4407 000d      	.byte	0x9f, 0x00, 0x07, 0x44, 0x0d, 0x00
    13ae:	0080                	addi	s0,sp,64
    13b0:	0000                	unimp
    13b2:	6600                	ld	s0,8(a2)
    13b4:	000d                	c.nop	3
    13b6:	0080                	addi	s0,sp,64
    13b8:	0000                	unimp
    13ba:	0100                	addi	s0,sp,128
    13bc:	005a                	c.slli	zero,0x16
    13be:	000d4807          	.4byte	0xd4807
    13c2:	0080                	addi	s0,sp,64
    13c4:	0000                	unimp
    13c6:	5c00                	lw	s0,56(s0)
    13c8:	000d                	c.nop	3
    13ca:	0080                	addi	s0,sp,64
    13cc:	0000                	unimp
    13ce:	0100                	addi	s0,sp,128
    13d0:	075d                	addi	a4,a4,23
    13d2:	0d5e                	slli	s10,s10,0x17
    13d4:	8000                	.2byte	0x8000
    13d6:	0000                	unimp
    13d8:	0000                	unimp
    13da:	0d66                	slli	s10,s10,0x19
    13dc:	8000                	.2byte	0x8000
    13de:	0000                	unimp
    13e0:	0000                	unimp
    13e2:	5d01                	li	s10,-32
    13e4:	0700                	addi	s0,sp,896
    13e6:	0d54                	addi	a3,sp,660
    13e8:	8000                	.2byte	0x8000
    13ea:	0000                	unimp
    13ec:	0000                	unimp
    13ee:	0d58                	addi	a4,sp,660
    13f0:	8000                	.2byte	0x8000
    13f2:	0000                	unimp
    13f4:	0000                	unimp
    13f6:	5f01                	li	t5,-32
    13f8:	0700                	addi	s0,sp,896
    13fa:	0d6c                	addi	a1,sp,668
    13fc:	8000                	.2byte	0x8000
    13fe:	0000                	unimp
    1400:	0000                	unimp
    1402:	0d76                	slli	s10,s10,0x1d
    1404:	8000                	.2byte	0x8000
    1406:	0000                	unimp
    1408:	0000                	unimp
    140a:	5f01                	li	t5,-32
	...

Disassembly of section .debug_rnglists:

0000000000000000 <.debug_rnglists>:
   0:	0891                	addi	a7,a7,4
   2:	0000                	unimp
   4:	0005                	c.nop	1
   6:	0008                	.2byte	0x8
   8:	0000                	unimp
   a:	0000                	unimp
   c:	3406                	fld	fs0,96(sp)
   e:	0002                	c.slli64	zero
  10:	0080                	addi	s0,sp,64
  12:	0000                	unimp
  14:	3400                	fld	fs0,40(s0)
  16:	0002                	c.slli64	zero
  18:	0080                	addi	s0,sp,64
  1a:	0000                	unimp
  1c:	0600                	addi	s0,sp,768
  1e:	0250                	addi	a2,sp,260
  20:	8000                	.2byte	0x8000
  22:	0000                	unimp
  24:	0000                	unimp
  26:	0258                	addi	a4,sp,260
  28:	8000                	.2byte	0x8000
  2a:	0000                	unimp
  2c:	0000                	unimp
  2e:	6006                	.2byte	0x6006
  30:	0002                	c.slli64	zero
  32:	0080                	addi	s0,sp,64
  34:	0000                	unimp
  36:	6000                	ld	s0,0(s0)
  38:	0002                	c.slli64	zero
  3a:	0080                	addi	s0,sp,64
  3c:	0000                	unimp
  3e:	0600                	addi	s0,sp,768
  40:	0264                	addi	s1,sp,268
  42:	8000                	.2byte	0x8000
  44:	0000                	unimp
  46:	0000                	unimp
  48:	02a6                	slli	t0,t0,0x9
  4a:	8000                	.2byte	0x8000
  4c:	0000                	unimp
  4e:	0000                	unimp
  50:	0600                	addi	s0,sp,768
  52:	0250                	addi	a2,sp,260
  54:	8000                	.2byte	0x8000
  56:	0000                	unimp
  58:	0000                	unimp
  5a:	0254                	addi	a3,sp,260
  5c:	8000                	.2byte	0x8000
  5e:	0000                	unimp
  60:	0000                	unimp
  62:	5806                	lw	a6,96(sp)
  64:	0002                	c.slli64	zero
  66:	0080                	addi	s0,sp,64
  68:	0000                	unimp
  6a:	5800                	lw	s0,48(s0)
  6c:	0002                	c.slli64	zero
  6e:	0080                	addi	s0,sp,64
  70:	0000                	unimp
  72:	0600                	addi	s0,sp,768
  74:	0260                	addi	s0,sp,268
  76:	8000                	.2byte	0x8000
  78:	0000                	unimp
  7a:	0000                	unimp
  7c:	0260                	addi	s0,sp,268
  7e:	8000                	.2byte	0x8000
  80:	0000                	unimp
  82:	0000                	unimp
  84:	6406                	ld	s0,64(sp)
  86:	0002                	c.slli64	zero
  88:	0080                	addi	s0,sp,64
  8a:	0000                	unimp
  8c:	9c00                	.2byte	0x9c00
  8e:	0002                	c.slli64	zero
  90:	0080                	addi	s0,sp,64
  92:	0000                	unimp
  94:	0000                	unimp
  96:	6006                	.2byte	0x6006
  98:	0002                	c.slli64	zero
  9a:	0080                	addi	s0,sp,64
  9c:	0000                	unimp
  9e:	6000                	ld	s0,0(s0)
  a0:	0002                	c.slli64	zero
  a2:	0080                	addi	s0,sp,64
  a4:	0000                	unimp
  a6:	0600                	addi	s0,sp,768
  a8:	0264                	addi	s1,sp,268
  aa:	8000                	.2byte	0x8000
  ac:	0000                	unimp
  ae:	0000                	unimp
  b0:	028e                	slli	t0,t0,0x3
  b2:	8000                	.2byte	0x8000
  b4:	0000                	unimp
  b6:	0000                	unimp
  b8:	0600                	addi	s0,sp,768
  ba:	02a8                	addi	a0,sp,328
  bc:	8000                	.2byte	0x8000
  be:	0000                	unimp
  c0:	0000                	unimp
  c2:	02a8                	addi	a0,sp,328
  c4:	8000                	.2byte	0x8000
  c6:	0000                	unimp
  c8:	0000                	unimp
  ca:	c806                	sw	ra,16(sp)
  cc:	0002                	c.slli64	zero
  ce:	0080                	addi	s0,sp,64
  d0:	0000                	unimp
  d2:	d000                	sw	s0,32(s0)
  d4:	0002                	c.slli64	zero
  d6:	0080                	addi	s0,sp,64
  d8:	0000                	unimp
  da:	0600                	addi	s0,sp,768
  dc:	02d8                	addi	a4,sp,324
  de:	8000                	.2byte	0x8000
  e0:	0000                	unimp
  e2:	0000                	unimp
  e4:	02d8                	addi	a4,sp,324
  e6:	8000                	.2byte	0x8000
  e8:	0000                	unimp
  ea:	0000                	unimp
  ec:	dc06                	sw	ra,56(sp)
  ee:	0002                	c.slli64	zero
  f0:	0080                	addi	s0,sp,64
  f2:	0000                	unimp
  f4:	2600                	fld	fs0,8(a2)
  f6:	00800003          	lb	zero,8(zero) # 8 <_prog_start-0x7ffffff8>
  fa:	0000                	unimp
  fc:	0000                	unimp
  fe:	c806                	sw	ra,16(sp)
 100:	0002                	c.slli64	zero
 102:	0080                	addi	s0,sp,64
 104:	0000                	unimp
 106:	cc00                	sw	s0,24(s0)
 108:	0002                	c.slli64	zero
 10a:	0080                	addi	s0,sp,64
 10c:	0000                	unimp
 10e:	0600                	addi	s0,sp,768
 110:	02d0                	addi	a2,sp,324
 112:	8000                	.2byte	0x8000
 114:	0000                	unimp
 116:	0000                	unimp
 118:	02d0                	addi	a2,sp,324
 11a:	8000                	.2byte	0x8000
 11c:	0000                	unimp
 11e:	0000                	unimp
 120:	d806                	sw	ra,48(sp)
 122:	0002                	c.slli64	zero
 124:	0080                	addi	s0,sp,64
 126:	0000                	unimp
 128:	d800                	sw	s0,48(s0)
 12a:	0002                	c.slli64	zero
 12c:	0080                	addi	s0,sp,64
 12e:	0000                	unimp
 130:	0600                	addi	s0,sp,768
 132:	02dc                	addi	a5,sp,324
 134:	8000                	.2byte	0x8000
 136:	0000                	unimp
 138:	0000                	unimp
 13a:	031c                	addi	a5,sp,384
 13c:	8000                	.2byte	0x8000
 13e:	0000                	unimp
 140:	0000                	unimp
 142:	0600                	addi	s0,sp,768
 144:	02d8                	addi	a4,sp,324
 146:	8000                	.2byte	0x8000
 148:	0000                	unimp
 14a:	0000                	unimp
 14c:	02d8                	addi	a4,sp,324
 14e:	8000                	.2byte	0x8000
 150:	0000                	unimp
 152:	0000                	unimp
 154:	dc06                	sw	ra,56(sp)
 156:	0002                	c.slli64	zero
 158:	0080                	addi	s0,sp,64
 15a:	0000                	unimp
 15c:	0e00                	addi	s0,sp,784
 15e:	00800003          	lb	zero,8(zero) # 8 <_prog_start-0x7ffffff8>
 162:	0000                	unimp
 164:	0000                	unimp
 166:	2c06                	fld	fs8,64(sp)
 168:	00800003          	lb	zero,8(zero) # 8 <_prog_start-0x7ffffff8>
 16c:	0000                	unimp
 16e:	2c00                	fld	fs0,24(s0)
 170:	00800003          	lb	zero,8(zero) # 8 <_prog_start-0x7ffffff8>
 174:	0000                	unimp
 176:	0600                	addi	s0,sp,768
 178:	034c                	addi	a1,sp,388
 17a:	8000                	.2byte	0x8000
 17c:	0000                	unimp
 17e:	0000                	unimp
 180:	0354                	addi	a3,sp,388
 182:	8000                	.2byte	0x8000
 184:	0000                	unimp
 186:	0000                	unimp
 188:	5c06                	lw	s8,96(sp)
 18a:	00800003          	lb	zero,8(zero) # 8 <_prog_start-0x7ffffff8>
 18e:	0000                	unimp
 190:	5c00                	lw	s0,56(s0)
 192:	00800003          	lb	zero,8(zero) # 8 <_prog_start-0x7ffffff8>
 196:	0000                	unimp
 198:	0600                	addi	s0,sp,768
 19a:	0360                	addi	s0,sp,396
 19c:	8000                	.2byte	0x8000
 19e:	0000                	unimp
 1a0:	0000                	unimp
 1a2:	03aa                	slli	t2,t2,0xa
 1a4:	8000                	.2byte	0x8000
 1a6:	0000                	unimp
 1a8:	0000                	unimp
 1aa:	0600                	addi	s0,sp,768
 1ac:	034c                	addi	a1,sp,388
 1ae:	8000                	.2byte	0x8000
 1b0:	0000                	unimp
 1b2:	0000                	unimp
 1b4:	0350                	addi	a2,sp,388
 1b6:	8000                	.2byte	0x8000
 1b8:	0000                	unimp
 1ba:	0000                	unimp
 1bc:	5406                	lw	s0,96(sp)
 1be:	00800003          	lb	zero,8(zero) # 8 <_prog_start-0x7ffffff8>
 1c2:	0000                	unimp
 1c4:	5400                	lw	s0,40(s0)
 1c6:	00800003          	lb	zero,8(zero) # 8 <_prog_start-0x7ffffff8>
 1ca:	0000                	unimp
 1cc:	0600                	addi	s0,sp,768
 1ce:	035c                	addi	a5,sp,388
 1d0:	8000                	.2byte	0x8000
 1d2:	0000                	unimp
 1d4:	0000                	unimp
 1d6:	035c                	addi	a5,sp,388
 1d8:	8000                	.2byte	0x8000
 1da:	0000                	unimp
 1dc:	0000                	unimp
 1de:	6006                	.2byte	0x6006
 1e0:	00800003          	lb	zero,8(zero) # 8 <_prog_start-0x7ffffff8>
 1e4:	0000                	unimp
 1e6:	a000                	fsd	fs0,0(s0)
 1e8:	00800003          	lb	zero,8(zero) # 8 <_prog_start-0x7ffffff8>
 1ec:	0000                	unimp
 1ee:	0000                	unimp
 1f0:	5c06                	lw	s8,96(sp)
 1f2:	00800003          	lb	zero,8(zero) # 8 <_prog_start-0x7ffffff8>
 1f6:	0000                	unimp
 1f8:	5c00                	lw	s0,56(s0)
 1fa:	00800003          	lb	zero,8(zero) # 8 <_prog_start-0x7ffffff8>
 1fe:	0000                	unimp
 200:	0600                	addi	s0,sp,768
 202:	0360                	addi	s0,sp,396
 204:	8000                	.2byte	0x8000
 206:	0000                	unimp
 208:	0000                	unimp
 20a:	0392                	slli	t2,t2,0x4
 20c:	8000                	.2byte	0x8000
 20e:	0000                	unimp
 210:	0000                	unimp
 212:	0600                	addi	s0,sp,768
 214:	03b0                	addi	a2,sp,456
 216:	8000                	.2byte	0x8000
 218:	0000                	unimp
 21a:	0000                	unimp
 21c:	03b0                	addi	a2,sp,456
 21e:	8000                	.2byte	0x8000
 220:	0000                	unimp
 222:	0000                	unimp
 224:	d006                	sw	ra,32(sp)
 226:	00800003          	lb	zero,8(zero) # 8 <_prog_start-0x7ffffff8>
 22a:	0000                	unimp
 22c:	d800                	sw	s0,48(s0)
 22e:	00800003          	lb	zero,8(zero) # 8 <_prog_start-0x7ffffff8>
 232:	0000                	unimp
 234:	0600                	addi	s0,sp,768
 236:	03e0                	addi	s0,sp,460
 238:	8000                	.2byte	0x8000
 23a:	0000                	unimp
 23c:	0000                	unimp
 23e:	03e0                	addi	s0,sp,460
 240:	8000                	.2byte	0x8000
 242:	0000                	unimp
 244:	0000                	unimp
 246:	e406                	sd	ra,8(sp)
 248:	00800003          	lb	zero,8(zero) # 8 <_prog_start-0x7ffffff8>
 24c:	0000                	unimp
 24e:	2e00                	fld	fs0,24(a2)
 250:	0004                	.2byte	0x4
 252:	0080                	addi	s0,sp,64
 254:	0000                	unimp
 256:	0000                	unimp
 258:	d006                	sw	ra,32(sp)
 25a:	00800003          	lb	zero,8(zero) # 8 <_prog_start-0x7ffffff8>
 25e:	0000                	unimp
 260:	d400                	sw	s0,40(s0)
 262:	00800003          	lb	zero,8(zero) # 8 <_prog_start-0x7ffffff8>
 266:	0000                	unimp
 268:	0600                	addi	s0,sp,768
 26a:	03d8                	addi	a4,sp,452
 26c:	8000                	.2byte	0x8000
 26e:	0000                	unimp
 270:	0000                	unimp
 272:	03d8                	addi	a4,sp,452
 274:	8000                	.2byte	0x8000
 276:	0000                	unimp
 278:	0000                	unimp
 27a:	e006                	sd	ra,0(sp)
 27c:	00800003          	lb	zero,8(zero) # 8 <_prog_start-0x7ffffff8>
 280:	0000                	unimp
 282:	e000                	sd	s0,0(s0)
 284:	00800003          	lb	zero,8(zero) # 8 <_prog_start-0x7ffffff8>
 288:	0000                	unimp
 28a:	0600                	addi	s0,sp,768
 28c:	03e4                	addi	s1,sp,460
 28e:	8000                	.2byte	0x8000
 290:	0000                	unimp
 292:	0000                	unimp
 294:	0424                	addi	s1,sp,520
 296:	8000                	.2byte	0x8000
 298:	0000                	unimp
 29a:	0000                	unimp
 29c:	0600                	addi	s0,sp,768
 29e:	03e0                	addi	s0,sp,460
 2a0:	8000                	.2byte	0x8000
 2a2:	0000                	unimp
 2a4:	0000                	unimp
 2a6:	03e0                	addi	s0,sp,460
 2a8:	8000                	.2byte	0x8000
 2aa:	0000                	unimp
 2ac:	0000                	unimp
 2ae:	e406                	sd	ra,8(sp)
 2b0:	00800003          	lb	zero,8(zero) # 8 <_prog_start-0x7ffffff8>
 2b4:	0000                	unimp
 2b6:	1600                	addi	s0,sp,800
 2b8:	0004                	.2byte	0x4
 2ba:	0080                	addi	s0,sp,64
 2bc:	0000                	unimp
 2be:	0000                	unimp
 2c0:	3406                	fld	fs0,96(sp)
 2c2:	0004                	.2byte	0x4
 2c4:	0080                	addi	s0,sp,64
 2c6:	0000                	unimp
 2c8:	3400                	fld	fs0,40(s0)
 2ca:	0004                	.2byte	0x4
 2cc:	0080                	addi	s0,sp,64
 2ce:	0000                	unimp
 2d0:	0600                	addi	s0,sp,768
 2d2:	044e                	slli	s0,s0,0x13
 2d4:	8000                	.2byte	0x8000
 2d6:	0000                	unimp
 2d8:	0000                	unimp
 2da:	0476                	slli	s0,s0,0x1d
 2dc:	8000                	.2byte	0x8000
 2de:	0000                	unimp
 2e0:	0000                	unimp
 2e2:	0600                	addi	s0,sp,768
 2e4:	0478                	addi	a4,sp,524
 2e6:	8000                	.2byte	0x8000
 2e8:	0000                	unimp
 2ea:	0000                	unimp
 2ec:	0478                	addi	a4,sp,524
 2ee:	8000                	.2byte	0x8000
 2f0:	0000                	unimp
 2f2:	0000                	unimp
 2f4:	9206                	add	tp,tp,ra
 2f6:	0004                	.2byte	0x4
 2f8:	0080                	addi	s0,sp,64
 2fa:	0000                	unimp
 2fc:	ba00                	fsd	fs0,48(a2)
 2fe:	0004                	.2byte	0x4
 300:	0080                	addi	s0,sp,64
 302:	0000                	unimp
 304:	0000                	unimp
 306:	bc06                	fsd	ft1,56(sp)
 308:	0004                	.2byte	0x4
 30a:	0080                	addi	s0,sp,64
 30c:	0000                	unimp
 30e:	bc00                	fsd	fs0,56(s0)
 310:	0004                	.2byte	0x4
 312:	0080                	addi	s0,sp,64
 314:	0000                	unimp
 316:	0600                	addi	s0,sp,768
 318:	04dc                	addi	a5,sp,580
 31a:	8000                	.2byte	0x8000
 31c:	0000                	unimp
 31e:	0000                	unimp
 320:	04e4                	addi	s1,sp,588
 322:	8000                	.2byte	0x8000
 324:	0000                	unimp
 326:	0000                	unimp
 328:	ec06                	sd	ra,24(sp)
 32a:	0004                	.2byte	0x4
 32c:	0080                	addi	s0,sp,64
 32e:	0000                	unimp
 330:	ec00                	sd	s0,24(s0)
 332:	0004                	.2byte	0x4
 334:	0080                	addi	s0,sp,64
 336:	0000                	unimp
 338:	0600                	addi	s0,sp,768
 33a:	04f0                	addi	a2,sp,588
 33c:	8000                	.2byte	0x8000
 33e:	0000                	unimp
 340:	0000                	unimp
 342:	053a                	slli	a0,a0,0xe
 344:	8000                	.2byte	0x8000
 346:	0000                	unimp
 348:	0000                	unimp
 34a:	0600                	addi	s0,sp,768
 34c:	04dc                	addi	a5,sp,580
 34e:	8000                	.2byte	0x8000
 350:	0000                	unimp
 352:	0000                	unimp
 354:	04e0                	addi	s0,sp,588
 356:	8000                	.2byte	0x8000
 358:	0000                	unimp
 35a:	0000                	unimp
 35c:	e406                	sd	ra,8(sp)
 35e:	0004                	.2byte	0x4
 360:	0080                	addi	s0,sp,64
 362:	0000                	unimp
 364:	e400                	sd	s0,8(s0)
 366:	0004                	.2byte	0x4
 368:	0080                	addi	s0,sp,64
 36a:	0000                	unimp
 36c:	0600                	addi	s0,sp,768
 36e:	04ec                	addi	a1,sp,588
 370:	8000                	.2byte	0x8000
 372:	0000                	unimp
 374:	0000                	unimp
 376:	04ec                	addi	a1,sp,588
 378:	8000                	.2byte	0x8000
 37a:	0000                	unimp
 37c:	0000                	unimp
 37e:	f006                	sd	ra,32(sp)
 380:	0004                	.2byte	0x4
 382:	0080                	addi	s0,sp,64
 384:	0000                	unimp
 386:	3000                	fld	fs0,32(s0)
 388:	0005                	c.nop	1
 38a:	0080                	addi	s0,sp,64
 38c:	0000                	unimp
 38e:	0000                	unimp
 390:	ec06                	sd	ra,24(sp)
 392:	0004                	.2byte	0x4
 394:	0080                	addi	s0,sp,64
 396:	0000                	unimp
 398:	ec00                	sd	s0,24(s0)
 39a:	0004                	.2byte	0x4
 39c:	0080                	addi	s0,sp,64
 39e:	0000                	unimp
 3a0:	0600                	addi	s0,sp,768
 3a2:	04f0                	addi	a2,sp,588
 3a4:	8000                	.2byte	0x8000
 3a6:	0000                	unimp
 3a8:	0000                	unimp
 3aa:	0522                	slli	a0,a0,0x8
 3ac:	8000                	.2byte	0x8000
 3ae:	0000                	unimp
 3b0:	0000                	unimp
 3b2:	0600                	addi	s0,sp,768
 3b4:	0540                	addi	s0,sp,644
 3b6:	8000                	.2byte	0x8000
 3b8:	0000                	unimp
 3ba:	0000                	unimp
 3bc:	0540                	addi	s0,sp,644
 3be:	8000                	.2byte	0x8000
 3c0:	0000                	unimp
 3c2:	0000                	unimp
 3c4:	6006                	.2byte	0x6006
 3c6:	0005                	c.nop	1
 3c8:	0080                	addi	s0,sp,64
 3ca:	0000                	unimp
 3cc:	6800                	ld	s0,16(s0)
 3ce:	0005                	c.nop	1
 3d0:	0080                	addi	s0,sp,64
 3d2:	0000                	unimp
 3d4:	0600                	addi	s0,sp,768
 3d6:	0570                	addi	a2,sp,652
 3d8:	8000                	.2byte	0x8000
 3da:	0000                	unimp
 3dc:	0000                	unimp
 3de:	0570                	addi	a2,sp,652
 3e0:	8000                	.2byte	0x8000
 3e2:	0000                	unimp
 3e4:	0000                	unimp
 3e6:	7406                	ld	s0,96(sp)
 3e8:	0005                	c.nop	1
 3ea:	0080                	addi	s0,sp,64
 3ec:	0000                	unimp
 3ee:	be00                	fsd	fs0,56(a2)
 3f0:	0005                	c.nop	1
 3f2:	0080                	addi	s0,sp,64
 3f4:	0000                	unimp
 3f6:	0000                	unimp
 3f8:	6006                	.2byte	0x6006
 3fa:	0005                	c.nop	1
 3fc:	0080                	addi	s0,sp,64
 3fe:	0000                	unimp
 400:	6400                	ld	s0,8(s0)
 402:	0005                	c.nop	1
 404:	0080                	addi	s0,sp,64
 406:	0000                	unimp
 408:	0600                	addi	s0,sp,768
 40a:	0568                	addi	a0,sp,652
 40c:	8000                	.2byte	0x8000
 40e:	0000                	unimp
 410:	0000                	unimp
 412:	0568                	addi	a0,sp,652
 414:	8000                	.2byte	0x8000
 416:	0000                	unimp
 418:	0000                	unimp
 41a:	7006                	.2byte	0x7006
 41c:	0005                	c.nop	1
 41e:	0080                	addi	s0,sp,64
 420:	0000                	unimp
 422:	7000                	ld	s0,32(s0)
 424:	0005                	c.nop	1
 426:	0080                	addi	s0,sp,64
 428:	0000                	unimp
 42a:	0600                	addi	s0,sp,768
 42c:	0574                	addi	a3,sp,652
 42e:	8000                	.2byte	0x8000
 430:	0000                	unimp
 432:	0000                	unimp
 434:	05b4                	addi	a3,sp,712
 436:	8000                	.2byte	0x8000
 438:	0000                	unimp
 43a:	0000                	unimp
 43c:	0600                	addi	s0,sp,768
 43e:	0570                	addi	a2,sp,652
 440:	8000                	.2byte	0x8000
 442:	0000                	unimp
 444:	0000                	unimp
 446:	0570                	addi	a2,sp,652
 448:	8000                	.2byte	0x8000
 44a:	0000                	unimp
 44c:	0000                	unimp
 44e:	7406                	ld	s0,96(sp)
 450:	0005                	c.nop	1
 452:	0080                	addi	s0,sp,64
 454:	0000                	unimp
 456:	a600                	fsd	fs0,8(a2)
 458:	0005                	c.nop	1
 45a:	0080                	addi	s0,sp,64
 45c:	0000                	unimp
 45e:	0000                	unimp
 460:	c406                	sw	ra,8(sp)
 462:	0005                	c.nop	1
 464:	0080                	addi	s0,sp,64
 466:	0000                	unimp
 468:	c400                	sw	s0,8(s0)
 46a:	0005                	c.nop	1
 46c:	0080                	addi	s0,sp,64
 46e:	0000                	unimp
 470:	0600                	addi	s0,sp,768
 472:	05e4                	addi	s1,sp,716
 474:	8000                	.2byte	0x8000
 476:	0000                	unimp
 478:	0000                	unimp
 47a:	05ec                	addi	a1,sp,716
 47c:	8000                	.2byte	0x8000
 47e:	0000                	unimp
 480:	0000                	unimp
 482:	f406                	sd	ra,40(sp)
 484:	0005                	c.nop	1
 486:	0080                	addi	s0,sp,64
 488:	0000                	unimp
 48a:	f400                	sd	s0,40(s0)
 48c:	0005                	c.nop	1
 48e:	0080                	addi	s0,sp,64
 490:	0000                	unimp
 492:	0600                	addi	s0,sp,768
 494:	05f8                	addi	a4,sp,716
 496:	8000                	.2byte	0x8000
 498:	0000                	unimp
 49a:	0000                	unimp
 49c:	0642                	slli	a2,a2,0x10
 49e:	8000                	.2byte	0x8000
 4a0:	0000                	unimp
 4a2:	0000                	unimp
 4a4:	0600                	addi	s0,sp,768
 4a6:	05e4                	addi	s1,sp,716
 4a8:	8000                	.2byte	0x8000
 4aa:	0000                	unimp
 4ac:	0000                	unimp
 4ae:	05e8                	addi	a0,sp,716
 4b0:	8000                	.2byte	0x8000
 4b2:	0000                	unimp
 4b4:	0000                	unimp
 4b6:	ec06                	sd	ra,24(sp)
 4b8:	0005                	c.nop	1
 4ba:	0080                	addi	s0,sp,64
 4bc:	0000                	unimp
 4be:	ec00                	sd	s0,24(s0)
 4c0:	0005                	c.nop	1
 4c2:	0080                	addi	s0,sp,64
 4c4:	0000                	unimp
 4c6:	0600                	addi	s0,sp,768
 4c8:	05f4                	addi	a3,sp,716
 4ca:	8000                	.2byte	0x8000
 4cc:	0000                	unimp
 4ce:	0000                	unimp
 4d0:	05f4                	addi	a3,sp,716
 4d2:	8000                	.2byte	0x8000
 4d4:	0000                	unimp
 4d6:	0000                	unimp
 4d8:	f806                	sd	ra,48(sp)
 4da:	0005                	c.nop	1
 4dc:	0080                	addi	s0,sp,64
 4de:	0000                	unimp
 4e0:	3800                	fld	fs0,48(s0)
 4e2:	0006                	c.slli	zero,0x1
 4e4:	0080                	addi	s0,sp,64
 4e6:	0000                	unimp
 4e8:	0000                	unimp
 4ea:	f406                	sd	ra,40(sp)
 4ec:	0005                	c.nop	1
 4ee:	0080                	addi	s0,sp,64
 4f0:	0000                	unimp
 4f2:	f400                	sd	s0,40(s0)
 4f4:	0005                	c.nop	1
 4f6:	0080                	addi	s0,sp,64
 4f8:	0000                	unimp
 4fa:	0600                	addi	s0,sp,768
 4fc:	05f8                	addi	a4,sp,716
 4fe:	8000                	.2byte	0x8000
 500:	0000                	unimp
 502:	0000                	unimp
 504:	062a                	slli	a2,a2,0xa
 506:	8000                	.2byte	0x8000
 508:	0000                	unimp
 50a:	0000                	unimp
 50c:	0600                	addi	s0,sp,768
 50e:	0648                	addi	a0,sp,772
 510:	8000                	.2byte	0x8000
 512:	0000                	unimp
 514:	0000                	unimp
 516:	0648                	addi	a0,sp,772
 518:	8000                	.2byte	0x8000
 51a:	0000                	unimp
 51c:	0000                	unimp
 51e:	6806                	ld	a6,64(sp)
 520:	0006                	c.slli	zero,0x1
 522:	0080                	addi	s0,sp,64
 524:	0000                	unimp
 526:	7000                	ld	s0,32(s0)
 528:	0006                	c.slli	zero,0x1
 52a:	0080                	addi	s0,sp,64
 52c:	0000                	unimp
 52e:	0600                	addi	s0,sp,768
 530:	0678                	addi	a4,sp,780
 532:	8000                	.2byte	0x8000
 534:	0000                	unimp
 536:	0000                	unimp
 538:	0678                	addi	a4,sp,780
 53a:	8000                	.2byte	0x8000
 53c:	0000                	unimp
 53e:	0000                	unimp
 540:	7c06                	ld	s8,96(sp)
 542:	0006                	c.slli	zero,0x1
 544:	0080                	addi	s0,sp,64
 546:	0000                	unimp
 548:	c600                	sw	s0,8(a2)
 54a:	0006                	c.slli	zero,0x1
 54c:	0080                	addi	s0,sp,64
 54e:	0000                	unimp
 550:	0000                	unimp
 552:	6806                	ld	a6,64(sp)
 554:	0006                	c.slli	zero,0x1
 556:	0080                	addi	s0,sp,64
 558:	0000                	unimp
 55a:	6c00                	ld	s0,24(s0)
 55c:	0006                	c.slli	zero,0x1
 55e:	0080                	addi	s0,sp,64
 560:	0000                	unimp
 562:	0600                	addi	s0,sp,768
 564:	0670                	addi	a2,sp,780
 566:	8000                	.2byte	0x8000
 568:	0000                	unimp
 56a:	0000                	unimp
 56c:	0670                	addi	a2,sp,780
 56e:	8000                	.2byte	0x8000
 570:	0000                	unimp
 572:	0000                	unimp
 574:	7806                	ld	a6,96(sp)
 576:	0006                	c.slli	zero,0x1
 578:	0080                	addi	s0,sp,64
 57a:	0000                	unimp
 57c:	7800                	ld	s0,48(s0)
 57e:	0006                	c.slli	zero,0x1
 580:	0080                	addi	s0,sp,64
 582:	0000                	unimp
 584:	0600                	addi	s0,sp,768
 586:	067c                	addi	a5,sp,780
 588:	8000                	.2byte	0x8000
 58a:	0000                	unimp
 58c:	0000                	unimp
 58e:	06bc                	addi	a5,sp,840
 590:	8000                	.2byte	0x8000
 592:	0000                	unimp
 594:	0000                	unimp
 596:	0600                	addi	s0,sp,768
 598:	0678                	addi	a4,sp,780
 59a:	8000                	.2byte	0x8000
 59c:	0000                	unimp
 59e:	0000                	unimp
 5a0:	0678                	addi	a4,sp,780
 5a2:	8000                	.2byte	0x8000
 5a4:	0000                	unimp
 5a6:	0000                	unimp
 5a8:	7c06                	ld	s8,96(sp)
 5aa:	0006                	c.slli	zero,0x1
 5ac:	0080                	addi	s0,sp,64
 5ae:	0000                	unimp
 5b0:	ae00                	fsd	fs0,24(a2)
 5b2:	0006                	c.slli	zero,0x1
 5b4:	0080                	addi	s0,sp,64
 5b6:	0000                	unimp
 5b8:	0000                	unimp
 5ba:	cc06                	sw	ra,24(sp)
 5bc:	0006                	c.slli	zero,0x1
 5be:	0080                	addi	s0,sp,64
 5c0:	0000                	unimp
 5c2:	cc00                	sw	s0,24(s0)
 5c4:	0006                	c.slli	zero,0x1
 5c6:	0080                	addi	s0,sp,64
 5c8:	0000                	unimp
 5ca:	0600                	addi	s0,sp,768
 5cc:	06e6                	slli	a3,a3,0x19
 5ce:	8000                	.2byte	0x8000
 5d0:	0000                	unimp
 5d2:	0000                	unimp
 5d4:	070e                	slli	a4,a4,0x3
 5d6:	8000                	.2byte	0x8000
 5d8:	0000                	unimp
 5da:	0000                	unimp
 5dc:	0600                	addi	s0,sp,768
 5de:	0710                	addi	a2,sp,896
 5e0:	8000                	.2byte	0x8000
 5e2:	0000                	unimp
 5e4:	0000                	unimp
 5e6:	0710                	addi	a2,sp,896
 5e8:	8000                	.2byte	0x8000
 5ea:	0000                	unimp
 5ec:	0000                	unimp
 5ee:	2a06                	fld	fs4,64(sp)
 5f0:	00800007          	.4byte	0x800007
 5f4:	0000                	unimp
 5f6:	5200                	lw	s0,32(a2)
 5f8:	00800007          	.4byte	0x800007
 5fc:	0000                	unimp
 5fe:	0000                	unimp
 600:	5406                	lw	s0,96(sp)
 602:	00800007          	.4byte	0x800007
 606:	0000                	unimp
 608:	5400                	lw	s0,40(s0)
 60a:	00800007          	.4byte	0x800007
 60e:	0000                	unimp
 610:	0600                	addi	s0,sp,768
 612:	075e                	slli	a4,a4,0x17
 614:	8000                	.2byte	0x8000
 616:	0000                	unimp
 618:	0000                	unimp
 61a:	07e0                	addi	s0,sp,972
 61c:	8000                	.2byte	0x8000
 61e:	0000                	unimp
 620:	0000                	unimp
 622:	0600                	addi	s0,sp,768
 624:	075e                	slli	a4,a4,0x17
 626:	8000                	.2byte	0x8000
 628:	0000                	unimp
 62a:	0000                	unimp
 62c:	0760                	addi	s0,sp,908
 62e:	8000                	.2byte	0x8000
 630:	0000                	unimp
 632:	0000                	unimp
 634:	8206                	mv	tp,ra
 636:	00800007          	.4byte	0x800007
 63a:	0000                	unimp
 63c:	8600                	.2byte	0x8600
 63e:	00800007          	.4byte	0x800007
 642:	0000                	unimp
 644:	0600                	addi	s0,sp,768
 646:	0788                	addi	a0,sp,960
 648:	8000                	.2byte	0x8000
 64a:	0000                	unimp
 64c:	0000                	unimp
 64e:	07d8                	addi	a4,sp,964
 650:	8000                	.2byte	0x8000
 652:	0000                	unimp
 654:	0000                	unimp
 656:	0600                	addi	s0,sp,768
 658:	07ec                	addi	a1,sp,972
 65a:	8000                	.2byte	0x8000
 65c:	0000                	unimp
 65e:	0000                	unimp
 660:	07ec                	addi	a1,sp,972
 662:	8000                	.2byte	0x8000
 664:	0000                	unimp
 666:	0000                	unimp
 668:	1606                	slli	a2,a2,0x21
 66a:	0008                	.2byte	0x8
 66c:	0080                	addi	s0,sp,64
 66e:	0000                	unimp
 670:	6e00                	ld	s0,24(a2)
 672:	0008                	.2byte	0x8
 674:	0080                	addi	s0,sp,64
 676:	0000                	unimp
 678:	0000                	unimp
 67a:	1606                	slli	a2,a2,0x21
 67c:	0008                	.2byte	0x8
 67e:	0080                	addi	s0,sp,64
 680:	0000                	unimp
 682:	1a00                	addi	s0,sp,304
 684:	0008                	.2byte	0x8
 686:	0080                	addi	s0,sp,64
 688:	0000                	unimp
 68a:	0600                	addi	s0,sp,768
 68c:	081a                	slli	a6,a6,0x6
 68e:	8000                	.2byte	0x8000
 690:	0000                	unimp
 692:	0000                	unimp
 694:	086a                	slli	a6,a6,0x1a
 696:	8000                	.2byte	0x8000
 698:	0000                	unimp
 69a:	0000                	unimp
 69c:	0600                	addi	s0,sp,768
 69e:	086e                	slli	a6,a6,0x1b
 6a0:	8000                	.2byte	0x8000
 6a2:	0000                	unimp
 6a4:	0000                	unimp
 6a6:	086e                	slli	a6,a6,0x1b
 6a8:	8000                	.2byte	0x8000
 6aa:	0000                	unimp
 6ac:	0000                	unimp
 6ae:	7006                	.2byte	0x7006
 6b0:	0008                	.2byte	0x8
 6b2:	0080                	addi	s0,sp,64
 6b4:	0000                	unimp
 6b6:	7200                	ld	s0,32(a2)
 6b8:	0008                	.2byte	0x8
 6ba:	0080                	addi	s0,sp,64
 6bc:	0000                	unimp
 6be:	0600                	addi	s0,sp,768
 6c0:	087a                	slli	a6,a6,0x1e
 6c2:	8000                	.2byte	0x8000
 6c4:	0000                	unimp
 6c6:	0000                	unimp
 6c8:	0902                	c.slli64	s2
 6ca:	8000                	.2byte	0x8000
 6cc:	0000                	unimp
 6ce:	0000                	unimp
 6d0:	0600                	addi	s0,sp,768
 6d2:	0870                	addi	a2,sp,28
 6d4:	8000                	.2byte	0x8000
 6d6:	0000                	unimp
 6d8:	0000                	unimp
 6da:	0872                	slli	a6,a6,0x1c
 6dc:	8000                	.2byte	0x8000
 6de:	0000                	unimp
 6e0:	0000                	unimp
 6e2:	7a06                	ld	s4,96(sp)
 6e4:	0008                	.2byte	0x8
 6e6:	0080                	addi	s0,sp,64
 6e8:	0000                	unimp
 6ea:	7e00                	ld	s0,56(a2)
 6ec:	0008                	.2byte	0x8
 6ee:	0080                	addi	s0,sp,64
 6f0:	0000                	unimp
 6f2:	0600                	addi	s0,sp,768
 6f4:	08a2                	slli	a7,a7,0x8
 6f6:	8000                	.2byte	0x8000
 6f8:	0000                	unimp
 6fa:	0000                	unimp
 6fc:	08a6                	slli	a7,a7,0x9
 6fe:	8000                	.2byte	0x8000
 700:	0000                	unimp
 702:	0000                	unimp
 704:	aa06                	fsd	ft1,272(sp)
 706:	0008                	.2byte	0x8
 708:	0080                	addi	s0,sp,64
 70a:	0000                	unimp
 70c:	fa00                	sd	s0,48(a2)
 70e:	0008                	.2byte	0x8
 710:	0080                	addi	s0,sp,64
 712:	0000                	unimp
 714:	0000                	unimp
 716:	0e06                	slli	t3,t3,0x1
 718:	0009                	c.nop	2
 71a:	0080                	addi	s0,sp,64
 71c:	0000                	unimp
 71e:	0e00                	addi	s0,sp,784
 720:	0009                	c.nop	2
 722:	0080                	addi	s0,sp,64
 724:	0000                	unimp
 726:	0600                	addi	s0,sp,768
 728:	0910                	addi	a2,sp,144
 72a:	8000                	.2byte	0x8000
 72c:	0000                	unimp
 72e:	0000                	unimp
 730:	0912                	slli	s2,s2,0x4
 732:	8000                	.2byte	0x8000
 734:	0000                	unimp
 736:	0000                	unimp
 738:	1806                	slli	a6,a6,0x21
 73a:	0009                	c.nop	2
 73c:	0080                	addi	s0,sp,64
 73e:	0000                	unimp
 740:	9c00                	.2byte	0x9c00
 742:	0009                	c.nop	2
 744:	0080                	addi	s0,sp,64
 746:	0000                	unimp
 748:	0000                	unimp
 74a:	1006                	c.slli	zero,0x21
 74c:	0009                	c.nop	2
 74e:	0080                	addi	s0,sp,64
 750:	0000                	unimp
 752:	1200                	addi	s0,sp,288
 754:	0009                	c.nop	2
 756:	0080                	addi	s0,sp,64
 758:	0000                	unimp
 75a:	0600                	addi	s0,sp,768
 75c:	0918                	addi	a4,sp,144
 75e:	8000                	.2byte	0x8000
 760:	0000                	unimp
 762:	0000                	unimp
 764:	091c                	addi	a5,sp,144
 766:	8000                	.2byte	0x8000
 768:	0000                	unimp
 76a:	0000                	unimp
 76c:	4006                	.2byte	0x4006
 76e:	0009                	c.nop	2
 770:	0080                	addi	s0,sp,64
 772:	0000                	unimp
 774:	9400                	.2byte	0x9400
 776:	0009                	c.nop	2
 778:	0080                	addi	s0,sp,64
 77a:	0000                	unimp
 77c:	0000                	unimp
 77e:	de06                	sw	ra,60(sp)
 780:	0009                	c.nop	2
 782:	0080                	addi	s0,sp,64
 784:	0000                	unimp
 786:	e200                	sd	s0,0(a2)
 788:	0009                	c.nop	2
 78a:	0080                	addi	s0,sp,64
 78c:	0000                	unimp
 78e:	0600                	addi	s0,sp,768
 790:	09e2                	slli	s3,s3,0x18
 792:	8000                	.2byte	0x8000
 794:	0000                	unimp
 796:	0000                	unimp
 798:	09e4                	addi	s1,sp,220
 79a:	8000                	.2byte	0x8000
 79c:	0000                	unimp
 79e:	0000                	unimp
 7a0:	0600                	addi	s0,sp,768
 7a2:	09e2                	slli	s3,s3,0x18
 7a4:	8000                	.2byte	0x8000
 7a6:	0000                	unimp
 7a8:	0000                	unimp
 7aa:	09e2                	slli	s3,s3,0x18
 7ac:	8000                	.2byte	0x8000
 7ae:	0000                	unimp
 7b0:	0000                	unimp
 7b2:	e406                	sd	ra,8(sp)
 7b4:	0009                	c.nop	2
 7b6:	0080                	addi	s0,sp,64
 7b8:	0000                	unimp
 7ba:	6000                	ld	s0,0(s0)
 7bc:	000a                	c.slli	zero,0x2
 7be:	0080                	addi	s0,sp,64
 7c0:	0000                	unimp
 7c2:	0600                	addi	s0,sp,768
 7c4:	0a9e                	slli	s5,s5,0x7
 7c6:	8000                	.2byte	0x8000
 7c8:	0000                	unimp
 7ca:	0000                	unimp
 7cc:	0aa0                	addi	s0,sp,344
 7ce:	8000                	.2byte	0x8000
 7d0:	0000                	unimp
 7d2:	0000                	unimp
 7d4:	0600                	addi	s0,sp,768
 7d6:	0a8a                	slli	s5,s5,0x2
 7d8:	8000                	.2byte	0x8000
 7da:	0000                	unimp
 7dc:	0000                	unimp
 7de:	0a8c                	addi	a1,sp,336
 7e0:	8000                	.2byte	0x8000
 7e2:	0000                	unimp
 7e4:	0000                	unimp
 7e6:	9a06                	add	s4,s4,ra
 7e8:	000a                	c.slli	zero,0x2
 7ea:	0080                	addi	s0,sp,64
 7ec:	0000                	unimp
 7ee:	9e00                	.2byte	0x9e00
 7f0:	000a                	c.slli	zero,0x2
 7f2:	0080                	addi	s0,sp,64
 7f4:	0000                	unimp
 7f6:	0600                	addi	s0,sp,768
 7f8:	0aa0                	addi	s0,sp,344
 7fa:	8000                	.2byte	0x8000
 7fc:	0000                	unimp
 7fe:	0000                	unimp
 800:	0ac0                	addi	s0,sp,340
 802:	8000                	.2byte	0x8000
 804:	0000                	unimp
 806:	0000                	unimp
 808:	0600                	addi	s0,sp,768
 80a:	0a9e                	slli	s5,s5,0x7
 80c:	8000                	.2byte	0x8000
 80e:	0000                	unimp
 810:	0000                	unimp
 812:	0a9e                	slli	s5,s5,0x7
 814:	8000                	.2byte	0x8000
 816:	0000                	unimp
 818:	0000                	unimp
 81a:	a006                	fsd	ft1,0(sp)
 81c:	000a                	c.slli	zero,0x2
 81e:	0080                	addi	s0,sp,64
 820:	0000                	unimp
 822:	b400                	fsd	fs0,40(s0)
 824:	000a                	c.slli	zero,0x2
 826:	0080                	addi	s0,sp,64
 828:	0000                	unimp
 82a:	0000                	unimp
 82c:	0e06                	slli	t3,t3,0x1
 82e:	0080000b          	.4byte	0x80000b
 832:	0000                	unimp
 834:	2600                	fld	fs0,8(a2)
 836:	0080000b          	.4byte	0x80000b
 83a:	0000                	unimp
 83c:	0600                	addi	s0,sp,768
 83e:	0b28                	addi	a0,sp,408
 840:	8000                	.2byte	0x8000
 842:	0000                	unimp
 844:	0000                	unimp
 846:	0b6a                	slli	s6,s6,0x1a
 848:	8000                	.2byte	0x8000
 84a:	0000                	unimp
 84c:	0000                	unimp
 84e:	0600                	addi	s0,sp,768
 850:	0ba0                	addi	s0,sp,472
 852:	8000                	.2byte	0x8000
 854:	0000                	unimp
 856:	0000                	unimp
 858:	0ba8                	addi	a0,sp,472
 85a:	8000                	.2byte	0x8000
 85c:	0000                	unimp
 85e:	0000                	unimp
 860:	aa06                	fsd	ft1,272(sp)
 862:	0080000b          	.4byte	0x80000b
 866:	0000                	unimp
 868:	de00                	sw	s0,56(a2)
 86a:	0080000b          	.4byte	0x80000b
 86e:	0000                	unimp
 870:	0000                	unimp
 872:	3406                	fld	fs0,96(sp)
 874:	0002                	c.slli64	zero
 876:	0080                	addi	s0,sp,64
 878:	0000                	unimp
 87a:	a600                	fsd	fs0,8(a2)
 87c:	0009                	c.nop	2
 87e:	0080                	addi	s0,sp,64
 880:	0000                	unimp
 882:	0600                	addi	s0,sp,768
 884:	09a6                	slli	s3,s3,0x9
 886:	8000                	.2byte	0x8000
 888:	0000                	unimp
 88a:	0000                	unimp
 88c:	0d44                	addi	s1,sp,660
 88e:	8000                	.2byte	0x8000
 890:	0000                	unimp
 892:	0000                	unimp
 894:	5300                	lw	s0,32(a4)
 896:	0001                	nop
 898:	0500                	addi	s0,sp,640
 89a:	0800                	addi	s0,sp,16
 89c:	0000                	unimp
 89e:	0000                	unimp
 8a0:	0600                	addi	s0,sp,768
 8a2:	0da8                	addi	a0,sp,728
 8a4:	8000                	.2byte	0x8000
 8a6:	0000                	unimp
 8a8:	0000                	unimp
 8aa:	0dac                	addi	a1,sp,728
 8ac:	8000                	.2byte	0x8000
 8ae:	0000                	unimp
 8b0:	0000                	unimp
 8b2:	9c06                	add	s8,s8,ra
 8b4:	000e                	c.slli	zero,0x3
 8b6:	0080                	addi	s0,sp,64
 8b8:	0000                	unimp
 8ba:	b400                	fsd	fs0,40(s0)
 8bc:	000e                	c.slli	zero,0x3
 8be:	0080                	addi	s0,sp,64
 8c0:	0000                	unimp
 8c2:	0000                	unimp
 8c4:	d006                	sw	ra,32(sp)
 8c6:	000d                	c.nop	3
 8c8:	0080                	addi	s0,sp,64
 8ca:	0000                	unimp
 8cc:	e800                	sd	s0,16(s0)
 8ce:	000d                	c.nop	3
 8d0:	0080                	addi	s0,sp,64
 8d2:	0000                	unimp
 8d4:	0600                	addi	s0,sp,768
 8d6:	0dfa                	slli	s11,s11,0x1e
 8d8:	8000                	.2byte	0x8000
 8da:	0000                	unimp
 8dc:	0000                	unimp
 8de:	0e94                	addi	a3,sp,848
 8e0:	8000                	.2byte	0x8000
 8e2:	0000                	unimp
 8e4:	0000                	unimp
 8e6:	b406                	fsd	ft1,40(sp)
 8e8:	000e                	c.slli	zero,0x3
 8ea:	0080                	addi	s0,sp,64
 8ec:	0000                	unimp
 8ee:	0400                	addi	s0,sp,512
 8f0:	0080000f          	fence	unknown,i
 8f4:	0000                	unimp
 8f6:	0000                	unimp
 8f8:	d206                	sw	ra,36(sp)
 8fa:	000d                	c.nop	3
 8fc:	0080                	addi	s0,sp,64
 8fe:	0000                	unimp
 900:	d600                	sw	s0,40(a2)
 902:	000d                	c.nop	3
 904:	0080                	addi	s0,sp,64
 906:	0000                	unimp
 908:	0600                	addi	s0,sp,768
 90a:	0dda                	slli	s11,s11,0x16
 90c:	8000                	.2byte	0x8000
 90e:	0000                	unimp
 910:	0000                	unimp
 912:	0dda                	slli	s11,s11,0x16
 914:	8000                	.2byte	0x8000
 916:	0000                	unimp
 918:	0000                	unimp
 91a:	de06                	sw	ra,60(sp)
 91c:	000d                	c.nop	3
 91e:	0080                	addi	s0,sp,64
 920:	0000                	unimp
 922:	e800                	sd	s0,16(s0)
 924:	000d                	c.nop	3
 926:	0080                	addi	s0,sp,64
 928:	0000                	unimp
 92a:	0000                	unimp
 92c:	fa06                	sd	ra,304(sp)
 92e:	000d                	c.nop	3
 930:	0080                	addi	s0,sp,64
 932:	0000                	unimp
 934:	3800                	fld	fs0,48(s0)
 936:	000e                	c.slli	zero,0x3
 938:	0080                	addi	s0,sp,64
 93a:	0000                	unimp
 93c:	0600                	addi	s0,sp,768
 93e:	0ee4                	addi	s1,sp,860
 940:	8000                	.2byte	0x8000
 942:	0000                	unimp
 944:	0000                	unimp
 946:	0eec                	addi	a1,sp,860
 948:	8000                	.2byte	0x8000
 94a:	0000                	unimp
 94c:	0000                	unimp
 94e:	0600                	addi	s0,sp,768
 950:	0e0a                	slli	t3,t3,0x2
 952:	8000                	.2byte	0x8000
 954:	0000                	unimp
 956:	0000                	unimp
 958:	0e10                	addi	a2,sp,784
 95a:	8000                	.2byte	0x8000
 95c:	0000                	unimp
 95e:	0000                	unimp
 960:	1206                	slli	tp,tp,0x21
 962:	000e                	c.slli	zero,0x3
 964:	0080                	addi	s0,sp,64
 966:	0000                	unimp
 968:	3000                	fld	fs0,32(s0)
 96a:	000e                	c.slli	zero,0x3
 96c:	0080                	addi	s0,sp,64
 96e:	0000                	unimp
 970:	0000                	unimp
 972:	0c06                	slli	s8,s8,0x1
 974:	000e                	c.slli	zero,0x3
 976:	0080                	addi	s0,sp,64
 978:	0000                	unimp
 97a:	1000                	addi	s0,sp,32
 97c:	000e                	c.slli	zero,0x3
 97e:	0080                	addi	s0,sp,64
 980:	0000                	unimp
 982:	0600                	addi	s0,sp,768
 984:	0e26                	slli	t3,t3,0x9
 986:	8000                	.2byte	0x8000
 988:	0000                	unimp
 98a:	0000                	unimp
 98c:	0e30                	addi	a2,sp,792
 98e:	8000                	.2byte	0x8000
 990:	0000                	unimp
 992:	0000                	unimp
 994:	0600                	addi	s0,sp,768
 996:	0e3c                	addi	a5,sp,792
 998:	8000                	.2byte	0x8000
 99a:	0000                	unimp
 99c:	0000                	unimp
 99e:	0e3c                	addi	a5,sp,792
 9a0:	8000                	.2byte	0x8000
 9a2:	0000                	unimp
 9a4:	0000                	unimp
 9a6:	4006                	.2byte	0x4006
 9a8:	000e                	c.slli	zero,0x3
 9aa:	0080                	addi	s0,sp,64
 9ac:	0000                	unimp
 9ae:	5e00                	lw	s0,56(a2)
 9b0:	000e                	c.slli	zero,0x3
 9b2:	0080                	addi	s0,sp,64
 9b4:	0000                	unimp
 9b6:	0000                	unimp
 9b8:	6006                	.2byte	0x6006
 9ba:	000e                	c.slli	zero,0x3
 9bc:	0080                	addi	s0,sp,64
 9be:	0000                	unimp
 9c0:	6400                	ld	s0,8(s0)
 9c2:	000e                	c.slli	zero,0x3
 9c4:	0080                	addi	s0,sp,64
 9c6:	0000                	unimp
 9c8:	0600                	addi	s0,sp,768
 9ca:	0e68                	addi	a0,sp,796
 9cc:	8000                	.2byte	0x8000
 9ce:	0000                	unimp
 9d0:	0000                	unimp
 9d2:	0e68                	addi	a0,sp,796
 9d4:	8000                	.2byte	0x8000
 9d6:	0000                	unimp
 9d8:	0000                	unimp
 9da:	6c06                	ld	s8,64(sp)
 9dc:	000e                	c.slli	zero,0x3
 9de:	0080                	addi	s0,sp,64
 9e0:	0000                	unimp
 9e2:	7800                	ld	s0,48(s0)
 9e4:	000e                	c.slli	zero,0x3
 9e6:	0080                	addi	s0,sp,64
 9e8:	0000                	unimp
	...

Disassembly of section .debug_frame:

0000000000000000 <.debug_frame>:
   0:	000c                	.2byte	0xc
   2:	0000                	unimp
   4:	ffff                	.2byte	0xffff
   6:	ffff                	.2byte	0xffff
   8:	7c010003          	lb	zero,1984(sp)
   c:	0d01                	addi	s10,s10,0 # 1b000 <_prog_start-0x7ffe5000>
   e:	0002                	c.slli64	zero
  10:	0014                	.2byte	0x14
  12:	0000                	unimp
  14:	0000                	unimp
  16:	0000                	unimp
  18:	0234                	addi	a3,sp,264
  1a:	8000                	.2byte	0x8000
  1c:	0000                	unimp
  1e:	0000                	unimp
  20:	0074                	addi	a3,sp,12
  22:	0000                	unimp
  24:	0000                	unimp
  26:	0000                	unimp
  28:	0024                	addi	s1,sp,8
  2a:	0000                	unimp
  2c:	0000                	unimp
  2e:	0000                	unimp
  30:	02a8                	addi	a0,sp,328
  32:	8000                	.2byte	0x8000
  34:	0000                	unimp
  36:	0000                	unimp
  38:	0084                	addi	s1,sp,64
  3a:	0000                	unimp
  3c:	0000                	unimp
  3e:	0000                	unimp
  40:	0e42                	slli	t3,t3,0x10
  42:	4210                	lw	a2,0(a2)
  44:	0288                	addi	a0,sp,320
  46:	7c02                	ld	s8,32(sp)
  48:	42c8                	lw	a0,4(a3)
  4a:	000e                	c.slli	zero,0x3
  4c:	0000                	unimp
  4e:	0000                	unimp
  50:	0024                	addi	s1,sp,8
  52:	0000                	unimp
  54:	0000                	unimp
  56:	0000                	unimp
  58:	032c                	addi	a1,sp,392
  5a:	8000                	.2byte	0x8000
  5c:	0000                	unimp
  5e:	0000                	unimp
  60:	0084                	addi	s1,sp,64
  62:	0000                	unimp
  64:	0000                	unimp
  66:	0000                	unimp
  68:	0e42                	slli	t3,t3,0x10
  6a:	4210                	lw	a2,0(a2)
  6c:	0288                	addi	a0,sp,320
  6e:	7c02                	ld	s8,32(sp)
  70:	42c8                	lw	a0,4(a3)
  72:	000e                	c.slli	zero,0x3
  74:	0000                	unimp
  76:	0000                	unimp
  78:	0024                	addi	s1,sp,8
  7a:	0000                	unimp
  7c:	0000                	unimp
  7e:	0000                	unimp
  80:	03b0                	addi	a2,sp,456
  82:	8000                	.2byte	0x8000
  84:	0000                	unimp
  86:	0000                	unimp
  88:	0084                	addi	s1,sp,64
  8a:	0000                	unimp
  8c:	0000                	unimp
  8e:	0000                	unimp
  90:	0e42                	slli	t3,t3,0x10
  92:	4210                	lw	a2,0(a2)
  94:	0288                	addi	a0,sp,320
  96:	7c02                	ld	s8,32(sp)
  98:	42c8                	lw	a0,4(a3)
  9a:	000e                	c.slli	zero,0x3
  9c:	0000                	unimp
  9e:	0000                	unimp
  a0:	0014                	.2byte	0x14
  a2:	0000                	unimp
  a4:	0000                	unimp
  a6:	0000                	unimp
  a8:	0434                	addi	a3,sp,520
  aa:	8000                	.2byte	0x8000
  ac:	0000                	unimp
  ae:	0000                	unimp
  b0:	0044                	addi	s1,sp,4
  b2:	0000                	unimp
  b4:	0000                	unimp
  b6:	0000                	unimp
  b8:	0014                	.2byte	0x14
  ba:	0000                	unimp
  bc:	0000                	unimp
  be:	0000                	unimp
  c0:	0478                	addi	a4,sp,524
  c2:	8000                	.2byte	0x8000
  c4:	0000                	unimp
  c6:	0000                	unimp
  c8:	0044                	addi	s1,sp,4
  ca:	0000                	unimp
  cc:	0000                	unimp
  ce:	0000                	unimp
  d0:	0024                	addi	s1,sp,8
  d2:	0000                	unimp
  d4:	0000                	unimp
  d6:	0000                	unimp
  d8:	04bc                	addi	a5,sp,584
  da:	8000                	.2byte	0x8000
  dc:	0000                	unimp
  de:	0000                	unimp
  e0:	0084                	addi	s1,sp,64
  e2:	0000                	unimp
  e4:	0000                	unimp
  e6:	0000                	unimp
  e8:	0e42                	slli	t3,t3,0x10
  ea:	4210                	lw	a2,0(a2)
  ec:	0288                	addi	a0,sp,320
  ee:	7c02                	ld	s8,32(sp)
  f0:	42c8                	lw	a0,4(a3)
  f2:	000e                	c.slli	zero,0x3
  f4:	0000                	unimp
  f6:	0000                	unimp
  f8:	0024                	addi	s1,sp,8
  fa:	0000                	unimp
  fc:	0000                	unimp
  fe:	0000                	unimp
 100:	0540                	addi	s0,sp,644
 102:	8000                	.2byte	0x8000
 104:	0000                	unimp
 106:	0000                	unimp
 108:	0084                	addi	s1,sp,64
 10a:	0000                	unimp
 10c:	0000                	unimp
 10e:	0000                	unimp
 110:	0e42                	slli	t3,t3,0x10
 112:	4210                	lw	a2,0(a2)
 114:	0288                	addi	a0,sp,320
 116:	7c02                	ld	s8,32(sp)
 118:	42c8                	lw	a0,4(a3)
 11a:	000e                	c.slli	zero,0x3
 11c:	0000                	unimp
 11e:	0000                	unimp
 120:	0024                	addi	s1,sp,8
 122:	0000                	unimp
 124:	0000                	unimp
 126:	0000                	unimp
 128:	05c4                	addi	s1,sp,708
 12a:	8000                	.2byte	0x8000
 12c:	0000                	unimp
 12e:	0000                	unimp
 130:	0084                	addi	s1,sp,64
 132:	0000                	unimp
 134:	0000                	unimp
 136:	0000                	unimp
 138:	0e42                	slli	t3,t3,0x10
 13a:	4210                	lw	a2,0(a2)
 13c:	0288                	addi	a0,sp,320
 13e:	7c02                	ld	s8,32(sp)
 140:	42c8                	lw	a0,4(a3)
 142:	000e                	c.slli	zero,0x3
 144:	0000                	unimp
 146:	0000                	unimp
 148:	0024                	addi	s1,sp,8
 14a:	0000                	unimp
 14c:	0000                	unimp
 14e:	0000                	unimp
 150:	0648                	addi	a0,sp,772
 152:	8000                	.2byte	0x8000
 154:	0000                	unimp
 156:	0000                	unimp
 158:	0084                	addi	s1,sp,64
 15a:	0000                	unimp
 15c:	0000                	unimp
 15e:	0000                	unimp
 160:	0e42                	slli	t3,t3,0x10
 162:	4210                	lw	a2,0(a2)
 164:	0288                	addi	a0,sp,320
 166:	7c02                	ld	s8,32(sp)
 168:	42c8                	lw	a0,4(a3)
 16a:	000e                	c.slli	zero,0x3
 16c:	0000                	unimp
 16e:	0000                	unimp
 170:	0014                	.2byte	0x14
 172:	0000                	unimp
 174:	0000                	unimp
 176:	0000                	unimp
 178:	06cc                	addi	a1,sp,836
 17a:	8000                	.2byte	0x8000
 17c:	0000                	unimp
 17e:	0000                	unimp
 180:	0044                	addi	s1,sp,4
 182:	0000                	unimp
 184:	0000                	unimp
 186:	0000                	unimp
 188:	0014                	.2byte	0x14
 18a:	0000                	unimp
 18c:	0000                	unimp
 18e:	0000                	unimp
 190:	0710                	addi	a2,sp,896
 192:	8000                	.2byte	0x8000
 194:	0000                	unimp
 196:	0000                	unimp
 198:	0044                	addi	s1,sp,4
 19a:	0000                	unimp
 19c:	0000                	unimp
 19e:	0000                	unimp
 1a0:	002c                	addi	a1,sp,8
 1a2:	0000                	unimp
 1a4:	0000                	unimp
 1a6:	0000                	unimp
 1a8:	0754                	addi	a3,sp,900
 1aa:	8000                	.2byte	0x8000
 1ac:	0000                	unimp
 1ae:	0000                	unimp
 1b0:	0098                	addi	a4,sp,64
 1b2:	0000                	unimp
 1b4:	0000                	unimp
 1b6:	0000                	unimp
 1b8:	0e42                	slli	t3,t3,0x10
 1ba:	4820                	lw	s0,80(s0)
 1bc:	0288                	addi	a0,sp,320
 1be:	0489                	addi	s1,s1,2
 1c0:	0692                	slli	a3,a3,0x4
 1c2:	84020893          	addi	a7,tp,-1984 # ffffffffffff7840 <a+0xffffffff7fff6888>
 1c6:	42c8                	lw	a0,4(a3)
 1c8:	42c9                	li	t0,18
 1ca:	42d2                	lw	t0,20(sp)
 1cc:	000e42d3          	fadd.s	ft5,ft8,ft0,rmm
 1d0:	001c                	.2byte	0x1c
 1d2:	0000                	unimp
 1d4:	0000                	unimp
 1d6:	0000                	unimp
 1d8:	07ec                	addi	a1,sp,972
 1da:	8000                	.2byte	0x8000
 1dc:	0000                	unimp
 1de:	0000                	unimp
 1e0:	0082                	c.slli64	ra
 1e2:	0000                	unimp
 1e4:	0000                	unimp
 1e6:	0000                	unimp
 1e8:	0e42                	slli	t3,t3,0x10
 1ea:	4610                	lw	a2,8(a2)
 1ec:	0281                	addi	t0,t0,0 # 1000 <_prog_start-0x7ffff000>
 1ee:	0488                	addi	a0,sp,576
 1f0:	002c                	addi	a1,sp,8
 1f2:	0000                	unimp
 1f4:	0000                	unimp
 1f6:	0000                	unimp
 1f8:	086e                	slli	a6,a6,0x1b
 1fa:	8000                	.2byte	0x8000
 1fc:	0000                	unimp
 1fe:	0000                	unimp
 200:	00a0                	addi	s0,sp,72
 202:	0000                	unimp
 204:	0000                	unimp
 206:	0000                	unimp
 208:	0e42                	slli	t3,t3,0x10
 20a:	4a20                	lw	s0,80(a2)
 20c:	0288                	addi	a0,sp,320
 20e:	0489                	addi	s1,s1,2
 210:	0692                	slli	a3,a3,0x4
 212:	8a020893          	addi	a7,tp,-1888 # fffffffffffff8a0 <a+0xffffffff7fffe8e8>
 216:	42c8                	lw	a0,4(a3)
 218:	42c9                	li	t0,18
 21a:	42d2                	lw	t0,20(sp)
 21c:	000e42d3          	fadd.s	ft5,ft8,ft0,rmm
 220:	002c                	addi	a1,sp,8
 222:	0000                	unimp
 224:	0000                	unimp
 226:	0000                	unimp
 228:	090e                	slli	s2,s2,0x3
 22a:	8000                	.2byte	0x8000
 22c:	0000                	unimp
 22e:	0000                	unimp
 230:	0098                	addi	a4,sp,64
 232:	0000                	unimp
 234:	0000                	unimp
 236:	0000                	unimp
 238:	0e42                	slli	t3,t3,0x10
 23a:	4820                	lw	s0,80(s0)
 23c:	0288                	addi	a0,sp,320
 23e:	0489                	addi	s1,s1,2
 240:	0692                	slli	a3,a3,0x4
 242:	8602                	jr	a2
 244:	42c8                	lw	a0,4(a3)
 246:	42c9                	li	t0,18
 248:	42d2                	lw	t0,20(sp)
 24a:	000e                	c.slli	zero,0x3
 24c:	0000                	unimp
 24e:	0000                	unimp
 250:	0054                	addi	a3,sp,4
 252:	0000                	unimp
 254:	0000                	unimp
 256:	0000                	unimp
 258:	09a6                	slli	s3,s3,0x9
 25a:	8000                	.2byte	0x8000
 25c:	0000                	unimp
 25e:	0000                	unimp
 260:	039e                	slli	t2,t2,0x7
 262:	0000                	unimp
 264:	0000                	unimp
 266:	0000                	unimp
 268:	0e42                	slli	t3,t3,0x10
 26a:	5a70                	lw	a2,116(a2)
 26c:	0281                	addi	t0,t0,0
 26e:	0488                	addi	a0,sp,576
 270:	0689                	addi	a3,a3,2
 272:	0892                	slli	a7,a7,0x4
 274:	0c940a93          	addi	s5,s0,201
 278:	0e95                	addi	t4,t4,5
 27a:	1096                	slli	ra,ra,0x25
 27c:	14981297          	auipc	t0,0x14981
 280:	1699                	addi	a3,a3,-26
 282:	189a                	slli	a7,a7,0x26
 284:	64031a9b          	.4byte	0x64031a9b
 288:	c842c103          	lbu	sp,-892(t0) # 14980f00 <_prog_start-0x6b67f100>
 28c:	c942                	sw	a6,144(sp)
 28e:	d242                	sw	a6,36(sp)
 290:	d342                	sw	a6,164(sp)
 292:	d442                	sw	a6,40(sp)
 294:	d542                	sw	a6,168(sp)
 296:	d642                	sw	a6,44(sp)
 298:	d742                	sw	a6,172(sp)
 29a:	d842                	sw	a6,48(sp)
 29c:	d942                	sw	a6,176(sp)
 29e:	da42                	sw	a6,52(sp)
 2a0:	db42                	sw	a6,180(sp)
 2a2:	0e44                	addi	s1,sp,788
 2a4:	0000                	unimp
 2a6:	0000                	unimp
 2a8:	000c                	.2byte	0xc
 2aa:	0000                	unimp
 2ac:	ffff                	.2byte	0xffff
 2ae:	ffff                	.2byte	0xffff
 2b0:	7c010003          	lb	zero,1984(sp)
 2b4:	0d01                	addi	s10,s10,0
 2b6:	0002                	c.slli64	zero
 2b8:	0014                	.2byte	0x14
 2ba:	0000                	unimp
 2bc:	02a8                	addi	a0,sp,328
 2be:	0000                	unimp
 2c0:	0d44                	addi	s1,sp,660
 2c2:	8000                	.2byte	0x8000
 2c4:	0000                	unimp
 2c6:	0000                	unimp
 2c8:	003e                	c.slli	zero,0xf
 2ca:	0000                	unimp
 2cc:	0000                	unimp
 2ce:	0000                	unimp
 2d0:	0024                	addi	s1,sp,8
 2d2:	0000                	unimp
 2d4:	02a8                	addi	a0,sp,328
 2d6:	0000                	unimp
 2d8:	0d82                	c.slli64	s11
 2da:	8000                	.2byte	0x8000
 2dc:	0000                	unimp
 2de:	0000                	unimp
 2e0:	0182                	c.slli64	gp
 2e2:	0000                	unimp
 2e4:	0000                	unimp
 2e6:	0000                	unimp
 2e8:	0e42                	slli	t3,t3,0x10
 2ea:	0190                	addi	a2,sp,192
 2ec:	7402                	ld	s0,32(sp)
 2ee:	0e0a                	slli	t3,t3,0x2
 2f0:	4200                	lw	s0,0(a2)
 2f2:	0000000b          	.4byte	0xb
	...
