
/home/binhkieudo/Workspace/NewFramework/framework/sw/matrix_mul/build/main.elf:     file format elf32-littleriscv


Disassembly of section .text:

80000000 <_prog_start>:
  .option norvc
  .globl _prog_start
_prog_start:
    # li s0, MEMORY_MEM_ADDR
    # jr s0
  csrw mie, zero
80000000:	30401073          	csrw	mie,zero
  csrr a0, mhartid
80000004:	f1402573          	csrr	a0,mhartid
  beq a0, zero, _hart0
80000008:	02050063          	beqz	a0,80000028 <_hart0>
  li t0, 1
8000000c:	00100293          	li	t0,1
  beq a0, t0, _hart1
80000010:	02550563          	beq	a0,t0,8000003a <_hart1>
  li t0, 2
80000014:	00200293          	li	t0,2
  beq a0, t0, _hart2
80000018:	06550d63          	beq	a0,t0,80000092 <_hart2>
  li t0, 3
8000001c:	00300293          	li	t0,3
  beq a0, t0, _hart3
80000020:	10550f63          	beq	a0,t0,8000013e <_hart3>
  j _loopback
80000024:	1720006f          	j	80000196 <_loopback>

80000028 <_hart0>:
_hart0:
  csrrw t0, mcycle, zero
80000028:	b00012f3          	csrrw	t0,mcycle,zero
  # csrw  instret, zero
  li sp, (MEMORY_MEM_ADDR + 0xfff0)
8000002c:	80010137          	lui	sp,0x80010
80000030:	ff010113          	addi	sp,sp,-16 # 8000fff0 <a+0xf5c4>
  call main
80000034:	2399                	jal	8000057a <main>
  wfi
80000036:	10500073          	wfi

8000003a <_hart1>:
_hart1:
  wfi
8000003a:	10500073          	wfi
  // Stage 0
  csrw mie, zero
8000003e:	30401073          	csrw	mie,zero
  li s1, 0
80000042:	00000493          	li	s1,0
  li t0, (CLINT_CTRL_ADDR + CLINT_MSIP1)
80000046:	020002b7          	lui	t0,0x2000
8000004a:	00428293          	addi	t0,t0,4 # 2000004 <_prog_start-0x7dfffffc>
  amoswap.w t1, s1, (t0)
8000004e:	0892a32f          	amoswap.w	t1,s1,(t0)
  li sp, 0x40001ff0
80000052:	40002137          	lui	sp,0x40002
80000056:	ff010113          	addi	sp,sp,-16 # 40001ff0 <_prog_start-0x3fffe010>
  call s0_c1
8000005a:	2a69                	jal	800001f4 <s0_c1>
  li s1, 1
8000005c:	00100493          	li	s1,1
  csrw mie, s1
80000060:	30449073          	csrw	mie,s1
  wfi
80000064:	10500073          	wfi
  // Stage 2
  csrw mie, zero
80000068:	30401073          	csrw	mie,zero
  li s1, 0
8000006c:	00000493          	li	s1,0
  li t0, (CLINT_CTRL_ADDR + CLINT_MSIP1)
80000070:	020002b7          	lui	t0,0x2000
80000074:	00428293          	addi	t0,t0,4 # 2000004 <_prog_start-0x7dfffffc>
  amoswap.w t1, s1, (t0)
80000078:	0892a32f          	amoswap.w	t1,s1,(t0)
  li sp, 0x40001ff0
8000007c:	40002137          	lui	sp,0x40002
80000080:	ff010113          	addi	sp,sp,-16 # 40001ff0 <_prog_start-0x3fffe010>
  call s2_c1
80000084:	2685                	jal	800003e4 <s2_c1>
  li s1, 1
80000086:	00100493          	li	s1,1
  csrw mie, s1
8000008a:	30449073          	csrw	mie,s1
  wfi
8000008e:	10500073          	wfi

80000092 <_hart2>:
_hart2:
  wfi
80000092:	10500073          	wfi
  // Stage 0
  csrw mie, zero
80000096:	30401073          	csrw	mie,zero
  li s1, 0
8000009a:	00000493          	li	s1,0
  li t0, (CLINT_CTRL_ADDR + CLINT_MSIP2)
8000009e:	020002b7          	lui	t0,0x2000
800000a2:	00828293          	addi	t0,t0,8 # 2000008 <_prog_start-0x7dfffff8>
  amoswap.w t1, s1, (t0)
800000a6:	0892a32f          	amoswap.w	t1,s1,(t0)
  li sp, 0x40002ff0
800000aa:	40003137          	lui	sp,0x40003
800000ae:	ff010113          	addi	sp,sp,-16 # 40002ff0 <_prog_start-0x3fffd010>
  call s0_c2
800000b2:	2a71                	jal	8000024e <s0_c2>
  li s1, 1
800000b4:	00100493          	li	s1,1
  csrw mie, s1
800000b8:	30449073          	csrw	mie,s1
  wfi
800000bc:	10500073          	wfi
  // Stage 1
  csrw mie, zero
800000c0:	30401073          	csrw	mie,zero
  li s1, 0
800000c4:	00000493          	li	s1,0
  li t0, (CLINT_CTRL_ADDR + CLINT_MSIP2)
800000c8:	020002b7          	lui	t0,0x2000
800000cc:	00828293          	addi	t0,t0,8 # 2000008 <_prog_start-0x7dfffff8>
  amoswap.w t1, s1, (t0)
800000d0:	0892a32f          	amoswap.w	t1,s1,(t0)
  li sp, 0x40002ff0
800000d4:	40003137          	lui	sp,0x40003
800000d8:	ff010113          	addi	sp,sp,-16 # 40002ff0 <_prog_start-0x3fffd010>
  call s1_c2
800000dc:	24ad                	jal	80000346 <s1_c2>
  li s1, 1
800000de:	00100493          	li	s1,1
  csrw mie, s1
800000e2:	30449073          	csrw	mie,s1
  wfi
800000e6:	10500073          	wfi
  // Stage 2
  csrw mie, zero
800000ea:	30401073          	csrw	mie,zero
  li s1, 0
800000ee:	00000493          	li	s1,0
  li t0, (CLINT_CTRL_ADDR + CLINT_MSIP2)
800000f2:	020002b7          	lui	t0,0x2000
800000f6:	00828293          	addi	t0,t0,8 # 2000008 <_prog_start-0x7dfffff8>
  amoswap.w t1, s1, (t0)
800000fa:	0892a32f          	amoswap.w	t1,s1,(t0)
  li sp, 0x40002ff0
800000fe:	40003137          	lui	sp,0x40003
80000102:	ff010113          	addi	sp,sp,-16 # 40002ff0 <_prog_start-0x3fffd010>
  call s2_c2
80000106:	2e25                	jal	8000043e <s2_c2>
  li s1, 1
80000108:	00100493          	li	s1,1
  csrw mie, s1
8000010c:	30449073          	csrw	mie,s1
  wfi
80000110:	10500073          	wfi
  // Stage 3
  csrw mie, zero
80000114:	30401073          	csrw	mie,zero
  li s1, 0
80000118:	00000493          	li	s1,0
  li t0, (CLINT_CTRL_ADDR + CLINT_MSIP2)
8000011c:	020002b7          	lui	t0,0x2000
80000120:	00828293          	addi	t0,t0,8 # 2000008 <_prog_start-0x7dfffff8>
  amoswap.w t1, s1, (t0)
80000124:	0892a32f          	amoswap.w	t1,s1,(t0)
  li sp, 0x40002ff0
80000128:	40003137          	lui	sp,0x40003
8000012c:	ff010113          	addi	sp,sp,-16 # 40002ff0 <_prog_start-0x3fffd010>
  call s3_c2
80000130:	2119                	jal	80000536 <s3_c2>
  li s1, 1
80000132:	00100493          	li	s1,1
  csrw mie, s1
80000136:	30449073          	csrw	mie,s1
  wfi
8000013a:	10500073          	wfi

8000013e <_hart3>:
_hart3:
  wfi
8000013e:	10500073          	wfi
  // Stage 0
  csrw mie, zero
80000142:	30401073          	csrw	mie,zero
  li s1, 0
80000146:	00000493          	li	s1,0
  li t0, (CLINT_CTRL_ADDR + CLINT_MSIP3)
8000014a:	020002b7          	lui	t0,0x2000
8000014e:	00c28293          	addi	t0,t0,12 # 200000c <_prog_start-0x7dfffff4>
  amoswap.w t1, s1, (t0)
80000152:	0892a32f          	amoswap.w	t1,s1,(t0)
  li sp, 0x40003ff0
80000156:	40004137          	lui	sp,0x40004
8000015a:	ff010113          	addi	sp,sp,-16 # 40003ff0 <_prog_start-0x3fffc010>
  call s0_c3
8000015e:	22a9                	jal	800002a8 <s0_c3>
  li s1, 1
80000160:	00100493          	li	s1,1
  csrw mie, s1 
80000164:	30449073          	csrw	mie,s1
  wfi
80000168:	10500073          	wfi
  // Stage 2
  csrw mie, zero
8000016c:	30401073          	csrw	mie,zero
  li s1, 0
80000170:	00000493          	li	s1,0
  li t0, (CLINT_CTRL_ADDR + CLINT_MSIP3)
80000174:	020002b7          	lui	t0,0x2000
80000178:	00c28293          	addi	t0,t0,12 # 200000c <_prog_start-0x7dfffff4>
  amoswap.w t1, s1, (t0)
8000017c:	0892a32f          	amoswap.w	t1,s1,(t0)
  li sp, 0x40003ff0
80000180:	40004137          	lui	sp,0x40004
80000184:	ff010113          	addi	sp,sp,-16 # 40003ff0 <_prog_start-0x3fffc010>
  call s2_c3
80000188:	2e01                	jal	80000498 <s2_c3>
  li s1, 1
8000018a:	00100493          	li	s1,1
  csrw mie, s1 
8000018e:	30449073          	csrw	mie,s1
  wfi
80000192:	10500073          	wfi

80000196 <_loopback>:
_loopback:
  j _loopback
80000196:	0000006f          	j	80000196 <_loopback>

8000019a <s0_c0>:
void s0_c0() {
  // for (int i = 0; i < HALF; i++)
  //   for (int j = 0; j < HALF; j++)
  //     for (int k = 0; k < HALF; k++)
  //       ae[i*HALF + j] = a[i + k*HALF] + ae[k + j*HALF];
  for (int i = 0; i < LENGTH; i ++)
8000019a:	4501                	li	a0,0
8000019c:	00001e17          	auipc	t3,0x1
800001a0:	880e0e13          	addi	t3,t3,-1920 # 80000a1c <ae>
800001a4:	00001317          	auipc	t1,0x1
800001a8:	88830313          	addi	t1,t1,-1912 # 80000a2c <a>
800001ac:	00001897          	auipc	a7,0x1
800001b0:	86088893          	addi	a7,a7,-1952 # 80000a0c <e>
    for (int j = 0; j < HALF; j++)
800001b4:	02000813          	li	a6,32
  for (int i = 0; i < LENGTH; i ++)
800001b8:	40000e93          	li	t4,1024
    for (int j = 0; j < HALF; j++)
800001bc:	4701                	li	a4,0
      ae[i] += a[j] * e[j];
800001be:	00032783          	lw	a5,0(t1)
800001c2:	0008a603          	lw	a2,0(a7)
800001c6:	000e2683          	lw	a3,0(t3)
800001ca:	97ba                	add	a5,a5,a4
800001cc:	963a                	add	a2,a2,a4
800001ce:	00064583          	lbu	a1,0(a2)
800001d2:	0007c783          	lbu	a5,0(a5)
800001d6:	96aa                	add	a3,a3,a0
800001d8:	0006c603          	lbu	a2,0(a3)
800001dc:	02b787b3          	mul	a5,a5,a1
    for (int j = 0; j < HALF; j++)
800001e0:	0705                	addi	a4,a4,1
      ae[i] += a[j] * e[j];
800001e2:	97b2                	add	a5,a5,a2
800001e4:	00f68023          	sb	a5,0(a3)
    for (int j = 0; j < HALF; j++)
800001e8:	fd071be3          	bne	a4,a6,800001be <s0_c0+0x24>
  for (int i = 0; i < LENGTH; i ++)
800001ec:	0505                	addi	a0,a0,1
800001ee:	fdd517e3          	bne	a0,t4,800001bc <s0_c0+0x22>
}
800001f2:	8082                	ret

800001f4 <s0_c1>:
void s0_c1() {
  // for (int i = 0; i < HALF; i++)
  //   for (int j = 0; j < HALF; j++)
  //     for (int k = 0; k < HALF; k++)
  //       bg[i*HALF + j] += b[i + k*HALF] * g[k + j*HALF];
  for (int i = 0; i < LENGTH; i ++)
800001f4:	4501                	li	a0,0
800001f6:	00001e17          	auipc	t3,0x1
800001fa:	822e0e13          	addi	t3,t3,-2014 # 80000a18 <bg>
800001fe:	00001317          	auipc	t1,0x1
80000202:	82a30313          	addi	t1,t1,-2006 # 80000a28 <b>
80000206:	00000897          	auipc	a7,0x0
8000020a:	7fe88893          	addi	a7,a7,2046 # 80000a04 <g>
    for (int j = 0; j < HALF; j++)
8000020e:	02000813          	li	a6,32
  for (int i = 0; i < LENGTH; i ++)
80000212:	40000e93          	li	t4,1024
    for (int j = 0; j < HALF; j++)
80000216:	4701                	li	a4,0
      bg[i] += b[j] * g[j];
80000218:	00032783          	lw	a5,0(t1)
8000021c:	0008a603          	lw	a2,0(a7)
80000220:	000e2683          	lw	a3,0(t3)
80000224:	97ba                	add	a5,a5,a4
80000226:	963a                	add	a2,a2,a4
80000228:	00064583          	lbu	a1,0(a2)
8000022c:	0007c783          	lbu	a5,0(a5)
80000230:	96aa                	add	a3,a3,a0
80000232:	0006c603          	lbu	a2,0(a3)
80000236:	02b787b3          	mul	a5,a5,a1
    for (int j = 0; j < HALF; j++)
8000023a:	0705                	addi	a4,a4,1
      bg[i] += b[j] * g[j];
8000023c:	97b2                	add	a5,a5,a2
8000023e:	00f68023          	sb	a5,0(a3)
    for (int j = 0; j < HALF; j++)
80000242:	fd071be3          	bne	a4,a6,80000218 <s0_c1+0x24>
  for (int i = 0; i < LENGTH; i ++)
80000246:	0505                	addi	a0,a0,1
80000248:	fdd517e3          	bne	a0,t4,80000216 <s0_c1+0x22>
}
8000024c:	8082                	ret

8000024e <s0_c2>:
void s0_c2() {
  // for (int i = 0; i < HALF; i++)
  //   for (int j = 0; j < HALF; j++)
  //     for (int k = 0; k < HALF; k++)
  //       ce[i*HALF + j] += c[i + k*HALF] * e[k + j*HALF];
  for (int i = 0; i < LENGTH; i ++)
8000024e:	4501                	li	a0,0
80000250:	00000e17          	auipc	t3,0x0
80000254:	7c4e0e13          	addi	t3,t3,1988 # 80000a14 <ce>
80000258:	00000317          	auipc	t1,0x0
8000025c:	7cc30313          	addi	t1,t1,1996 # 80000a24 <c>
80000260:	00000897          	auipc	a7,0x0
80000264:	7ac88893          	addi	a7,a7,1964 # 80000a0c <e>
    for (int j = 0; j < HALF; j++)
80000268:	02000813          	li	a6,32
  for (int i = 0; i < LENGTH; i ++)
8000026c:	40000e93          	li	t4,1024
    for (int j = 0; j < HALF; j++)
80000270:	4701                	li	a4,0
      ce[i] += c[j] * e[j];
80000272:	00032783          	lw	a5,0(t1)
80000276:	0008a603          	lw	a2,0(a7)
8000027a:	000e2683          	lw	a3,0(t3)
8000027e:	97ba                	add	a5,a5,a4
80000280:	963a                	add	a2,a2,a4
80000282:	00064583          	lbu	a1,0(a2)
80000286:	0007c783          	lbu	a5,0(a5)
8000028a:	96aa                	add	a3,a3,a0
8000028c:	0006c603          	lbu	a2,0(a3)
80000290:	02b787b3          	mul	a5,a5,a1
    for (int j = 0; j < HALF; j++)
80000294:	0705                	addi	a4,a4,1
      ce[i] += c[j] * e[j];
80000296:	97b2                	add	a5,a5,a2
80000298:	00f68023          	sb	a5,0(a3)
    for (int j = 0; j < HALF; j++)
8000029c:	fd071be3          	bne	a4,a6,80000272 <s0_c2+0x24>
  for (int i = 0; i < LENGTH; i ++)
800002a0:	0505                	addi	a0,a0,1
800002a2:	fdd517e3          	bne	a0,t4,80000270 <s0_c2+0x22>
}
800002a6:	8082                	ret

800002a8 <s0_c3>:
void s0_c3() {
  // for (int i = 0; i < HALF; i++)
  //   for (int j = 0; j < HALF; j++)
  //     for (int k = 0; k < HALF; k++)
  //       dg[i*HALF + j] += d[i + k*HALF] * g[k + j*HALF];
  for (int i = 0; i < LENGTH; i ++)
800002a8:	4501                	li	a0,0
800002aa:	00000e17          	auipc	t3,0x0
800002ae:	766e0e13          	addi	t3,t3,1894 # 80000a10 <dg>
800002b2:	00000317          	auipc	t1,0x0
800002b6:	76e30313          	addi	t1,t1,1902 # 80000a20 <d>
800002ba:	00000897          	auipc	a7,0x0
800002be:	74a88893          	addi	a7,a7,1866 # 80000a04 <g>
      for (int j = 0; j < HALF; j++)
800002c2:	02000813          	li	a6,32
  for (int i = 0; i < LENGTH; i ++)
800002c6:	40000e93          	li	t4,1024
      for (int j = 0; j < HALF; j++)
800002ca:	4701                	li	a4,0
        dg[i] += d[j] * g[j];      
800002cc:	00032783          	lw	a5,0(t1)
800002d0:	0008a603          	lw	a2,0(a7)
800002d4:	000e2683          	lw	a3,0(t3)
800002d8:	97ba                	add	a5,a5,a4
800002da:	963a                	add	a2,a2,a4
800002dc:	00064583          	lbu	a1,0(a2)
800002e0:	0007c783          	lbu	a5,0(a5)
800002e4:	96aa                	add	a3,a3,a0
800002e6:	0006c603          	lbu	a2,0(a3)
800002ea:	02b787b3          	mul	a5,a5,a1
      for (int j = 0; j < HALF; j++)
800002ee:	0705                	addi	a4,a4,1
        dg[i] += d[j] * g[j];      
800002f0:	97b2                	add	a5,a5,a2
800002f2:	00f68023          	sb	a5,0(a3)
      for (int j = 0; j < HALF; j++)
800002f6:	fd071be3          	bne	a4,a6,800002cc <s0_c3+0x24>
  for (int i = 0; i < LENGTH; i ++)
800002fa:	0505                	addi	a0,a0,1
800002fc:	fdd517e3          	bne	a0,t4,800002ca <s0_c3+0x22>
}
80000300:	8082                	ret

80000302 <s1_c0>:

// ============== Stage 1 ==================================
void s1_c0() {
  for (int i = 0; i < LENGTH; i++)
80000302:	4781                	li	a5,0
80000304:	00000897          	auipc	a7,0x0
80000308:	70888893          	addi	a7,a7,1800 # 80000a0c <e>
8000030c:	00000817          	auipc	a6,0x0
80000310:	71080813          	addi	a6,a6,1808 # 80000a1c <ae>
80000314:	00000517          	auipc	a0,0x0
80000318:	70450513          	addi	a0,a0,1796 # 80000a18 <bg>
8000031c:	40000593          	li	a1,1024
        e[i] = ae[i] + bg[i];
80000320:	00082683          	lw	a3,0(a6)
80000324:	4110                	lw	a2,0(a0)
80000326:	0008a703          	lw	a4,0(a7)
8000032a:	96be                	add	a3,a3,a5
8000032c:	963e                	add	a2,a2,a5
8000032e:	0006c683          	lbu	a3,0(a3)
80000332:	00064603          	lbu	a2,0(a2)
80000336:	973e                	add	a4,a4,a5
  for (int i = 0; i < LENGTH; i++)
80000338:	0785                	addi	a5,a5,1
        e[i] = ae[i] + bg[i];
8000033a:	96b2                	add	a3,a3,a2
8000033c:	00d70023          	sb	a3,0(a4)
  for (int i = 0; i < LENGTH; i++)
80000340:	feb790e3          	bne	a5,a1,80000320 <s1_c0+0x1e>
}
80000344:	8082                	ret

80000346 <s1_c2>:

void s1_c2() {
  for (int i = 0; i < LENGTH; i++)
80000346:	4781                	li	a5,0
80000348:	00000897          	auipc	a7,0x0
8000034c:	6bc88893          	addi	a7,a7,1724 # 80000a04 <g>
80000350:	00000817          	auipc	a6,0x0
80000354:	6c480813          	addi	a6,a6,1732 # 80000a14 <ce>
80000358:	00000517          	auipc	a0,0x0
8000035c:	6b850513          	addi	a0,a0,1720 # 80000a10 <dg>
80000360:	40000593          	li	a1,1024
        g[i] = ce[i] + dg[i];
80000364:	00082683          	lw	a3,0(a6)
80000368:	4110                	lw	a2,0(a0)
8000036a:	0008a703          	lw	a4,0(a7)
8000036e:	96be                	add	a3,a3,a5
80000370:	963e                	add	a2,a2,a5
80000372:	0006c683          	lbu	a3,0(a3)
80000376:	00064603          	lbu	a2,0(a2)
8000037a:	973e                	add	a4,a4,a5
  for (int i = 0; i < LENGTH; i++)
8000037c:	0785                	addi	a5,a5,1
        g[i] = ce[i] + dg[i];
8000037e:	96b2                	add	a3,a3,a2
80000380:	00d70023          	sb	a3,0(a4)
  for (int i = 0; i < LENGTH; i++)
80000384:	feb790e3          	bne	a5,a1,80000364 <s1_c2+0x1e>
}
80000388:	8082                	ret

8000038a <s2_c0>:
void s2_c0() {
  // for (int i = 0; i < HALF; i++)
  //   for (int j = 0; j < HALF; j++)
  //     for (int k = 0; k < HALF; k++)
  //       ae[i*HALF + j] += a[i + k*HALF] * f[k + j*HALF];
  for (int i = 0; i < LENGTH; i ++)
8000038a:	4501                	li	a0,0
8000038c:	00000e17          	auipc	t3,0x0
80000390:	690e0e13          	addi	t3,t3,1680 # 80000a1c <ae>
80000394:	00000317          	auipc	t1,0x0
80000398:	69830313          	addi	t1,t1,1688 # 80000a2c <a>
8000039c:	00000897          	auipc	a7,0x0
800003a0:	66c88893          	addi	a7,a7,1644 # 80000a08 <f>
    for (int j = 0; j < HALF; j++)
800003a4:	02000813          	li	a6,32
  for (int i = 0; i < LENGTH; i ++)
800003a8:	40000e93          	li	t4,1024
    for (int j = 0; j < HALF; j++)
800003ac:	4701                	li	a4,0
      ae[i] += a[j] * f[j];
800003ae:	00032783          	lw	a5,0(t1)
800003b2:	0008a603          	lw	a2,0(a7)
800003b6:	000e2683          	lw	a3,0(t3)
800003ba:	97ba                	add	a5,a5,a4
800003bc:	963a                	add	a2,a2,a4
800003be:	00064583          	lbu	a1,0(a2)
800003c2:	0007c783          	lbu	a5,0(a5)
800003c6:	96aa                	add	a3,a3,a0
800003c8:	0006c603          	lbu	a2,0(a3)
800003cc:	02b787b3          	mul	a5,a5,a1
    for (int j = 0; j < HALF; j++)
800003d0:	0705                	addi	a4,a4,1
      ae[i] += a[j] * f[j];
800003d2:	97b2                	add	a5,a5,a2
800003d4:	00f68023          	sb	a5,0(a3)
    for (int j = 0; j < HALF; j++)
800003d8:	fd071be3          	bne	a4,a6,800003ae <s2_c0+0x24>
  for (int i = 0; i < LENGTH; i ++)
800003dc:	0505                	addi	a0,a0,1
800003de:	fdd517e3          	bne	a0,t4,800003ac <s2_c0+0x22>
}
800003e2:	8082                	ret

800003e4 <s2_c1>:
void s2_c1() {
  // for (int i = 0; i < HALF; i++)
  //   for (int j = 0; j < HALF; j++)
  //     for (int k = 0; k < HALF; k++)
  //       bg[i*HALF + j] += b[i + k*HALF] * h[k + j*HALF];
  for (int i = 0; i < LENGTH; i ++)
800003e4:	4501                	li	a0,0
800003e6:	00000e17          	auipc	t3,0x0
800003ea:	632e0e13          	addi	t3,t3,1586 # 80000a18 <bg>
800003ee:	00000317          	auipc	t1,0x0
800003f2:	63a30313          	addi	t1,t1,1594 # 80000a28 <b>
800003f6:	00000897          	auipc	a7,0x0
800003fa:	60a88893          	addi	a7,a7,1546 # 80000a00 <h>
    for (int j = 0; j < HALF; j++)
800003fe:	02000813          	li	a6,32
  for (int i = 0; i < LENGTH; i ++)
80000402:	40000e93          	li	t4,1024
    for (int j = 0; j < HALF; j++)
80000406:	4701                	li	a4,0
      bg[i] += b[j] * h[j];
80000408:	00032783          	lw	a5,0(t1)
8000040c:	0008a603          	lw	a2,0(a7)
80000410:	000e2683          	lw	a3,0(t3)
80000414:	97ba                	add	a5,a5,a4
80000416:	963a                	add	a2,a2,a4
80000418:	00064583          	lbu	a1,0(a2)
8000041c:	0007c783          	lbu	a5,0(a5)
80000420:	96aa                	add	a3,a3,a0
80000422:	0006c603          	lbu	a2,0(a3)
80000426:	02b787b3          	mul	a5,a5,a1
    for (int j = 0; j < HALF; j++)
8000042a:	0705                	addi	a4,a4,1
      bg[i] += b[j] * h[j];
8000042c:	97b2                	add	a5,a5,a2
8000042e:	00f68023          	sb	a5,0(a3)
    for (int j = 0; j < HALF; j++)
80000432:	fd071be3          	bne	a4,a6,80000408 <s2_c1+0x24>
  for (int i = 0; i < LENGTH; i ++)
80000436:	0505                	addi	a0,a0,1
80000438:	fdd517e3          	bne	a0,t4,80000406 <s2_c1+0x22>
}
8000043c:	8082                	ret

8000043e <s2_c2>:
void s2_c2() {
  // for (int i = 0; i < HALF; i++)
  //   for (int j = 0; j < HALF; j++)
  //     for (int k = 0; k < HALF; k++)
  //       ce[i*HALF + j] += c[i + k*HALF] * f[k + j*HALF];
  for (int i = 0; i < LENGTH; i ++)
8000043e:	4501                	li	a0,0
80000440:	00000e17          	auipc	t3,0x0
80000444:	5d4e0e13          	addi	t3,t3,1492 # 80000a14 <ce>
80000448:	00000317          	auipc	t1,0x0
8000044c:	5dc30313          	addi	t1,t1,1500 # 80000a24 <c>
80000450:	00000897          	auipc	a7,0x0
80000454:	5b888893          	addi	a7,a7,1464 # 80000a08 <f>
    for (int j = 0; j < HALF; j++)
80000458:	02000813          	li	a6,32
  for (int i = 0; i < LENGTH; i ++)
8000045c:	40000e93          	li	t4,1024
    for (int j = 0; j < HALF; j++)
80000460:	4701                	li	a4,0
      ce[i] += c[j] * f[j];
80000462:	00032783          	lw	a5,0(t1)
80000466:	0008a603          	lw	a2,0(a7)
8000046a:	000e2683          	lw	a3,0(t3)
8000046e:	97ba                	add	a5,a5,a4
80000470:	963a                	add	a2,a2,a4
80000472:	00064583          	lbu	a1,0(a2)
80000476:	0007c783          	lbu	a5,0(a5)
8000047a:	96aa                	add	a3,a3,a0
8000047c:	0006c603          	lbu	a2,0(a3)
80000480:	02b787b3          	mul	a5,a5,a1
    for (int j = 0; j < HALF; j++)
80000484:	0705                	addi	a4,a4,1
      ce[i] += c[j] * f[j];
80000486:	97b2                	add	a5,a5,a2
80000488:	00f68023          	sb	a5,0(a3)
    for (int j = 0; j < HALF; j++)
8000048c:	fd071be3          	bne	a4,a6,80000462 <s2_c2+0x24>
  for (int i = 0; i < LENGTH; i ++)
80000490:	0505                	addi	a0,a0,1
80000492:	fdd517e3          	bne	a0,t4,80000460 <s2_c2+0x22>
}
80000496:	8082                	ret

80000498 <s2_c3>:
void s2_c3() {
  // for (int i = 0; i < HALF; i++)
  //   for (int j = 0; j < HALF; j++)
  //     for (int k = 0; k < HALF; k++)
  //       dg[i*HALF + j] += d[i + k*HALF] * h[k + j*HALF];
  for (int i = 0; i < LENGTH; i ++)
80000498:	4501                	li	a0,0
8000049a:	00000e17          	auipc	t3,0x0
8000049e:	576e0e13          	addi	t3,t3,1398 # 80000a10 <dg>
800004a2:	00000317          	auipc	t1,0x0
800004a6:	57e30313          	addi	t1,t1,1406 # 80000a20 <d>
800004aa:	00000897          	auipc	a7,0x0
800004ae:	55688893          	addi	a7,a7,1366 # 80000a00 <h>
    for (int j = 0; j < HALF; j++)
800004b2:	02000813          	li	a6,32
  for (int i = 0; i < LENGTH; i ++)
800004b6:	40000e93          	li	t4,1024
    for (int j = 0; j < HALF; j++)
800004ba:	4701                	li	a4,0
      dg[i] += d[j] * h[j];
800004bc:	00032783          	lw	a5,0(t1)
800004c0:	0008a603          	lw	a2,0(a7)
800004c4:	000e2683          	lw	a3,0(t3)
800004c8:	97ba                	add	a5,a5,a4
800004ca:	963a                	add	a2,a2,a4
800004cc:	00064583          	lbu	a1,0(a2)
800004d0:	0007c783          	lbu	a5,0(a5)
800004d4:	96aa                	add	a3,a3,a0
800004d6:	0006c603          	lbu	a2,0(a3)
800004da:	02b787b3          	mul	a5,a5,a1
    for (int j = 0; j < HALF; j++)
800004de:	0705                	addi	a4,a4,1
      dg[i] += d[j] * h[j];
800004e0:	97b2                	add	a5,a5,a2
800004e2:	00f68023          	sb	a5,0(a3)
    for (int j = 0; j < HALF; j++)
800004e6:	fd071be3          	bne	a4,a6,800004bc <s2_c3+0x24>
  for (int i = 0; i < LENGTH; i ++)
800004ea:	0505                	addi	a0,a0,1
800004ec:	fdd517e3          	bne	a0,t4,800004ba <s2_c3+0x22>
}
800004f0:	8082                	ret

800004f2 <s3_c0>:

// ============== Stage 3 ==================================
void s3_c0() {
  for (int i = 0; i < LENGTH; i++)
800004f2:	4781                	li	a5,0
800004f4:	00000897          	auipc	a7,0x0
800004f8:	51488893          	addi	a7,a7,1300 # 80000a08 <f>
800004fc:	00000817          	auipc	a6,0x0
80000500:	52080813          	addi	a6,a6,1312 # 80000a1c <ae>
80000504:	00000517          	auipc	a0,0x0
80000508:	51450513          	addi	a0,a0,1300 # 80000a18 <bg>
8000050c:	40000593          	li	a1,1024
        f[i] = ae[i] + bg[i];
80000510:	00082683          	lw	a3,0(a6)
80000514:	4110                	lw	a2,0(a0)
80000516:	0008a703          	lw	a4,0(a7)
8000051a:	96be                	add	a3,a3,a5
8000051c:	963e                	add	a2,a2,a5
8000051e:	0006c683          	lbu	a3,0(a3)
80000522:	00064603          	lbu	a2,0(a2)
80000526:	973e                	add	a4,a4,a5
  for (int i = 0; i < LENGTH; i++)
80000528:	0785                	addi	a5,a5,1
        f[i] = ae[i] + bg[i];
8000052a:	96b2                	add	a3,a3,a2
8000052c:	00d70023          	sb	a3,0(a4)
  for (int i = 0; i < LENGTH; i++)
80000530:	feb790e3          	bne	a5,a1,80000510 <s3_c0+0x1e>
}
80000534:	8082                	ret

80000536 <s3_c2>:

void s3_c2() {
  for (int i = 0; i < LENGTH; i++)
80000536:	4781                	li	a5,0
80000538:	00000897          	auipc	a7,0x0
8000053c:	4c888893          	addi	a7,a7,1224 # 80000a00 <h>
80000540:	00000817          	auipc	a6,0x0
80000544:	4d480813          	addi	a6,a6,1236 # 80000a14 <ce>
80000548:	00000517          	auipc	a0,0x0
8000054c:	4c850513          	addi	a0,a0,1224 # 80000a10 <dg>
80000550:	40000593          	li	a1,1024
        h[i] = ce[i] + dg[i];
80000554:	00082683          	lw	a3,0(a6)
80000558:	4110                	lw	a2,0(a0)
8000055a:	0008a703          	lw	a4,0(a7)
8000055e:	96be                	add	a3,a3,a5
80000560:	963e                	add	a2,a2,a5
80000562:	0006c683          	lbu	a3,0(a3)
80000566:	00064603          	lbu	a2,0(a2)
8000056a:	973e                	add	a4,a4,a5
  for (int i = 0; i < LENGTH; i++)
8000056c:	0785                	addi	a5,a5,1
        h[i] = ce[i] + dg[i];
8000056e:	96b2                	add	a3,a3,a2
80000570:	00d70023          	sb	a3,0(a4)
  for (int i = 0; i < LENGTH; i++)
80000574:	feb790e3          	bne	a5,a1,80000554 <s3_c2+0x1e>
}
80000578:	8082                	ret

8000057a <main>:

int main(int argc, char **arv) {
8000057a:	7179                	addi	sp,sp,-48
8000057c:	d422                	sw	s0,40(sp)
8000057e:	cc52                	sw	s4,24(sp)
80000580:	ca56                	sw	s5,20(sp)
80000582:	c85a                	sw	s6,16(sp)
80000584:	c65e                	sw	s7,12(sp)
80000586:	c462                	sw	s8,8(sp)
80000588:	c266                	sw	s9,4(sp)
8000058a:	c06a                	sw	s10,0(sp)
  
  REG32(uart, UART_REG_TXCTRL) = UART_TXEN;
8000058c:	640007b7          	lui	a5,0x64000
int main(int argc, char **arv) {
80000590:	d606                	sw	ra,44(sp)
80000592:	d226                	sw	s1,36(sp)
80000594:	d04a                	sw	s2,32(sp)
80000596:	ce4e                	sw	s3,28(sp)
  REG32(uart, UART_REG_TXCTRL) = UART_TXEN;
80000598:	4705                	li	a4,1
8000059a:	c798                	sw	a4,8(a5)
  //   kprintf("Time spent: %l (cycles)\r\n", t_gap);
  //   kprintf("Error: %l \r\n", error_count);
  // }

//================= Parallel =====================================
  REG32(uart, UART_REG_TXCTRL) = UART_TXEN;
8000059c:	c798                	sw	a4,8(a5)
  uint32_t t_start, t_end;
  uint32_t t_gap;
  uint32_t tl_instr_start, th_instr_start, tl_instr_end, th_instr_end;
  uint32_t error_count = 0;

  for (int i = 0; i < LENGTH; i++) {
8000059e:	00000897          	auipc	a7,0x0
800005a2:	48e88893          	addi	a7,a7,1166 # 80000a2c <a>
800005a6:	4781                	li	a5,0
800005a8:	00000817          	auipc	a6,0x0
800005ac:	48080813          	addi	a6,a6,1152 # 80000a28 <b>
800005b0:	00000517          	auipc	a0,0x0
800005b4:	47450513          	addi	a0,a0,1140 # 80000a24 <c>
800005b8:	00000597          	auipc	a1,0x0
800005bc:	46858593          	addi	a1,a1,1128 # 80000a20 <d>
800005c0:	00000c17          	auipc	s8,0x0
800005c4:	44cc0c13          	addi	s8,s8,1100 # 80000a0c <e>
800005c8:	00000b97          	auipc	s7,0x0
800005cc:	440b8b93          	addi	s7,s7,1088 # 80000a08 <f>
800005d0:	00000b17          	auipc	s6,0x0
800005d4:	434b0b13          	addi	s6,s6,1076 # 80000a04 <g>
800005d8:	00000417          	auipc	s0,0x0
800005dc:	42840413          	addi	s0,s0,1064 # 80000a00 <h>
800005e0:	00000c97          	auipc	s9,0x0
800005e4:	43cc8c93          	addi	s9,s9,1084 # 80000a1c <ae>
800005e8:	00000d17          	auipc	s10,0x0
800005ec:	430d0d13          	addi	s10,s10,1072 # 80000a18 <bg>
800005f0:	00000a17          	auipc	s4,0x0
800005f4:	424a0a13          	addi	s4,s4,1060 # 80000a14 <ce>
800005f8:	00000a97          	auipc	s5,0x0
800005fc:	418a8a93          	addi	s5,s5,1048 # 80000a10 <dg>
80000600:	40000613          	li	a2,1024
    a[i] = i % 256;
80000604:	0008a683          	lw	a3,0(a7)
80000608:	0ff7f713          	zext.b	a4,a5
8000060c:	96be                	add	a3,a3,a5
8000060e:	00e68023          	sb	a4,0(a3)
    b[i] = i % 256;
80000612:	00082683          	lw	a3,0(a6)
80000616:	96be                	add	a3,a3,a5
80000618:	00e68023          	sb	a4,0(a3)
    c[i] = i % 256;
8000061c:	4114                	lw	a3,0(a0)
8000061e:	96be                	add	a3,a3,a5
80000620:	00e68023          	sb	a4,0(a3)
    d[i] = i % 256;
80000624:	4194                	lw	a3,0(a1)
80000626:	96be                	add	a3,a3,a5
80000628:	00e68023          	sb	a4,0(a3)
    e[i] = i % 256;
8000062c:	000c2683          	lw	a3,0(s8)
80000630:	96be                	add	a3,a3,a5
80000632:	00e68023          	sb	a4,0(a3)
    f[i] = i % 256;
80000636:	000ba683          	lw	a3,0(s7)
8000063a:	96be                	add	a3,a3,a5
8000063c:	00e68023          	sb	a4,0(a3)
    g[i] = i % 256;
80000640:	000b2683          	lw	a3,0(s6)
80000644:	96be                	add	a3,a3,a5
80000646:	00e68023          	sb	a4,0(a3)
    h[i] = i % 256;
8000064a:	4014                	lw	a3,0(s0)
8000064c:	96be                	add	a3,a3,a5
8000064e:	00e68023          	sb	a4,0(a3)

    ae[i] = 0;
80000652:	000ca703          	lw	a4,0(s9)
80000656:	973e                	add	a4,a4,a5
80000658:	00070023          	sb	zero,0(a4)
    bg[i] = 0;
8000065c:	000d2703          	lw	a4,0(s10)
80000660:	973e                	add	a4,a4,a5
80000662:	00070023          	sb	zero,0(a4)
    ce[i] = 0;
80000666:	000a2703          	lw	a4,0(s4)
8000066a:	973e                	add	a4,a4,a5
8000066c:	00070023          	sb	zero,0(a4)
    dg[i] = 0;
80000670:	000aa703          	lw	a4,0(s5)
80000674:	973e                	add	a4,a4,a5
80000676:	00070023          	sb	zero,0(a4)
  for (int i = 0; i < LENGTH; i++) {
8000067a:	0785                	addi	a5,a5,1 # 64000001 <_prog_start-0x1bffffff>
8000067c:	f8c794e3          	bne	a5,a2,80000604 <main+0x8a>
  }

    t_start = read_csr(mcycle);
80000680:	b00029f3          	csrr	s3,mcycle
    tl_instr_start = read_csr(instret);
80000684:	c0202973          	rdinstret	s2
    th_instr_start = read_csr(instreth);
80000688:	c82024f3          	rdinstreth	s1
    // Stage 0
    // REG32(clint, CLINT_MSIP1) = CLINT_MSIPEN;
    // REG32(clint, CLINT_MSIP2) = CLINT_MSIPEN;
    // REG32(clint, CLINT_MSIP3) = CLINT_MSIPEN;
    s0_c0();
8000068c:	3639                	jal	8000019a <s0_c0>
    s0_c1();
8000068e:	369d                	jal	800001f4 <s0_c1>
    s0_c2();
80000690:	3e7d                	jal	8000024e <s0_c2>
    s0_c3();
80000692:	3919                	jal	800002a8 <s0_c3>
  for (int i = 0; i < LENGTH; i++)
80000694:	4781                	li	a5,0
80000696:	40000593          	li	a1,1024
        e[i] = ae[i] + bg[i];
8000069a:	000ca683          	lw	a3,0(s9)
8000069e:	000d2603          	lw	a2,0(s10)
800006a2:	000c2703          	lw	a4,0(s8)
800006a6:	96be                	add	a3,a3,a5
800006a8:	963e                	add	a2,a2,a5
800006aa:	0006c683          	lbu	a3,0(a3)
800006ae:	00064603          	lbu	a2,0(a2)
800006b2:	973e                	add	a4,a4,a5
  for (int i = 0; i < LENGTH; i++)
800006b4:	0785                	addi	a5,a5,1
        e[i] = ae[i] + bg[i];
800006b6:	96b2                	add	a3,a3,a2
800006b8:	00d70023          	sb	a3,0(a4)
  for (int i = 0; i < LENGTH; i++)
800006bc:	fcb79fe3          	bne	a5,a1,8000069a <main+0x120>
  for (int i = 0; i < LENGTH; i++)
800006c0:	4781                	li	a5,0
800006c2:	40000593          	li	a1,1024
        g[i] = ce[i] + dg[i];
800006c6:	000a2683          	lw	a3,0(s4)
800006ca:	000aa603          	lw	a2,0(s5)
800006ce:	000b2703          	lw	a4,0(s6)
800006d2:	96be                	add	a3,a3,a5
800006d4:	963e                	add	a2,a2,a5
800006d6:	0006c683          	lbu	a3,0(a3)
800006da:	00064603          	lbu	a2,0(a2)
800006de:	973e                	add	a4,a4,a5
  for (int i = 0; i < LENGTH; i++)
800006e0:	0785                	addi	a5,a5,1
        g[i] = ce[i] + dg[i];
800006e2:	96b2                	add	a3,a3,a2
800006e4:	00d70023          	sb	a3,0(a4)
  for (int i = 0; i < LENGTH; i++)
800006e8:	fcb79fe3          	bne	a5,a1,800006c6 <main+0x14c>

    // Stage 2
    // REG32(clint, CLINT_MSIP1) = CLINT_MSIPEN;
    // REG32(clint, CLINT_MSIP2) = CLINT_MSIPEN;
    // REG32(clint, CLINT_MSIP3) = CLINT_MSIPEN;
    s2_c0();
800006ec:	3979                	jal	8000038a <s2_c0>
    s0_c1();
800006ee:	3619                	jal	800001f4 <s0_c1>
    s0_c2();
800006f0:	3eb9                	jal	8000024e <s0_c2>
    s0_c3();
800006f2:	3e5d                	jal	800002a8 <s0_c3>
  for (int i = 0; i < LENGTH; i++)
800006f4:	4781                	li	a5,0
800006f6:	40000593          	li	a1,1024
        f[i] = ae[i] + bg[i];
800006fa:	000ca683          	lw	a3,0(s9)
800006fe:	000d2603          	lw	a2,0(s10)
80000702:	000ba703          	lw	a4,0(s7)
80000706:	96be                	add	a3,a3,a5
80000708:	963e                	add	a2,a2,a5
8000070a:	0006c683          	lbu	a3,0(a3)
8000070e:	00064603          	lbu	a2,0(a2)
80000712:	973e                	add	a4,a4,a5
  for (int i = 0; i < LENGTH; i++)
80000714:	0785                	addi	a5,a5,1
        f[i] = ae[i] + bg[i];
80000716:	96b2                	add	a3,a3,a2
80000718:	00d70023          	sb	a3,0(a4)
  for (int i = 0; i < LENGTH; i++)
8000071c:	fcb79fe3          	bne	a5,a1,800006fa <main+0x180>
  for (int i = 0; i < LENGTH; i++)
80000720:	4781                	li	a5,0
80000722:	40000593          	li	a1,1024
        h[i] = ce[i] + dg[i];
80000726:	000a2683          	lw	a3,0(s4)
8000072a:	000aa603          	lw	a2,0(s5)
8000072e:	4018                	lw	a4,0(s0)
80000730:	96be                	add	a3,a3,a5
80000732:	963e                	add	a2,a2,a5
80000734:	0006c683          	lbu	a3,0(a3)
80000738:	00064603          	lbu	a2,0(a2)
8000073c:	973e                	add	a4,a4,a5
  for (int i = 0; i < LENGTH; i++)
8000073e:	0785                	addi	a5,a5,1
        h[i] = ce[i] + dg[i];
80000740:	96b2                	add	a3,a3,a2
80000742:	00d70023          	sb	a3,0(a4)
  for (int i = 0; i < LENGTH; i++)
80000746:	feb790e3          	bne	a5,a1,80000726 <main+0x1ac>

    // Stage 3
    // REG32(clint, CLINT_MSIP2) = CLINT_MSIPEN;
    s3_c0();
    s3_c2();
    t_end = read_csr(mcycle);
8000074a:	b00025f3          	csrr	a1,mcycle
    tl_instr_end = read_csr(instret);
8000074e:	c0202af3          	rdinstret	s5
    th_instr_end = read_csr(instreth);
80000752:	c8202a73          	rdinstreth	s4

    for (int i = 0; i < LENGTH; i = i + 1) {
        if (e[i] == 0) error_count++;
80000756:	000c2e83          	lw	t4,0(s8)
        if (f[i] == 0) error_count++;
8000075a:	000bae03          	lw	t3,0(s7)
        if (g[i] == 0) error_count++;
8000075e:	000b2303          	lw	t1,0(s6)
        if (h[i] == 0) error_count++;
80000762:	00042883          	lw	a7,0(s0)
    for (int i = 0; i < LENGTH; i = i + 1) {
80000766:	4781                	li	a5,0
  uint32_t error_count = 0;
80000768:	4401                	li	s0,0
    for (int i = 0; i < LENGTH; i = i + 1) {
8000076a:	40000813          	li	a6,1024
        if (e[i] == 0) error_count++;
8000076e:	00fe86b3          	add	a3,t4,a5
        if (f[i] == 0) error_count++;
80000772:	00fe0733          	add	a4,t3,a5
        if (e[i] == 0) error_count++;
80000776:	0006c503          	lbu	a0,0(a3)
        if (f[i] == 0) error_count++;
8000077a:	00074603          	lbu	a2,0(a4)
        if (g[i] == 0) error_count++;
8000077e:	00f306b3          	add	a3,t1,a5
        if (h[i] == 0) error_count++;
80000782:	00f88733          	add	a4,a7,a5
        if (g[i] == 0) error_count++;
80000786:	0006c683          	lbu	a3,0(a3)
        if (h[i] == 0) error_count++;
8000078a:	00074703          	lbu	a4,0(a4)
        if (e[i] == 0) error_count++;
8000078e:	00153513          	seqz	a0,a0
80000792:	942a                	add	s0,s0,a0
        if (f[i] == 0) error_count++;
80000794:	00163613          	seqz	a2,a2
80000798:	9432                	add	s0,s0,a2
        if (g[i] == 0) error_count++;
8000079a:	0016b693          	seqz	a3,a3
8000079e:	9436                	add	s0,s0,a3
        if (h[i] == 0) error_count++;
800007a0:	00173713          	seqz	a4,a4
    for (int i = 0; i < LENGTH; i = i + 1) {
800007a4:	0785                	addi	a5,a5,1
        if (h[i] == 0) error_count++;
800007a6:	943a                	add	s0,s0,a4
    for (int i = 0; i < LENGTH; i = i + 1) {
800007a8:	fd0793e3          	bne	a5,a6,8000076e <main+0x1f4>
    }
    
    t_gap = t_end - t_start;

    kprintf("Time spent: %l (cycles)\r\n", t_gap);
800007ac:	413585b3          	sub	a1,a1,s3
800007b0:	00000517          	auipc	a0,0x0
800007b4:	28050513          	addi	a0,a0,640 # 80000a30 <a+0x4>
800007b8:	2041                	jal	80000838 <kprintf>
    kprintf("Cycle start: %x %x (cycles)\r\n", th_instr_start, tl_instr_start);
800007ba:	864a                	mv	a2,s2
800007bc:	85a6                	mv	a1,s1
800007be:	00000517          	auipc	a0,0x0
800007c2:	28e50513          	addi	a0,a0,654 # 80000a4c <a+0x20>
800007c6:	288d                	jal	80000838 <kprintf>
    kprintf("Cycle end: %x %x (cycles)\r\n", th_instr_end, tl_instr_end);
800007c8:	8656                	mv	a2,s5
800007ca:	85d2                	mv	a1,s4
800007cc:	00000517          	auipc	a0,0x0
800007d0:	2a050513          	addi	a0,a0,672 # 80000a6c <a+0x40>
800007d4:	2095                	jal	80000838 <kprintf>
    kprintf("Error: %l \r\n", error_count);
800007d6:	85a2                	mv	a1,s0
800007d8:	00000517          	auipc	a0,0x0
800007dc:	2b050513          	addi	a0,a0,688 # 80000a88 <a+0x5c>
800007e0:	28a1                	jal	80000838 <kprintf>

  return 0;
}
800007e2:	50b2                	lw	ra,44(sp)
800007e4:	5422                	lw	s0,40(sp)
800007e6:	5492                	lw	s1,36(sp)
800007e8:	5902                	lw	s2,32(sp)
800007ea:	49f2                	lw	s3,28(sp)
800007ec:	4a62                	lw	s4,24(sp)
800007ee:	4ad2                	lw	s5,20(sp)
800007f0:	4b42                	lw	s6,16(sp)
800007f2:	4bb2                	lw	s7,12(sp)
800007f4:	4c22                	lw	s8,8(sp)
800007f6:	4c92                	lw	s9,4(sp)
800007f8:	4d02                	lw	s10,0(sp)
800007fa:	4501                	li	a0,0
800007fc:	6145                	addi	sp,sp,48
800007fe:	8082                	ret

80000800 <kputs>:
#include "kprintf.h"

static inline void _kputs(const char *s)
{
	char c;
	for (; (c = *s) != '\0'; s++)
80000800:	00054703          	lbu	a4,0(a0)
80000804:	cb19                	beqz	a4,8000081a <kputs+0x1a>
{
	volatile uint32_t *tx = &REG32(uart, UART_REG_TXFIFO);
#ifdef __riscv_atomic
	int32_t r;
	do {
		__asm__ __volatile__ (
80000806:	640007b7          	lui	a5,0x64000
8000080a:	40e7a6af          	amoor.w	a3,a4,(a5)
			"amoor.w %0, %2, %1\n"
			: "=r" (r), "+A" (*tx)
			: "r" (c));
	} while (r < 0);
8000080e:	fe06cee3          	bltz	a3,8000080a <kputs+0xa>
80000812:	00154703          	lbu	a4,1(a0)
80000816:	0505                	addi	a0,a0,1
80000818:	fb6d                	bnez	a4,8000080a <kputs+0xa>
		__asm__ __volatile__ (
8000081a:	640007b7          	lui	a5,0x64000
8000081e:	4735                	li	a4,13
80000820:	40e7a6af          	amoor.w	a3,a4,(a5)
	} while (r < 0);
80000824:	fe06cee3          	bltz	a3,80000820 <kputs+0x20>
		__asm__ __volatile__ (
80000828:	640007b7          	lui	a5,0x64000
8000082c:	4729                	li	a4,10
8000082e:	40e7a6af          	amoor.w	a3,a4,(a5)
	} while (r < 0);
80000832:	fe06cee3          	bltz	a3,8000082e <kputs+0x2e>
void kputs(const char *s)
{
	_kputs(s);
	kputc('\r');
	kputc('\n');
}
80000836:	8082                	ret

80000838 <kprintf>:

void kprintf(const char *fmt, ...)
{
80000838:	7159                	addi	sp,sp,-112

	va_start(vl, fmt);
	is_format = false;
	is_long = false;
	is_char = false;
	while ((c = *fmt++) != '\0') {
8000083a:	00054303          	lbu	t1,0(a0)
{
8000083e:	d2be                	sw	a5,100(sp)
	va_start(vl, fmt);
80000840:	08dc                	addi	a5,sp,84
{
80000842:	caae                	sw	a1,84(sp)
80000844:	ccb2                	sw	a2,88(sp)
80000846:	ceb6                	sw	a3,92(sp)
80000848:	d0ba                	sw	a4,96(sp)
8000084a:	d4c2                	sw	a6,104(sp)
8000084c:	d6c6                	sw	a7,108(sp)
	va_start(vl, fmt);
8000084e:	c63e                	sw	a5,12(sp)
	while ((c = *fmt++) != '\0') {
80000850:	04030d63          	beqz	t1,800008aa <kprintf+0x72>
80000854:	0505                	addi	a0,a0,1
80000856:	4701                	li	a4,0
80000858:	4681                	li	a3,0
				break;
			}
			is_format = false;
			is_long = false;
			is_char = false;
		} else if (c == '%') {
8000085a:	02500e13          	li	t3,37
		__asm__ __volatile__ (
8000085e:	640005b7          	lui	a1,0x64000
			switch (c) {
80000862:	48d5                	li	a7,21
80000864:	00000817          	auipc	a6,0x0
80000868:	23480813          	addi	a6,a6,564 # 80000a98 <a+0x6c>
		if (is_format) {
8000086c:	c6f5                	beqz	a3,80000958 <kprintf+0x120>
			switch (c) {
8000086e:	f9d30313          	addi	t1,t1,-99
80000872:	0ff37313          	zext.b	t1,t1
80000876:	0268e363          	bltu	a7,t1,8000089c <kprintf+0x64>
8000087a:	00231793          	slli	a5,t1,0x2
8000087e:	97c2                	add	a5,a5,a6
80000880:	439c                	lw	a5,0(a5)
80000882:	97c2                	add	a5,a5,a6
80000884:	8782                	jr	a5
				kputc(va_arg(vl, int));
80000886:	46b2                	lw	a3,12(sp)
80000888:	640007b7          	lui	a5,0x64000
8000088c:	0006c703          	lbu	a4,0(a3)
80000890:	0691                	addi	a3,a3,4
80000892:	c636                	sw	a3,12(sp)
80000894:	40e7a6af          	amoor.w	a3,a4,(a5)
	} while (r < 0);
80000898:	fe06cee3          	bltz	a3,80000894 <kprintf+0x5c>
			is_char = false;
8000089c:	4701                	li	a4,0
			is_format = false;
8000089e:	4681                	li	a3,0
	while ((c = *fmt++) != '\0') {
800008a0:	00054303          	lbu	t1,0(a0)
800008a4:	0505                	addi	a0,a0,1
800008a6:	fc0313e3          	bnez	t1,8000086c <kprintf+0x34>
		} else {
			kputc(c);
		}
	}
	va_end(vl);
}
800008aa:	6165                	addi	sp,sp,112
800008ac:	8082                	ret
					n = va_arg(vl, unsigned int);
800008ae:	47b2                	lw	a5,12(sp)
					i = is_char ? 4 : (sizeof(unsigned int) << 3) - 4;
800008b0:	00e03633          	snez	a2,a4
800008b4:	40c00633          	neg	a2,a2
					n = va_arg(vl, unsigned int);
800008b8:	0007af83          	lw	t6,0(a5) # 64000000 <_prog_start-0x1c000000>
					i = is_char ? 4 : (sizeof(unsigned int) << 3) - 4;
800008bc:	9a21                	andi	a2,a2,-24
					n = va_arg(vl, unsigned int);
800008be:	0791                	addi	a5,a5,4
800008c0:	c63e                	sw	a5,12(sp)
					i = is_char ? 4 : (sizeof(unsigned int) << 3) - 4;
800008c2:	0671                	addi	a2,a2,28
					kputc(d < 10 ? '0' + d : 'a' + d - 10);
800008c4:	4f25                	li	t5,9
		__asm__ __volatile__ (
800008c6:	640007b7          	lui	a5,0x64000
				for (; i >= 0; i -= 4) {
800008ca:	5ef1                	li	t4,-4
					d = (n >> i) & 0xF;
800008cc:	00cfd733          	srl	a4,t6,a2
					kputc(d < 10 ? '0' + d : 'a' + d - 10);
800008d0:	00f77313          	andi	t1,a4,15
800008d4:	05730713          	addi	a4,t1,87
800008d8:	006f6463          	bltu	t5,t1,800008e0 <kprintf+0xa8>
800008dc:	03030713          	addi	a4,t1,48
800008e0:	40e7a6af          	amoor.w	a3,a4,(a5)
	} while (r < 0);
800008e4:	fe06cee3          	bltz	a3,800008e0 <kprintf+0xa8>
				for (; i >= 0; i -= 4) {
800008e8:	1671                	addi	a2,a2,-4
800008ea:	ffd611e3          	bne	a2,t4,800008cc <kprintf+0x94>
800008ee:	b77d                	j	8000089c <kprintf+0x64>
				_kputs(va_arg(vl, const char *));
800008f0:	47b2                	lw	a5,12(sp)
800008f2:	4390                	lw	a2,0(a5)
800008f4:	0791                	addi	a5,a5,4 # 64000004 <_prog_start-0x1bfffffc>
800008f6:	c63e                	sw	a5,12(sp)
	for (; (c = *s) != '\0'; s++)
800008f8:	00064703          	lbu	a4,0(a2)
800008fc:	d345                	beqz	a4,8000089c <kprintf+0x64>
		__asm__ __volatile__ (
800008fe:	640007b7          	lui	a5,0x64000
80000902:	40e7a6af          	amoor.w	a3,a4,(a5)
	} while (r < 0);
80000906:	fe06cee3          	bltz	a3,80000902 <kprintf+0xca>
8000090a:	00164703          	lbu	a4,1(a2)
8000090e:	0605                	addi	a2,a2,1
80000910:	fb6d                	bnez	a4,80000902 <kprintf+0xca>
80000912:	b769                	j	8000089c <kprintf+0x64>
				n = va_arg(vl, unsigned long);
80000914:	47b2                	lw	a5,12(sp)
				for (int i = 0; i < 64; i ++) c[i] = 0;
80000916:	c802                	sw	zero,16(sp)
80000918:	ca02                	sw	zero,20(sp)
				n = va_arg(vl, unsigned long);
8000091a:	0007a303          	lw	t1,0(a5) # 64000000 <_prog_start-0x1c000000>
8000091e:	0791                	addi	a5,a5,4
80000920:	c63e                	sw	a5,12(sp)
				for (int i = 0; i < 64; i ++) c[i] = 0;
80000922:	cc02                	sw	zero,24(sp)
80000924:	ce02                	sw	zero,28(sp)
80000926:	d002                	sw	zero,32(sp)
80000928:	d202                	sw	zero,36(sp)
8000092a:	d402                	sw	zero,40(sp)
8000092c:	d602                	sw	zero,44(sp)
8000092e:	d802                	sw	zero,48(sp)
80000930:	da02                	sw	zero,52(sp)
80000932:	dc02                	sw	zero,56(sp)
80000934:	de02                	sw	zero,60(sp)
80000936:	c082                	sw	zero,64(sp)
80000938:	c282                	sw	zero,68(sp)
8000093a:	c482                	sw	zero,72(sp)
8000093c:	c682                	sw	zero,76(sp)
				if (n == 0) {
8000093e:	02031a63          	bnez	t1,80000972 <kprintf+0x13a>
		__asm__ __volatile__ (
80000942:	640007b7          	lui	a5,0x64000
80000946:	03000713          	li	a4,48
8000094a:	40e7a6af          	amoor.w	a3,a4,(a5)
	} while (r < 0);
8000094e:	fe06cee3          	bltz	a3,8000094a <kprintf+0x112>
80000952:	b7a9                	j	8000089c <kprintf+0x64>
				is_char = true;
80000954:	8736                	mv	a4,a3
80000956:	b7a9                	j	800008a0 <kprintf+0x68>
		} else if (c == '%') {
80000958:	01c31463          	bne	t1,t3,80000960 <kprintf+0x128>
			is_format = true;
8000095c:	4685                	li	a3,1
8000095e:	b789                	j	800008a0 <kprintf+0x68>
		__asm__ __volatile__ (
80000960:	4065a7af          	amoor.w	a5,t1,(a1)
	} while (r < 0);
80000964:	f207dee3          	bgez	a5,800008a0 <kprintf+0x68>
		__asm__ __volatile__ (
80000968:	4065a7af          	amoor.w	a5,t1,(a1)
	} while (r < 0);
8000096c:	fe07cae3          	bltz	a5,80000960 <kprintf+0x128>
80000970:	bf05                	j	800008a0 <kprintf+0x68>
80000972:	0810                	addi	a2,sp,16
					c[0] = '0' + (n%10);
80000974:	4ea9                	li	t4,10
				for (;n != 0;) {
80000976:	4f25                	li	t5,9
					for (int i = 63; i > 0; i--) c[i] = c[i-1];
80000978:	04e10793          	addi	a5,sp,78
8000097c:	0007c683          	lbu	a3,0(a5) # 64000000 <_prog_start-0x1c000000>
80000980:	873e                	mv	a4,a5
80000982:	17fd                	addi	a5,a5,-1
80000984:	00d78123          	sb	a3,2(a5)
80000988:	fee61ae3          	bne	a2,a4,8000097c <kprintf+0x144>
					c[0] = '0' + (n%10);
8000098c:	03d37733          	remu	a4,t1,t4
80000990:	03070713          	addi	a4,a4,48
80000994:	00e10823          	sb	a4,16(sp)
					n = n / 10;
80000998:	03d357b3          	divu	a5,t1,t4
				for (;n != 0;) {
8000099c:	006f7463          	bgeu	t5,t1,800009a4 <kprintf+0x16c>
					n = n / 10;
800009a0:	833e                	mv	t1,a5
800009a2:	bfd9                	j	80000978 <kprintf+0x140>
800009a4:	01110613          	addi	a2,sp,17
		__asm__ __volatile__ (
800009a8:	640007b7          	lui	a5,0x64000
800009ac:	40e7a6af          	amoor.w	a3,a4,(a5)
	} while (r < 0);
800009b0:	fe06cee3          	bltz	a3,800009ac <kprintf+0x174>
				for (int i = 0; c[i] != 0; i++) kputc(c[i]);
800009b4:	00064703          	lbu	a4,0(a2)
800009b8:	0605                	addi	a2,a2,1
800009ba:	fb6d                	bnez	a4,800009ac <kprintf+0x174>
800009bc:	b5c5                	j	8000089c <kprintf+0x64>
	...

Disassembly of section .sdata:

80000a00 <h>:
uint8_t *h = (uint8_t *)0x80008000;
80000a00:	8000                	.2byte	0x8000
80000a02:	8000                	.2byte	0x8000

80000a04 <g>:
uint8_t *g = (uint8_t *)0x80007000;
80000a04:	7000                	.2byte	0x7000
80000a06:	8000                	.2byte	0x8000

80000a08 <f>:
uint8_t *f = (uint8_t *)0x80006000;
80000a08:	6000                	.2byte	0x6000
80000a0a:	8000                	.2byte	0x8000

80000a0c <e>:
uint8_t *e = (uint8_t *)0x80005000;
80000a0c:	5000                	lw	s0,32(s0)
80000a0e:	8000                	.2byte	0x8000

80000a10 <dg>:
uint8_t *dg = (uint8_t *)0x40003400;
80000a10:	3400                	.2byte	0x3400
80000a12:	4000                	lw	s0,0(s0)

80000a14 <ce>:
uint8_t *ce = (uint8_t *)0x40002400;
80000a14:	2400                	.2byte	0x2400
80000a16:	4000                	lw	s0,0(s0)

80000a18 <bg>:
uint8_t *bg = (uint8_t *)0x40001400;
80000a18:	1400                	addi	s0,sp,544
80000a1a:	4000                	lw	s0,0(s0)

80000a1c <ae>:
uint8_t *ae = (uint8_t *)0x40000400;
80000a1c:	0400                	addi	s0,sp,512
80000a1e:	4000                	lw	s0,0(s0)

80000a20 <d>:
uint8_t *d = (uint8_t *)0x40003000;
80000a20:	3000                	.2byte	0x3000
80000a22:	4000                	lw	s0,0(s0)

80000a24 <c>:
uint8_t *c = (uint8_t *)0x40002000;
80000a24:	2000                	.2byte	0x2000
80000a26:	4000                	lw	s0,0(s0)

80000a28 <b>:
uint8_t *b = (uint8_t *)0x40001000;
80000a28:	1000                	addi	s0,sp,32
80000a2a:	4000                	lw	s0,0(s0)

80000a2c <a>:
uint8_t *a = (uint8_t *)0x40000000;
80000a2c:	0000                	unimp
80000a2e:	4000                	lw	s0,0(s0)

Disassembly of section .rodata:

80000a30 <.rodata>:
80000a30:	6954                	.2byte	0x6954
80000a32:	656d                	lui	a0,0x1b
80000a34:	7320                	.2byte	0x7320
80000a36:	6570                	.2byte	0x6570
80000a38:	746e                	.2byte	0x746e
80000a3a:	203a                	.2byte	0x203a
80000a3c:	6c25                	lui	s8,0x9
80000a3e:	2820                	.2byte	0x2820
80000a40:	6c637963          	bgeu	t1,t1,80001112 <a+0x6e6>
80000a44:	7365                	lui	t1,0xffff9
80000a46:	0d29                	addi	s10,s10,10
80000a48:	000a                	c.slli	zero,0x2
80000a4a:	0000                	unimp
80000a4c:	6c637943          	.4byte	0x6c637943
80000a50:	2065                	jal	80000af8 <a+0xcc>
80000a52:	72617473          	csrrci	s0,mhpmevent6h,2
80000a56:	3a74                	.2byte	0x3a74
80000a58:	2520                	.2byte	0x2520
80000a5a:	2078                	.2byte	0x2078
80000a5c:	7825                	lui	a6,0xfffe9
80000a5e:	2820                	.2byte	0x2820
80000a60:	6c637963          	bgeu	t1,t1,80001132 <a+0x706>
80000a64:	7365                	lui	t1,0xffff9
80000a66:	0d29                	addi	s10,s10,10
80000a68:	000a                	c.slli	zero,0x2
80000a6a:	0000                	unimp
80000a6c:	6c637943          	.4byte	0x6c637943
80000a70:	2065                	jal	80000b18 <a+0xec>
80000a72:	6e65                	lui	t3,0x19
80000a74:	3a64                	.2byte	0x3a64
80000a76:	2520                	.2byte	0x2520
80000a78:	2078                	.2byte	0x2078
80000a7a:	7825                	lui	a6,0xfffe9
80000a7c:	2820                	.2byte	0x2820
80000a7e:	6c637963          	bgeu	t1,t1,80001150 <a+0x724>
80000a82:	7365                	lui	t1,0xffff9
80000a84:	0d29                	addi	s10,s10,10
80000a86:	000a                	c.slli	zero,0x2
80000a88:	7245                	lui	tp,0xffff1
80000a8a:	6f72                	.2byte	0x6f72
80000a8c:	3a72                	.2byte	0x3a72
80000a8e:	2520                	.2byte	0x2520
80000a90:	206c                	.2byte	0x206c
80000a92:	0a0d                	addi	s4,s4,3
80000a94:	0000                	unimp
80000a96:	0000                	unimp
80000a98:	fdee                	.2byte	0xfdee
80000a9a:	ffff                	.2byte	0xffff
80000a9c:	fe04                	.2byte	0xfe04
80000a9e:	ffff                	.2byte	0xffff
80000aa0:	fe04                	.2byte	0xfe04
80000aa2:	ffff                	.2byte	0xffff
80000aa4:	fe04                	.2byte	0xfe04
80000aa6:	ffff                	.2byte	0xffff
80000aa8:	fe04                	.2byte	0xfe04
80000aaa:	ffff                	.2byte	0xffff
80000aac:	febc                	.2byte	0xfebc
80000aae:	ffff                	.2byte	0xffff
80000ab0:	fe04                	.2byte	0xfe04
80000ab2:	ffff                	.2byte	0xffff
80000ab4:	fe04                	.2byte	0xfe04
80000ab6:	ffff                	.2byte	0xffff
80000ab8:	fe04                	.2byte	0xfe04
80000aba:	ffff                	.2byte	0xffff
80000abc:	fe7c                	.2byte	0xfe7c
80000abe:	ffff                	.2byte	0xffff
80000ac0:	fe04                	.2byte	0xfe04
80000ac2:	ffff                	.2byte	0xffff
80000ac4:	fe04                	.2byte	0xfe04
80000ac6:	ffff                	.2byte	0xffff
80000ac8:	fe04                	.2byte	0xfe04
80000aca:	ffff                	.2byte	0xffff
80000acc:	fe04                	.2byte	0xfe04
80000ace:	ffff                	.2byte	0xffff
80000ad0:	fe04                	.2byte	0xfe04
80000ad2:	ffff                	.2byte	0xffff
80000ad4:	fe04                	.2byte	0xfe04
80000ad6:	ffff                	.2byte	0xffff
80000ad8:	fe58                	.2byte	0xfe58
80000ada:	ffff                	.2byte	0xffff
80000adc:	fe04                	.2byte	0xfe04
80000ade:	ffff                	.2byte	0xffff
80000ae0:	fe04                	.2byte	0xfe04
80000ae2:	ffff                	.2byte	0xffff
80000ae4:	fe04                	.2byte	0xfe04
80000ae6:	ffff                	.2byte	0xffff
80000ae8:	fe04                	.2byte	0xfe04
80000aea:	ffff                	.2byte	0xffff
80000aec:	fe16                	.2byte	0xfe16
80000aee:	ffff                	.2byte	0xffff

Disassembly of section .riscv.attributes:

00000000 <.riscv.attributes>:
   0:	2e41                	jal	390 <_prog_start-0x7ffffc70>
   2:	0000                	unimp
   4:	7200                	.2byte	0x7200
   6:	7369                	lui	t1,0xffffa
   8:	01007663          	bgeu	zero,a6,14 <_prog_start-0x7fffffec>
   c:	0024                	addi	s1,sp,8
   e:	0000                	unimp
  10:	1004                	addi	s1,sp,32
  12:	7205                	lui	tp,0xfffe1
  14:	3376                	.2byte	0x3376
  16:	6932                	.2byte	0x6932
  18:	7032                	.2byte	0x7032
  1a:	5f30                	lw	a2,120(a4)
  1c:	326d                	jal	fffff9c6 <a+0x7fffef9a>
  1e:	3070                	.2byte	0x3070
  20:	615f 7032 5f30      	.byte	0x5f, 0x61, 0x32, 0x70, 0x30, 0x5f
  26:	30703263          	.4byte	0x30703263
  2a:	0800                	addi	s0,sp,16
  2c:	0a01                	addi	s4,s4,0
  2e:	0b              	Address 0x000000000000002e is out of bounds.


Disassembly of section .comment:

00000000 <.comment>:
   0:	3a434347          	.4byte	0x3a434347
   4:	2820                	.2byte	0x2820
   6:	65653267          	.4byte	0x65653267
   a:	6535                	lui	a0,0xd
   c:	3334                	.2byte	0x3334
   e:	3030                	.2byte	0x3030
  10:	3831                	jal	fffff82c <a+0x7fffee00>
  12:	2029                	jal	1c <_prog_start-0x7fffffe4>
  14:	3231                	jal	fffff920 <a+0x7fffeef4>
  16:	322e                	.2byte	0x322e
  18:	302e                	.2byte	0x302e
	...

Disassembly of section .debug_line:

00000000 <.debug_line>:
       0:	0258                	addi	a4,sp,260
       2:	0000                	unimp
       4:	0005                	c.nop	1
       6:	0004                	.2byte	0x4
       8:	002a                	c.slli	zero,0xa
       a:	0000                	unimp
       c:	0101                	addi	sp,sp,0
       e:	fb01                	bnez	a4,ffffff1e <a+0x7ffff4f2>
      10:	0d0e                	slli	s10,s10,0x3
      12:	0100                	addi	s0,sp,128
      14:	0101                	addi	sp,sp,0
      16:	0001                	nop
      18:	0000                	unimp
      1a:	0001                	nop
      1c:	0100                	addi	s0,sp,128
      1e:	0101                	addi	sp,sp,0
      20:	011f 0000 0000      	.byte	0x1f, 0x01, 0x00, 0x00, 0x00, 0x00
      26:	0102                	c.slli64	sp
      28:	021f 020f 0040      	.byte	0x1f, 0x02, 0x0f, 0x02, 0x40, 0x00
      2e:	0000                	unimp
      30:	4000                	lw	s0,0(s0)
      32:	0000                	unimp
      34:	0000                	unimp
      36:	0500                	addi	s0,sp,640
      38:	0002                	c.slli64	zero
      3a:	0000                	unimp
      3c:	0380                	addi	s0,sp,448
      3e:	010c                	addi	a1,sp,128
      40:	04090103          	lb	sp,64(s2)
      44:	0100                	addi	s0,sp,128
      46:	04090103          	lb	sp,64(s2)
      4a:	0100                	addi	s0,sp,128
      4c:	04090103          	lb	sp,64(s2)
      50:	0100                	addi	s0,sp,128
      52:	04090103          	lb	sp,64(s2)
      56:	0100                	addi	s0,sp,128
      58:	04090103          	lb	sp,64(s2)
      5c:	0100                	addi	s0,sp,128
      5e:	04090103          	lb	sp,64(s2)
      62:	0100                	addi	s0,sp,128
      64:	04090103          	lb	sp,64(s2)
      68:	0100                	addi	s0,sp,128
      6a:	04090103          	lb	sp,64(s2)
      6e:	0100                	addi	s0,sp,128
      70:	04090103          	lb	sp,64(s2)
      74:	0100                	addi	s0,sp,128
      76:	04090203          	lb	tp,64(s2)
      7a:	0100                	addi	s0,sp,128
      7c:	04090203          	lb	tp,64(s2)
      80:	0100                	addi	s0,sp,128
      82:	08090103          	lb	sp,128(s2)
      86:	0100                	addi	s0,sp,128
      88:	02090103          	lb	sp,32(s2)
      8c:	0100                	addi	s0,sp,128
      8e:	04090203          	lb	tp,64(s2)
      92:	0100                	addi	s0,sp,128
      94:	04090203          	lb	tp,64(s2)
      98:	0100                	addi	s0,sp,128
      9a:	04090103          	lb	sp,64(s2)
      9e:	0100                	addi	s0,sp,128
      a0:	04090103          	lb	sp,64(s2)
      a4:	0100                	addi	s0,sp,128
      a6:	08090103          	lb	sp,128(s2)
      aa:	0100                	addi	s0,sp,128
      ac:	04090103          	lb	sp,64(s2)
      b0:	0100                	addi	s0,sp,128
      b2:	08090103          	lb	sp,128(s2)
      b6:	0100                	addi	s0,sp,128
      b8:	02090103          	lb	sp,32(s2)
      bc:	0100                	addi	s0,sp,128
      be:	04090103          	lb	sp,64(s2)
      c2:	0100                	addi	s0,sp,128
      c4:	04090103          	lb	sp,64(s2)
      c8:	0100                	addi	s0,sp,128
      ca:	04090203          	lb	tp,64(s2)
      ce:	0100                	addi	s0,sp,128
      d0:	04090103          	lb	sp,64(s2)
      d4:	0100                	addi	s0,sp,128
      d6:	04090103          	lb	sp,64(s2)
      da:	0100                	addi	s0,sp,128
      dc:	08090103          	lb	sp,128(s2)
      e0:	0100                	addi	s0,sp,128
      e2:	04090103          	lb	sp,64(s2)
      e6:	0100                	addi	s0,sp,128
      e8:	08090103          	lb	sp,128(s2)
      ec:	0100                	addi	s0,sp,128
      ee:	02090103          	lb	sp,32(s2)
      f2:	0100                	addi	s0,sp,128
      f4:	04090103          	lb	sp,64(s2)
      f8:	0100                	addi	s0,sp,128
      fa:	04090103          	lb	sp,64(s2)
      fe:	0100                	addi	s0,sp,128
     100:	04090203          	lb	tp,64(s2)
     104:	0100                	addi	s0,sp,128
     106:	04090203          	lb	tp,64(s2)
     10a:	0100                	addi	s0,sp,128
     10c:	04090103          	lb	sp,64(s2)
     110:	0100                	addi	s0,sp,128
     112:	04090103          	lb	sp,64(s2)
     116:	0100                	addi	s0,sp,128
     118:	08090103          	lb	sp,128(s2)
     11c:	0100                	addi	s0,sp,128
     11e:	04090103          	lb	sp,64(s2)
     122:	0100                	addi	s0,sp,128
     124:	08090103          	lb	sp,128(s2)
     128:	0100                	addi	s0,sp,128
     12a:	02090103          	lb	sp,32(s2)
     12e:	0100                	addi	s0,sp,128
     130:	04090103          	lb	sp,64(s2)
     134:	0100                	addi	s0,sp,128
     136:	04090103          	lb	sp,64(s2)
     13a:	0100                	addi	s0,sp,128
     13c:	04090203          	lb	tp,64(s2)
     140:	0100                	addi	s0,sp,128
     142:	04090103          	lb	sp,64(s2)
     146:	0100                	addi	s0,sp,128
     148:	04090103          	lb	sp,64(s2)
     14c:	0100                	addi	s0,sp,128
     14e:	08090103          	lb	sp,128(s2)
     152:	0100                	addi	s0,sp,128
     154:	04090103          	lb	sp,64(s2)
     158:	0100                	addi	s0,sp,128
     15a:	08090103          	lb	sp,128(s2)
     15e:	0100                	addi	s0,sp,128
     160:	02090103          	lb	sp,32(s2)
     164:	0100                	addi	s0,sp,128
     166:	04090103          	lb	sp,64(s2)
     16a:	0100                	addi	s0,sp,128
     16c:	04090103          	lb	sp,64(s2)
     170:	0100                	addi	s0,sp,128
     172:	04090203          	lb	tp,64(s2)
     176:	0100                	addi	s0,sp,128
     178:	04090103          	lb	sp,64(s2)
     17c:	0100                	addi	s0,sp,128
     17e:	04090103          	lb	sp,64(s2)
     182:	0100                	addi	s0,sp,128
     184:	08090103          	lb	sp,128(s2)
     188:	0100                	addi	s0,sp,128
     18a:	04090103          	lb	sp,64(s2)
     18e:	0100                	addi	s0,sp,128
     190:	08090103          	lb	sp,128(s2)
     194:	0100                	addi	s0,sp,128
     196:	02090103          	lb	sp,32(s2)
     19a:	0100                	addi	s0,sp,128
     19c:	04090103          	lb	sp,64(s2)
     1a0:	0100                	addi	s0,sp,128
     1a2:	04090103          	lb	sp,64(s2)
     1a6:	0100                	addi	s0,sp,128
     1a8:	04090203          	lb	tp,64(s2)
     1ac:	0100                	addi	s0,sp,128
     1ae:	04090103          	lb	sp,64(s2)
     1b2:	0100                	addi	s0,sp,128
     1b4:	04090103          	lb	sp,64(s2)
     1b8:	0100                	addi	s0,sp,128
     1ba:	08090103          	lb	sp,128(s2)
     1be:	0100                	addi	s0,sp,128
     1c0:	04090103          	lb	sp,64(s2)
     1c4:	0100                	addi	s0,sp,128
     1c6:	08090103          	lb	sp,128(s2)
     1ca:	0100                	addi	s0,sp,128
     1cc:	02090103          	lb	sp,32(s2)
     1d0:	0100                	addi	s0,sp,128
     1d2:	04090103          	lb	sp,64(s2)
     1d6:	0100                	addi	s0,sp,128
     1d8:	04090103          	lb	sp,64(s2)
     1dc:	0100                	addi	s0,sp,128
     1de:	04090203          	lb	tp,64(s2)
     1e2:	0100                	addi	s0,sp,128
     1e4:	04090203          	lb	tp,64(s2)
     1e8:	0100                	addi	s0,sp,128
     1ea:	04090103          	lb	sp,64(s2)
     1ee:	0100                	addi	s0,sp,128
     1f0:	04090103          	lb	sp,64(s2)
     1f4:	0100                	addi	s0,sp,128
     1f6:	08090103          	lb	sp,128(s2)
     1fa:	0100                	addi	s0,sp,128
     1fc:	04090103          	lb	sp,64(s2)
     200:	0100                	addi	s0,sp,128
     202:	08090103          	lb	sp,128(s2)
     206:	0100                	addi	s0,sp,128
     208:	02090103          	lb	sp,32(s2)
     20c:	0100                	addi	s0,sp,128
     20e:	04090103          	lb	sp,64(s2)
     212:	0100                	addi	s0,sp,128
     214:	04090103          	lb	sp,64(s2)
     218:	0100                	addi	s0,sp,128
     21a:	04090203          	lb	tp,64(s2)
     21e:	0100                	addi	s0,sp,128
     220:	04090103          	lb	sp,64(s2)
     224:	0100                	addi	s0,sp,128
     226:	04090103          	lb	sp,64(s2)
     22a:	0100                	addi	s0,sp,128
     22c:	08090103          	lb	sp,128(s2)
     230:	0100                	addi	s0,sp,128
     232:	04090103          	lb	sp,64(s2)
     236:	0100                	addi	s0,sp,128
     238:	08090103          	lb	sp,128(s2)
     23c:	0100                	addi	s0,sp,128
     23e:	02090103          	lb	sp,32(s2)
     242:	0100                	addi	s0,sp,128
     244:	04090103          	lb	sp,64(s2)
     248:	0100                	addi	s0,sp,128
     24a:	04090103          	lb	sp,64(s2)
     24e:	0100                	addi	s0,sp,128
     250:	04090203          	lb	tp,64(s2)
     254:	0100                	addi	s0,sp,128
     256:	0409                	addi	s0,s0,2
     258:	0000                	unimp
     25a:	0101                	addi	sp,sp,0
     25c:	1266                	slli	tp,tp,0x39
     25e:	0000                	unimp
     260:	0005                	c.nop	1
     262:	0004                	.2byte	0x4
     264:	0041                	c.nop	16
     266:	0000                	unimp
     268:	0101                	addi	sp,sp,0
     26a:	fb01                	bnez	a4,17a <_prog_start-0x7ffffe86>
     26c:	0d0e                	slli	s10,s10,0x3
     26e:	0100                	addi	s0,sp,128
     270:	0101                	addi	sp,sp,0
     272:	0001                	nop
     274:	0000                	unimp
     276:	0001                	nop
     278:	0100                	addi	s0,sp,128
     27a:	0101                	addi	sp,sp,0
     27c:	031f 0000 0000      	.byte	0x1f, 0x03, 0x00, 0x00, 0x00, 0x00
     282:	004e                	c.slli	zero,0x13
     284:	0000                	unimp
     286:	00b1                	addi	ra,ra,12
     288:	0000                	unimp
     28a:	0102                	c.slli64	sp
     28c:	021f 050f 0047      	.byte	0x1f, 0x02, 0x0f, 0x05, 0x47, 0x00
     292:	0000                	unimp
     294:	4700                	lw	s0,8(a4)
     296:	0000                	unimp
     298:	0000                	unimp
     29a:	0110                	addi	a2,sp,128
     29c:	0000                	unimp
     29e:	2101                	jal	69e <_prog_start-0x7ffff962>
     2a0:	0001                	nop
     2a2:	0200                	addi	s0,sp,256
     2a4:	0000012b          	.4byte	0x12b
     2a8:	0500                	addi	s0,sp,640
     2aa:	000e                	c.slli	zero,0x3
     2ac:	0205                	addi	tp,tp,1 # fffe1001 <a+0x7ffe05d5>
     2ae:	019a                	slli	gp,gp,0x6
     2b0:	8000                	.2byte	0x8000
     2b2:	05011e03          	lh	t3,80(sp)
     2b6:	09050303          	lb	t1,144(a0) # d090 <_prog_start-0x7fff2f70>
     2ba:	0000                	unimp
     2bc:	0501                	addi	a0,a0,0
     2be:	0308                	addi	a0,sp,384
     2c0:	0900                	addi	s0,sp,144
     2c2:	0000                	unimp
     2c4:	0501                	addi	a0,a0,0
     2c6:	0315                	addi	t1,t1,5 # ffffa005 <a+0x7fff95d9>
     2c8:	0900                	addi	s0,sp,144
     2ca:	0000                	unimp
     2cc:	0501                	addi	a0,a0,0
     2ce:	060c                	addi	a1,sp,768
     2d0:	00090003          	lb	zero,0(s2)
     2d4:	0100                	addi	s0,sp,128
     2d6:	1705                	addi	a4,a4,-31
     2d8:	1a090103          	lb	sp,416(s2)
     2dc:	0100                	addi	s0,sp,128
     2de:	1505                	addi	a0,a0,-31
     2e0:	04097f03          	.4byte	0x4097f03
     2e4:	0100                	addi	s0,sp,128
     2e6:	1705                	addi	a4,a4,-31
     2e8:	0306                	slli	t1,t1,0x1
     2ea:	0901                	addi	s2,s2,0
     2ec:	0004                	.2byte	0x4
     2ee:	0501                	addi	a0,a0,0
     2f0:	060e                	slli	a2,a2,0x3
     2f2:	00090003          	lb	zero,0(s2)
     2f6:	0100                	addi	s0,sp,128
     2f8:	0705                	addi	a4,a4,1
     2fa:	0200                	addi	s0,sp,256
     2fc:	0304                	addi	s1,sp,384
     2fe:	0306                	slli	t1,t1,0x1
     300:	0901                	addi	s2,s2,0
     302:	0002                	c.slli64	zero
     304:	0501                	addi	a0,a0,0
     306:	0011                	c.nop	4
     308:	0402                	c.slli64	s0
     30a:	00030603          	lb	a2,0(t1)
     30e:	0009                	c.nop	2
     310:	0100                	addi	s0,sp,128
     312:	1805                	addi	a6,a6,-31 # fffe8fe1 <a+0x7ffe85b5>
     314:	0200                	addi	s0,sp,256
     316:	0304                	addi	s1,sp,384
     318:	04090003          	lb	zero,64(s2)
     31c:	0100                	addi	s0,sp,128
     31e:	0905                	addi	s2,s2,1
     320:	0200                	addi	s0,sp,256
     322:	0304                	addi	s1,sp,384
     324:	04090003          	lb	zero,64(s2)
     328:	0100                	addi	s0,sp,128
     32a:	1105                	addi	sp,sp,-31
     32c:	0200                	addi	s0,sp,256
     32e:	0304                	addi	s1,sp,384
     330:	04090003          	lb	zero,64(s2)
     334:	0100                	addi	s0,sp,128
     336:	1805                	addi	a6,a6,-31
     338:	0200                	addi	s0,sp,256
     33a:	0304                	addi	s1,sp,384
     33c:	02090003          	lb	zero,32(s2)
     340:	0100                	addi	s0,sp,128
     342:	1505                	addi	a0,a0,-31
     344:	0200                	addi	s0,sp,256
     346:	0304                	addi	s1,sp,384
     348:	02090003          	lb	zero,32(s2)
     34c:	0100                	addi	s0,sp,128
     34e:	0905                	addi	s2,s2,1
     350:	0200                	addi	s0,sp,256
     352:	0304                	addi	s1,sp,384
     354:	08090003          	lb	zero,128(s2)
     358:	0100                	addi	s0,sp,128
     35a:	0d05                	addi	s10,s10,1
     35c:	0200                	addi	s0,sp,256
     35e:	0304                	addi	s1,sp,384
     360:	02090003          	lb	zero,32(s2)
     364:	0100                	addi	s0,sp,128
     366:	1505                	addi	a0,a0,-31
     368:	0200                	addi	s0,sp,256
     36a:	0304                	addi	s1,sp,384
     36c:	04090003          	lb	zero,64(s2)
     370:	0100                	addi	s0,sp,128
     372:	2005                	jal	392 <_prog_start-0x7ffffc6e>
     374:	0200                	addi	s0,sp,256
     376:	0304                	addi	s1,sp,384
     378:	04097f03          	.4byte	0x4097f03
     37c:	0100                	addi	s0,sp,128
     37e:	0d05                	addi	s10,s10,1
     380:	0200                	addi	s0,sp,256
     382:	0304                	addi	s1,sp,384
     384:	02090103          	lb	sp,32(s2)
     388:	0100                	addi	s0,sp,128
     38a:	2005                	jal	3aa <_prog_start-0x7ffffc56>
     38c:	0200                	addi	s0,sp,256
     38e:	0304                	addi	s1,sp,384
     390:	0306                	slli	t1,t1,0x1
     392:	097f                	.2byte	0x97f
     394:	0006                	c.slli	zero,0x1
     396:	0501                	addi	a0,a0,0
     398:	04020017          	auipc	zero,0x4020
     39c:	09000303          	lb	t1,144(zero) # 90 <_prog_start-0x7fffff70>
     3a0:	0000                	unimp
     3a2:	0501                	addi	a0,a0,0
     3a4:	0021                	c.nop	8
     3a6:	0402                	c.slli64	s0
     3a8:	0302                	c.slli64	t1
     3aa:	097f                	.2byte	0x97f
     3ac:	0004                	.2byte	0x4
     3ae:	0501                	addi	a0,a0,0
     3b0:	0015                	c.nop	5
     3b2:	0402                	c.slli64	s0
     3b4:	0302                	c.slli64	t1
     3b6:	0900                	addi	s0,sp,144
     3b8:	0002                	c.slli64	zero
     3ba:	0501                	addi	a0,a0,0
     3bc:	0601                	addi	a2,a2,0
     3be:	04090303          	lb	t1,64(s2)
     3c2:	0100                	addi	s0,sp,128
     3c4:	0e05                	addi	t3,t3,1 # 19001 <_prog_start-0x7ffe6fff>
     3c6:	0306                	slli	t1,t1,0x1
     3c8:	0902                	c.slli64	s2
     3ca:	0002                	c.slli64	zero
     3cc:	0501                	addi	a0,a0,0
     3ce:	09050303          	lb	t1,144(a0)
     3d2:	0000                	unimp
     3d4:	0501                	addi	a0,a0,0
     3d6:	0308                	addi	a0,sp,384
     3d8:	0900                	addi	s0,sp,144
     3da:	0000                	unimp
     3dc:	0501                	addi	a0,a0,0
     3de:	0315                	addi	t1,t1,5
     3e0:	0900                	addi	s0,sp,144
     3e2:	0000                	unimp
     3e4:	0501                	addi	a0,a0,0
     3e6:	060c                	addi	a1,sp,768
     3e8:	00090003          	lb	zero,0(s2)
     3ec:	0100                	addi	s0,sp,128
     3ee:	1705                	addi	a4,a4,-31
     3f0:	1a090103          	lb	sp,416(s2)
     3f4:	0100                	addi	s0,sp,128
     3f6:	1505                	addi	a0,a0,-31
     3f8:	04097f03          	.4byte	0x4097f03
     3fc:	0100                	addi	s0,sp,128
     3fe:	1705                	addi	a4,a4,-31
     400:	0306                	slli	t1,t1,0x1
     402:	0901                	addi	s2,s2,0
     404:	0004                	.2byte	0x4
     406:	0501                	addi	a0,a0,0
     408:	060e                	slli	a2,a2,0x3
     40a:	00090003          	lb	zero,0(s2)
     40e:	0100                	addi	s0,sp,128
     410:	0705                	addi	a4,a4,1
     412:	0200                	addi	s0,sp,256
     414:	0304                	addi	s1,sp,384
     416:	0306                	slli	t1,t1,0x1
     418:	0901                	addi	s2,s2,0
     41a:	0002                	c.slli64	zero
     41c:	0501                	addi	a0,a0,0
     41e:	0011                	c.nop	4
     420:	0402                	c.slli64	s0
     422:	00030603          	lb	a2,0(t1)
     426:	0009                	c.nop	2
     428:	0100                	addi	s0,sp,128
     42a:	1805                	addi	a6,a6,-31
     42c:	0200                	addi	s0,sp,256
     42e:	0304                	addi	s1,sp,384
     430:	04090003          	lb	zero,64(s2)
     434:	0100                	addi	s0,sp,128
     436:	0905                	addi	s2,s2,1
     438:	0200                	addi	s0,sp,256
     43a:	0304                	addi	s1,sp,384
     43c:	04090003          	lb	zero,64(s2)
     440:	0100                	addi	s0,sp,128
     442:	1105                	addi	sp,sp,-31
     444:	0200                	addi	s0,sp,256
     446:	0304                	addi	s1,sp,384
     448:	04090003          	lb	zero,64(s2)
     44c:	0100                	addi	s0,sp,128
     44e:	1805                	addi	a6,a6,-31
     450:	0200                	addi	s0,sp,256
     452:	0304                	addi	s1,sp,384
     454:	02090003          	lb	zero,32(s2)
     458:	0100                	addi	s0,sp,128
     45a:	1505                	addi	a0,a0,-31
     45c:	0200                	addi	s0,sp,256
     45e:	0304                	addi	s1,sp,384
     460:	02090003          	lb	zero,32(s2)
     464:	0100                	addi	s0,sp,128
     466:	0905                	addi	s2,s2,1
     468:	0200                	addi	s0,sp,256
     46a:	0304                	addi	s1,sp,384
     46c:	08090003          	lb	zero,128(s2)
     470:	0100                	addi	s0,sp,128
     472:	0d05                	addi	s10,s10,1
     474:	0200                	addi	s0,sp,256
     476:	0304                	addi	s1,sp,384
     478:	02090003          	lb	zero,32(s2)
     47c:	0100                	addi	s0,sp,128
     47e:	1505                	addi	a0,a0,-31
     480:	0200                	addi	s0,sp,256
     482:	0304                	addi	s1,sp,384
     484:	04090003          	lb	zero,64(s2)
     488:	0100                	addi	s0,sp,128
     48a:	2005                	jal	4aa <_prog_start-0x7ffffb56>
     48c:	0200                	addi	s0,sp,256
     48e:	0304                	addi	s1,sp,384
     490:	04097f03          	.4byte	0x4097f03
     494:	0100                	addi	s0,sp,128
     496:	0d05                	addi	s10,s10,1
     498:	0200                	addi	s0,sp,256
     49a:	0304                	addi	s1,sp,384
     49c:	02090103          	lb	sp,32(s2)
     4a0:	0100                	addi	s0,sp,128
     4a2:	2005                	jal	4c2 <_prog_start-0x7ffffb3e>
     4a4:	0200                	addi	s0,sp,256
     4a6:	0304                	addi	s1,sp,384
     4a8:	0306                	slli	t1,t1,0x1
     4aa:	097f                	.2byte	0x97f
     4ac:	0006                	c.slli	zero,0x1
     4ae:	0501                	addi	a0,a0,0
     4b0:	04020017          	auipc	zero,0x4020
     4b4:	09000303          	lb	t1,144(zero) # 90 <_prog_start-0x7fffff70>
     4b8:	0000                	unimp
     4ba:	0501                	addi	a0,a0,0
     4bc:	0021                	c.nop	8
     4be:	0402                	c.slli64	s0
     4c0:	0302                	c.slli64	t1
     4c2:	097f                	.2byte	0x97f
     4c4:	0004                	.2byte	0x4
     4c6:	0501                	addi	a0,a0,0
     4c8:	0015                	c.nop	5
     4ca:	0402                	c.slli64	s0
     4cc:	0302                	c.slli64	t1
     4ce:	0900                	addi	s0,sp,144
     4d0:	0002                	c.slli64	zero
     4d2:	0501                	addi	a0,a0,0
     4d4:	0601                	addi	a2,a2,0
     4d6:	04090303          	lb	t1,64(s2)
     4da:	0100                	addi	s0,sp,128
     4dc:	0e05                	addi	t3,t3,1
     4de:	0306                	slli	t1,t1,0x1
     4e0:	0902                	c.slli64	s2
     4e2:	0002                	c.slli64	zero
     4e4:	0501                	addi	a0,a0,0
     4e6:	09050303          	lb	t1,144(a0)
     4ea:	0000                	unimp
     4ec:	0501                	addi	a0,a0,0
     4ee:	0308                	addi	a0,sp,384
     4f0:	0900                	addi	s0,sp,144
     4f2:	0000                	unimp
     4f4:	0501                	addi	a0,a0,0
     4f6:	0315                	addi	t1,t1,5
     4f8:	0900                	addi	s0,sp,144
     4fa:	0000                	unimp
     4fc:	0501                	addi	a0,a0,0
     4fe:	060c                	addi	a1,sp,768
     500:	00090003          	lb	zero,0(s2)
     504:	0100                	addi	s0,sp,128
     506:	1705                	addi	a4,a4,-31
     508:	1a090103          	lb	sp,416(s2)
     50c:	0100                	addi	s0,sp,128
     50e:	1505                	addi	a0,a0,-31
     510:	04097f03          	.4byte	0x4097f03
     514:	0100                	addi	s0,sp,128
     516:	1705                	addi	a4,a4,-31
     518:	0306                	slli	t1,t1,0x1
     51a:	0901                	addi	s2,s2,0
     51c:	0004                	.2byte	0x4
     51e:	0501                	addi	a0,a0,0
     520:	060e                	slli	a2,a2,0x3
     522:	00090003          	lb	zero,0(s2)
     526:	0100                	addi	s0,sp,128
     528:	0705                	addi	a4,a4,1
     52a:	0200                	addi	s0,sp,256
     52c:	0304                	addi	s1,sp,384
     52e:	0306                	slli	t1,t1,0x1
     530:	0901                	addi	s2,s2,0
     532:	0002                	c.slli64	zero
     534:	0501                	addi	a0,a0,0
     536:	0011                	c.nop	4
     538:	0402                	c.slli64	s0
     53a:	00030603          	lb	a2,0(t1)
     53e:	0009                	c.nop	2
     540:	0100                	addi	s0,sp,128
     542:	1805                	addi	a6,a6,-31
     544:	0200                	addi	s0,sp,256
     546:	0304                	addi	s1,sp,384
     548:	04090003          	lb	zero,64(s2)
     54c:	0100                	addi	s0,sp,128
     54e:	0905                	addi	s2,s2,1
     550:	0200                	addi	s0,sp,256
     552:	0304                	addi	s1,sp,384
     554:	04090003          	lb	zero,64(s2)
     558:	0100                	addi	s0,sp,128
     55a:	1105                	addi	sp,sp,-31
     55c:	0200                	addi	s0,sp,256
     55e:	0304                	addi	s1,sp,384
     560:	04090003          	lb	zero,64(s2)
     564:	0100                	addi	s0,sp,128
     566:	1805                	addi	a6,a6,-31
     568:	0200                	addi	s0,sp,256
     56a:	0304                	addi	s1,sp,384
     56c:	02090003          	lb	zero,32(s2)
     570:	0100                	addi	s0,sp,128
     572:	1505                	addi	a0,a0,-31
     574:	0200                	addi	s0,sp,256
     576:	0304                	addi	s1,sp,384
     578:	02090003          	lb	zero,32(s2)
     57c:	0100                	addi	s0,sp,128
     57e:	0905                	addi	s2,s2,1
     580:	0200                	addi	s0,sp,256
     582:	0304                	addi	s1,sp,384
     584:	08090003          	lb	zero,128(s2)
     588:	0100                	addi	s0,sp,128
     58a:	0d05                	addi	s10,s10,1
     58c:	0200                	addi	s0,sp,256
     58e:	0304                	addi	s1,sp,384
     590:	02090003          	lb	zero,32(s2)
     594:	0100                	addi	s0,sp,128
     596:	1505                	addi	a0,a0,-31
     598:	0200                	addi	s0,sp,256
     59a:	0304                	addi	s1,sp,384
     59c:	04090003          	lb	zero,64(s2)
     5a0:	0100                	addi	s0,sp,128
     5a2:	2005                	jal	5c2 <_prog_start-0x7ffffa3e>
     5a4:	0200                	addi	s0,sp,256
     5a6:	0304                	addi	s1,sp,384
     5a8:	04097f03          	.4byte	0x4097f03
     5ac:	0100                	addi	s0,sp,128
     5ae:	0d05                	addi	s10,s10,1
     5b0:	0200                	addi	s0,sp,256
     5b2:	0304                	addi	s1,sp,384
     5b4:	02090103          	lb	sp,32(s2)
     5b8:	0100                	addi	s0,sp,128
     5ba:	2005                	jal	5da <_prog_start-0x7ffffa26>
     5bc:	0200                	addi	s0,sp,256
     5be:	0304                	addi	s1,sp,384
     5c0:	0306                	slli	t1,t1,0x1
     5c2:	097f                	.2byte	0x97f
     5c4:	0006                	c.slli	zero,0x1
     5c6:	0501                	addi	a0,a0,0
     5c8:	04020017          	auipc	zero,0x4020
     5cc:	09000303          	lb	t1,144(zero) # 90 <_prog_start-0x7fffff70>
     5d0:	0000                	unimp
     5d2:	0501                	addi	a0,a0,0
     5d4:	0021                	c.nop	8
     5d6:	0402                	c.slli64	s0
     5d8:	0302                	c.slli64	t1
     5da:	097f                	.2byte	0x97f
     5dc:	0004                	.2byte	0x4
     5de:	0501                	addi	a0,a0,0
     5e0:	0015                	c.nop	5
     5e2:	0402                	c.slli64	s0
     5e4:	0302                	c.slli64	t1
     5e6:	0900                	addi	s0,sp,144
     5e8:	0002                	c.slli64	zero
     5ea:	0501                	addi	a0,a0,0
     5ec:	0601                	addi	a2,a2,0
     5ee:	04090303          	lb	t1,64(s2)
     5f2:	0100                	addi	s0,sp,128
     5f4:	0e05                	addi	t3,t3,1
     5f6:	0306                	slli	t1,t1,0x1
     5f8:	0902                	c.slli64	s2
     5fa:	0002                	c.slli64	zero
     5fc:	0501                	addi	a0,a0,0
     5fe:	09050303          	lb	t1,144(a0)
     602:	0000                	unimp
     604:	0501                	addi	a0,a0,0
     606:	0308                	addi	a0,sp,384
     608:	0900                	addi	s0,sp,144
     60a:	0000                	unimp
     60c:	0501                	addi	a0,a0,0
     60e:	0315                	addi	t1,t1,5
     610:	0900                	addi	s0,sp,144
     612:	0000                	unimp
     614:	0501                	addi	a0,a0,0
     616:	060c                	addi	a1,sp,768
     618:	00090003          	lb	zero,0(s2)
     61c:	0100                	addi	s0,sp,128
     61e:	1905                	addi	s2,s2,-31
     620:	1a090103          	lb	sp,416(s2)
     624:	0100                	addi	s0,sp,128
     626:	1505                	addi	a0,a0,-31
     628:	04097f03          	.4byte	0x4097f03
     62c:	0100                	addi	s0,sp,128
     62e:	1905                	addi	s2,s2,-31
     630:	0306                	slli	t1,t1,0x1
     632:	0901                	addi	s2,s2,0
     634:	0004                	.2byte	0x4
     636:	0501                	addi	a0,a0,0
     638:	0610                	addi	a2,sp,768
     63a:	00090003          	lb	zero,0(s2)
     63e:	0100                	addi	s0,sp,128
     640:	0905                	addi	s2,s2,1
     642:	0200                	addi	s0,sp,256
     644:	0304                	addi	s1,sp,384
     646:	0306                	slli	t1,t1,0x1
     648:	0901                	addi	s2,s2,0
     64a:	0002                	c.slli64	zero
     64c:	0501                	addi	a0,a0,0
     64e:	04020013          	addi	zero,tp,64 # 40 <_prog_start-0x7fffffc0>
     652:	00030603          	lb	a2,0(t1)
     656:	0009                	c.nop	2
     658:	0100                	addi	s0,sp,128
     65a:	1a05                	addi	s4,s4,-31
     65c:	0200                	addi	s0,sp,256
     65e:	0304                	addi	s1,sp,384
     660:	04090003          	lb	zero,64(s2)
     664:	0100                	addi	s0,sp,128
     666:	0b05                	addi	s6,s6,1
     668:	0200                	addi	s0,sp,256
     66a:	0304                	addi	s1,sp,384
     66c:	04090003          	lb	zero,64(s2)
     670:	0100                	addi	s0,sp,128
     672:	1305                	addi	t1,t1,-31
     674:	0200                	addi	s0,sp,256
     676:	0304                	addi	s1,sp,384
     678:	04090003          	lb	zero,64(s2)
     67c:	0100                	addi	s0,sp,128
     67e:	1a05                	addi	s4,s4,-31
     680:	0200                	addi	s0,sp,256
     682:	0304                	addi	s1,sp,384
     684:	02090003          	lb	zero,32(s2)
     688:	0100                	addi	s0,sp,128
     68a:	1705                	addi	a4,a4,-31
     68c:	0200                	addi	s0,sp,256
     68e:	0304                	addi	s1,sp,384
     690:	02090003          	lb	zero,32(s2)
     694:	0100                	addi	s0,sp,128
     696:	0b05                	addi	s6,s6,1
     698:	0200                	addi	s0,sp,256
     69a:	0304                	addi	s1,sp,384
     69c:	08090003          	lb	zero,128(s2)
     6a0:	0100                	addi	s0,sp,128
     6a2:	0f05                	addi	t5,t5,1
     6a4:	0200                	addi	s0,sp,256
     6a6:	0304                	addi	s1,sp,384
     6a8:	02090003          	lb	zero,32(s2)
     6ac:	0100                	addi	s0,sp,128
     6ae:	1705                	addi	a4,a4,-31
     6b0:	0200                	addi	s0,sp,256
     6b2:	0304                	addi	s1,sp,384
     6b4:	04090003          	lb	zero,64(s2)
     6b8:	0100                	addi	s0,sp,128
     6ba:	2205                	jal	7da <_prog_start-0x7ffff826>
     6bc:	0200                	addi	s0,sp,256
     6be:	0304                	addi	s1,sp,384
     6c0:	04097f03          	.4byte	0x4097f03
     6c4:	0100                	addi	s0,sp,128
     6c6:	0f05                	addi	t5,t5,1
     6c8:	0200                	addi	s0,sp,256
     6ca:	0304                	addi	s1,sp,384
     6cc:	02090103          	lb	sp,32(s2)
     6d0:	0100                	addi	s0,sp,128
     6d2:	2205                	jal	7f2 <_prog_start-0x7ffff80e>
     6d4:	0200                	addi	s0,sp,256
     6d6:	0304                	addi	s1,sp,384
     6d8:	0306                	slli	t1,t1,0x1
     6da:	097f                	.2byte	0x97f
     6dc:	0006                	c.slli	zero,0x1
     6de:	0501                	addi	a0,a0,0
     6e0:	0019                	c.nop	6
     6e2:	0402                	c.slli64	s0
     6e4:	09000303          	lb	t1,144(zero) # 90 <_prog_start-0x7fffff70>
     6e8:	0000                	unimp
     6ea:	0501                	addi	a0,a0,0
     6ec:	0021                	c.nop	8
     6ee:	0402                	c.slli64	s0
     6f0:	0302                	c.slli64	t1
     6f2:	097f                	.2byte	0x97f
     6f4:	0004                	.2byte	0x4
     6f6:	0501                	addi	a0,a0,0
     6f8:	0015                	c.nop	5
     6fa:	0402                	c.slli64	s0
     6fc:	0302                	c.slli64	t1
     6fe:	0900                	addi	s0,sp,144
     700:	0002                	c.slli64	zero
     702:	0501                	addi	a0,a0,0
     704:	0601                	addi	a2,a2,0
     706:	04090303          	lb	t1,64(s2)
     70a:	0100                	addi	s0,sp,128
     70c:	0e05                	addi	t3,t3,1
     70e:	0306                	slli	t1,t1,0x1
     710:	00020903          	lb	s2,0(tp) # 0 <_prog_start-0x80000000>
     714:	0501                	addi	a0,a0,0
     716:	09010303          	lb	t1,144(sp)
     71a:	0000                	unimp
     71c:	0501                	addi	a0,a0,0
     71e:	0308                	addi	a0,sp,384
     720:	0900                	addi	s0,sp,144
     722:	0000                	unimp
     724:	0501                	addi	a0,a0,0
     726:	0315                	addi	t1,t1,5
     728:	0900                	addi	s0,sp,144
     72a:	0000                	unimp
     72c:	0501                	addi	a0,a0,0
     72e:	060c                	addi	a1,sp,768
     730:	00090003          	lb	zero,0(s2)
     734:	0100                	addi	s0,sp,128
     736:	1505                	addi	a0,a0,-31
     738:	1a090003          	lb	zero,416(s2)
     73c:	0100                	addi	s0,sp,128
     73e:	0905                	addi	s2,s2,1
     740:	0200                	addi	s0,sp,256
     742:	0304                	addi	s1,sp,384
     744:	0306                	slli	t1,t1,0x1
     746:	0901                	addi	s2,s2,0
     748:	0004                	.2byte	0x4
     74a:	0501                	addi	a0,a0,0
     74c:	0012                	c.slli	zero,0x4
     74e:	0402                	c.slli64	s0
     750:	00030603          	lb	a2,0(t1)
     754:	0009                	c.nop	2
     756:	0100                	addi	s0,sp,128
     758:	1a05                	addi	s4,s4,-31
     75a:	0200                	addi	s0,sp,256
     75c:	0304                	addi	s1,sp,384
     75e:	04090003          	lb	zero,64(s2)
     762:	0100                	addi	s0,sp,128
     764:	0e05                	addi	t3,t3,1
     766:	0200                	addi	s0,sp,256
     768:	0304                	addi	s1,sp,384
     76a:	02090003          	lb	zero,32(s2)
     76e:	0100                	addi	s0,sp,128
     770:	1205                	addi	tp,tp,-31 # ffffffe1 <a+0x7ffff5b5>
     772:	0200                	addi	s0,sp,256
     774:	0304                	addi	s1,sp,384
     776:	04090003          	lb	zero,64(s2)
     77a:	0100                	addi	s0,sp,128
     77c:	1a05                	addi	s4,s4,-31
     77e:	0200                	addi	s0,sp,256
     780:	0304                	addi	s1,sp,384
     782:	02090003          	lb	zero,32(s2)
     786:	0100                	addi	s0,sp,128
     788:	1605                	addi	a2,a2,-31
     78a:	0200                	addi	s0,sp,256
     78c:	0304                	addi	s1,sp,384
     78e:	02090003          	lb	zero,32(s2)
     792:	0100                	addi	s0,sp,128
     794:	0e05                	addi	t3,t3,1
     796:	0200                	addi	s0,sp,256
     798:	0304                	addi	s1,sp,384
     79a:	08090003          	lb	zero,128(s2)
     79e:	0100                	addi	s0,sp,128
     7a0:	2005                	jal	7c0 <_prog_start-0x7ffff840>
     7a2:	0200                	addi	s0,sp,256
     7a4:	0304                	addi	s1,sp,384
     7a6:	02097f03          	.4byte	0x2097f03
     7aa:	0100                	addi	s0,sp,128
     7ac:	1605                	addi	a2,a2,-31
     7ae:	0200                	addi	s0,sp,256
     7b0:	0304                	addi	s1,sp,384
     7b2:	02090103          	lb	sp,32(s2)
     7b6:	0100                	addi	s0,sp,128
     7b8:	0e05                	addi	t3,t3,1
     7ba:	0200                	addi	s0,sp,256
     7bc:	0304                	addi	s1,sp,384
     7be:	02090003          	lb	zero,32(s2)
     7c2:	0100                	addi	s0,sp,128
     7c4:	2005                	jal	7e4 <_prog_start-0x7ffff81c>
     7c6:	0200                	addi	s0,sp,256
     7c8:	0304                	addi	s1,sp,384
     7ca:	0306                	slli	t1,t1,0x1
     7cc:	097f                	.2byte	0x97f
     7ce:	0004                	.2byte	0x4
     7d0:	0501                	addi	a0,a0,0
     7d2:	0015                	c.nop	5
     7d4:	0402                	c.slli64	s0
     7d6:	09000303          	lb	t1,144(zero) # 90 <_prog_start-0x7fffff70>
     7da:	0000                	unimp
     7dc:	0501                	addi	a0,a0,0
     7de:	0601                	addi	a2,a2,0
     7e0:	04090203          	lb	tp,64(s2)
     7e4:	0100                	addi	s0,sp,128
     7e6:	0e05                	addi	t3,t3,1
     7e8:	0306                	slli	t1,t1,0x1
     7ea:	0902                	c.slli64	s2
     7ec:	0002                	c.slli64	zero
     7ee:	0501                	addi	a0,a0,0
     7f0:	09010303          	lb	t1,144(sp)
     7f4:	0000                	unimp
     7f6:	0501                	addi	a0,a0,0
     7f8:	0308                	addi	a0,sp,384
     7fa:	0900                	addi	s0,sp,144
     7fc:	0000                	unimp
     7fe:	0501                	addi	a0,a0,0
     800:	0315                	addi	t1,t1,5
     802:	0900                	addi	s0,sp,144
     804:	0000                	unimp
     806:	0501                	addi	a0,a0,0
     808:	060c                	addi	a1,sp,768
     80a:	00090003          	lb	zero,0(s2)
     80e:	0100                	addi	s0,sp,128
     810:	1505                	addi	a0,a0,-31
     812:	1a090003          	lb	zero,416(s2)
     816:	0100                	addi	s0,sp,128
     818:	0905                	addi	s2,s2,1
     81a:	0200                	addi	s0,sp,256
     81c:	0304                	addi	s1,sp,384
     81e:	0306                	slli	t1,t1,0x1
     820:	0901                	addi	s2,s2,0
     822:	0004                	.2byte	0x4
     824:	0501                	addi	a0,a0,0
     826:	0012                	c.slli	zero,0x4
     828:	0402                	c.slli64	s0
     82a:	00030603          	lb	a2,0(t1)
     82e:	0009                	c.nop	2
     830:	0100                	addi	s0,sp,128
     832:	1a05                	addi	s4,s4,-31
     834:	0200                	addi	s0,sp,256
     836:	0304                	addi	s1,sp,384
     838:	04090003          	lb	zero,64(s2)
     83c:	0100                	addi	s0,sp,128
     83e:	0e05                	addi	t3,t3,1
     840:	0200                	addi	s0,sp,256
     842:	0304                	addi	s1,sp,384
     844:	02090003          	lb	zero,32(s2)
     848:	0100                	addi	s0,sp,128
     84a:	1205                	addi	tp,tp,-31 # ffffffe1 <a+0x7ffff5b5>
     84c:	0200                	addi	s0,sp,256
     84e:	0304                	addi	s1,sp,384
     850:	04090003          	lb	zero,64(s2)
     854:	0100                	addi	s0,sp,128
     856:	1a05                	addi	s4,s4,-31
     858:	0200                	addi	s0,sp,256
     85a:	0304                	addi	s1,sp,384
     85c:	02090003          	lb	zero,32(s2)
     860:	0100                	addi	s0,sp,128
     862:	1605                	addi	a2,a2,-31
     864:	0200                	addi	s0,sp,256
     866:	0304                	addi	s1,sp,384
     868:	02090003          	lb	zero,32(s2)
     86c:	0100                	addi	s0,sp,128
     86e:	0e05                	addi	t3,t3,1
     870:	0200                	addi	s0,sp,256
     872:	0304                	addi	s1,sp,384
     874:	08090003          	lb	zero,128(s2)
     878:	0100                	addi	s0,sp,128
     87a:	2005                	jal	89a <_prog_start-0x7ffff766>
     87c:	0200                	addi	s0,sp,256
     87e:	0304                	addi	s1,sp,384
     880:	02097f03          	.4byte	0x2097f03
     884:	0100                	addi	s0,sp,128
     886:	1605                	addi	a2,a2,-31
     888:	0200                	addi	s0,sp,256
     88a:	0304                	addi	s1,sp,384
     88c:	02090103          	lb	sp,32(s2)
     890:	0100                	addi	s0,sp,128
     892:	0e05                	addi	t3,t3,1
     894:	0200                	addi	s0,sp,256
     896:	0304                	addi	s1,sp,384
     898:	02090003          	lb	zero,32(s2)
     89c:	0100                	addi	s0,sp,128
     89e:	2005                	jal	8be <_prog_start-0x7ffff742>
     8a0:	0200                	addi	s0,sp,256
     8a2:	0304                	addi	s1,sp,384
     8a4:	0306                	slli	t1,t1,0x1
     8a6:	097f                	.2byte	0x97f
     8a8:	0004                	.2byte	0x4
     8aa:	0501                	addi	a0,a0,0
     8ac:	0015                	c.nop	5
     8ae:	0402                	c.slli64	s0
     8b0:	09000303          	lb	t1,144(zero) # 90 <_prog_start-0x7fffff70>
     8b4:	0000                	unimp
     8b6:	0501                	addi	a0,a0,0
     8b8:	0601                	addi	a2,a2,0
     8ba:	04090203          	lb	tp,64(s2)
     8be:	0100                	addi	s0,sp,128
     8c0:	0e05                	addi	t3,t3,1
     8c2:	0306                	slli	t1,t1,0x1
     8c4:	00020903          	lb	s2,0(tp) # 0 <_prog_start-0x80000000>
     8c8:	0501                	addi	a0,a0,0
     8ca:	09050303          	lb	t1,144(a0)
     8ce:	0000                	unimp
     8d0:	0501                	addi	a0,a0,0
     8d2:	0308                	addi	a0,sp,384
     8d4:	0900                	addi	s0,sp,144
     8d6:	0000                	unimp
     8d8:	0501                	addi	a0,a0,0
     8da:	0315                	addi	t1,t1,5
     8dc:	0900                	addi	s0,sp,144
     8de:	0000                	unimp
     8e0:	0501                	addi	a0,a0,0
     8e2:	060c                	addi	a1,sp,768
     8e4:	00090003          	lb	zero,0(s2)
     8e8:	0100                	addi	s0,sp,128
     8ea:	1705                	addi	a4,a4,-31
     8ec:	1a090103          	lb	sp,416(s2)
     8f0:	0100                	addi	s0,sp,128
     8f2:	1505                	addi	a0,a0,-31
     8f4:	04097f03          	.4byte	0x4097f03
     8f8:	0100                	addi	s0,sp,128
     8fa:	1705                	addi	a4,a4,-31
     8fc:	0306                	slli	t1,t1,0x1
     8fe:	0901                	addi	s2,s2,0
     900:	0004                	.2byte	0x4
     902:	0501                	addi	a0,a0,0
     904:	060e                	slli	a2,a2,0x3
     906:	00090003          	lb	zero,0(s2)
     90a:	0100                	addi	s0,sp,128
     90c:	0705                	addi	a4,a4,1
     90e:	0200                	addi	s0,sp,256
     910:	0304                	addi	s1,sp,384
     912:	0306                	slli	t1,t1,0x1
     914:	0901                	addi	s2,s2,0
     916:	0002                	c.slli64	zero
     918:	0501                	addi	a0,a0,0
     91a:	0011                	c.nop	4
     91c:	0402                	c.slli64	s0
     91e:	00030603          	lb	a2,0(t1)
     922:	0009                	c.nop	2
     924:	0100                	addi	s0,sp,128
     926:	1805                	addi	a6,a6,-31
     928:	0200                	addi	s0,sp,256
     92a:	0304                	addi	s1,sp,384
     92c:	04090003          	lb	zero,64(s2)
     930:	0100                	addi	s0,sp,128
     932:	0905                	addi	s2,s2,1
     934:	0200                	addi	s0,sp,256
     936:	0304                	addi	s1,sp,384
     938:	04090003          	lb	zero,64(s2)
     93c:	0100                	addi	s0,sp,128
     93e:	1105                	addi	sp,sp,-31
     940:	0200                	addi	s0,sp,256
     942:	0304                	addi	s1,sp,384
     944:	04090003          	lb	zero,64(s2)
     948:	0100                	addi	s0,sp,128
     94a:	1805                	addi	a6,a6,-31
     94c:	0200                	addi	s0,sp,256
     94e:	0304                	addi	s1,sp,384
     950:	02090003          	lb	zero,32(s2)
     954:	0100                	addi	s0,sp,128
     956:	1505                	addi	a0,a0,-31
     958:	0200                	addi	s0,sp,256
     95a:	0304                	addi	s1,sp,384
     95c:	02090003          	lb	zero,32(s2)
     960:	0100                	addi	s0,sp,128
     962:	0905                	addi	s2,s2,1
     964:	0200                	addi	s0,sp,256
     966:	0304                	addi	s1,sp,384
     968:	08090003          	lb	zero,128(s2)
     96c:	0100                	addi	s0,sp,128
     96e:	0d05                	addi	s10,s10,1
     970:	0200                	addi	s0,sp,256
     972:	0304                	addi	s1,sp,384
     974:	02090003          	lb	zero,32(s2)
     978:	0100                	addi	s0,sp,128
     97a:	1505                	addi	a0,a0,-31
     97c:	0200                	addi	s0,sp,256
     97e:	0304                	addi	s1,sp,384
     980:	04090003          	lb	zero,64(s2)
     984:	0100                	addi	s0,sp,128
     986:	2005                	jal	9a6 <_prog_start-0x7ffff65a>
     988:	0200                	addi	s0,sp,256
     98a:	0304                	addi	s1,sp,384
     98c:	04097f03          	.4byte	0x4097f03
     990:	0100                	addi	s0,sp,128
     992:	0d05                	addi	s10,s10,1
     994:	0200                	addi	s0,sp,256
     996:	0304                	addi	s1,sp,384
     998:	02090103          	lb	sp,32(s2)
     99c:	0100                	addi	s0,sp,128
     99e:	2005                	jal	9be <_prog_start-0x7ffff642>
     9a0:	0200                	addi	s0,sp,256
     9a2:	0304                	addi	s1,sp,384
     9a4:	0306                	slli	t1,t1,0x1
     9a6:	097f                	.2byte	0x97f
     9a8:	0006                	c.slli	zero,0x1
     9aa:	0501                	addi	a0,a0,0
     9ac:	04020017          	auipc	zero,0x4020
     9b0:	09000303          	lb	t1,144(zero) # 90 <_prog_start-0x7fffff70>
     9b4:	0000                	unimp
     9b6:	0501                	addi	a0,a0,0
     9b8:	0021                	c.nop	8
     9ba:	0402                	c.slli64	s0
     9bc:	0302                	c.slli64	t1
     9be:	097f                	.2byte	0x97f
     9c0:	0004                	.2byte	0x4
     9c2:	0501                	addi	a0,a0,0
     9c4:	0015                	c.nop	5
     9c6:	0402                	c.slli64	s0
     9c8:	0302                	c.slli64	t1
     9ca:	0900                	addi	s0,sp,144
     9cc:	0002                	c.slli64	zero
     9ce:	0501                	addi	a0,a0,0
     9d0:	0601                	addi	a2,a2,0
     9d2:	04090303          	lb	t1,64(s2)
     9d6:	0100                	addi	s0,sp,128
     9d8:	0e05                	addi	t3,t3,1
     9da:	0306                	slli	t1,t1,0x1
     9dc:	0902                	c.slli64	s2
     9de:	0002                	c.slli64	zero
     9e0:	0501                	addi	a0,a0,0
     9e2:	09050303          	lb	t1,144(a0)
     9e6:	0000                	unimp
     9e8:	0501                	addi	a0,a0,0
     9ea:	0308                	addi	a0,sp,384
     9ec:	0900                	addi	s0,sp,144
     9ee:	0000                	unimp
     9f0:	0501                	addi	a0,a0,0
     9f2:	0315                	addi	t1,t1,5
     9f4:	0900                	addi	s0,sp,144
     9f6:	0000                	unimp
     9f8:	0501                	addi	a0,a0,0
     9fa:	060c                	addi	a1,sp,768
     9fc:	00090003          	lb	zero,0(s2)
     a00:	0100                	addi	s0,sp,128
     a02:	1705                	addi	a4,a4,-31
     a04:	1a090103          	lb	sp,416(s2)
     a08:	0100                	addi	s0,sp,128
     a0a:	1505                	addi	a0,a0,-31
     a0c:	04097f03          	.4byte	0x4097f03
     a10:	0100                	addi	s0,sp,128
     a12:	1705                	addi	a4,a4,-31
     a14:	0306                	slli	t1,t1,0x1
     a16:	0901                	addi	s2,s2,0
     a18:	0004                	.2byte	0x4
     a1a:	0501                	addi	a0,a0,0
     a1c:	060e                	slli	a2,a2,0x3
     a1e:	00090003          	lb	zero,0(s2)
     a22:	0100                	addi	s0,sp,128
     a24:	0705                	addi	a4,a4,1
     a26:	0200                	addi	s0,sp,256
     a28:	0304                	addi	s1,sp,384
     a2a:	0306                	slli	t1,t1,0x1
     a2c:	0901                	addi	s2,s2,0
     a2e:	0002                	c.slli64	zero
     a30:	0501                	addi	a0,a0,0
     a32:	0011                	c.nop	4
     a34:	0402                	c.slli64	s0
     a36:	00030603          	lb	a2,0(t1)
     a3a:	0009                	c.nop	2
     a3c:	0100                	addi	s0,sp,128
     a3e:	1805                	addi	a6,a6,-31
     a40:	0200                	addi	s0,sp,256
     a42:	0304                	addi	s1,sp,384
     a44:	04090003          	lb	zero,64(s2)
     a48:	0100                	addi	s0,sp,128
     a4a:	0905                	addi	s2,s2,1
     a4c:	0200                	addi	s0,sp,256
     a4e:	0304                	addi	s1,sp,384
     a50:	04090003          	lb	zero,64(s2)
     a54:	0100                	addi	s0,sp,128
     a56:	1105                	addi	sp,sp,-31
     a58:	0200                	addi	s0,sp,256
     a5a:	0304                	addi	s1,sp,384
     a5c:	04090003          	lb	zero,64(s2)
     a60:	0100                	addi	s0,sp,128
     a62:	1805                	addi	a6,a6,-31
     a64:	0200                	addi	s0,sp,256
     a66:	0304                	addi	s1,sp,384
     a68:	02090003          	lb	zero,32(s2)
     a6c:	0100                	addi	s0,sp,128
     a6e:	1505                	addi	a0,a0,-31
     a70:	0200                	addi	s0,sp,256
     a72:	0304                	addi	s1,sp,384
     a74:	02090003          	lb	zero,32(s2)
     a78:	0100                	addi	s0,sp,128
     a7a:	0905                	addi	s2,s2,1
     a7c:	0200                	addi	s0,sp,256
     a7e:	0304                	addi	s1,sp,384
     a80:	08090003          	lb	zero,128(s2)
     a84:	0100                	addi	s0,sp,128
     a86:	0d05                	addi	s10,s10,1
     a88:	0200                	addi	s0,sp,256
     a8a:	0304                	addi	s1,sp,384
     a8c:	02090003          	lb	zero,32(s2)
     a90:	0100                	addi	s0,sp,128
     a92:	1505                	addi	a0,a0,-31
     a94:	0200                	addi	s0,sp,256
     a96:	0304                	addi	s1,sp,384
     a98:	04090003          	lb	zero,64(s2)
     a9c:	0100                	addi	s0,sp,128
     a9e:	2005                	jal	abe <_prog_start-0x7ffff542>
     aa0:	0200                	addi	s0,sp,256
     aa2:	0304                	addi	s1,sp,384
     aa4:	04097f03          	.4byte	0x4097f03
     aa8:	0100                	addi	s0,sp,128
     aaa:	0d05                	addi	s10,s10,1
     aac:	0200                	addi	s0,sp,256
     aae:	0304                	addi	s1,sp,384
     ab0:	02090103          	lb	sp,32(s2)
     ab4:	0100                	addi	s0,sp,128
     ab6:	2005                	jal	ad6 <_prog_start-0x7ffff52a>
     ab8:	0200                	addi	s0,sp,256
     aba:	0304                	addi	s1,sp,384
     abc:	0306                	slli	t1,t1,0x1
     abe:	097f                	.2byte	0x97f
     ac0:	0006                	c.slli	zero,0x1
     ac2:	0501                	addi	a0,a0,0
     ac4:	04020017          	auipc	zero,0x4020
     ac8:	09000303          	lb	t1,144(zero) # 90 <_prog_start-0x7fffff70>
     acc:	0000                	unimp
     ace:	0501                	addi	a0,a0,0
     ad0:	0021                	c.nop	8
     ad2:	0402                	c.slli64	s0
     ad4:	0302                	c.slli64	t1
     ad6:	097f                	.2byte	0x97f
     ad8:	0004                	.2byte	0x4
     ada:	0501                	addi	a0,a0,0
     adc:	0015                	c.nop	5
     ade:	0402                	c.slli64	s0
     ae0:	0302                	c.slli64	t1
     ae2:	0900                	addi	s0,sp,144
     ae4:	0002                	c.slli64	zero
     ae6:	0501                	addi	a0,a0,0
     ae8:	0601                	addi	a2,a2,0
     aea:	04090303          	lb	t1,64(s2)
     aee:	0100                	addi	s0,sp,128
     af0:	0e05                	addi	t3,t3,1
     af2:	0306                	slli	t1,t1,0x1
     af4:	0902                	c.slli64	s2
     af6:	0002                	c.slli64	zero
     af8:	0501                	addi	a0,a0,0
     afa:	09050303          	lb	t1,144(a0)
     afe:	0000                	unimp
     b00:	0501                	addi	a0,a0,0
     b02:	0308                	addi	a0,sp,384
     b04:	0900                	addi	s0,sp,144
     b06:	0000                	unimp
     b08:	0501                	addi	a0,a0,0
     b0a:	0315                	addi	t1,t1,5
     b0c:	0900                	addi	s0,sp,144
     b0e:	0000                	unimp
     b10:	0501                	addi	a0,a0,0
     b12:	060c                	addi	a1,sp,768
     b14:	00090003          	lb	zero,0(s2)
     b18:	0100                	addi	s0,sp,128
     b1a:	1705                	addi	a4,a4,-31
     b1c:	1a090103          	lb	sp,416(s2)
     b20:	0100                	addi	s0,sp,128
     b22:	1505                	addi	a0,a0,-31
     b24:	04097f03          	.4byte	0x4097f03
     b28:	0100                	addi	s0,sp,128
     b2a:	1705                	addi	a4,a4,-31
     b2c:	0306                	slli	t1,t1,0x1
     b2e:	0901                	addi	s2,s2,0
     b30:	0004                	.2byte	0x4
     b32:	0501                	addi	a0,a0,0
     b34:	060e                	slli	a2,a2,0x3
     b36:	00090003          	lb	zero,0(s2)
     b3a:	0100                	addi	s0,sp,128
     b3c:	0705                	addi	a4,a4,1
     b3e:	0200                	addi	s0,sp,256
     b40:	0304                	addi	s1,sp,384
     b42:	0306                	slli	t1,t1,0x1
     b44:	0901                	addi	s2,s2,0
     b46:	0002                	c.slli64	zero
     b48:	0501                	addi	a0,a0,0
     b4a:	0011                	c.nop	4
     b4c:	0402                	c.slli64	s0
     b4e:	00030603          	lb	a2,0(t1)
     b52:	0009                	c.nop	2
     b54:	0100                	addi	s0,sp,128
     b56:	1805                	addi	a6,a6,-31
     b58:	0200                	addi	s0,sp,256
     b5a:	0304                	addi	s1,sp,384
     b5c:	04090003          	lb	zero,64(s2)
     b60:	0100                	addi	s0,sp,128
     b62:	0905                	addi	s2,s2,1
     b64:	0200                	addi	s0,sp,256
     b66:	0304                	addi	s1,sp,384
     b68:	04090003          	lb	zero,64(s2)
     b6c:	0100                	addi	s0,sp,128
     b6e:	1105                	addi	sp,sp,-31
     b70:	0200                	addi	s0,sp,256
     b72:	0304                	addi	s1,sp,384
     b74:	04090003          	lb	zero,64(s2)
     b78:	0100                	addi	s0,sp,128
     b7a:	1805                	addi	a6,a6,-31
     b7c:	0200                	addi	s0,sp,256
     b7e:	0304                	addi	s1,sp,384
     b80:	02090003          	lb	zero,32(s2)
     b84:	0100                	addi	s0,sp,128
     b86:	1505                	addi	a0,a0,-31
     b88:	0200                	addi	s0,sp,256
     b8a:	0304                	addi	s1,sp,384
     b8c:	02090003          	lb	zero,32(s2)
     b90:	0100                	addi	s0,sp,128
     b92:	0905                	addi	s2,s2,1
     b94:	0200                	addi	s0,sp,256
     b96:	0304                	addi	s1,sp,384
     b98:	08090003          	lb	zero,128(s2)
     b9c:	0100                	addi	s0,sp,128
     b9e:	0d05                	addi	s10,s10,1
     ba0:	0200                	addi	s0,sp,256
     ba2:	0304                	addi	s1,sp,384
     ba4:	02090003          	lb	zero,32(s2)
     ba8:	0100                	addi	s0,sp,128
     baa:	1505                	addi	a0,a0,-31
     bac:	0200                	addi	s0,sp,256
     bae:	0304                	addi	s1,sp,384
     bb0:	04090003          	lb	zero,64(s2)
     bb4:	0100                	addi	s0,sp,128
     bb6:	2005                	jal	bd6 <_prog_start-0x7ffff42a>
     bb8:	0200                	addi	s0,sp,256
     bba:	0304                	addi	s1,sp,384
     bbc:	04097f03          	.4byte	0x4097f03
     bc0:	0100                	addi	s0,sp,128
     bc2:	0d05                	addi	s10,s10,1
     bc4:	0200                	addi	s0,sp,256
     bc6:	0304                	addi	s1,sp,384
     bc8:	02090103          	lb	sp,32(s2)
     bcc:	0100                	addi	s0,sp,128
     bce:	2005                	jal	bee <_prog_start-0x7ffff412>
     bd0:	0200                	addi	s0,sp,256
     bd2:	0304                	addi	s1,sp,384
     bd4:	0306                	slli	t1,t1,0x1
     bd6:	097f                	.2byte	0x97f
     bd8:	0006                	c.slli	zero,0x1
     bda:	0501                	addi	a0,a0,0
     bdc:	04020017          	auipc	zero,0x4020
     be0:	09000303          	lb	t1,144(zero) # 90 <_prog_start-0x7fffff70>
     be4:	0000                	unimp
     be6:	0501                	addi	a0,a0,0
     be8:	0021                	c.nop	8
     bea:	0402                	c.slli64	s0
     bec:	0302                	c.slli64	t1
     bee:	097f                	.2byte	0x97f
     bf0:	0004                	.2byte	0x4
     bf2:	0501                	addi	a0,a0,0
     bf4:	0015                	c.nop	5
     bf6:	0402                	c.slli64	s0
     bf8:	0302                	c.slli64	t1
     bfa:	0900                	addi	s0,sp,144
     bfc:	0002                	c.slli64	zero
     bfe:	0501                	addi	a0,a0,0
     c00:	0601                	addi	a2,a2,0
     c02:	04090303          	lb	t1,64(s2)
     c06:	0100                	addi	s0,sp,128
     c08:	0e05                	addi	t3,t3,1
     c0a:	0306                	slli	t1,t1,0x1
     c0c:	0902                	c.slli64	s2
     c0e:	0002                	c.slli64	zero
     c10:	0501                	addi	a0,a0,0
     c12:	09050303          	lb	t1,144(a0)
     c16:	0000                	unimp
     c18:	0501                	addi	a0,a0,0
     c1a:	0308                	addi	a0,sp,384
     c1c:	0900                	addi	s0,sp,144
     c1e:	0000                	unimp
     c20:	0501                	addi	a0,a0,0
     c22:	0315                	addi	t1,t1,5
     c24:	0900                	addi	s0,sp,144
     c26:	0000                	unimp
     c28:	0501                	addi	a0,a0,0
     c2a:	060c                	addi	a1,sp,768
     c2c:	00090003          	lb	zero,0(s2)
     c30:	0100                	addi	s0,sp,128
     c32:	1705                	addi	a4,a4,-31
     c34:	1a090103          	lb	sp,416(s2)
     c38:	0100                	addi	s0,sp,128
     c3a:	1505                	addi	a0,a0,-31
     c3c:	04097f03          	.4byte	0x4097f03
     c40:	0100                	addi	s0,sp,128
     c42:	1705                	addi	a4,a4,-31
     c44:	0306                	slli	t1,t1,0x1
     c46:	0901                	addi	s2,s2,0
     c48:	0004                	.2byte	0x4
     c4a:	0501                	addi	a0,a0,0
     c4c:	060e                	slli	a2,a2,0x3
     c4e:	00090003          	lb	zero,0(s2)
     c52:	0100                	addi	s0,sp,128
     c54:	0705                	addi	a4,a4,1
     c56:	0200                	addi	s0,sp,256
     c58:	0304                	addi	s1,sp,384
     c5a:	0306                	slli	t1,t1,0x1
     c5c:	0901                	addi	s2,s2,0
     c5e:	0002                	c.slli64	zero
     c60:	0501                	addi	a0,a0,0
     c62:	0011                	c.nop	4
     c64:	0402                	c.slli64	s0
     c66:	00030603          	lb	a2,0(t1)
     c6a:	0009                	c.nop	2
     c6c:	0100                	addi	s0,sp,128
     c6e:	1805                	addi	a6,a6,-31
     c70:	0200                	addi	s0,sp,256
     c72:	0304                	addi	s1,sp,384
     c74:	04090003          	lb	zero,64(s2)
     c78:	0100                	addi	s0,sp,128
     c7a:	0905                	addi	s2,s2,1
     c7c:	0200                	addi	s0,sp,256
     c7e:	0304                	addi	s1,sp,384
     c80:	04090003          	lb	zero,64(s2)
     c84:	0100                	addi	s0,sp,128
     c86:	1105                	addi	sp,sp,-31
     c88:	0200                	addi	s0,sp,256
     c8a:	0304                	addi	s1,sp,384
     c8c:	04090003          	lb	zero,64(s2)
     c90:	0100                	addi	s0,sp,128
     c92:	1805                	addi	a6,a6,-31
     c94:	0200                	addi	s0,sp,256
     c96:	0304                	addi	s1,sp,384
     c98:	02090003          	lb	zero,32(s2)
     c9c:	0100                	addi	s0,sp,128
     c9e:	1505                	addi	a0,a0,-31
     ca0:	0200                	addi	s0,sp,256
     ca2:	0304                	addi	s1,sp,384
     ca4:	02090003          	lb	zero,32(s2)
     ca8:	0100                	addi	s0,sp,128
     caa:	0905                	addi	s2,s2,1
     cac:	0200                	addi	s0,sp,256
     cae:	0304                	addi	s1,sp,384
     cb0:	08090003          	lb	zero,128(s2)
     cb4:	0100                	addi	s0,sp,128
     cb6:	0d05                	addi	s10,s10,1
     cb8:	0200                	addi	s0,sp,256
     cba:	0304                	addi	s1,sp,384
     cbc:	02090003          	lb	zero,32(s2)
     cc0:	0100                	addi	s0,sp,128
     cc2:	1505                	addi	a0,a0,-31
     cc4:	0200                	addi	s0,sp,256
     cc6:	0304                	addi	s1,sp,384
     cc8:	04090003          	lb	zero,64(s2)
     ccc:	0100                	addi	s0,sp,128
     cce:	2005                	jal	cee <_prog_start-0x7ffff312>
     cd0:	0200                	addi	s0,sp,256
     cd2:	0304                	addi	s1,sp,384
     cd4:	04097f03          	.4byte	0x4097f03
     cd8:	0100                	addi	s0,sp,128
     cda:	0d05                	addi	s10,s10,1
     cdc:	0200                	addi	s0,sp,256
     cde:	0304                	addi	s1,sp,384
     ce0:	02090103          	lb	sp,32(s2)
     ce4:	0100                	addi	s0,sp,128
     ce6:	2005                	jal	d06 <_prog_start-0x7ffff2fa>
     ce8:	0200                	addi	s0,sp,256
     cea:	0304                	addi	s1,sp,384
     cec:	0306                	slli	t1,t1,0x1
     cee:	097f                	.2byte	0x97f
     cf0:	0006                	c.slli	zero,0x1
     cf2:	0501                	addi	a0,a0,0
     cf4:	04020017          	auipc	zero,0x4020
     cf8:	09000303          	lb	t1,144(zero) # 90 <_prog_start-0x7fffff70>
     cfc:	0000                	unimp
     cfe:	0501                	addi	a0,a0,0
     d00:	0021                	c.nop	8
     d02:	0402                	c.slli64	s0
     d04:	0302                	c.slli64	t1
     d06:	097f                	.2byte	0x97f
     d08:	0004                	.2byte	0x4
     d0a:	0501                	addi	a0,a0,0
     d0c:	0015                	c.nop	5
     d0e:	0402                	c.slli64	s0
     d10:	0302                	c.slli64	t1
     d12:	0900                	addi	s0,sp,144
     d14:	0002                	c.slli64	zero
     d16:	0501                	addi	a0,a0,0
     d18:	0601                	addi	a2,a2,0
     d1a:	04090303          	lb	t1,64(s2)
     d1e:	0100                	addi	s0,sp,128
     d20:	0e05                	addi	t3,t3,1
     d22:	0306                	slli	t1,t1,0x1
     d24:	00020903          	lb	s2,0(tp) # 0 <_prog_start-0x80000000>
     d28:	0501                	addi	a0,a0,0
     d2a:	09010303          	lb	t1,144(sp)
     d2e:	0000                	unimp
     d30:	0501                	addi	a0,a0,0
     d32:	0308                	addi	a0,sp,384
     d34:	0900                	addi	s0,sp,144
     d36:	0000                	unimp
     d38:	0501                	addi	a0,a0,0
     d3a:	0315                	addi	t1,t1,5
     d3c:	0900                	addi	s0,sp,144
     d3e:	0000                	unimp
     d40:	0501                	addi	a0,a0,0
     d42:	060c                	addi	a1,sp,768
     d44:	00090003          	lb	zero,0(s2)
     d48:	0100                	addi	s0,sp,128
     d4a:	1505                	addi	a0,a0,-31
     d4c:	1a090003          	lb	zero,416(s2)
     d50:	0100                	addi	s0,sp,128
     d52:	0905                	addi	s2,s2,1
     d54:	0200                	addi	s0,sp,256
     d56:	0304                	addi	s1,sp,384
     d58:	0306                	slli	t1,t1,0x1
     d5a:	0901                	addi	s2,s2,0
     d5c:	0004                	.2byte	0x4
     d5e:	0501                	addi	a0,a0,0
     d60:	0012                	c.slli	zero,0x4
     d62:	0402                	c.slli64	s0
     d64:	00030603          	lb	a2,0(t1)
     d68:	0009                	c.nop	2
     d6a:	0100                	addi	s0,sp,128
     d6c:	1a05                	addi	s4,s4,-31
     d6e:	0200                	addi	s0,sp,256
     d70:	0304                	addi	s1,sp,384
     d72:	04090003          	lb	zero,64(s2)
     d76:	0100                	addi	s0,sp,128
     d78:	0e05                	addi	t3,t3,1
     d7a:	0200                	addi	s0,sp,256
     d7c:	0304                	addi	s1,sp,384
     d7e:	02090003          	lb	zero,32(s2)
     d82:	0100                	addi	s0,sp,128
     d84:	1205                	addi	tp,tp,-31 # ffffffe1 <a+0x7ffff5b5>
     d86:	0200                	addi	s0,sp,256
     d88:	0304                	addi	s1,sp,384
     d8a:	04090003          	lb	zero,64(s2)
     d8e:	0100                	addi	s0,sp,128
     d90:	1a05                	addi	s4,s4,-31
     d92:	0200                	addi	s0,sp,256
     d94:	0304                	addi	s1,sp,384
     d96:	02090003          	lb	zero,32(s2)
     d9a:	0100                	addi	s0,sp,128
     d9c:	1605                	addi	a2,a2,-31
     d9e:	0200                	addi	s0,sp,256
     da0:	0304                	addi	s1,sp,384
     da2:	02090003          	lb	zero,32(s2)
     da6:	0100                	addi	s0,sp,128
     da8:	0e05                	addi	t3,t3,1
     daa:	0200                	addi	s0,sp,256
     dac:	0304                	addi	s1,sp,384
     dae:	08090003          	lb	zero,128(s2)
     db2:	0100                	addi	s0,sp,128
     db4:	2005                	jal	dd4 <_prog_start-0x7ffff22c>
     db6:	0200                	addi	s0,sp,256
     db8:	0304                	addi	s1,sp,384
     dba:	02097f03          	.4byte	0x2097f03
     dbe:	0100                	addi	s0,sp,128
     dc0:	1605                	addi	a2,a2,-31
     dc2:	0200                	addi	s0,sp,256
     dc4:	0304                	addi	s1,sp,384
     dc6:	02090103          	lb	sp,32(s2)
     dca:	0100                	addi	s0,sp,128
     dcc:	0e05                	addi	t3,t3,1
     dce:	0200                	addi	s0,sp,256
     dd0:	0304                	addi	s1,sp,384
     dd2:	02090003          	lb	zero,32(s2)
     dd6:	0100                	addi	s0,sp,128
     dd8:	2005                	jal	df8 <_prog_start-0x7ffff208>
     dda:	0200                	addi	s0,sp,256
     ddc:	0304                	addi	s1,sp,384
     dde:	0306                	slli	t1,t1,0x1
     de0:	097f                	.2byte	0x97f
     de2:	0004                	.2byte	0x4
     de4:	0501                	addi	a0,a0,0
     de6:	0015                	c.nop	5
     de8:	0402                	c.slli64	s0
     dea:	09000303          	lb	t1,144(zero) # 90 <_prog_start-0x7fffff70>
     dee:	0000                	unimp
     df0:	0501                	addi	a0,a0,0
     df2:	0601                	addi	a2,a2,0
     df4:	04090203          	lb	tp,64(s2)
     df8:	0100                	addi	s0,sp,128
     dfa:	0e05                	addi	t3,t3,1
     dfc:	0306                	slli	t1,t1,0x1
     dfe:	0902                	c.slli64	s2
     e00:	0002                	c.slli64	zero
     e02:	0501                	addi	a0,a0,0
     e04:	09010303          	lb	t1,144(sp)
     e08:	0000                	unimp
     e0a:	0501                	addi	a0,a0,0
     e0c:	0308                	addi	a0,sp,384
     e0e:	0900                	addi	s0,sp,144
     e10:	0000                	unimp
     e12:	0501                	addi	a0,a0,0
     e14:	0315                	addi	t1,t1,5
     e16:	0900                	addi	s0,sp,144
     e18:	0000                	unimp
     e1a:	0501                	addi	a0,a0,0
     e1c:	060c                	addi	a1,sp,768
     e1e:	00090003          	lb	zero,0(s2)
     e22:	0100                	addi	s0,sp,128
     e24:	1505                	addi	a0,a0,-31
     e26:	1a090003          	lb	zero,416(s2)
     e2a:	0100                	addi	s0,sp,128
     e2c:	0905                	addi	s2,s2,1
     e2e:	0200                	addi	s0,sp,256
     e30:	0304                	addi	s1,sp,384
     e32:	0306                	slli	t1,t1,0x1
     e34:	0901                	addi	s2,s2,0
     e36:	0004                	.2byte	0x4
     e38:	0501                	addi	a0,a0,0
     e3a:	0012                	c.slli	zero,0x4
     e3c:	0402                	c.slli64	s0
     e3e:	00030603          	lb	a2,0(t1)
     e42:	0009                	c.nop	2
     e44:	0100                	addi	s0,sp,128
     e46:	1a05                	addi	s4,s4,-31
     e48:	0200                	addi	s0,sp,256
     e4a:	0304                	addi	s1,sp,384
     e4c:	04090003          	lb	zero,64(s2)
     e50:	0100                	addi	s0,sp,128
     e52:	0e05                	addi	t3,t3,1
     e54:	0200                	addi	s0,sp,256
     e56:	0304                	addi	s1,sp,384
     e58:	02090003          	lb	zero,32(s2)
     e5c:	0100                	addi	s0,sp,128
     e5e:	1205                	addi	tp,tp,-31 # ffffffe1 <a+0x7ffff5b5>
     e60:	0200                	addi	s0,sp,256
     e62:	0304                	addi	s1,sp,384
     e64:	04090003          	lb	zero,64(s2)
     e68:	0100                	addi	s0,sp,128
     e6a:	1a05                	addi	s4,s4,-31
     e6c:	0200                	addi	s0,sp,256
     e6e:	0304                	addi	s1,sp,384
     e70:	02090003          	lb	zero,32(s2)
     e74:	0100                	addi	s0,sp,128
     e76:	1605                	addi	a2,a2,-31
     e78:	0200                	addi	s0,sp,256
     e7a:	0304                	addi	s1,sp,384
     e7c:	02090003          	lb	zero,32(s2)
     e80:	0100                	addi	s0,sp,128
     e82:	0e05                	addi	t3,t3,1
     e84:	0200                	addi	s0,sp,256
     e86:	0304                	addi	s1,sp,384
     e88:	08090003          	lb	zero,128(s2)
     e8c:	0100                	addi	s0,sp,128
     e8e:	2005                	jal	eae <_prog_start-0x7ffff152>
     e90:	0200                	addi	s0,sp,256
     e92:	0304                	addi	s1,sp,384
     e94:	02097f03          	.4byte	0x2097f03
     e98:	0100                	addi	s0,sp,128
     e9a:	1605                	addi	a2,a2,-31
     e9c:	0200                	addi	s0,sp,256
     e9e:	0304                	addi	s1,sp,384
     ea0:	02090103          	lb	sp,32(s2)
     ea4:	0100                	addi	s0,sp,128
     ea6:	0e05                	addi	t3,t3,1
     ea8:	0200                	addi	s0,sp,256
     eaa:	0304                	addi	s1,sp,384
     eac:	02090003          	lb	zero,32(s2)
     eb0:	0100                	addi	s0,sp,128
     eb2:	2005                	jal	ed2 <_prog_start-0x7ffff12e>
     eb4:	0200                	addi	s0,sp,256
     eb6:	0304                	addi	s1,sp,384
     eb8:	0306                	slli	t1,t1,0x1
     eba:	097f                	.2byte	0x97f
     ebc:	0004                	.2byte	0x4
     ebe:	0501                	addi	a0,a0,0
     ec0:	0015                	c.nop	5
     ec2:	0402                	c.slli64	s0
     ec4:	09000303          	lb	t1,144(zero) # 90 <_prog_start-0x7fffff70>
     ec8:	0000                	unimp
     eca:	0501                	addi	a0,a0,0
     ecc:	0601                	addi	a2,a2,0
     ece:	04090203          	lb	tp,64(s2)
     ed2:	0100                	addi	s0,sp,128
     ed4:	0209                	addi	tp,tp,2 # 2 <_prog_start-0x7ffffffe>
     ed6:	0000                	unimp
     ed8:	0101                	addi	sp,sp,0
     eda:	2005                	jal	efa <_prog_start-0x7ffff106>
     edc:	0500                	addi	s0,sp,640
     ede:	7a02                	.2byte	0x7a02
     ee0:	0005                	c.nop	1
     ee2:	0380                	addi	s0,sp,448
     ee4:	0185                	addi	gp,gp,1
     ee6:	0501                	addi	a0,a0,0
     ee8:	09020303          	lb	t1,144(tp) # 90 <_prog_start-0x7fffff70>
     eec:	0000                	unimp
     eee:	0501                	addi	a0,a0,0
     ef0:	0620                	addi	s0,sp,776
     ef2:	00097e03          	.4byte	0x97e03
     ef6:	0100                	addi	s0,sp,128
     ef8:	12090203          	lb	tp,288(s2)
     efc:	0100                	addi	s0,sp,128
     efe:	04097e03          	.4byte	0x4097e03
     f02:	0100                	addi	s0,sp,128
     f04:	08090203          	lb	tp,128(s2)
     f08:	0100                	addi	s0,sp,128
     f0a:	0305                	addi	t1,t1,1
     f0c:	0306                	slli	t1,t1,0x1
     f0e:	0931                	addi	s2,s2,12
     f10:	0004                	.2byte	0x4
     f12:	0501                	addi	a0,a0,0
     f14:	0620                	addi	s0,sp,776
     f16:	00090003          	lb	zero,0(s2)
     f1a:	0100                	addi	s0,sp,128
     f1c:	0305                	addi	t1,t1,1
     f1e:	0306                	slli	t1,t1,0x1
     f20:	0902                	c.slli64	s2
     f22:	0002                	c.slli64	zero
     f24:	0301                	addi	t1,t1,0
     f26:	0901                	addi	s2,s2,0
     f28:	0000                	unimp
     f2a:	0301                	addi	t1,t1,0
     f2c:	0901                	addi	s2,s2,0
     f2e:	0000                	unimp
     f30:	0301                	addi	t1,t1,0
     f32:	0901                	addi	s2,s2,0
     f34:	0000                	unimp
     f36:	0301                	addi	t1,t1,0
     f38:	0902                	c.slli64	s2
     f3a:	0000                	unimp
     f3c:	0501                	addi	a0,a0,0
     f3e:	0308                	addi	a0,sp,384
     f40:	0900                	addi	s0,sp,144
     f42:	0000                	unimp
     f44:	0501                	addi	a0,a0,0
     f46:	0315                	addi	t1,t1,5
     f48:	0900                	addi	s0,sp,144
     f4a:	0000                	unimp
     f4c:	0501                	addi	a0,a0,0
     f4e:	060c                	addi	a1,sp,768
     f50:	08090003          	lb	zero,128(s2)
     f54:	0100                	addi	s0,sp,128
     f56:	1505                	addi	a0,a0,-31
     f58:	5a090003          	lb	zero,1440(s2)
     f5c:	0100                	addi	s0,sp,128
     f5e:	0505                	addi	a0,a0,1
     f60:	0200                	addi	s0,sp,256
     f62:	0304                	addi	s1,sp,384
     f64:	0306                	slli	t1,t1,0x1
     f66:	0901                	addi	s2,s2,0
     f68:	0004                	.2byte	0x4
     f6a:	0501                	addi	a0,a0,0
     f6c:	000a                	c.slli	zero,0x2
     f6e:	0402                	c.slli64	s0
     f70:	00030603          	lb	a2,0(t1)
     f74:	0009                	c.nop	2
     f76:	0100                	addi	s0,sp,128
     f78:	0505                	addi	a0,a0,1
     f7a:	0200                	addi	s0,sp,256
     f7c:	0304                	addi	s1,sp,384
     f7e:	0306                	slli	t1,t1,0x1
     f80:	0901                	addi	s2,s2,0
     f82:	000e                	c.slli	zero,0x3
     f84:	0501                	addi	a0,a0,0
     f86:	000a                	c.slli	zero,0x2
     f88:	0402                	c.slli64	s0
     f8a:	00030603          	lb	a2,0(t1)
     f8e:	0009                	c.nop	2
     f90:	0100                	addi	s0,sp,128
     f92:	0505                	addi	a0,a0,1
     f94:	0200                	addi	s0,sp,256
     f96:	0304                	addi	s1,sp,384
     f98:	0306                	slli	t1,t1,0x1
     f9a:	0901                	addi	s2,s2,0
     f9c:	000a                	c.slli	zero,0x2
     f9e:	0501                	addi	a0,a0,0
     fa0:	000a                	c.slli	zero,0x2
     fa2:	0402                	c.slli64	s0
     fa4:	00030603          	lb	a2,0(t1)
     fa8:	0009                	c.nop	2
     faa:	0100                	addi	s0,sp,128
     fac:	0505                	addi	a0,a0,1
     fae:	0200                	addi	s0,sp,256
     fb0:	0304                	addi	s1,sp,384
     fb2:	0306                	slli	t1,t1,0x1
     fb4:	0901                	addi	s2,s2,0
     fb6:	0008                	.2byte	0x8
     fb8:	0501                	addi	a0,a0,0
     fba:	000a                	c.slli	zero,0x2
     fbc:	0402                	c.slli64	s0
     fbe:	00030603          	lb	a2,0(t1)
     fc2:	0009                	c.nop	2
     fc4:	0100                	addi	s0,sp,128
     fc6:	0505                	addi	a0,a0,1
     fc8:	0200                	addi	s0,sp,256
     fca:	0304                	addi	s1,sp,384
     fcc:	0306                	slli	t1,t1,0x1
     fce:	0901                	addi	s2,s2,0
     fd0:	0008                	.2byte	0x8
     fd2:	0501                	addi	a0,a0,0
     fd4:	000a                	c.slli	zero,0x2
     fd6:	0402                	c.slli64	s0
     fd8:	00030603          	lb	a2,0(t1)
     fdc:	0009                	c.nop	2
     fde:	0100                	addi	s0,sp,128
     fe0:	0505                	addi	a0,a0,1
     fe2:	0200                	addi	s0,sp,256
     fe4:	0304                	addi	s1,sp,384
     fe6:	0306                	slli	t1,t1,0x1
     fe8:	0901                	addi	s2,s2,0
     fea:	000a                	c.slli	zero,0x2
     fec:	0501                	addi	a0,a0,0
     fee:	000a                	c.slli	zero,0x2
     ff0:	0402                	c.slli64	s0
     ff2:	00030603          	lb	a2,0(t1)
     ff6:	0009                	c.nop	2
     ff8:	0100                	addi	s0,sp,128
     ffa:	0505                	addi	a0,a0,1
     ffc:	0200                	addi	s0,sp,256
     ffe:	0304                	addi	s1,sp,384
    1000:	0306                	slli	t1,t1,0x1
    1002:	0901                	addi	s2,s2,0
    1004:	000a                	c.slli	zero,0x2
    1006:	0501                	addi	a0,a0,0
    1008:	000a                	c.slli	zero,0x2
    100a:	0402                	c.slli64	s0
    100c:	00030603          	lb	a2,0(t1)
    1010:	0009                	c.nop	2
    1012:	0100                	addi	s0,sp,128
    1014:	0505                	addi	a0,a0,1
    1016:	0200                	addi	s0,sp,256
    1018:	0304                	addi	s1,sp,384
    101a:	0306                	slli	t1,t1,0x1
    101c:	0901                	addi	s2,s2,0
    101e:	000a                	c.slli	zero,0x2
    1020:	0501                	addi	a0,a0,0
    1022:	000a                	c.slli	zero,0x2
    1024:	0402                	c.slli64	s0
    1026:	00030603          	lb	a2,0(t1)
    102a:	0009                	c.nop	2
    102c:	0100                	addi	s0,sp,128
    102e:	0505                	addi	a0,a0,1
    1030:	0200                	addi	s0,sp,256
    1032:	0304                	addi	s1,sp,384
    1034:	0306                	slli	t1,t1,0x1
    1036:	0902                	c.slli64	s2
    1038:	0008                	.2byte	0x8
    103a:	0501                	addi	a0,a0,0
    103c:	0402000b          	.4byte	0x402000b
    1040:	00030603          	lb	a2,0(t1)
    1044:	0009                	c.nop	2
    1046:	0100                	addi	s0,sp,128
    1048:	0505                	addi	a0,a0,1
    104a:	0200                	addi	s0,sp,256
    104c:	0304                	addi	s1,sp,384
    104e:	0306                	slli	t1,t1,0x1
    1050:	0901                	addi	s2,s2,0
    1052:	000a                	c.slli	zero,0x2
    1054:	0501                	addi	a0,a0,0
    1056:	0402000b          	.4byte	0x402000b
    105a:	00030603          	lb	a2,0(t1)
    105e:	0009                	c.nop	2
    1060:	0100                	addi	s0,sp,128
    1062:	0505                	addi	a0,a0,1
    1064:	0200                	addi	s0,sp,256
    1066:	0304                	addi	s1,sp,384
    1068:	0306                	slli	t1,t1,0x1
    106a:	0901                	addi	s2,s2,0
    106c:	000a                	c.slli	zero,0x2
    106e:	0501                	addi	a0,a0,0
    1070:	0402000b          	.4byte	0x402000b
    1074:	00030603          	lb	a2,0(t1)
    1078:	0009                	c.nop	2
    107a:	0100                	addi	s0,sp,128
    107c:	0505                	addi	a0,a0,1
    107e:	0200                	addi	s0,sp,256
    1080:	0304                	addi	s1,sp,384
    1082:	0306                	slli	t1,t1,0x1
    1084:	0901                	addi	s2,s2,0
    1086:	000a                	c.slli	zero,0x2
    1088:	0501                	addi	a0,a0,0
    108a:	0402000b          	.4byte	0x402000b
    108e:	00030603          	lb	a2,0(t1)
    1092:	0009                	c.nop	2
    1094:	0100                	addi	s0,sp,128
    1096:	2005                	jal	10b6 <_prog_start-0x7fffef4a>
    1098:	0200                	addi	s0,sp,256
    109a:	0304                	addi	s1,sp,384
    109c:	0306                	slli	t1,t1,0x1
    109e:	000a0973          	.4byte	0xa0973
    10a2:	0501                	addi	a0,a0,0
    10a4:	0015                	c.nop	5
    10a6:	0402                	c.slli64	s0
    10a8:	09000303          	lb	t1,144(zero) # 90 <_prog_start-0x7fffff70>
    10ac:	0002                	c.slli64	zero
    10ae:	0501                	addi	a0,a0,0
    10b0:	0305                	addi	t1,t1,1
    10b2:	0910                	addi	a2,sp,144
    10b4:	0004                	.2byte	0x4
    10b6:	0501                	addi	a0,a0,0
    10b8:	0900030f          	.4byte	0x900030f
    10bc:	0000                	unimp
    10be:	0301                	addi	t1,t1,0
    10c0:	0900                	addi	s0,sp,144
    10c2:	0000                	unimp
    10c4:	0301                	addi	t1,t1,0
    10c6:	0900                	addi	s0,sp,144
    10c8:	0004                	.2byte	0x4
    10ca:	0501                	addi	a0,a0,0
    10cc:	0305                	addi	t1,t1,1
    10ce:	0901                	addi	s2,s2,0
    10d0:	0000                	unimp
    10d2:	0501                	addi	a0,a0,0
    10d4:	0316                	slli	t1,t1,0x5
    10d6:	0900                	addi	s0,sp,144
    10d8:	0000                	unimp
    10da:	0301                	addi	t1,t1,0
    10dc:	0900                	addi	s0,sp,144
    10de:	0000                	unimp
    10e0:	0301                	addi	t1,t1,0
    10e2:	0900                	addi	s0,sp,144
    10e4:	0004                	.2byte	0x4
    10e6:	0501                	addi	a0,a0,0
    10e8:	0305                	addi	t1,t1,1
    10ea:	0901                	addi	s2,s2,0
    10ec:	0000                	unimp
    10ee:	0501                	addi	a0,a0,0
    10f0:	0316                	slli	t1,t1,0x5
    10f2:	0900                	addi	s0,sp,144
    10f4:	0000                	unimp
    10f6:	0301                	addi	t1,t1,0
    10f8:	0900                	addi	s0,sp,144
    10fa:	0000                	unimp
    10fc:	0301                	addi	t1,t1,0
    10fe:	0900                	addi	s0,sp,144
    1100:	0004                	.2byte	0x4
    1102:	0501                	addi	a0,a0,0
    1104:	0305                	addi	t1,t1,1
    1106:	0905                	addi	s2,s2,1
    1108:	0000                	unimp
    110a:	0301                	addi	t1,t1,0
    110c:	0901                	addi	s2,s2,0
    110e:	0002                	c.slli64	zero
    1110:	0301                	addi	t1,t1,0
    1112:	0901                	addi	s2,s2,0
    1114:	0002                	c.slli64	zero
    1116:	0301                	addi	t1,t1,0
    1118:	0901                	addi	s2,s2,0
    111a:	0002                	c.slli64	zero
    111c:	0301                	addi	t1,t1,0
    111e:	0904                	addi	s1,sp,144
    1120:	0002                	c.slli64	zero
    1122:	0501                	addi	a0,a0,0
    1124:	7eeb0303          	lb	t1,2030(s6)
    1128:	0009                	c.nop	2
    112a:	0100                	addi	s0,sp,128
    112c:	0805                	addi	a6,a6,1
    112e:	00090003          	lb	zero,0(s2)
    1132:	0100                	addi	s0,sp,128
    1134:	1505                	addi	a0,a0,-31
    1136:	00090003          	lb	zero,0(s2)
    113a:	0100                	addi	s0,sp,128
    113c:	0c05                	addi	s8,s8,1 # 9001 <_prog_start-0x7fff6fff>
    113e:	0306                	slli	t1,t1,0x1
    1140:	0900                	addi	s0,sp,144
    1142:	0000                	unimp
    1144:	0501                	addi	a0,a0,0
    1146:	0315                	addi	t1,t1,5
    1148:	0900                	addi	s0,sp,144
    114a:	0002                	c.slli64	zero
    114c:	0501                	addi	a0,a0,0
    114e:	0609                	addi	a2,a2,2
    1150:	04090103          	lb	sp,64(s2)
    1154:	0100                	addi	s0,sp,128
    1156:	1205                	addi	tp,tp,-31 # ffffffe1 <a+0x7ffff5b5>
    1158:	0306                	slli	t1,t1,0x1
    115a:	0900                	addi	s0,sp,144
    115c:	0000                	unimp
    115e:	0501                	addi	a0,a0,0
    1160:	031a                	slli	t1,t1,0x6
    1162:	0900                	addi	s0,sp,144
    1164:	0004                	.2byte	0x4
    1166:	0501                	addi	a0,a0,0
    1168:	030e                	slli	t1,t1,0x3
    116a:	0900                	addi	s0,sp,144
    116c:	0004                	.2byte	0x4
    116e:	0501                	addi	a0,a0,0
    1170:	0312                	slli	t1,t1,0x4
    1172:	0900                	addi	s0,sp,144
    1174:	0004                	.2byte	0x4
    1176:	0501                	addi	a0,a0,0
    1178:	031a                	slli	t1,t1,0x6
    117a:	0900                	addi	s0,sp,144
    117c:	0002                	c.slli64	zero
    117e:	0501                	addi	a0,a0,0
    1180:	0316                	slli	t1,t1,0x5
    1182:	0900                	addi	s0,sp,144
    1184:	0002                	c.slli64	zero
    1186:	0501                	addi	a0,a0,0
    1188:	030e                	slli	t1,t1,0x3
    118a:	0900                	addi	s0,sp,144
    118c:	0008                	.2byte	0x8
    118e:	0501                	addi	a0,a0,0
    1190:	0320                	addi	s0,sp,392
    1192:	097f                	.2byte	0x97f
    1194:	0002                	c.slli64	zero
    1196:	0501                	addi	a0,a0,0
    1198:	0316                	slli	t1,t1,0x5
    119a:	0901                	addi	s2,s2,0
    119c:	0002                	c.slli64	zero
    119e:	0501                	addi	a0,a0,0
    11a0:	030e                	slli	t1,t1,0x3
    11a2:	0900                	addi	s0,sp,144
    11a4:	0002                	c.slli64	zero
    11a6:	0501                	addi	a0,a0,0
    11a8:	0620                	addi	s0,sp,776
    11aa:	04097f03          	.4byte	0x4097f03
    11ae:	0100                	addi	s0,sp,128
    11b0:	1505                	addi	a0,a0,-31
    11b2:	00090003          	lb	zero,0(s2)
    11b6:	0100                	addi	s0,sp,128
    11b8:	0c05                	addi	s8,s8,1
    11ba:	0306                	slli	t1,t1,0x1
    11bc:	0905                	addi	s2,s2,1
    11be:	0004                	.2byte	0x4
    11c0:	0501                	addi	a0,a0,0
    11c2:	0315                	addi	t1,t1,5
    11c4:	0900                	addi	s0,sp,144
    11c6:	0002                	c.slli64	zero
    11c8:	0501                	addi	a0,a0,0
    11ca:	0609                	addi	a2,a2,2
    11cc:	04090103          	lb	sp,64(s2)
    11d0:	0100                	addi	s0,sp,128
    11d2:	1205                	addi	tp,tp,-31 # ffffffe1 <a+0x7ffff5b5>
    11d4:	0306                	slli	t1,t1,0x1
    11d6:	0900                	addi	s0,sp,144
    11d8:	0000                	unimp
    11da:	0501                	addi	a0,a0,0
    11dc:	031a                	slli	t1,t1,0x6
    11de:	0900                	addi	s0,sp,144
    11e0:	0004                	.2byte	0x4
    11e2:	0501                	addi	a0,a0,0
    11e4:	030e                	slli	t1,t1,0x3
    11e6:	0900                	addi	s0,sp,144
    11e8:	0004                	.2byte	0x4
    11ea:	0501                	addi	a0,a0,0
    11ec:	0312                	slli	t1,t1,0x4
    11ee:	0900                	addi	s0,sp,144
    11f0:	0004                	.2byte	0x4
    11f2:	0501                	addi	a0,a0,0
    11f4:	031a                	slli	t1,t1,0x6
    11f6:	0900                	addi	s0,sp,144
    11f8:	0002                	c.slli64	zero
    11fa:	0501                	addi	a0,a0,0
    11fc:	0316                	slli	t1,t1,0x5
    11fe:	0900                	addi	s0,sp,144
    1200:	0002                	c.slli64	zero
    1202:	0501                	addi	a0,a0,0
    1204:	030e                	slli	t1,t1,0x3
    1206:	0900                	addi	s0,sp,144
    1208:	0008                	.2byte	0x8
    120a:	0501                	addi	a0,a0,0
    120c:	0320                	addi	s0,sp,392
    120e:	097f                	.2byte	0x97f
    1210:	0002                	c.slli64	zero
    1212:	0501                	addi	a0,a0,0
    1214:	0316                	slli	t1,t1,0x5
    1216:	0901                	addi	s2,s2,0
    1218:	0002                	c.slli64	zero
    121a:	0501                	addi	a0,a0,0
    121c:	030e                	slli	t1,t1,0x3
    121e:	0900                	addi	s0,sp,144
    1220:	0002                	c.slli64	zero
    1222:	0501                	addi	a0,a0,0
    1224:	0620                	addi	s0,sp,776
    1226:	04097f03          	.4byte	0x4097f03
    122a:	0100                	addi	s0,sp,128
    122c:	1505                	addi	a0,a0,-31
    122e:	00090003          	lb	zero,0(s2)
    1232:	0100                	addi	s0,sp,128
    1234:	0505                	addi	a0,a0,1
    1236:	09019703          	lh	a4,144(gp)
    123a:	0004                	.2byte	0x4
    123c:	0301                	addi	t1,t1,0
    123e:	0901                	addi	s2,s2,0
    1240:	0002                	c.slli64	zero
    1242:	0301                	addi	t1,t1,0
    1244:	0901                	addi	s2,s2,0
    1246:	0002                	c.slli64	zero
    1248:	0301                	addi	t1,t1,0
    124a:	0901                	addi	s2,s2,0
    124c:	0002                	c.slli64	zero
    124e:	0301                	addi	t1,t1,0
    1250:	0904                	addi	s1,sp,144
    1252:	0002                	c.slli64	zero
    1254:	0501                	addi	a0,a0,0
    1256:	0315                	addi	t1,t1,5
    1258:	7f91                	lui	t6,0xfffe4
    125a:	0009                	c.nop	2
    125c:	0100                	addi	s0,sp,128
    125e:	0c05                	addi	s8,s8,1
    1260:	0306                	slli	t1,t1,0x1
    1262:	0900                	addi	s0,sp,144
    1264:	0000                	unimp
    1266:	0501                	addi	a0,a0,0
    1268:	0315                	addi	t1,t1,5
    126a:	0900                	addi	s0,sp,144
    126c:	0002                	c.slli64	zero
    126e:	0501                	addi	a0,a0,0
    1270:	0609                	addi	a2,a2,2
    1272:	04090103          	lb	sp,64(s2)
    1276:	0100                	addi	s0,sp,128
    1278:	1205                	addi	tp,tp,-31 # ffffffe1 <a+0x7ffff5b5>
    127a:	0306                	slli	t1,t1,0x1
    127c:	0900                	addi	s0,sp,144
    127e:	0000                	unimp
    1280:	0501                	addi	a0,a0,0
    1282:	031a                	slli	t1,t1,0x6
    1284:	0900                	addi	s0,sp,144
    1286:	0004                	.2byte	0x4
    1288:	0501                	addi	a0,a0,0
    128a:	030e                	slli	t1,t1,0x3
    128c:	0900                	addi	s0,sp,144
    128e:	0004                	.2byte	0x4
    1290:	0501                	addi	a0,a0,0
    1292:	0312                	slli	t1,t1,0x4
    1294:	0900                	addi	s0,sp,144
    1296:	0004                	.2byte	0x4
    1298:	0501                	addi	a0,a0,0
    129a:	031a                	slli	t1,t1,0x6
    129c:	0900                	addi	s0,sp,144
    129e:	0002                	c.slli64	zero
    12a0:	0501                	addi	a0,a0,0
    12a2:	0316                	slli	t1,t1,0x5
    12a4:	0900                	addi	s0,sp,144
    12a6:	0002                	c.slli64	zero
    12a8:	0501                	addi	a0,a0,0
    12aa:	030e                	slli	t1,t1,0x3
    12ac:	0900                	addi	s0,sp,144
    12ae:	0008                	.2byte	0x8
    12b0:	0501                	addi	a0,a0,0
    12b2:	0320                	addi	s0,sp,392
    12b4:	097f                	.2byte	0x97f
    12b6:	0002                	c.slli64	zero
    12b8:	0501                	addi	a0,a0,0
    12ba:	0316                	slli	t1,t1,0x5
    12bc:	0901                	addi	s2,s2,0
    12be:	0002                	c.slli64	zero
    12c0:	0501                	addi	a0,a0,0
    12c2:	030e                	slli	t1,t1,0x3
    12c4:	0900                	addi	s0,sp,144
    12c6:	0002                	c.slli64	zero
    12c8:	0501                	addi	a0,a0,0
    12ca:	0620                	addi	s0,sp,776
    12cc:	04097f03          	.4byte	0x4097f03
    12d0:	0100                	addi	s0,sp,128
    12d2:	1505                	addi	a0,a0,-31
    12d4:	00090003          	lb	zero,0(s2)
    12d8:	0100                	addi	s0,sp,128
    12da:	0c05                	addi	s8,s8,1
    12dc:	0306                	slli	t1,t1,0x1
    12de:	0905                	addi	s2,s2,1
    12e0:	0004                	.2byte	0x4
    12e2:	0501                	addi	a0,a0,0
    12e4:	0315                	addi	t1,t1,5
    12e6:	0900                	addi	s0,sp,144
    12e8:	0002                	c.slli64	zero
    12ea:	0501                	addi	a0,a0,0
    12ec:	0609                	addi	a2,a2,2
    12ee:	04090103          	lb	sp,64(s2)
    12f2:	0100                	addi	s0,sp,128
    12f4:	1205                	addi	tp,tp,-31 # ffffffe1 <a+0x7ffff5b5>
    12f6:	0306                	slli	t1,t1,0x1
    12f8:	0900                	addi	s0,sp,144
    12fa:	0000                	unimp
    12fc:	0501                	addi	a0,a0,0
    12fe:	031a                	slli	t1,t1,0x6
    1300:	0900                	addi	s0,sp,144
    1302:	0004                	.2byte	0x4
    1304:	0501                	addi	a0,a0,0
    1306:	030e                	slli	t1,t1,0x3
    1308:	0900                	addi	s0,sp,144
    130a:	0004                	.2byte	0x4
    130c:	0501                	addi	a0,a0,0
    130e:	0312                	slli	t1,t1,0x4
    1310:	0900                	addi	s0,sp,144
    1312:	0002                	c.slli64	zero
    1314:	0501                	addi	a0,a0,0
    1316:	031a                	slli	t1,t1,0x6
    1318:	0900                	addi	s0,sp,144
    131a:	0002                	c.slli64	zero
    131c:	0501                	addi	a0,a0,0
    131e:	0316                	slli	t1,t1,0x5
    1320:	0900                	addi	s0,sp,144
    1322:	0002                	c.slli64	zero
    1324:	0501                	addi	a0,a0,0
    1326:	030e                	slli	t1,t1,0x3
    1328:	0900                	addi	s0,sp,144
    132a:	0008                	.2byte	0x8
    132c:	0501                	addi	a0,a0,0
    132e:	0320                	addi	s0,sp,392
    1330:	097f                	.2byte	0x97f
    1332:	0002                	c.slli64	zero
    1334:	0501                	addi	a0,a0,0
    1336:	0316                	slli	t1,t1,0x5
    1338:	0901                	addi	s2,s2,0
    133a:	0002                	c.slli64	zero
    133c:	0501                	addi	a0,a0,0
    133e:	030e                	slli	t1,t1,0x3
    1340:	0900                	addi	s0,sp,144
    1342:	0002                	c.slli64	zero
    1344:	0501                	addi	a0,a0,0
    1346:	0620                	addi	s0,sp,776
    1348:	04097f03          	.4byte	0x4097f03
    134c:	0100                	addi	s0,sp,128
    134e:	1505                	addi	a0,a0,-31
    1350:	00090003          	lb	zero,0(s2)
    1354:	0100                	addi	s0,sp,128
    1356:	0505                	addi	a0,a0,1
    1358:	0900ec03          	.4byte	0x900ec03
    135c:	0004                	.2byte	0x4
    135e:	0501                	addi	a0,a0,0
    1360:	030d                	addi	t1,t1,3
    1362:	0900                	addi	s0,sp,144
    1364:	0000                	unimp
    1366:	0301                	addi	t1,t1,0
    1368:	0900                	addi	s0,sp,144
    136a:	0000                	unimp
    136c:	0301                	addi	t1,t1,0
    136e:	0900                	addi	s0,sp,144
    1370:	0004                	.2byte	0x4
    1372:	0501                	addi	a0,a0,0
    1374:	0305                	addi	t1,t1,1
    1376:	0901                	addi	s2,s2,0
    1378:	0000                	unimp
    137a:	0501                	addi	a0,a0,0
    137c:	0314                	addi	a3,sp,384
    137e:	0900                	addi	s0,sp,144
    1380:	0000                	unimp
    1382:	0301                	addi	t1,t1,0
    1384:	0900                	addi	s0,sp,144
    1386:	0000                	unimp
    1388:	0301                	addi	t1,t1,0
    138a:	0900                	addi	s0,sp,144
    138c:	0004                	.2byte	0x4
    138e:	0501                	addi	a0,a0,0
    1390:	0305                	addi	t1,t1,1
    1392:	0901                	addi	s2,s2,0
    1394:	0000                	unimp
    1396:	0501                	addi	a0,a0,0
    1398:	0314                	addi	a3,sp,384
    139a:	0900                	addi	s0,sp,144
    139c:	0000                	unimp
    139e:	0301                	addi	t1,t1,0
    13a0:	0900                	addi	s0,sp,144
    13a2:	0000                	unimp
    13a4:	0301                	addi	t1,t1,0
    13a6:	0900                	addi	s0,sp,144
    13a8:	0004                	.2byte	0x4
    13aa:	0501                	addi	a0,a0,0
    13ac:	0305                	addi	t1,t1,1
    13ae:	0902                	c.slli64	s2
    13b0:	0000                	unimp
    13b2:	0501                	addi	a0,a0,0
    13b4:	030a                	slli	t1,t1,0x2
    13b6:	0900                	addi	s0,sp,144
    13b8:	0000                	unimp
    13ba:	0501                	addi	a0,a0,0
    13bc:	09000317          	auipc	t1,0x9000
    13c0:	0000                	unimp
    13c2:	0501                	addi	a0,a0,0
    13c4:	060e                	slli	a2,a2,0x3
    13c6:	00090103          	lb	sp,0(s2)
    13ca:	0100                	addi	s0,sp,128
    13cc:	04090103          	lb	sp,64(s2)
    13d0:	0100                	addi	s0,sp,128
    13d2:	04090103          	lb	sp,64(s2)
    13d6:	0100                	addi	s0,sp,128
    13d8:	04090103          	lb	sp,64(s2)
    13dc:	0100                	addi	s0,sp,128
    13de:	04097c03          	.4byte	0x4097c03
    13e2:	0100                	addi	s0,sp,128
    13e4:	0c05                	addi	s8,s8,1
    13e6:	02094c03          	lbu	s8,32(s2)
    13ea:	0100                	addi	s0,sp,128
    13ec:	1705                	addi	a4,a4,-31
    13ee:	02093403          	.4byte	0x2093403
    13f2:	0100                	addi	s0,sp,128
    13f4:	0905                	addi	s2,s2,1
    13f6:	0306                	slli	t1,t1,0x1
    13f8:	0901                	addi	s2,s2,0
    13fa:	0004                	.2byte	0x4
    13fc:	0501                	addi	a0,a0,0
    13fe:	060e                	slli	a2,a2,0x3
    1400:	00090003          	lb	zero,0(s2)
    1404:	0100                	addi	s0,sp,128
    1406:	04090103          	lb	sp,64(s2)
    140a:	0100                	addi	s0,sp,128
    140c:	0c05                	addi	s8,s8,1
    140e:	04097f03          	.4byte	0x4097f03
    1412:	0100                	addi	s0,sp,128
    1414:	04090103          	lb	sp,64(s2)
    1418:	0100                	addi	s0,sp,128
    141a:	0e05                	addi	t3,t3,1
    141c:	04090103          	lb	sp,64(s2)
    1420:	0100                	addi	s0,sp,128
    1422:	04090103          	lb	sp,64(s2)
    1426:	0100                	addi	s0,sp,128
    1428:	0c05                	addi	s8,s8,1
    142a:	04097f03          	.4byte	0x4097f03
    142e:	0100                	addi	s0,sp,128
    1430:	04090103          	lb	sp,64(s2)
    1434:	0100                	addi	s0,sp,128
    1436:	2305                	jal	1956 <_prog_start-0x7fffe6aa>
    1438:	04097d03          	.4byte	0x4097d03
    143c:	0100                	addi	s0,sp,128
    143e:	0905                	addi	s2,s2,1
    1440:	0306                	slli	t1,t1,0x1
    1442:	0901                	addi	s2,s2,0
    1444:	0006                	c.slli	zero,0x1
    1446:	0501                	addi	a0,a0,0
    1448:	00030623          	sb	zero,12(t1) # 90013c8 <_prog_start-0x76ffec38>
    144c:	0009                	c.nop	2
    144e:	0100                	addi	s0,sp,128
    1450:	0905                	addi	s2,s2,1
    1452:	0306                	slli	t1,t1,0x1
    1454:	0901                	addi	s2,s2,0
    1456:	0006                	c.slli	zero,0x1
    1458:	0501                	addi	a0,a0,0
    145a:	00030623          	sb	zero,12(t1)
    145e:	0009                	c.nop	2
    1460:	0100                	addi	s0,sp,128
    1462:	0905                	addi	s2,s2,1
    1464:	0306                	slli	t1,t1,0x1
    1466:	0901                	addi	s2,s2,0
    1468:	0006                	c.slli	zero,0x1
    146a:	0501                	addi	a0,a0,0
    146c:	00030623          	sb	zero,12(t1)
    1470:	0009                	c.nop	2
    1472:	0100                	addi	s0,sp,128
    1474:	04097c03          	.4byte	0x4097c03
    1478:	0100                	addi	s0,sp,128
    147a:	02090403          	lb	s0,32(s2)
    147e:	0100                	addi	s0,sp,128
    1480:	0306                	slli	t1,t1,0x1
    1482:	097c                	addi	a5,sp,156
    1484:	0002                	c.slli64	zero
    1486:	0501                	addi	a0,a0,0
    1488:	09000317          	auipc	t1,0x9000
    148c:	0000                	unimp
    148e:	0501                	addi	a0,a0,0
    1490:	0305                	addi	t1,t1,1 # 9001489 <_prog_start-0x76ffeb77>
    1492:	00040907          	.4byte	0x40907
    1496:	0301                	addi	t1,t1,0
    1498:	0902                	c.slli64	s2
    149a:	0000                	unimp
    149c:	0301                	addi	t1,t1,0
    149e:	0901                	addi	s2,s2,0
    14a0:	000e                	c.slli	zero,0x3
    14a2:	0301                	addi	t1,t1,0
    14a4:	0901                	addi	s2,s2,0
    14a6:	000e                	c.slli	zero,0x3
    14a8:	0301                	addi	t1,t1,0
    14aa:	0901                	addi	s2,s2,0
    14ac:	000e                	c.slli	zero,0x3
    14ae:	0501                	addi	a0,a0,0
    14b0:	09020303          	lb	t1,144(tp) # 90 <_prog_start-0x7fffff70>
    14b4:	000c                	.2byte	0xc
    14b6:	0501                	addi	a0,a0,0
    14b8:	0601                	addi	a2,a2,0
    14ba:	00090103          	lb	sp,0(s2)
    14be:	0100                	addi	s0,sp,128
    14c0:	1e09                	addi	t3,t3,-30
    14c2:	0000                	unimp
    14c4:	0101                	addi	sp,sp,0
    14c6:	07ff                	.2byte	0x7ff
    14c8:	0000                	unimp
    14ca:	0005                	c.nop	1
    14cc:	0004                	.2byte	0x4
    14ce:	004a                	c.slli	zero,0x12
    14d0:	0000                	unimp
    14d2:	0101                	addi	sp,sp,0
    14d4:	fb01                	bnez	a4,13e4 <_prog_start-0x7fffec1c>
    14d6:	0d0e                	slli	s10,s10,0x3
    14d8:	0100                	addi	s0,sp,128
    14da:	0101                	addi	sp,sp,0
    14dc:	0001                	nop
    14de:	0000                	unimp
    14e0:	0001                	nop
    14e2:	0100                	addi	s0,sp,128
    14e4:	0101                	addi	sp,sp,0
    14e6:	041f 0000 0000      	.byte	0x1f, 0x04, 0x00, 0x00, 0x00, 0x00
    14ec:	0000013f 0000004e 	.8byte	0x4e0000013f
    14f4:	00b1                	addi	ra,ra,12
    14f6:	0000                	unimp
    14f8:	0102                	c.slli64	sp
    14fa:	021f 060f 0135      	.byte	0x1f, 0x02, 0x0f, 0x06, 0x35, 0x01
    1500:	0000                	unimp
    1502:	3500                	.2byte	0x3500
    1504:	0001                	nop
    1506:	0000                	unimp
    1508:	0000012b          	.4byte	0x12b
    150c:	a900                	.2byte	0xa900
    150e:	0001                	nop
    1510:	0100                	addi	s0,sp,128
    1512:	0110                	addi	a2,sp,128
    1514:	0000                	unimp
    1516:	2102                	.2byte	0x2102
    1518:	0001                	nop
    151a:	0300                	addi	s0,sp,384
    151c:	0105                	addi	sp,sp,1
    151e:	0500                	addi	s0,sp,640
    1520:	0002                	c.slli64	zero
    1522:	0008                	.2byte	0x8
    1524:	0380                	addi	s0,sp,448
    1526:	0205010f          	.4byte	0x205010f
    152a:	00090103          	lb	sp,0(s2)
    152e:	0100                	addi	s0,sp,128
    1530:	00097903          	.4byte	0x97903
    1534:	0100                	addi	s0,sp,128
    1536:	00090103          	lb	sp,0(s2)
    153a:	0100                	addi	s0,sp,128
    153c:	1205                	addi	tp,tp,-31 # ffffffe1 <a+0x7ffff5b5>
    153e:	00090003          	lb	zero,0(s2)
    1542:	0100                	addi	s0,sp,128
    1544:	0c05                	addi	s8,s8,1
    1546:	0306                	slli	t1,t1,0x1
    1548:	0900                	addi	s0,sp,144
    154a:	0000                	unimp
    154c:	0501                	addi	a0,a0,0
    154e:	0312                	slli	t1,t1,0x4
    1550:	0900                	addi	s0,sp,144
    1552:	0004                	.2byte	0x4
    1554:	0401                	addi	s0,s0,0
    1556:	0502                	c.slli64	a0
    1558:	09100303          	lb	t1,145(zero) # 91 <_prog_start-0x7fffff6f>
    155c:	0002                	c.slli64	zero
    155e:	0501                	addi	a0,a0,0
    1560:	0602                	c.slli64	a2
    1562:	04097e03          	.4byte	0x4097e03
    1566:	0100                	addi	s0,sp,128
    1568:	00090103          	lb	sp,0(s2)
    156c:	0100                	addi	s0,sp,128
    156e:	0305                	addi	t1,t1,1
    1570:	00090103          	lb	sp,0(s2)
    1574:	0100                	addi	s0,sp,128
    1576:	0d05                	addi	s10,s10,1
    1578:	04090403          	lb	s0,64(s2)
    157c:	0100                	addi	s0,sp,128
    157e:	0104                	addi	s1,sp,128
    1580:	1c05                	addi	s8,s8,-31
    1582:	04096c03          	.4byte	0x4096c03
    1586:	0100                	addi	s0,sp,128
    1588:	0c05                	addi	s8,s8,1
    158a:	0306                	slli	t1,t1,0x1
    158c:	0900                	addi	s0,sp,144
    158e:	0000                	unimp
    1590:	0501                	addi	a0,a0,0
    1592:	031c                	addi	a5,sp,384
    1594:	0900                	addi	s0,sp,144
    1596:	0004                	.2byte	0x4
    1598:	0501                	addi	a0,a0,0
    159a:	0612                	slli	a2,a2,0x4
    159c:	02090003          	lb	zero,32(s2)
    15a0:	0100                	addi	s0,sp,128
    15a2:	0204                	addi	s1,sp,256
    15a4:	0305                	addi	t1,t1,1
    15a6:	0306                	slli	t1,t1,0x1
    15a8:	0910                	addi	a2,sp,144
    15aa:	0002                	c.slli64	zero
    15ac:	0501                	addi	a0,a0,0
    15ae:	0602                	c.slli64	a2
    15b0:	06097e03          	.4byte	0x6097e03
    15b4:	0100                	addi	s0,sp,128
    15b6:	00090103          	lb	sp,0(s2)
    15ba:	0100                	addi	s0,sp,128
    15bc:	0305                	addi	t1,t1,1
    15be:	00090103          	lb	sp,0(s2)
    15c2:	0100                	addi	s0,sp,128
    15c4:	0d05                	addi	s10,s10,1
    15c6:	04090403          	lb	s0,64(s2)
    15ca:	0100                	addi	s0,sp,128
    15cc:	0305                	addi	t1,t1,1
    15ce:	0306                	slli	t1,t1,0x1
    15d0:	097c                	addi	a5,sp,156
    15d2:	0004                	.2byte	0x4
    15d4:	0501                	addi	a0,a0,0
    15d6:	0602                	c.slli64	a2
    15d8:	06097e03          	.4byte	0x6097e03
    15dc:	0100                	addi	s0,sp,128
    15de:	00090103          	lb	sp,0(s2)
    15e2:	0100                	addi	s0,sp,128
    15e4:	0305                	addi	t1,t1,1
    15e6:	00090103          	lb	sp,0(s2)
    15ea:	0100                	addi	s0,sp,128
    15ec:	0d05                	addi	s10,s10,1
    15ee:	04090403          	lb	s0,64(s2)
    15f2:	0100                	addi	s0,sp,128
    15f4:	0104                	addi	s1,sp,128
    15f6:	0105                	addi	sp,sp,1
    15f8:	0306                	slli	t1,t1,0x1
    15fa:	0975                	addi	s2,s2,29
    15fc:	0004                	.2byte	0x4
    15fe:	0601                	addi	a2,a2,0
    1600:	02090303          	lb	t1,32(s2)
    1604:	0100                	addi	s0,sp,128
    1606:	0205                	addi	tp,tp,1 # 1 <_prog_start-0x7fffffff>
    1608:	00090103          	lb	sp,0(s2)
    160c:	0100                	addi	s0,sp,128
    160e:	00090103          	lb	sp,0(s2)
    1612:	0100                	addi	s0,sp,128
    1614:	00090103          	lb	sp,0(s2)
    1618:	0100                	addi	s0,sp,128
    161a:	00090203          	lb	tp,0(s2)
    161e:	0100                	addi	s0,sp,128
    1620:	0105                	addi	sp,sp,1
    1622:	0306                	slli	t1,t1,0x1
    1624:	0000097b          	.4byte	0x97b
    1628:	0501                	addi	a0,a0,0
    162a:	030c                	addi	a1,sp,384
    162c:	0909                	addi	s2,s2,2
    162e:	0002                	c.slli64	zero
    1630:	0501                	addi	a0,a0,0
    1632:	0301                	addi	t1,t1,0
    1634:	00040977          	.4byte	0x40977
    1638:	0501                	addi	a0,a0,0
    163a:	0302                	c.slli64	t1
    163c:	0905                	addi	s2,s2,1
    163e:	0002                	c.slli64	zero
    1640:	0501                	addi	a0,a0,0
    1642:	0301                	addi	t1,t1,0
    1644:	0002097b          	.4byte	0x2097b
    1648:	0501                	addi	a0,a0,0
    164a:	0302                	c.slli64	t1
    164c:	0905                	addi	s2,s2,1
    164e:	000c                	.2byte	0xc
    1650:	0601                	addi	a2,a2,0
    1652:	02090103          	lb	sp,32(s2)
    1656:	0100                	addi	s0,sp,128
    1658:	00090103          	lb	sp,0(s2)
    165c:	0100                	addi	s0,sp,128
    165e:	00090103          	lb	sp,0(s2)
    1662:	0100                	addi	s0,sp,128
    1664:	00090103          	lb	sp,0(s2)
    1668:	0100                	addi	s0,sp,128
    166a:	1605                	addi	a2,a2,-31
    166c:	00090003          	lb	zero,0(s2)
    1670:	0100                	addi	s0,sp,128
    1672:	0d05                	addi	s10,s10,1
    1674:	0306                	slli	t1,t1,0x1
    1676:	0931                	addi	s2,s2,12
    1678:	000a                	c.slli	zero,0x2
    167a:	0401                	addi	s0,s0,0
    167c:	0502                	c.slli64	a0
    167e:	094a0303          	lb	t1,148(s4)
    1682:	0004                	.2byte	0x4
    1684:	0401                	addi	s0,s0,0
    1686:	0501                	addi	a0,a0,0
    1688:	0304                	addi	s1,sp,384
    168a:	00040907          	.4byte	0x40907
    168e:	0501                	addi	a0,a0,0
    1690:	7f030603          	lb	a2,2032(t1)
    1694:	0a09                	addi	s4,s4,2
    1696:	0100                	addi	s0,sp,128
    1698:	0605                	addi	a2,a2,1
    169a:	0306                	slli	t1,t1,0x1
    169c:	0900                	addi	s0,sp,144
    169e:	0000                	unimp
    16a0:	0501                	addi	a0,a0,0
    16a2:	0604                	addi	s1,sp,768
    16a4:	02090103          	lb	sp,32(s2)
    16a8:	0100                	addi	s0,sp,128
    16aa:	0505                	addi	a0,a0,1
    16ac:	18092903          	lw	s2,384(s2)
    16b0:	0100                	addi	s0,sp,128
    16b2:	0b05                	addi	s6,s6,1
    16b4:	0306                	slli	t1,t1,0x1
    16b6:	0900                	addi	s0,sp,144
    16b8:	0000                	unimp
    16ba:	0401                	addi	s0,s0,0
    16bc:	0502                	c.slli64	a0
    16be:	09500303          	lb	t1,149(zero) # 95 <_prog_start-0x7fffff6b>
    16c2:	0002                	c.slli64	zero
    16c4:	0401                	addi	s0,s0,0
    16c6:	0501                	addi	a0,a0,0
    16c8:	0305                	addi	t1,t1,1
    16ca:	0930                	addi	a2,sp,152
    16cc:	0004                	.2byte	0x4
    16ce:	0401                	addi	s0,s0,0
    16d0:	0502                	c.slli64	a0
    16d2:	0602                	c.slli64	a2
    16d4:	04094c03          	lbu	s8,64(s2)
    16d8:	0100                	addi	s0,sp,128
    16da:	0104                	addi	s1,sp,128
    16dc:	0b05                	addi	s6,s6,1
    16de:	0306                	slli	t1,t1,0x1
    16e0:	0934                	addi	a3,sp,152
    16e2:	0000                	unimp
    16e4:	0401                	addi	s0,s0,0
    16e6:	0502                	c.slli64	a0
    16e8:	0602                	c.slli64	a2
    16ea:	04094e03          	lbu	t3,64(s2)
    16ee:	0100                	addi	s0,sp,128
    16f0:	00090103          	lb	sp,0(s2)
    16f4:	0100                	addi	s0,sp,128
    16f6:	0305                	addi	t1,t1,1
    16f8:	00090103          	lb	sp,0(s2)
    16fc:	0100                	addi	s0,sp,128
    16fe:	0d05                	addi	s10,s10,1
    1700:	04090403          	lb	s0,64(s2)
    1704:	0100                	addi	s0,sp,128
    1706:	0104                	addi	s1,sp,128
    1708:	0c05                	addi	s8,s8,1
    170a:	0306                	slli	t1,t1,0x1
    170c:	0931                	addi	s2,s2,12
    170e:	0004                	.2byte	0x4
    1710:	0501                	addi	a0,a0,0
    1712:	030e                	slli	t1,t1,0x3
    1714:	097e                	slli	s2,s2,0x1f
    1716:	0002                	c.slli64	zero
    1718:	0501                	addi	a0,a0,0
    171a:	0616                	slli	a2,a2,0x5
    171c:	02095203          	lhu	tp,32(s2)
    1720:	0100                	addi	s0,sp,128
    1722:	0c05                	addi	s8,s8,1
    1724:	0306                	slli	t1,t1,0x1
    1726:	0900                	addi	s0,sp,144
    1728:	0000                	unimp
    172a:	0501                	addi	a0,a0,0
    172c:	0312                	slli	t1,t1,0x4
    172e:	0900                	addi	s0,sp,144
    1730:	0004                	.2byte	0x4
    1732:	0501                	addi	a0,a0,0
    1734:	0316                	slli	t1,t1,0x5
    1736:	0900                	addi	s0,sp,144
    1738:	0002                	c.slli64	zero
    173a:	0501                	addi	a0,a0,0
    173c:	0301                	addi	t1,t1,0
    173e:	0938                	addi	a4,sp,152
    1740:	0004                	.2byte	0x4
    1742:	0501                	addi	a0,a0,0
    1744:	0605                	addi	a2,a2,1
    1746:	04095f03          	lhu	t5,64(s2)
    174a:	0100                	addi	s0,sp,128
    174c:	00090103          	lb	sp,0(s2)
    1750:	0100                	addi	s0,sp,128
    1752:	00090103          	lb	sp,0(s2)
    1756:	0100                	addi	s0,sp,128
    1758:	0605                	addi	a2,a2,1
    175a:	00090403          	lb	s0,0(s2)
    175e:	0100                	addi	s0,sp,128
    1760:	0805                	addi	a6,a6,1
    1762:	0306                	slli	t1,t1,0x1
    1764:	0900                	addi	s0,sp,144
    1766:	0000                	unimp
    1768:	0501                	addi	a0,a0,0
    176a:	0316                	slli	t1,t1,0x5
    176c:	0901                	addi	s2,s2,0
    176e:	0002                	c.slli64	zero
    1770:	0501                	addi	a0,a0,0
    1772:	0308                	addi	a0,sp,384
    1774:	097f                	.2byte	0x97f
    1776:	0008                	.2byte	0x8
    1778:	0501                	addi	a0,a0,0
    177a:	0606                	slli	a2,a2,0x1
    177c:	04090103          	lb	sp,64(s2)
    1780:	0100                	addi	s0,sp,128
    1782:	1605                	addi	a2,a2,-31
    1784:	0306                	slli	t1,t1,0x1
    1786:	0900                	addi	s0,sp,144
    1788:	0000                	unimp
    178a:	0501                	addi	a0,a0,0
    178c:	0308                	addi	a0,sp,384
    178e:	097f                	.2byte	0x97f
    1790:	0002                	c.slli64	zero
    1792:	0501                	addi	a0,a0,0
    1794:	0316                	slli	t1,t1,0x5
    1796:	0901                	addi	s2,s2,0
    1798:	0004                	.2byte	0x4
    179a:	0501                	addi	a0,a0,0
    179c:	0306                	slli	t1,t1,0x1
    179e:	0905                	addi	s2,s2,1
    17a0:	0002                	c.slli64	zero
    17a2:	0401                	addi	s0,s0,0
    17a4:	0502                	c.slli64	a0
    17a6:	09580303          	lb	t1,149(a6)
    17aa:	0002                	c.slli64	zero
    17ac:	0401                	addi	s0,s0,0
    17ae:	0501                	addi	a0,a0,0
    17b0:	030e                	slli	t1,t1,0x3
    17b2:	0925                	addi	s2,s2,9
    17b4:	0004                	.2byte	0x4
    17b6:	0501                	addi	a0,a0,0
    17b8:	0606                	slli	a2,a2,0x1
    17ba:	02090103          	lb	sp,32(s2)
    17be:	0100                	addi	s0,sp,128
    17c0:	00090103          	lb	sp,0(s2)
    17c4:	0100                	addi	s0,sp,128
    17c6:	0d05                	addi	s10,s10,1
    17c8:	0306                	slli	t1,t1,0x1
    17ca:	0900                	addi	s0,sp,144
    17cc:	0000                	unimp
    17ce:	0501                	addi	a0,a0,0
    17d0:	0319                	addi	t1,t1,6
    17d2:	0901                	addi	s2,s2,0
    17d4:	0004                	.2byte	0x4
    17d6:	0501                	addi	a0,a0,0
    17d8:	0606                	slli	a2,a2,0x1
    17da:	04090003          	lb	zero,64(s2)
    17de:	0100                	addi	s0,sp,128
    17e0:	0200                	addi	s0,sp,256
    17e2:	0104                	addi	s1,sp,128
    17e4:	0306                	slli	t1,t1,0x1
    17e6:	0900                	addi	s0,sp,144
    17e8:	0008                	.2byte	0x8
    17ea:	0401                	addi	s0,s0,0
    17ec:	0502                	c.slli64	a0
    17ee:	0602                	c.slli64	a2
    17f0:	04095603          	lhu	a2,64(s2)
    17f4:	0100                	addi	s0,sp,128
    17f6:	00090103          	lb	sp,0(s2)
    17fa:	0100                	addi	s0,sp,128
    17fc:	0305                	addi	t1,t1,1
    17fe:	00090103          	lb	sp,0(s2)
    1802:	0100                	addi	s0,sp,128
    1804:	0d05                	addi	s10,s10,1
    1806:	04090403          	lb	s0,64(s2)
    180a:	0100                	addi	s0,sp,128
    180c:	0104                	addi	s1,sp,128
    180e:	1605                	addi	a2,a2,-31
    1810:	0200                	addi	s0,sp,256
    1812:	0404                	addi	s1,sp,512
    1814:	04092103          	lw	sp,64(s2)
    1818:	0100                	addi	s0,sp,128
    181a:	0e05                	addi	t3,t3,1
    181c:	0200                	addi	s0,sp,256
    181e:	0404                	addi	s1,sp,512
    1820:	02090003          	lb	zero,32(s2)
    1824:	0100                	addi	s0,sp,128
    1826:	0505                	addi	a0,a0,1
    1828:	06090803          	lb	a6,96(s2)
    182c:	0100                	addi	s0,sp,128
    182e:	0205                	addi	tp,tp,1 # 1 <_prog_start-0x7fffffff>
    1830:	04094203          	lbu	tp,64(s2)
    1834:	0100                	addi	s0,sp,128
    1836:	00090103          	lb	sp,0(s2)
    183a:	0100                	addi	s0,sp,128
    183c:	1205                	addi	tp,tp,-31 # ffffffe1 <a+0x7ffff5b5>
    183e:	00090003          	lb	zero,0(s2)
    1842:	0100                	addi	s0,sp,128
    1844:	0505                	addi	a0,a0,1
    1846:	0306                	slli	t1,t1,0x1
    1848:	093d                	addi	s2,s2,15
    184a:	0000                	unimp
    184c:	0501                	addi	a0,a0,0
    184e:	030c                	addi	a1,sp,384
    1850:	00040943          	.4byte	0x40943
    1854:	0501                	addi	a0,a0,0
    1856:	0312                	slli	t1,t1,0x4
    1858:	0900                	addi	s0,sp,144
    185a:	0004                	.2byte	0x4
    185c:	0401                	addi	s0,s0,0
    185e:	0502                	c.slli64	a0
    1860:	09100303          	lb	t1,145(zero) # 91 <_prog_start-0x7fffff6f>
    1864:	0002                	c.slli64	zero
    1866:	0501                	addi	a0,a0,0
    1868:	0602                	c.slli64	a2
    186a:	04097e03          	.4byte	0x4097e03
    186e:	0100                	addi	s0,sp,128
    1870:	00090103          	lb	sp,0(s2)
    1874:	0100                	addi	s0,sp,128
    1876:	0305                	addi	t1,t1,1
    1878:	00090103          	lb	sp,0(s2)
    187c:	0100                	addi	s0,sp,128
    187e:	0d05                	addi	s10,s10,1
    1880:	04090403          	lb	s0,64(s2)
    1884:	0100                	addi	s0,sp,128
    1886:	0104                	addi	s1,sp,128
    1888:	1c05                	addi	s8,s8,-31
    188a:	04096c03          	.4byte	0x4096c03
    188e:	0100                	addi	s0,sp,128
    1890:	0c05                	addi	s8,s8,1
    1892:	0306                	slli	t1,t1,0x1
    1894:	0900                	addi	s0,sp,144
    1896:	0000                	unimp
    1898:	0501                	addi	a0,a0,0
    189a:	031c                	addi	a5,sp,384
    189c:	0900                	addi	s0,sp,144
    189e:	0004                	.2byte	0x4
    18a0:	0501                	addi	a0,a0,0
    18a2:	0612                	slli	a2,a2,0x4
    18a4:	02090003          	lb	zero,32(s2)
    18a8:	0100                	addi	s0,sp,128
    18aa:	0505                	addi	a0,a0,1
    18ac:	04091903          	lh	s2,64(s2)
    18b0:	0100                	addi	s0,sp,128
    18b2:	00090103          	lb	sp,0(s2)
    18b6:	0100                	addi	s0,sp,128
    18b8:	0705                	addi	a4,a4,1
    18ba:	0306                	slli	t1,t1,0x1
    18bc:	0900                	addi	s0,sp,144
    18be:	0000                	unimp
    18c0:	0501                	addi	a0,a0,0
    18c2:	0328                	addi	a0,sp,392
    18c4:	0902                	c.slli64	s2
    18c6:	0002                	c.slli64	zero
    18c8:	0501                	addi	a0,a0,0
    18ca:	097e0307          	.4byte	0x97e0307
    18ce:	0004                	.2byte	0x4
    18d0:	0501                	addi	a0,a0,0
    18d2:	0605                	addi	a2,a2,1
    18d4:	04090103          	lb	sp,64(s2)
    18d8:	0100                	addi	s0,sp,128
    18da:	00090103          	lb	sp,0(s2)
    18de:	0100                	addi	s0,sp,128
    18e0:	0a05                	addi	s4,s4,1
    18e2:	00090003          	lb	zero,0(s2)
    18e6:	0100                	addi	s0,sp,128
    18e8:	1705                	addi	a4,a4,-31
    18ea:	00090003          	lb	zero,0(s2)
    18ee:	0100                	addi	s0,sp,128
    18f0:	2305                	jal	1e10 <_prog_start-0x7fffe1f0>
    18f2:	00090003          	lb	zero,0(s2)
    18f6:	0100                	addi	s0,sp,128
    18f8:	1f05                	addi	t5,t5,-31
    18fa:	00090003          	lb	zero,0(s2)
    18fe:	0100                	addi	s0,sp,128
    1900:	1705                	addi	a4,a4,-31
    1902:	00090003          	lb	zero,0(s2)
    1906:	0100                	addi	s0,sp,128
    1908:	2305                	jal	1e28 <_prog_start-0x7fffe1d8>
    190a:	00090003          	lb	zero,0(s2)
    190e:	0100                	addi	s0,sp,128
    1910:	1f05                	addi	t5,t5,-31
    1912:	00090003          	lb	zero,0(s2)
    1916:	0100                	addi	s0,sp,128
    1918:	1705                	addi	a4,a4,-31
    191a:	00090003          	lb	zero,0(s2)
    191e:	0100                	addi	s0,sp,128
    1920:	2305                	jal	1e40 <_prog_start-0x7fffe1c0>
    1922:	00090003          	lb	zero,0(s2)
    1926:	0100                	addi	s0,sp,128
    1928:	0705                	addi	a4,a4,1
    192a:	0306                	slli	t1,t1,0x1
    192c:	097e                	slli	s2,s2,0x1f
    192e:	0000                	unimp
    1930:	0501                	addi	a0,a0,0
    1932:	0328                	addi	a0,sp,392
    1934:	0902                	c.slli64	s2
    1936:	0004                	.2byte	0x4
    1938:	0501                	addi	a0,a0,0
    193a:	061f 0003 0209      	.byte	0x1f, 0x06, 0x03, 0x00, 0x09, 0x02
    1940:	0100                	addi	s0,sp,128
    1942:	1705                	addi	a4,a4,-31
    1944:	00090003          	lb	zero,0(s2)
    1948:	0100                	addi	s0,sp,128
    194a:	2305                	jal	1e6a <_prog_start-0x7fffe196>
    194c:	00090003          	lb	zero,0(s2)
    1950:	0100                	addi	s0,sp,128
    1952:	2805                	jal	1982 <_prog_start-0x7fffe67e>
    1954:	0306                	slli	t1,t1,0x1
    1956:	0900                	addi	s0,sp,144
    1958:	0000                	unimp
    195a:	0501                	addi	a0,a0,0
    195c:	061f 0003 0209      	.byte	0x1f, 0x06, 0x03, 0x00, 0x09, 0x02
    1962:	0100                	addi	s0,sp,128
    1964:	1705                	addi	a4,a4,-31
    1966:	00090003          	lb	zero,0(s2)
    196a:	0100                	addi	s0,sp,128
    196c:	2305                	jal	1e8c <_prog_start-0x7fffe174>
    196e:	00090003          	lb	zero,0(s2)
    1972:	0100                	addi	s0,sp,128
    1974:	2805                	jal	19a4 <_prog_start-0x7fffe65c>
    1976:	0306                	slli	t1,t1,0x1
    1978:	0900                	addi	s0,sp,144
    197a:	0000                	unimp
    197c:	0501                	addi	a0,a0,0
    197e:	061f 0003 0209      	.byte	0x1f, 0x06, 0x03, 0x00, 0x09, 0x02
    1984:	0100                	addi	s0,sp,128
    1986:	1705                	addi	a4,a4,-31
    1988:	00090003          	lb	zero,0(s2)
    198c:	0100                	addi	s0,sp,128
    198e:	2305                	jal	1eae <_prog_start-0x7fffe152>
    1990:	00090003          	lb	zero,0(s2)
    1994:	0100                	addi	s0,sp,128
    1996:	2805                	jal	19c6 <_prog_start-0x7fffe63a>
    1998:	0306                	slli	t1,t1,0x1
    199a:	0900                	addi	s0,sp,144
    199c:	0000                	unimp
    199e:	0501                	addi	a0,a0,0
    19a0:	061f 0003 0209      	.byte	0x1f, 0x06, 0x03, 0x00, 0x09, 0x02
    19a6:	0100                	addi	s0,sp,128
    19a8:	1705                	addi	a4,a4,-31
    19aa:	00090003          	lb	zero,0(s2)
    19ae:	0100                	addi	s0,sp,128
    19b0:	2305                	jal	1ed0 <_prog_start-0x7fffe130>
    19b2:	00090003          	lb	zero,0(s2)
    19b6:	0100                	addi	s0,sp,128
    19b8:	2805                	jal	19e8 <_prog_start-0x7fffe618>
    19ba:	0306                	slli	t1,t1,0x1
    19bc:	0900                	addi	s0,sp,144
    19be:	0000                	unimp
    19c0:	0501                	addi	a0,a0,0
    19c2:	061f 0003 0209      	.byte	0x1f, 0x06, 0x03, 0x00, 0x09, 0x02
    19c8:	0100                	addi	s0,sp,128
    19ca:	1705                	addi	a4,a4,-31
    19cc:	00090003          	lb	zero,0(s2)
    19d0:	0100                	addi	s0,sp,128
    19d2:	2305                	jal	1ef2 <_prog_start-0x7fffe10e>
    19d4:	00090003          	lb	zero,0(s2)
    19d8:	0100                	addi	s0,sp,128
    19da:	2805                	jal	1a0a <_prog_start-0x7fffe5f6>
    19dc:	0306                	slli	t1,t1,0x1
    19de:	0900                	addi	s0,sp,144
    19e0:	0000                	unimp
    19e2:	0501                	addi	a0,a0,0
    19e4:	061f 0003 0209      	.byte	0x1f, 0x06, 0x03, 0x00, 0x09, 0x02
    19ea:	0100                	addi	s0,sp,128
    19ec:	1705                	addi	a4,a4,-31
    19ee:	00090003          	lb	zero,0(s2)
    19f2:	0100                	addi	s0,sp,128
    19f4:	2305                	jal	1f14 <_prog_start-0x7fffe0ec>
    19f6:	00090003          	lb	zero,0(s2)
    19fa:	0100                	addi	s0,sp,128
    19fc:	2805                	jal	1a2c <_prog_start-0x7fffe5d4>
    19fe:	0306                	slli	t1,t1,0x1
    1a00:	0900                	addi	s0,sp,144
    1a02:	0000                	unimp
    1a04:	0501                	addi	a0,a0,0
    1a06:	061f 0003 0209      	.byte	0x1f, 0x06, 0x03, 0x00, 0x09, 0x02
    1a0c:	0100                	addi	s0,sp,128
    1a0e:	1705                	addi	a4,a4,-31
    1a10:	00090003          	lb	zero,0(s2)
    1a14:	0100                	addi	s0,sp,128
    1a16:	2305                	jal	1f36 <_prog_start-0x7fffe0ca>
    1a18:	00090003          	lb	zero,0(s2)
    1a1c:	0100                	addi	s0,sp,128
    1a1e:	2805                	jal	1a4e <_prog_start-0x7fffe5b2>
    1a20:	0306                	slli	t1,t1,0x1
    1a22:	0900                	addi	s0,sp,144
    1a24:	0000                	unimp
    1a26:	0501                	addi	a0,a0,0
    1a28:	061f 0003 0209      	.byte	0x1f, 0x06, 0x03, 0x00, 0x09, 0x02
    1a2e:	0100                	addi	s0,sp,128
    1a30:	1705                	addi	a4,a4,-31
    1a32:	00090003          	lb	zero,0(s2)
    1a36:	0100                	addi	s0,sp,128
    1a38:	2305                	jal	1f58 <_prog_start-0x7fffe0a8>
    1a3a:	00090003          	lb	zero,0(s2)
    1a3e:	0100                	addi	s0,sp,128
    1a40:	2805                	jal	1a70 <_prog_start-0x7fffe590>
    1a42:	0306                	slli	t1,t1,0x1
    1a44:	0900                	addi	s0,sp,144
    1a46:	0000                	unimp
    1a48:	0501                	addi	a0,a0,0
    1a4a:	061f 0003 0209      	.byte	0x1f, 0x06, 0x03, 0x00, 0x09, 0x02
    1a50:	0100                	addi	s0,sp,128
    1a52:	1705                	addi	a4,a4,-31
    1a54:	00090003          	lb	zero,0(s2)
    1a58:	0100                	addi	s0,sp,128
    1a5a:	2305                	jal	1f7a <_prog_start-0x7fffe086>
    1a5c:	00090003          	lb	zero,0(s2)
    1a60:	0100                	addi	s0,sp,128
    1a62:	2805                	jal	1a92 <_prog_start-0x7fffe56e>
    1a64:	0306                	slli	t1,t1,0x1
    1a66:	0900                	addi	s0,sp,144
    1a68:	0000                	unimp
    1a6a:	0501                	addi	a0,a0,0
    1a6c:	061f 0003 0209      	.byte	0x1f, 0x06, 0x03, 0x00, 0x09, 0x02
    1a72:	0100                	addi	s0,sp,128
    1a74:	1705                	addi	a4,a4,-31
    1a76:	00090003          	lb	zero,0(s2)
    1a7a:	0100                	addi	s0,sp,128
    1a7c:	2305                	jal	1f9c <_prog_start-0x7fffe064>
    1a7e:	00090003          	lb	zero,0(s2)
    1a82:	0100                	addi	s0,sp,128
    1a84:	2805                	jal	1ab4 <_prog_start-0x7fffe54c>
    1a86:	0306                	slli	t1,t1,0x1
    1a88:	0900                	addi	s0,sp,144
    1a8a:	0000                	unimp
    1a8c:	0501                	addi	a0,a0,0
    1a8e:	061f 0003 0209      	.byte	0x1f, 0x06, 0x03, 0x00, 0x09, 0x02
    1a94:	0100                	addi	s0,sp,128
    1a96:	1705                	addi	a4,a4,-31
    1a98:	00090003          	lb	zero,0(s2)
    1a9c:	0100                	addi	s0,sp,128
    1a9e:	2305                	jal	1fbe <_prog_start-0x7fffe042>
    1aa0:	00090003          	lb	zero,0(s2)
    1aa4:	0100                	addi	s0,sp,128
    1aa6:	2805                	jal	1ad6 <_prog_start-0x7fffe52a>
    1aa8:	0306                	slli	t1,t1,0x1
    1aaa:	0900                	addi	s0,sp,144
    1aac:	0000                	unimp
    1aae:	0501                	addi	a0,a0,0
    1ab0:	061f 0003 0209      	.byte	0x1f, 0x06, 0x03, 0x00, 0x09, 0x02
    1ab6:	0100                	addi	s0,sp,128
    1ab8:	1705                	addi	a4,a4,-31
    1aba:	00090003          	lb	zero,0(s2)
    1abe:	0100                	addi	s0,sp,128
    1ac0:	2305                	jal	1fe0 <_prog_start-0x7fffe020>
    1ac2:	00090003          	lb	zero,0(s2)
    1ac6:	0100                	addi	s0,sp,128
    1ac8:	2805                	jal	1af8 <_prog_start-0x7fffe508>
    1aca:	0306                	slli	t1,t1,0x1
    1acc:	0900                	addi	s0,sp,144
    1ace:	0000                	unimp
    1ad0:	0501                	addi	a0,a0,0
    1ad2:	061f 0003 0209      	.byte	0x1f, 0x06, 0x03, 0x00, 0x09, 0x02
    1ad8:	0100                	addi	s0,sp,128
    1ada:	1705                	addi	a4,a4,-31
    1adc:	00090003          	lb	zero,0(s2)
    1ae0:	0100                	addi	s0,sp,128
    1ae2:	2305                	jal	2002 <_prog_start-0x7fffdffe>
    1ae4:	00090003          	lb	zero,0(s2)
    1ae8:	0100                	addi	s0,sp,128
    1aea:	2805                	jal	1b1a <_prog_start-0x7fffe4e6>
    1aec:	0306                	slli	t1,t1,0x1
    1aee:	0900                	addi	s0,sp,144
    1af0:	0000                	unimp
    1af2:	0501                	addi	a0,a0,0
    1af4:	061f 0003 0209      	.byte	0x1f, 0x06, 0x03, 0x00, 0x09, 0x02
    1afa:	0100                	addi	s0,sp,128
    1afc:	1705                	addi	a4,a4,-31
    1afe:	00090003          	lb	zero,0(s2)
    1b02:	0100                	addi	s0,sp,128
    1b04:	0505                	addi	a0,a0,1
    1b06:	00090103          	lb	sp,0(s2)
    1b0a:	0100                	addi	s0,sp,128
    1b0c:	0805                	addi	a6,a6,1
    1b0e:	0306                	slli	t1,t1,0x1
    1b10:	0900                	addi	s0,sp,144
    1b12:	0000                	unimp
    1b14:	0401                	addi	s0,s0,0
    1b16:	0502                	c.slli64	a0
    1b18:	09730303          	lb	t1,151(t1)
    1b1c:	0004                	.2byte	0x4
    1b1e:	0501                	addi	a0,a0,0
    1b20:	0602                	c.slli64	a2
    1b22:	08097e03          	.4byte	0x8097e03
    1b26:	0100                	addi	s0,sp,128
    1b28:	00090103          	lb	sp,0(s2)
    1b2c:	0100                	addi	s0,sp,128
    1b2e:	0305                	addi	t1,t1,1
    1b30:	00090103          	lb	sp,0(s2)
    1b34:	0100                	addi	s0,sp,128
    1b36:	0d05                	addi	s10,s10,1
    1b38:	04090403          	lb	s0,64(s2)
    1b3c:	0100                	addi	s0,sp,128
    1b3e:	0104                	addi	s1,sp,128
    1b40:	0505                	addi	a0,a0,1
    1b42:	0200                	addi	s0,sp,256
    1b44:	0104                	addi	s1,sp,128
    1b46:	06091503          	lh	a0,96(s2)
    1b4a:	0100                	addi	s0,sp,128
    1b4c:	0200                	addi	s0,sp,256
    1b4e:	0104                	addi	s1,sp,128
    1b50:	00090103          	lb	sp,0(s2)
    1b54:	0100                	addi	s0,sp,128
    1b56:	0d05                	addi	s10,s10,1
    1b58:	0200                	addi	s0,sp,256
    1b5a:	0104                	addi	s1,sp,128
    1b5c:	0306                	slli	t1,t1,0x1
    1b5e:	097f                	.2byte	0x97f
    1b60:	0000                	unimp
    1b62:	0501                	addi	a0,a0,0
    1b64:	060a                	slli	a2,a2,0x2
    1b66:	04091d03          	lh	s10,64(s2)
    1b6a:	0100                	addi	s0,sp,128
    1b6c:	0d05                	addi	s10,s10,1
    1b6e:	0306                	slli	t1,t1,0x1
    1b70:	0900                	addi	s0,sp,144
    1b72:	0000                	unimp
    1b74:	0501                	addi	a0,a0,0
    1b76:	030e                	slli	t1,t1,0x3
    1b78:	0901                	addi	s2,s2,0
    1b7a:	0004                	.2byte	0x4
    1b7c:	0401                	addi	s0,s0,0
    1b7e:	0502                	c.slli64	a0
    1b80:	0602                	c.slli64	a2
    1b82:	04094703          	lbu	a4,64(s2)
    1b86:	0100                	addi	s0,sp,128
    1b88:	00090103          	lb	sp,0(s2)
    1b8c:	0100                	addi	s0,sp,128
    1b8e:	0305                	addi	t1,t1,1
    1b90:	00090103          	lb	sp,0(s2)
    1b94:	0100                	addi	s0,sp,128
    1b96:	0d05                	addi	s10,s10,1
    1b98:	04090403          	lb	s0,64(s2)
    1b9c:	0100                	addi	s0,sp,128
    1b9e:	0205                	addi	tp,tp,1 # 1 <_prog_start-0x7fffffff>
    1ba0:	04097a03          	.4byte	0x4097a03
    1ba4:	0100                	addi	s0,sp,128
    1ba6:	00090103          	lb	sp,0(s2)
    1baa:	0100                	addi	s0,sp,128
    1bac:	0305                	addi	t1,t1,1
    1bae:	00090103          	lb	sp,0(s2)
    1bb2:	0100                	addi	s0,sp,128
    1bb4:	0d05                	addi	s10,s10,1
    1bb6:	04090403          	lb	s0,64(s2)
    1bba:	0100                	addi	s0,sp,128
    1bbc:	0104                	addi	s1,sp,128
    1bbe:	1505                	addi	a0,a0,-31
    1bc0:	0306                	slli	t1,t1,0x1
    1bc2:	0008090f          	.4byte	0x8090f
    1bc6:	0501                	addi	a0,a0,0
    1bc8:	030d                	addi	t1,t1,3
    1bca:	097e                	slli	s2,s2,0x1f
    1bcc:	0002                	c.slli64	zero
    1bce:	0501                	addi	a0,a0,0
    1bd0:	0619                	addi	a2,a2,6
    1bd2:	02090103          	lb	sp,32(s2)
    1bd6:	0100                	addi	s0,sp,128
    1bd8:	2305                	jal	20f8 <_prog_start-0x7fffdf08>
    1bda:	0200                	addi	s0,sp,256
    1bdc:	0304                	addi	s1,sp,384
    1bde:	04090003          	lb	zero,64(s2)
    1be2:	0100                	addi	s0,sp,128
    1be4:	2805                	jal	1c14 <_prog_start-0x7fffe3ec>
    1be6:	0200                	addi	s0,sp,256
    1be8:	0304                	addi	s1,sp,384
    1bea:	0306                	slli	t1,t1,0x1
    1bec:	0900                	addi	s0,sp,144
    1bee:	0000                	unimp
    1bf0:	0501                	addi	a0,a0,0
    1bf2:	0019                	c.nop	6
    1bf4:	0402                	c.slli64	s0
    1bf6:	09000303          	lb	t1,144(zero) # 90 <_prog_start-0x7fffff70>
    1bfa:	0006                	c.slli	zero,0x1
    1bfc:	0501                	addi	a0,a0,0
    1bfe:	0028                	addi	a0,sp,8
    1c00:	0402                	c.slli64	s0
    1c02:	09000303          	lb	t1,144(zero) # 90 <_prog_start-0x7fffff70>
    1c06:	0002                	c.slli64	zero
    1c08:	0501                	addi	a0,a0,0
    1c0a:	001f 0402 0603      	.byte	0x1f, 0x00, 0x02, 0x04, 0x03, 0x06
    1c10:	04090003          	lb	zero,64(s2)
    1c14:	0100                	addi	s0,sp,128
    1c16:	1905                	addi	s2,s2,-31
    1c18:	0200                	addi	s0,sp,256
    1c1a:	0304                	addi	s1,sp,384
    1c1c:	00090003          	lb	zero,0(s2)
    1c20:	0100                	addi	s0,sp,128
    1c22:	0605                	addi	a2,a2,1
    1c24:	04090103          	lb	sp,64(s2)
    1c28:	0100                	addi	s0,sp,128
    1c2a:	1505                	addi	a0,a0,-31
    1c2c:	0306                	slli	t1,t1,0x1
    1c2e:	0900                	addi	s0,sp,144
    1c30:	0000                	unimp
    1c32:	0501                	addi	a0,a0,0
    1c34:	0311                	addi	t1,t1,4
    1c36:	0900                	addi	s0,sp,144
    1c38:	0004                	.2byte	0x4
    1c3a:	0501                	addi	a0,a0,0
    1c3c:	0900030b          	.4byte	0x900030b
    1c40:	0004                	.2byte	0x4
    1c42:	0501                	addi	a0,a0,0
    1c44:	0606                	slli	a2,a2,0x1
    1c46:	04090103          	lb	sp,64(s2)
    1c4a:	0100                	addi	s0,sp,128
    1c4c:	0805                	addi	a6,a6,1
    1c4e:	0306                	slli	t1,t1,0x1
    1c50:	0900                	addi	s0,sp,144
    1c52:	0000                	unimp
    1c54:	0501                	addi	a0,a0,0
    1c56:	060d                	addi	a2,a2,3
    1c58:	04097d03          	.4byte	0x4097d03
    1c5c:	0100                	addi	s0,sp,128
    1c5e:	0805                	addi	a6,a6,1
    1c60:	0306                	slli	t1,t1,0x1
    1c62:	00040903          	lb	s2,0(s0)
    1c66:	0401                	addi	s0,s0,0
    1c68:	0502                	c.slli64	a0
    1c6a:	096c0303          	lb	t1,150(s8)
    1c6e:	0008                	.2byte	0x8
    1c70:	0501                	addi	a0,a0,0
    1c72:	0602                	c.slli64	a2
    1c74:	04097e03          	.4byte	0x4097e03
    1c78:	0100                	addi	s0,sp,128
    1c7a:	00090103          	lb	sp,0(s2)
    1c7e:	0100                	addi	s0,sp,128
    1c80:	0305                	addi	t1,t1,1
    1c82:	00090103          	lb	sp,0(s2)
    1c86:	0100                	addi	s0,sp,128
    1c88:	0d05                	addi	s10,s10,1
    1c8a:	04090403          	lb	s0,64(s2)
    1c8e:	0100                	addi	s0,sp,128
    1c90:	0104                	addi	s1,sp,128
    1c92:	2105                	jal	20b2 <_prog_start-0x7fffdf4e>
    1c94:	0200                	addi	s0,sp,256
    1c96:	0304                	addi	s1,sp,384
    1c98:	04091203          	lh	tp,64(s2)
    1c9c:	0100                	addi	s0,sp,128
    1c9e:	1a05                	addi	s4,s4,-31
    1ca0:	0200                	addi	s0,sp,256
    1ca2:	0304                	addi	s1,sp,384
    1ca4:	00090003          	lb	zero,0(s2)
    1ca8:	0100                	addi	s0,sp,128
    1caa:	1605                	addi	a2,a2,-31
    1cac:	0200                	addi	s0,sp,256
    1cae:	0304                	addi	s1,sp,384
    1cb0:	0306                	slli	t1,t1,0x1
    1cb2:	0900                	addi	s0,sp,144
    1cb4:	0000                	unimp
    1cb6:	0501                	addi	a0,a0,0
    1cb8:	001a                	c.slli	zero,0x6
    1cba:	0402                	c.slli64	s0
    1cbc:	09000303          	lb	t1,144(zero) # 90 <_prog_start-0x7fffff70>
    1cc0:	0004                	.2byte	0x4
    1cc2:	0901                	addi	s2,s2,0
    1cc4:	0006                	c.slli	zero,0x1
    1cc6:	0100                	addi	s0,sp,128
    1cc8:	01              	Address 0x0000000000001cc8 is out of bounds.


Disassembly of section .debug_line_str:

00000000 <.debug_line_str>:
   0:	6d6f682f          	.4byte	0x6d6f682f
   4:	2f65                	jal	7bc <_prog_start-0x7ffff844>
   6:	6962                	.2byte	0x6962
   8:	686e                	.2byte	0x686e
   a:	7565696b          	.4byte	0x7565696b
   e:	6f64                	.2byte	0x6f64
  10:	726f572f          	.4byte	0x726f572f
  14:	6170736b          	.4byte	0x6170736b
  18:	4e2f6563          	bltu	t5,sp,502 <_prog_start-0x7ffffafe>
  1c:	7765                	lui	a4,0xffff9
  1e:	7246                	.2byte	0x7246
  20:	6d61                	lui	s10,0x18
  22:	7765                	lui	a4,0xffff9
  24:	2f6b726f          	jal	tp,b731a <_prog_start-0x7ff48ce6>
  28:	7266                	.2byte	0x7266
  2a:	6d61                	lui	s10,0x18
  2c:	7765                	lui	a4,0xffff9
  2e:	2f6b726f          	jal	tp,b7324 <_prog_start-0x7ff48cdc>
  32:	6d2f7773          	csrrci	a4,0x6d2,30
  36:	7461                	lui	s0,0xffff8
  38:	6972                	.2byte	0x6972
  3a:	5f78                	lw	a4,124(a4)
  3c:	756d                	lui	a0,0xffffb
  3e:	006c                	addi	a1,sp,12
  40:	30747263          	bgeu	s0,t2,344 <_prog_start-0x7ffffcbc>
  44:	532e                	lw	t1,232(sp)
  46:	6d00                	.2byte	0x6d00
  48:	6961                	lui	s2,0x18
  4a:	2e6e                	.2byte	0x2e6e
  4c:	682f0063          	beq	t5,sp,6cc <_prog_start-0x7ffff934>
  50:	2f656d6f          	jal	s10,56346 <_prog_start-0x7ffa9cba>
  54:	6962                	.2byte	0x6962
  56:	686e                	.2byte	0x686e
  58:	7565696b          	.4byte	0x7565696b
  5c:	6f64                	.2byte	0x6f64
  5e:	726f572f          	.4byte	0x726f572f
  62:	6170736b          	.4byte	0x6170736b
  66:	4e2f6563          	bltu	t5,sp,550 <_prog_start-0x7ffffab0>
  6a:	7765                	lui	a4,0xffff9
  6c:	7246                	.2byte	0x7246
  6e:	6d61                	lui	s10,0x18
  70:	7765                	lui	a4,0xffff9
  72:	2f6b726f          	jal	tp,b7368 <_prog_start-0x7ff48c98>
  76:	632e                	.2byte	0x632e
  78:	61646e6f          	jal	t3,4668e <_prog_start-0x7ffb9972>
  7c:	652d                	lui	a0,0xb
  7e:	766e                	.2byte	0x766e
  80:	7369722f          	.4byte	0x7369722f
  84:	742d7663          	bgeu	s10,sp,7d0 <_prog_start-0x7ffff830>
  88:	736c6f6f          	jal	t5,c67be <_prog_start-0x7ff39842>
  8c:	7369722f          	.4byte	0x7369722f
  90:	34367663          	bgeu	a2,gp,3dc <_prog_start-0x7ffffc24>
  94:	752d                	lui	a0,0xfffeb
  96:	6b6e                	.2byte	0x6b6e
  98:	6f6e                	.2byte	0x6f6e
  9a:	652d6e77          	.4byte	0x652d6e77
  9e:	666c                	.2byte	0x666c
  a0:	636e692f          	.4byte	0x636e692f
  a4:	756c                	.2byte	0x756c
  a6:	6564                	.2byte	0x6564
  a8:	63616d2f          	.4byte	0x63616d2f
  ac:	6968                	.2byte	0x6968
  ae:	656e                	.2byte	0x656e
  b0:	2f00                	.2byte	0x2f00
  b2:	6f68                	.2byte	0x6f68
  b4:	656d                	lui	a0,0x1b
  b6:	6e69622f          	.4byte	0x6e69622f
  ba:	6b68                	.2byte	0x6b68
  bc:	6569                	lui	a0,0x1a
  be:	6475                	lui	s0,0x1d
  c0:	6f572f6f          	jal	t5,72fb4 <_prog_start-0x7ff8d04c>
  c4:	6b72                	.2byte	0x6b72
  c6:	63617073          	csrci	0x636,2
  ca:	2f65                	jal	882 <_prog_start-0x7ffff77e>
  cc:	654e                	.2byte	0x654e
  ce:	61724677          	.4byte	0x61724677
  d2:	656d                	lui	a0,0x1b
  d4:	6b726f77          	.4byte	0x6b726f77
  d8:	6f632e2f          	.4byte	0x6f632e2f
  dc:	646e                	.2byte	0x646e
  de:	2d61                	jal	776 <_prog_start-0x7ffff88a>
  e0:	6e65                	lui	t3,0x19
  e2:	2f76                	.2byte	0x2f76
  e4:	6972                	.2byte	0x6972
  e6:	2d766373          	csrrsi	t1,0x2d7,12
  ea:	6f74                	.2byte	0x6f74
  ec:	2f736c6f          	jal	s8,36be2 <_prog_start-0x7ffc941e>
  f0:	6972                	.2byte	0x6972
  f2:	36766373          	csrrsi	t1,0x367,12
  f6:	2d34                	.2byte	0x2d34
  f8:	6e75                	lui	t3,0x1d
  fa:	776f6e6b          	.4byte	0x776f6e6b
  fe:	2d6e                	.2byte	0x2d6e
 100:	6c65                	lui	s8,0x19
 102:	2f66                	.2byte	0x2f66
 104:	6e69                	lui	t3,0x1a
 106:	64756c63          	bltu	a0,t2,75e <_prog_start-0x7ffff8a2>
 10a:	2f65                	jal	8c2 <_prog_start-0x7ffff73e>
 10c:	00737973          	csrrci	s2,0x7,6
 110:	645f 6665 7561      	.byte	0x5f, 0x64, 0x65, 0x66, 0x61, 0x75
 116:	746c                	.2byte	0x746c
 118:	745f 7079 7365      	.byte	0x5f, 0x74, 0x79, 0x70, 0x65, 0x73
 11e:	682e                	.2byte	0x682e
 120:	5f00                	lw	s0,56(a4)
 122:	69647473          	csrrci	s0,0x696,8
 126:	746e                	.2byte	0x746e
 128:	682e                	.2byte	0x682e
 12a:	6b00                	.2byte	0x6b00
 12c:	7270                	.2byte	0x7270
 12e:	6e69                	lui	t3,0x1a
 130:	6674                	.2byte	0x6674
 132:	682e                	.2byte	0x682e
 134:	6b00                	.2byte	0x6b00
 136:	7270                	.2byte	0x7270
 138:	6e69                	lui	t3,0x1a
 13a:	6674                	.2byte	0x6674
 13c:	632e                	.2byte	0x632e
 13e:	2f00                	.2byte	0x2f00
 140:	6f68                	.2byte	0x6f68
 142:	656d                	lui	a0,0x1b
 144:	6e69622f          	.4byte	0x6e69622f
 148:	6b68                	.2byte	0x6b68
 14a:	6569                	lui	a0,0x1a
 14c:	6475                	lui	s0,0x1d
 14e:	6f572f6f          	jal	t5,73042 <_prog_start-0x7ff8cfbe>
 152:	6b72                	.2byte	0x6b72
 154:	63617073          	csrci	0x636,2
 158:	2f65                	jal	910 <_prog_start-0x7ffff6f0>
 15a:	654e                	.2byte	0x654e
 15c:	61724677          	.4byte	0x61724677
 160:	656d                	lui	a0,0x1b
 162:	6b726f77          	.4byte	0x6b726f77
 166:	6f632e2f          	.4byte	0x6f632e2f
 16a:	646e                	.2byte	0x646e
 16c:	2d61                	jal	804 <_prog_start-0x7ffff7fc>
 16e:	6e65                	lui	t3,0x19
 170:	2f76                	.2byte	0x2f76
 172:	6972                	.2byte	0x6972
 174:	2d766373          	csrrsi	t1,0x2d7,12
 178:	6f74                	.2byte	0x6f74
 17a:	2f736c6f          	jal	s8,36c70 <_prog_start-0x7ffc9390>
 17e:	696c                	.2byte	0x696c
 180:	2f62                	.2byte	0x2f62
 182:	2f636367          	.4byte	0x2f636367
 186:	6972                	.2byte	0x6972
 188:	36766373          	csrrsi	t1,0x367,12
 18c:	2d34                	.2byte	0x2d34
 18e:	6e75                	lui	t3,0x1d
 190:	776f6e6b          	.4byte	0x776f6e6b
 194:	2d6e                	.2byte	0x2d6e
 196:	6c65                	lui	s8,0x19
 198:	2f66                	.2byte	0x2f66
 19a:	3231                	jal	fffffaa6 <a+0x7ffff07a>
 19c:	322e                	.2byte	0x322e
 19e:	302e                	.2byte	0x302e
 1a0:	636e692f          	.4byte	0x636e692f
 1a4:	756c                	.2byte	0x756c
 1a6:	6564                	.2byte	0x6564
 1a8:	7300                	.2byte	0x7300
 1aa:	6474                	.2byte	0x6474
 1ac:	7261                	lui	tp,0xffff8
 1ae:	00682e67          	.4byte	0x682e67

Disassembly of section .debug_info:

00000000 <.debug_info>:
   0:	0021                	c.nop	8
   2:	0000                	unimp
   4:	0005                	c.nop	1
   6:	0401                	addi	s0,s0,0 # 1d000 <_prog_start-0x7ffe3000>
   8:	0000                	unimp
   a:	0000                	unimp
   c:	0001                	nop
   e:	0000                	unimp
  10:	0000                	unimp
  12:	0000                	unimp
  14:	d080                	sw	s0,32(s1)
  16:	00000003          	lb	zero,0(zero) # 0 <_prog_start-0x80000000>
  1a:	0700                	addi	s0,sp,896
  1c:	0000                	unimp
  1e:	4700                	lw	s0,8(a4)
  20:	0000                	unimp
  22:	0100                	addi	s0,sp,128
  24:	9280                	.2byte	0x9280
  26:	05000007          	.4byte	0x5000007
  2a:	0100                	addi	s0,sp,128
  2c:	1404                	addi	s1,sp,544
  2e:	0000                	unimp
  30:	1700                	addi	s0,sp,928
  32:	00ae                	slli	ra,ra,0xb
  34:	0000                	unimp
  36:	471d                	li	a4,7
  38:	0000                	unimp
  3a:	0000                	unimp
  3c:	0000                	unimp
  3e:	b700                	.2byte	0xb700
  40:	0000                	unimp
  42:	0000                	unimp
  44:	0000                	unimp
  46:	5c00                	lw	s0,56(s0)
  48:	0002                	c.slli64	zero
  4a:	0400                	addi	s0,sp,512
  4c:	0601                	addi	a2,a2,0
  4e:	0174                	addi	a3,sp,140
  50:	0000                	unimp
  52:	4a0e                	lw	s4,192(sp)
  54:	0001                	nop
  56:	0200                	addi	s0,sp,256
  58:	0039182b          	.4byte	0x39182b
  5c:	0000                	unimp
  5e:	0104                	addi	s1,sp,128
  60:	7208                	.2byte	0x7208
  62:	0001                	nop
  64:	0400                	addi	s0,sp,512
  66:	0502                	c.slli64	a0
  68:	0062                	c.slli	zero,0x18
  6a:	0000                	unimp
  6c:	0204                	addi	s1,sp,256
  6e:	0001ab07          	.4byte	0x1ab07
  72:	0400                	addi	s0,sp,512
  74:	0504                	addi	s1,sp,640
  76:	0139                	addi	sp,sp,14
  78:	0000                	unimp
  7a:	7f0e                	.2byte	0x7f0e
  7c:	0000                	unimp
  7e:	0200                	addi	s0,sp,256
  80:	0061194f          	.4byte	0x61194f
  84:	0000                	unimp
  86:	0404                	addi	s1,sp,512
  88:	00019907          	.4byte	0x19907
  8c:	0400                	addi	s0,sp,512
  8e:	0508                	addi	a0,sp,640
  90:	0134                	addi	a3,sp,136
  92:	0000                	unimp
  94:	0804                	addi	s1,sp,16
  96:	00019407          	.4byte	0x19407
  9a:	1800                	addi	s0,sp,48
  9c:	0504                	addi	s1,sp,640
  9e:	6e69                	lui	t3,0x1a
  a0:	0074                	addi	a3,sp,12
  a2:	0404                	addi	s1,sp,512
  a4:	00019e07          	.4byte	0x19e07
  a8:	0e00                	addi	s0,sp,784
  aa:	014c                	addi	a1,sp,132
  ac:	0000                	unimp
  ae:	2d131803          	lh	a6,721(t1)
  b2:	0000                	unimp
  b4:	0e00                	addi	s0,sp,784
  b6:	0081                	addi	ra,ra,0
  b8:	0000                	unimp
  ba:	55143003          	.4byte	0x55143003
  be:	0000                	unimp
  c0:	1900                	addi	s0,sp,176
  c2:	0090                	addi	a2,sp,64
  c4:	0000                	unimp
  c6:	8a15                	andi	a2,a2,5
  c8:	0000                	unimp
  ca:	0400                	addi	s0,sp,512
  cc:	0000b513          	sltiu	a0,ra,0
  d0:	0000                	unimp
  d2:	0000                	unimp
  d4:	0d64                	addi	s1,sp,668
  d6:	009c                	addi	a5,sp,64
  d8:	0000                	unimp
  da:	b016                	.2byte	0xb016
  dc:	0000                	unimp
  de:	1500                	addi	s0,sp,672
  e0:	0154                	addi	a3,sp,132
  e2:	0000                	unimp
  e4:	0701                	addi	a4,a4,0 # ffff9000 <a+0x7fff85d4>
  e6:	00b5                	addi	ra,ra,13
  e8:	0000                	unimp
  ea:	0000                	unimp
  ec:	0200                	addi	s0,sp,256
  ee:	0f006103          	.4byte	0xf006103
  f2:	000000d7          	.4byte	0xd7
  f6:	0305                	addi	t1,t1,1
  f8:	0a2c                	addi	a1,sp,280
  fa:	8000                	.2byte	0x8000
  fc:	840d                	srai	s0,s0,0x3
  fe:	0000                	unimp
 100:	0300                	addi	s0,sp,384
 102:	0062                	c.slli	zero,0x18
 104:	d710                	sw	a2,40(a4)
 106:	0000                	unimp
 108:	0500                	addi	s0,sp,640
 10a:	000a2803          	lw	a6,0(s4)
 10e:	0380                	addi	s0,sp,448
 110:	d7110063          	beq	sp,a7,fffff670 <a+0x7fffec44>
 114:	0000                	unimp
 116:	0500                	addi	s0,sp,640
 118:	000a2403          	lw	s0,0(s4)
 11c:	0380                	addi	s0,sp,448
 11e:	0064                	addi	s1,sp,12
 120:	d712                	sw	tp,172(sp)
 122:	0000                	unimp
 124:	0500                	addi	s0,sp,640
 126:	000a2003          	lw	zero,0(s4)
 12a:	0380                	addi	s0,sp,448
 12c:	6561                	lui	a0,0x18
 12e:	1400                	addi	s0,sp,544
 130:	000000d7          	.4byte	0xd7
 134:	0305                	addi	t1,t1,1
 136:	0a1c                	addi	a5,sp,272
 138:	8000                	.2byte	0x8000
 13a:	00676203          	.4byte	0x676203
 13e:	d715                	beqz	a4,6a <_prog_start-0x7fffff96>
 140:	0000                	unimp
 142:	0500                	addi	s0,sp,640
 144:	000a1803          	lh	a6,0(s4)
 148:	0380                	addi	s0,sp,448
 14a:	16006563          	bltu	zero,zero,2b4 <_prog_start-0x7ffffd4c>
 14e:	000000d7          	.4byte	0xd7
 152:	0305                	addi	t1,t1,1
 154:	0a14                	addi	a3,sp,272
 156:	8000                	.2byte	0x8000
 158:	00676403          	.4byte	0x676403
 15c:	0000d717          	auipc	a4,0xd
 160:	0500                	addi	s0,sp,640
 162:	000a1003          	lh	zero,0(s4)
 166:	0380                	addi	s0,sp,448
 168:	0065                	c.nop	25
 16a:	d719                	beqz	a4,78 <_prog_start-0x7fffff88>
 16c:	0000                	unimp
 16e:	0500                	addi	s0,sp,640
 170:	000a0c03          	lb	s8,0(s4)
 174:	0380                	addi	s0,sp,448
 176:	0066                	c.slli	zero,0x19
 178:	d71a                	sw	t1,172(sp)
 17a:	0000                	unimp
 17c:	0500                	addi	s0,sp,640
 17e:	000a0803          	lb	a6,0(s4)
 182:	0380                	addi	s0,sp,448
 184:	d71b0067          	jr	-655(s6)
 188:	0000                	unimp
 18a:	0500                	addi	s0,sp,640
 18c:	000a0403          	lb	s0,0(s4)
 190:	0380                	addi	s0,sp,448
 192:	0068                	addi	a0,sp,12
 194:	d71c                	sw	a5,40(a4)
 196:	0000                	unimp
 198:	0500                	addi	s0,sp,640
 19a:	000a0003          	lb	zero,0(s4)
 19e:	1a80                	addi	s0,sp,368
 1a0:	0072                	c.slli	zero,0x1c
 1a2:	0000                	unimp
 1a4:	2704                	.2byte	0x2704
 1a6:	8d0d                	sub	a0,a0,a1
 1a8:	0001                	nop
 1aa:	1b00                	addi	s0,sp,432
 1ac:	018d                	addi	gp,gp,3
 1ae:	0000                	unimp
 1b0:	001c                	.2byte	0x1c
 1b2:	990d                	andi	a0,a0,-29
 1b4:	0001                	nop
 1b6:	0400                	addi	s0,sp,512
 1b8:	0801                	addi	a6,a6,0
 1ba:	0000017b          	.4byte	0x17b
 1be:	9216                	add	tp,tp,t0
 1c0:	0001                	nop
 1c2:	1d00                	addi	s0,sp,688
 1c4:	007a                	c.slli	zero,0x1e
 1c6:	0000                	unimp
 1c8:	8601                	c.srai64	a2
 1ca:	7605                	lui	a2,0xfffe1
 1cc:	0000                	unimp
 1ce:	7a00                	.2byte	0x7a00
 1d0:	0005                	c.nop	1
 1d2:	8680                	.2byte	0x8680
 1d4:	0002                	c.slli64	zero
 1d6:	0100                	addi	s0,sp,128
 1d8:	979c                	.2byte	0x979c
 1da:	0004                	.2byte	0x4
 1dc:	1e00                	addi	s0,sp,816
 1de:	0000018f          	.4byte	0x18f
 1e2:	8601                	c.srai64	a2
 1e4:	760e                	.2byte	0x760e
 1e6:	0000                	unimp
 1e8:	0c00                	addi	s0,sp,528
 1ea:	0000                	unimp
 1ec:	1f00                	addi	s0,sp,944
 1ee:	7261                	lui	tp,0xffff8
 1f0:	0076                	c.slli	zero,0x1d
 1f2:	8601                	c.srai64	a2
 1f4:	0004971b          	.4byte	0x4971b
 1f8:	2600                	.2byte	0x2600
 1fa:	0000                	unimp
 1fc:	0200                	addi	s0,sp,256
 1fe:	0142                	slli	sp,sp,0x10
 200:	0000                	unimp
 202:	00900cbb          	.4byte	0x900cbb
 206:	0000                	unimp
 208:	0040                	addi	s0,sp,4
 20a:	0000                	unimp
 20c:	e302                	.2byte	0xe302
 20e:	0001                	nop
 210:	bb00                	.2byte	0xbb00
 212:	9015                	srli	s0,s0,0x25
 214:	0000                	unimp
 216:	4c00                	lw	s0,24(s0)
 218:	0000                	unimp
 21a:	0200                	addi	s0,sp,256
 21c:	00a8                	addi	a0,sp,72
 21e:	0000                	unimp
 220:	0cbc                	addi	a5,sp,600
 222:	0090                	addi	a2,sp,64
 224:	0000                	unimp
 226:	0058                	addi	a4,sp,4
 228:	0000                	unimp
 22a:	5302                	lw	t1,32(sp)
 22c:	0000                	unimp
 22e:	bd00                	.2byte	0xbd00
 230:	900c                	.2byte	0x900c
 232:	0000                	unimp
 234:	7400                	.2byte	0x7400
 236:	0000                	unimp
 238:	0200                	addi	s0,sp,256
 23a:	0180                	addi	s0,sp,192
 23c:	0000                	unimp
 23e:	1cbd                	addi	s9,s9,-17
 240:	0090                	addi	a2,sp,64
 242:	0000                	unimp
 244:	0080                	addi	s0,sp,64
 246:	0000                	unimp
 248:	ca02                	sw	zero,20(sp)
 24a:	0001                	nop
 24c:	bd00                	.2byte	0xbd00
 24e:	902c                	.2byte	0x902c
 250:	0000                	unimp
 252:	8c00                	.2byte	0x8c00
 254:	0000                	unimp
 256:	0200                	addi	s0,sp,256
 258:	0000008f          	.4byte	0x8f
 25c:	3abd                	jal	fffffbda <a+0x7ffff1ae>
 25e:	0090                	addi	a2,sp,64
 260:	0000                	unimp
 262:	0098                	addi	a4,sp,64
 264:	0000                	unimp
 266:	d702                	sw	zero,172(sp)
 268:	0001                	nop
 26a:	be00                	.2byte	0xbe00
 26c:	900c                	.2byte	0x900c
 26e:	0000                	unimp
 270:	a400                	.2byte	0xa400
 272:	0000                	unimp
 274:	0c00                	addi	s0,sp,528
 276:	059e                	slli	a1,a1,0x7
 278:	8000                	.2byte	0x8000
 27a:	00e2                	slli	ra,ra,0x18
 27c:	0000                	unimp
 27e:	0000026b          	.4byte	0x26b
 282:	6901                	.2byte	0x6901
 284:	c000                	sw	s0,0(s0)
 286:	760c                	.2byte	0x760c
 288:	0000                	unimp
 28a:	bc00                	.2byte	0xbc00
 28c:	0000                	unimp
 28e:	0000                	unimp
 290:	800c                	.2byte	0x800c
 292:	0006                	c.slli	zero,0x1
 294:	0480                	addi	s0,sp,576
 296:	0000                	unimp
 298:	8800                	.2byte	0x8800
 29a:	0002                	c.slli64	zero
 29c:	0200                	addi	s0,sp,256
 29e:	006c                	addi	a1,sp,12
 2a0:	0000                	unimp
 2a2:	0fd0                	addi	a2,sp,980
 2a4:	0061                	c.nop	24
 2a6:	0000                	unimp
 2a8:	0040                	addi	s0,sp,4
 2aa:	0000                	unimp
 2ac:	0c00                	addi	s0,sp,528
 2ae:	0684                	addi	s1,sp,832
 2b0:	8000                	.2byte	0x8000
 2b2:	0004                	.2byte	0x4
 2b4:	0000                	unimp
 2b6:	02a5                	addi	t0,t0,9
 2b8:	0000                	unimp
 2ba:	6c02                	.2byte	0x6c02
 2bc:	0000                	unimp
 2be:	d100                	sw	s0,32(a0)
 2c0:	6116                	.2byte	0x6116
 2c2:	0000                	unimp
 2c4:	7400                	.2byte	0x7400
 2c6:	0000                	unimp
 2c8:	0000                	unimp
 2ca:	880c                	.2byte	0x880c
 2cc:	0006                	c.slli	zero,0x1
 2ce:	0480                	addi	s0,sp,576
 2d0:	0000                	unimp
 2d2:	c200                	sw	s0,0(a2)
 2d4:	0002                	c.slli64	zero
 2d6:	0200                	addi	s0,sp,256
 2d8:	006c                	addi	a1,sp,12
 2da:	0000                	unimp
 2dc:	16d2                	slli	a3,a3,0x34
 2de:	0061                	c.nop	24
 2e0:	0000                	unimp
 2e2:	0080                	addi	s0,sp,64
 2e4:	0000                	unimp
 2e6:	0c00                	addi	s0,sp,528
 2e8:	074a                	slli	a4,a4,0x12
 2ea:	8000                	.2byte	0x8000
 2ec:	0004                	.2byte	0x4
 2ee:	0000                	unimp
 2f0:	02df 0000 6c02      	.byte	0xdf, 0x02, 0x00, 0x00, 0x02, 0x6c
 2f6:	0000                	unimp
 2f8:	ee00                	.2byte	0xee00
 2fa:	610d                	addi	sp,sp,160
 2fc:	0000                	unimp
 2fe:	4c00                	lw	s0,24(s0)
 300:	0000                	unimp
 302:	0000                	unimp
 304:	4e0c                	lw	a1,24(a2)
 306:	04800007          	.4byte	0x4800007
 30a:	0000                	unimp
 30c:	fc00                	.2byte	0xfc00
 30e:	0002                	c.slli64	zero
 310:	0200                	addi	s0,sp,256
 312:	006c                	addi	a1,sp,12
 314:	0000                	unimp
 316:	006114ef          	jal	s1,1131c <_prog_start-0x7ffeece4>
 31a:	0000                	unimp
 31c:	008c                	addi	a1,sp,64
 31e:	0000                	unimp
 320:	0c00                	addi	s0,sp,528
 322:	0752                	slli	a4,a4,0x14
 324:	8000                	.2byte	0x8000
 326:	0004                	.2byte	0x4
 328:	0000                	unimp
 32a:	0319                	addi	t1,t1,6
 32c:	0000                	unimp
 32e:	6c02                	.2byte	0x6c02
 330:	0000                	unimp
 332:	f000                	.2byte	0xf000
 334:	6114                	.2byte	0x6114
 336:	0000                	unimp
 338:	9800                	.2byte	0x9800
 33a:	0000                	unimp
 33c:	0000                	unimp
 33e:	a420                	.2byte	0xa420
 340:	0000                	unimp
 342:	3000                	.2byte	0x3000
 344:	01000003          	lb	zero,16(zero) # 10 <_prog_start-0x7ffffff0>
 348:	0069                	c.nop	26
 34a:	0ef2                	slli	t4,t4,0x1c
 34c:	0076                	c.slli	zero,0x1d
 34e:	0000                	unimp
 350:	00d4                	addi	a3,sp,68
 352:	0000                	unimp
 354:	0f00                	addi	s0,sp,912
 356:	05dc                	addi	a5,sp,708
 358:	0000                	unimp
 35a:	0694                	addi	a3,sp,832
 35c:	8000                	.2byte	0x8000
 35e:	002c                	addi	a1,sp,8
 360:	0000                	unimp
 362:	5ade                	lw	s5,244(sp)
 364:	06000003          	lb	zero,96(zero) # 60 <_prog_start-0x7fffffa0>
 368:	05e6                	slli	a1,a1,0x19
 36a:	0000                	unimp
 36c:	0694                	addi	a3,sp,832
 36e:	8000                	.2byte	0x8000
 370:	002c                	addi	a1,sp,8
 372:	0000                	unimp
 374:	0005e707          	.4byte	0x5e707
 378:	0400                	addi	s0,sp,512
 37a:	0001                	nop
 37c:	0000                	unimp
 37e:	0f00                	addi	s0,sp,912
 380:	000005c7          	.4byte	0x5c7
 384:	06c0                	addi	s0,sp,836
 386:	8000                	.2byte	0x8000
 388:	002c                	addi	a1,sp,8
 38a:	0000                	unimp
 38c:	84df 0003 0600      	.byte	0xdf, 0x84, 0x03, 0x00, 0x00, 0x06
 392:	05d1                	addi	a1,a1,20 # 64000014 <_prog_start-0x1bffffec>
 394:	0000                	unimp
 396:	06c0                	addi	s0,sp,836
 398:	8000                	.2byte	0x8000
 39a:	002c                	addi	a1,sp,8
 39c:	0000                	unimp
 39e:	0005d207          	.4byte	0x5d207
 3a2:	3400                	.2byte	0x3400
 3a4:	0001                	nop
 3a6:	0000                	unimp
 3a8:	0f00                	addi	s0,sp,912
 3aa:	04b6                	slli	s1,s1,0xd
 3ac:	0000                	unimp
 3ae:	06f4                	addi	a3,sp,844
 3b0:	8000                	.2byte	0x8000
 3b2:	002c                	addi	a1,sp,8
 3b4:	0000                	unimp
 3b6:	aeec                	.2byte	0xaeec
 3b8:	06000003          	lb	zero,96(zero) # 60 <_prog_start-0x7fffffa0>
 3bc:	04c0                	addi	s0,sp,580
 3be:	0000                	unimp
 3c0:	06f4                	addi	a3,sp,844
 3c2:	8000                	.2byte	0x8000
 3c4:	002c                	addi	a1,sp,8
 3c6:	0000                	unimp
 3c8:	0004c107          	.4byte	0x4c107
 3cc:	5800                	lw	s0,48(s0)
 3ce:	0001                	nop
 3d0:	0000                	unimp
 3d2:	0f00                	addi	s0,sp,912
 3d4:	04a1                	addi	s1,s1,8
 3d6:	0000                	unimp
 3d8:	0720                	addi	s0,sp,904
 3da:	8000                	.2byte	0x8000
 3dc:	002a                	c.slli	zero,0xa
 3de:	0000                	unimp
 3e0:	d8ed                	beqz	s1,3d2 <_prog_start-0x7ffffc2e>
 3e2:	06000003          	lb	zero,96(zero) # 60 <_prog_start-0x7fffffa0>
 3e6:	000004ab          	.4byte	0x4ab
 3ea:	0720                	addi	s0,sp,904
 3ec:	8000                	.2byte	0x8000
 3ee:	002a                	c.slli	zero,0xa
 3f0:	0000                	unimp
 3f2:	0004ac07          	.4byte	0x4ac07
 3f6:	8800                	.2byte	0x8800
 3f8:	0001                	nop
 3fa:	0000                	unimp
 3fc:	0800                	addi	s0,sp,16
 3fe:	068e                	slli	a3,a3,0x3
 400:	8000                	.2byte	0x8000
 402:	06ae                	slli	a3,a3,0xb
 404:	0000                	unimp
 406:	9008                	.2byte	0x9008
 408:	0006                	c.slli	zero,0x1
 40a:	6f80                	.2byte	0x6f80
 40c:	0006                	c.slli	zero,0x1
 40e:	0800                	addi	s0,sp,16
 410:	0692                	slli	a3,a3,0x4
 412:	8000                	.2byte	0x8000
 414:	0630                	addi	a2,sp,776
 416:	0000                	unimp
 418:	9408                	.2byte	0x9408
 41a:	0006                	c.slli	zero,0x1
 41c:	f180                	.2byte	0xf180
 41e:	0005                	c.nop	1
 420:	0800                	addi	s0,sp,16
 422:	06ee                	slli	a3,a3,0x1b
 424:	8000                	.2byte	0x8000
 426:	0588                	addi	a0,sp,704
 428:	0000                	unimp
 42a:	f008                	.2byte	0xf008
 42c:	0006                	c.slli	zero,0x1
 42e:	6f80                	.2byte	0x6f80
 430:	0006                	c.slli	zero,0x1
 432:	0800                	addi	s0,sp,16
 434:	06f2                	slli	a3,a3,0x1c
 436:	8000                	.2byte	0x8000
 438:	0630                	addi	a2,sp,776
 43a:	0000                	unimp
 43c:	f408                	.2byte	0xf408
 43e:	0006                	c.slli	zero,0x1
 440:	f180                	.2byte	0xf180
 442:	0005                	c.nop	1
 444:	1300                	addi	s0,sp,416
 446:	07ba                	slli	a5,a5,0xe
 448:	8000                	.2byte	0x8000
 44a:	017a                	slli	sp,sp,0x1e
 44c:	0000                	unimp
 44e:	00000437          	lui	s0,0x0
 452:	0105                	addi	sp,sp,1
 454:	055a                	slli	a0,a0,0x16
 456:	000a3003          	.4byte	0xa3003
 45a:	0080                	addi	s0,sp,64
 45c:	0007c813          	xori	a6,a5,0
 460:	7a80                	.2byte	0x7a80
 462:	0001                	nop
 464:	5a00                	lw	s0,48(a2)
 466:	0004                	.2byte	0x4
 468:	0500                	addi	s0,sp,640
 46a:	5a01                	li	s4,-32
 46c:	0305                	addi	t1,t1,1
 46e:	0a4c                	addi	a1,sp,276
 470:	8000                	.2byte	0x8000
 472:	0105                	addi	sp,sp,1
 474:	0079025b          	.4byte	0x79025b
 478:	0105                	addi	sp,sp,1
 47a:	025c                	addi	a5,sp,260
 47c:	0082                	c.slli64	ra
 47e:	1300                	addi	s0,sp,416
 480:	07d6                	slli	a5,a5,0x15
 482:	8000                	.2byte	0x8000
 484:	017a                	slli	sp,sp,0x1e
 486:	0000                	unimp
 488:	047d                	addi	s0,s0,31 # 1f <_prog_start-0x7fffffe1>
 48a:	0000                	unimp
 48c:	0105                	addi	sp,sp,1
 48e:	055a                	slli	a0,a0,0x16
 490:	000a6c03          	.4byte	0xa6c03
 494:	0580                	addi	s0,sp,704
 496:	5b01                	li	s6,-32
 498:	8402                	jr	s0
 49a:	0500                	addi	s0,sp,640
 49c:	5c01                	li	s8,-32
 49e:	8502                	jr	a0
 4a0:	0000                	unimp
 4a2:	e221                	bnez	a2,4e2 <_prog_start-0x7ffffb1e>
 4a4:	7a800007          	.4byte	0x7a800007
 4a8:	0001                	nop
 4aa:	0500                	addi	s0,sp,640
 4ac:	5a01                	li	s4,-32
 4ae:	0305                	addi	t1,t1,1
 4b0:	0a88                	addi	a0,sp,336
 4b2:	8000                	.2byte	0x8000
 4b4:	0105                	addi	sp,sp,1
 4b6:	0078025b          	.4byte	0x78025b
 4ba:	0000                	unimp
 4bc:	9c0d                	.2byte	0x9c0d
 4be:	0004                	.2byte	0x4
 4c0:	0d00                	addi	s0,sp,656
 4c2:	0192                	slli	gp,gp,0x4
 4c4:	0000                	unimp
 4c6:	c410                	sw	a2,8(s0)
 4c8:	0001                	nop
 4ca:	8100                	.2byte	0x8100
 4cc:	04b6                	slli	s1,s1,0xd
 4ce:	0000                	unimp
 4d0:	1211                	addi	tp,tp,-28 # ffff7fe4 <a+0x7fff75b8>
 4d2:	0069                	c.nop	26
 4d4:	7682                	.2byte	0x7682
 4d6:	0000                	unimp
 4d8:	0000                	unimp
 4da:	1000                	addi	s0,sp,32
 4dc:	01be                	slli	gp,gp,0xf
 4de:	0000                	unimp
 4e0:	cb7c                	sw	a5,84(a4)
 4e2:	0004                	.2byte	0x4
 4e4:	1100                	addi	s0,sp,160
 4e6:	6912                	.2byte	0x6912
 4e8:	7d00                	.2byte	0x7d00
 4ea:	0076                	c.slli	zero,0x1d
 4ec:	0000                	unimp
 4ee:	0000                	unimp
 4f0:	6c09                	lui	s8,0x2
 4f2:	0001                	nop
 4f4:	7100                	.2byte	0x7100
 4f6:	0498                	addi	a4,sp,576
 4f8:	8000                	.2byte	0x8000
 4fa:	005a                	c.slli	zero,0x16
 4fc:	0000                	unimp
 4fe:	9c01                	.2byte	0x9c01
 500:	050a                	slli	a0,a0,0x2
 502:	0000                	unimp
 504:	980a                	add	a6,a6,sp
 506:	0004                	.2byte	0x4
 508:	5880                	lw	s0,48(s1)
 50a:	0000                	unimp
 50c:	0100                	addi	s0,sp,128
 50e:	0069                	c.nop	26
 510:	0c76                	slli	s8,s8,0x1d
 512:	0076                	c.slli	zero,0x1d
 514:	0000                	unimp
 516:	01ac                	addi	a1,sp,200
 518:	0000                	unimp
 51a:	0000910b          	.4byte	0x910b
 51e:	0100                	addi	s0,sp,128
 520:	006a                	c.slli	zero,0x1a
 522:	00760e77          	.4byte	0x760e77
 526:	0000                	unimp
 528:	01c4                	addi	s1,sp,196
 52a:	0000                	unimp
 52c:	0000                	unimp
 52e:	0900                	addi	s0,sp,144
 530:	0166                	slli	sp,sp,0x19
 532:	0000                	unimp
 534:	00043e67          	.4byte	0x43e67
 538:	5a80                	lw	s0,48(a3)
 53a:	0000                	unimp
 53c:	0100                	addi	s0,sp,128
 53e:	499c                	lw	a5,16(a1)
 540:	0005                	c.nop	1
 542:	0a00                	addi	s0,sp,272
 544:	043e                	slli	s0,s0,0xf
 546:	8000                	.2byte	0x8000
 548:	0058                	addi	a4,sp,4
 54a:	0000                	unimp
 54c:	6901                	.2byte	0x6901
 54e:	6c00                	.2byte	0x6c00
 550:	760c                	.2byte	0x760c
 552:	0000                	unimp
 554:	f400                	.2byte	0xf400
 556:	0001                	nop
 558:	0b00                	addi	s0,sp,400
 55a:	007e                	c.slli	zero,0x1f
 55c:	0000                	unimp
 55e:	6a01                	.2byte	0x6a01
 560:	6d00                	.2byte	0x6d00
 562:	760e                	.2byte	0x760e
 564:	0000                	unimp
 566:	0c00                	addi	s0,sp,528
 568:	0002                	c.slli64	zero
 56a:	0000                	unimp
 56c:	0000                	unimp
 56e:	6009                	c.lui	zero,0x2
 570:	0001                	nop
 572:	5d00                	lw	s0,56(a0)
 574:	03e4                	addi	s1,sp,460
 576:	8000                	.2byte	0x8000
 578:	005a                	c.slli	zero,0x16
 57a:	0000                	unimp
 57c:	9c01                	.2byte	0x9c01
 57e:	0588                	addi	a0,sp,704
 580:	0000                	unimp
 582:	e40a                	.2byte	0xe40a
 584:	58800003          	lb	zero,1416(zero) # 588 <_prog_start-0x7ffffa78>
 588:	0000                	unimp
 58a:	0100                	addi	s0,sp,128
 58c:	0069                	c.nop	26
 58e:	0c62                	slli	s8,s8,0x18
 590:	0076                	c.slli	zero,0x1d
 592:	0000                	unimp
 594:	023c                	addi	a5,sp,264
 596:	0000                	unimp
 598:	00006b0b          	.4byte	0x6b0b
 59c:	0100                	addi	s0,sp,128
 59e:	006a                	c.slli	zero,0x1a
 5a0:	00760e63          	beq	a2,t2,5bc <_prog_start-0x7ffffa44>
 5a4:	0000                	unimp
 5a6:	0254                	addi	a3,sp,260
 5a8:	0000                	unimp
 5aa:	0000                	unimp
 5ac:	0900                	addi	s0,sp,144
 5ae:	015a                	slli	sp,sp,0x16
 5b0:	0000                	unimp
 5b2:	00038a53          	.4byte	0x38a53
 5b6:	5a80                	lw	s0,48(a3)
 5b8:	0000                	unimp
 5ba:	0100                	addi	s0,sp,128
 5bc:	c79c                	sw	a5,8(a5)
 5be:	0005                	c.nop	1
 5c0:	0a00                	addi	s0,sp,272
 5c2:	038a                	slli	t2,t2,0x2
 5c4:	8000                	.2byte	0x8000
 5c6:	0058                	addi	a4,sp,4
 5c8:	0000                	unimp
 5ca:	6901                	.2byte	0x6901
 5cc:	5800                	lw	s0,48(s0)
 5ce:	760c                	.2byte	0x760c
 5d0:	0000                	unimp
 5d2:	8400                	.2byte	0x8400
 5d4:	0002                	c.slli64	zero
 5d6:	0b00                	addi	s0,sp,400
 5d8:	0058                	addi	a4,sp,4
 5da:	0000                	unimp
 5dc:	6a01                	.2byte	0x6a01
 5de:	5900                	lw	s0,48(a0)
 5e0:	760e                	.2byte	0x760e
 5e2:	0000                	unimp
 5e4:	9c00                	.2byte	0x9c00
 5e6:	0002                	c.slli64	zero
 5e8:	0000                	unimp
 5ea:	0000                	unimp
 5ec:	a210                	.2byte	0xa210
 5ee:	0000                	unimp
 5f0:	4d00                	lw	s0,24(a0)
 5f2:	05dc                	addi	a5,sp,708
 5f4:	0000                	unimp
 5f6:	1211                	addi	tp,tp,-28 # ffffffe4 <a+0x7ffff5b8>
 5f8:	0069                	c.nop	26
 5fa:	764e                	.2byte	0x764e
 5fc:	0000                	unimp
 5fe:	0000                	unimp
 600:	1000                	addi	s0,sp,32
 602:	009c                	addi	a5,sp,64
 604:	0000                	unimp
 606:	f148                	.2byte	0xf148
 608:	0005                	c.nop	1
 60a:	1100                	addi	s0,sp,160
 60c:	6912                	.2byte	0x6912
 60e:	4900                	lw	s0,16(a0)
 610:	0076                	c.slli	zero,0x1d
 612:	0000                	unimp
 614:	0000                	unimp
 616:	fb09                	bnez	a4,528 <_prog_start-0x7ffffad8>
 618:	0001                	nop
 61a:	3d00                	.2byte	0x3d00
 61c:	02a8                	addi	a0,sp,328
 61e:	8000                	.2byte	0x8000
 620:	005a                	c.slli	zero,0x16
 622:	0000                	unimp
 624:	9c01                	.2byte	0x9c01
 626:	0630                	addi	a2,sp,776
 628:	0000                	unimp
 62a:	a80a                	.2byte	0xa80a
 62c:	0002                	c.slli64	zero
 62e:	5880                	lw	s0,48(s1)
 630:	0000                	unimp
 632:	0100                	addi	s0,sp,128
 634:	0069                	c.nop	26
 636:	0c42                	slli	s8,s8,0x10
 638:	0076                	c.slli	zero,0x1d
 63a:	0000                	unimp
 63c:	02cc                	addi	a1,sp,324
 63e:	0000                	unimp
 640:	0000450b          	.4byte	0x450b
 644:	0100                	addi	s0,sp,128
 646:	006a                	c.slli	zero,0x1a
 648:	00761043          	.4byte	0x761043
 64c:	0000                	unimp
 64e:	02e4                	addi	s1,sp,332
 650:	0000                	unimp
 652:	0000                	unimp
 654:	0900                	addi	s0,sp,144
 656:	01f5                	addi	gp,gp,29
 658:	0000                	unimp
 65a:	00024e33          	xor	t3,tp,zero
 65e:	5a80                	lw	s0,48(a3)
 660:	0000                	unimp
 662:	0100                	addi	s0,sp,128
 664:	6f9c                	.2byte	0x6f9c
 666:	0006                	c.slli	zero,0x1
 668:	0a00                	addi	s0,sp,272
 66a:	024e                	slli	tp,tp,0x13
 66c:	8000                	.2byte	0x8000
 66e:	0058                	addi	a4,sp,4
 670:	0000                	unimp
 672:	6901                	.2byte	0x6901
 674:	3800                	.2byte	0x3800
 676:	760c                	.2byte	0x760c
 678:	0000                	unimp
 67a:	1400                	addi	s0,sp,544
 67c:	0b000003          	lb	zero,176(zero) # b0 <_prog_start-0x7fffff50>
 680:	0032                	c.slli	zero,0xc
 682:	0000                	unimp
 684:	6a01                	.2byte	0x6a01
 686:	3900                	.2byte	0x3900
 688:	760e                	.2byte	0x760e
 68a:	0000                	unimp
 68c:	2c00                	.2byte	0x2c00
 68e:	00000003          	lb	zero,0(zero) # 0 <_prog_start-0x80000000>
 692:	0000                	unimp
 694:	ef09                	bnez	a4,6ae <_prog_start-0x7ffff952>
 696:	0001                	nop
 698:	2900                	.2byte	0x2900
 69a:	01f4                	addi	a3,sp,204
 69c:	8000                	.2byte	0x8000
 69e:	005a                	c.slli	zero,0x16
 6a0:	0000                	unimp
 6a2:	9c01                	.2byte	0x9c01
 6a4:	06ae                	slli	a3,a3,0xb
 6a6:	0000                	unimp
 6a8:	f40a                	.2byte	0xf40a
 6aa:	0001                	nop
 6ac:	5880                	lw	s0,48(s1)
 6ae:	0000                	unimp
 6b0:	0100                	addi	s0,sp,128
 6b2:	0069                	c.nop	26
 6b4:	0c2e                	slli	s8,s8,0xb
 6b6:	0076                	c.slli	zero,0x1d
 6b8:	0000                	unimp
 6ba:	035c                	addi	a5,sp,388
 6bc:	0000                	unimp
 6be:	00001f0b          	.4byte	0x1f0b
 6c2:	0100                	addi	s0,sp,128
 6c4:	006a                	c.slli	zero,0x1a
 6c6:	00760e2f          	.4byte	0x760e2f
 6ca:	0000                	unimp
 6cc:	0374                	addi	a3,sp,396
 6ce:	0000                	unimp
 6d0:	0000                	unimp
 6d2:	0900                	addi	s0,sp,144
 6d4:	01e9                	addi	gp,gp,26
 6d6:	0000                	unimp
 6d8:	9a1f 0001 5a80      	.byte	0x1f, 0x9a, 0x01, 0x00, 0x80, 0x5a
 6de:	0000                	unimp
 6e0:	0100                	addi	s0,sp,128
 6e2:	ed9c                	.2byte	0xed9c
 6e4:	0006                	c.slli	zero,0x1
 6e6:	0a00                	addi	s0,sp,272
 6e8:	019a                	slli	gp,gp,0x6
 6ea:	8000                	.2byte	0x8000
 6ec:	0058                	addi	a4,sp,4
 6ee:	0000                	unimp
 6f0:	6901                	.2byte	0x6901
 6f2:	2400                	.2byte	0x2400
 6f4:	760c                	.2byte	0x760c
 6f6:	0000                	unimp
 6f8:	a400                	.2byte	0xa400
 6fa:	0b000003          	lb	zero,176(zero) # b0 <_prog_start-0x7fffff50>
 6fe:	000c                	.2byte	0xc
 700:	0000                	unimp
 702:	6a01                	.2byte	0x6a01
 704:	2500                	.2byte	0x2500
 706:	760e                	.2byte	0x760e
 708:	0000                	unimp
 70a:	bc00                	.2byte	0xbc00
 70c:	00000003          	lb	zero,0(zero) # 0 <_prog_start-0x80000000>
 710:	0000                	unimp
 712:	dc14                	sw	a3,56(s0)
 714:	0005                	c.nop	1
 716:	0200                	addi	s0,sp,256
 718:	44800003          	lb	zero,1096(zero) # 448 <_prog_start-0x7ffffbb8>
 71c:	0000                	unimp
 71e:	0100                	addi	s0,sp,128
 720:	189c                	addi	a5,sp,112
 722:	06000007          	.4byte	0x6000007
 726:	05e6                	slli	a1,a1,0x19
 728:	0000                	unimp
 72a:	0302                	c.slli64	t1
 72c:	8000                	.2byte	0x8000
 72e:	0042                	c.slli	zero,0x10
 730:	0000                	unimp
 732:	0005e707          	.4byte	0x5e707
 736:	ec00                	.2byte	0xec00
 738:	00000003          	lb	zero,0(zero) # 0 <_prog_start-0x80000000>
 73c:	1400                	addi	s0,sp,544
 73e:	000005c7          	.4byte	0x5c7
 742:	0346                	slli	t1,t1,0x11
 744:	8000                	.2byte	0x8000
 746:	0044                	addi	s1,sp,4
 748:	0000                	unimp
 74a:	9c01                	.2byte	0x9c01
 74c:	00000743          	.4byte	0x743
 750:	d106                	sw	ra,160(sp)
 752:	0005                	c.nop	1
 754:	4600                	lw	s0,8(a2)
 756:	42800003          	lb	zero,1064(zero) # 428 <_prog_start-0x7ffffbd8>
 75a:	0000                	unimp
 75c:	0700                	addi	s0,sp,896
 75e:	05d2                	slli	a1,a1,0x14
 760:	0000                	unimp
 762:	041c                	addi	a5,sp,512
 764:	0000                	unimp
 766:	0000                	unimp
 768:	b614                	.2byte	0xb614
 76a:	0004                	.2byte	0x4
 76c:	f200                	.2byte	0xf200
 76e:	0004                	.2byte	0x4
 770:	4480                	lw	s0,8(s1)
 772:	0000                	unimp
 774:	0100                	addi	s0,sp,128
 776:	6e9c                	.2byte	0x6e9c
 778:	06000007          	.4byte	0x6000007
 77c:	04c0                	addi	s0,sp,580
 77e:	0000                	unimp
 780:	04f2                	slli	s1,s1,0x1c
 782:	8000                	.2byte	0x8000
 784:	0042                	c.slli	zero,0x10
 786:	0000                	unimp
 788:	0004c107          	.4byte	0x4c107
 78c:	4c00                	lw	s0,24(s0)
 78e:	0004                	.2byte	0x4
 790:	0000                	unimp
 792:	2200                	.2byte	0x2200
 794:	04a1                	addi	s1,s1,8
 796:	0000                	unimp
 798:	0536                	slli	a0,a0,0xd
 79a:	8000                	.2byte	0x8000
 79c:	0044                	addi	s1,sp,4
 79e:	0000                	unimp
 7a0:	9c01                	.2byte	0x9c01
 7a2:	ab06                	.2byte	0xab06
 7a4:	0004                	.2byte	0x4
 7a6:	3600                	.2byte	0x3600
 7a8:	0005                	c.nop	1
 7aa:	4280                	lw	s0,0(a3)
 7ac:	0000                	unimp
 7ae:	0700                	addi	s0,sp,896
 7b0:	04ac                	addi	a1,sp,584
 7b2:	0000                	unimp
 7b4:	047c                	addi	a5,sp,524
 7b6:	0000                	unimp
 7b8:	0000                	unimp
 7ba:	2400                	.2byte	0x2400
 7bc:	0004                	.2byte	0x4
 7be:	0500                	addi	s0,sp,640
 7c0:	0100                	addi	s0,sp,128
 7c2:	ea04                	.2byte	0xea04
 7c4:	0001                	nop
 7c6:	1700                	addi	s0,sp,928
 7c8:	00ae                	slli	ra,ra,0xb
 7ca:	0000                	unimp
 7cc:	351d                	jal	5f2 <_prog_start-0x7ffffa0e>
 7ce:	0001                	nop
 7d0:	0000                	unimp
 7d2:	0000                	unimp
 7d4:	0000                	unimp
 7d6:	0008                	.2byte	0x8
 7d8:	be80                	.2byte	0xbe80
 7da:	0001                	nop
 7dc:	c600                	sw	s0,8(a2)
 7de:	0014                	.2byte	0x14
 7e0:	0100                	addi	s0,sp,128
 7e2:	0704                	addi	s1,sp,896
 7e4:	019e                	slli	gp,gp,0x7
 7e6:	0000                	unimp
 7e8:	2d05                	jal	e18 <_prog_start-0x7ffff1e8>
 7ea:	0002                	c.slli64	zero
 7ec:	0300                	addi	s0,sp,384
 7ee:	1b28                	addi	a0,sp,440
 7f0:	0039                	c.nop	14
 7f2:	0000                	unimp
 7f4:	0418                	addi	a4,sp,512
 7f6:	0209                	addi	tp,tp,2 # 2 <_prog_start-0x7ffffffe>
 7f8:	0000                	unimp
 7fa:	3405                	jal	21a <_prog_start-0x7ffffde6>
 7fc:	0002                	c.slli64	zero
 7fe:	0300                	addi	s0,sp,384
 800:	002d1863          	bne	s10,sp,810 <_prog_start-0x7ffff7f0>
 804:	0000                	unimp
 806:	0101                	addi	sp,sp,0
 808:	7406                	.2byte	0x7406
 80a:	0001                	nop
 80c:	0100                	addi	s0,sp,128
 80e:	0801                	addi	a6,a6,0
 810:	0172                	slli	sp,sp,0x1c
 812:	0000                	unimp
 814:	0201                	addi	tp,tp,0 # 0 <_prog_start-0x80000000>
 816:	6205                	lui	tp,0x1
 818:	0000                	unimp
 81a:	0100                	addi	s0,sp,128
 81c:	0702                	c.slli64	a4
 81e:	000001ab          	.4byte	0x1ab
 822:	1b05                	addi	s6,s6,-31
 824:	0002                	c.slli64	zero
 826:	0400                	addi	s0,sp,512
 828:	184d                	addi	a6,a6,-13
 82a:	00000073          	ecall
 82e:	0401                	addi	s0,s0,0
 830:	3905                	jal	460 <_prog_start-0x7ffffba0>
 832:	0001                	nop
 834:	0500                	addi	s0,sp,640
 836:	007f                	.2byte	0x7f
 838:	0000                	unimp
 83a:	4f04                	lw	s1,24(a4)
 83c:	8619                	srai	a2,a2,0x6
 83e:	0000                	unimp
 840:	0100                	addi	s0,sp,128
 842:	0704                	addi	s1,sp,896
 844:	0199                	addi	gp,gp,6
 846:	0000                	unimp
 848:	0801                	addi	a6,a6,0
 84a:	3405                	jal	26a <_prog_start-0x7ffffd96>
 84c:	0001                	nop
 84e:	0100                	addi	s0,sp,128
 850:	0708                	addi	a0,sp,896
 852:	0194                	addi	a3,sp,192
 854:	0000                	unimp
 856:	0419                	addi	s0,s0,6
 858:	6905                	lui	s2,0x1
 85a:	746e                	.2byte	0x746e
 85c:	0500                	addi	s0,sp,640
 85e:	021d                	addi	tp,tp,7 # 1007 <_prog_start-0x7fffeff9>
 860:	0000                	unimp
 862:	2c05                	jal	a92 <_prog_start-0x7ffff56e>
 864:	00006713          	ori	a4,zero,0
 868:	0500                	addi	s0,sp,640
 86a:	0081                	addi	ra,ra,0
 86c:	0000                	unimp
 86e:	3005                	jal	8e <_prog_start-0x7fffff72>
 870:	7a14                	.2byte	0x7a14
 872:	0000                	unimp
 874:	1a00                	addi	s0,sp,304
 876:	00ae                	slli	ra,ra,0xb
 878:	0000                	unimp
 87a:	00008a1b          	.4byte	0x8a1b
 87e:	0200                	addi	s0,sp,256
 880:	00d42213          	slti	tp,s0,13
 884:	0000                	unimp
 886:	0000                	unimp
 888:	6400                	.2byte	0x6400
 88a:	ba0d                	j	1bc <_prog_start-0x7ffffe44>
 88c:	0000                	unimp
 88e:	0e00                	addi	s0,sp,784
 890:	000000cf          	.4byte	0xcf
 894:	0000720f          	.4byte	0x720f
 898:	1600                	addi	s0,sp,800
 89a:	0838                	addi	a4,sp,24
 89c:	8000                	.2byte	0x8000
 89e:	0186                	slli	gp,gp,0x1
 8a0:	0000                	unimp
 8a2:	9c01                	.2byte	0x9c01
 8a4:	00000303          	lb	t1,0(zero) # 0 <_prog_start-0x80000000>
 8a8:	6610                	.2byte	0x6610
 8aa:	746d                	lui	s0,0xffffb
 8ac:	1600                	addi	s0,sp,800
 8ae:	031a                	slli	t1,t1,0x6
 8b0:	b8000003          	lb	zero,-1152(zero) # fffffb80 <a+0x7ffff154>
 8b4:	0004                	.2byte	0x4
 8b6:	1c00                	addi	s0,sp,560
 8b8:	760a                	.2byte	0x760a
 8ba:	006c                	addi	a1,sp,12
 8bc:	0a18                	addi	a4,sp,272
 8be:	0000003f 7f9c9103 	.8byte	0x7f9c91030000003f
 8c6:	3c11                	jal	2da <_prog_start-0x7ffffd26>
 8c8:	0002                	c.slli64	zero
 8ca:	0700                	addi	s0,sp,896
 8cc:	0314                	addi	a3,sp,384
 8ce:	0000                	unimp
 8d0:	000004e7          	jalr	s1,zero # 0 <_prog_start-0x80000000>
 8d4:	251d                	jal	efa <_prog_start-0x7ffff106>
 8d6:	0002                	c.slli64	zero
 8d8:	0100                	addi	s0,sp,128
 8da:	1219                	addi	tp,tp,-26 # ffffffe6 <a+0x7ffff5ba>
 8dc:	0314                	addi	a3,sp,384
 8de:	0000                	unimp
 8e0:	1100                	addi	s0,sp,160
 8e2:	0201                	addi	tp,tp,0 # 0 <_prog_start-0x80000000>
 8e4:	0000                	unimp
 8e6:	0003141b          	.4byte	0x3141b
 8ea:	4d00                	lw	s0,24(a0)
 8ec:	0005                	c.nop	1
 8ee:	0600                	addi	s0,sp,768
 8f0:	071a0063          	beq	s4,a7,950 <_prog_start-0x7ffff6b0>
 8f4:	0308                	addi	a0,sp,384
 8f6:	0000                	unimp
 8f8:	05a8                	addi	a0,sp,712
 8fa:	0000                	unimp
 8fc:	e912                	.2byte	0xe912
 8fe:	0000                	unimp
 900:	d900                	sw	s0,48(a0)
 902:	0002                	c.slli64	zero
 904:	0600                	addi	s0,sp,768
 906:	006e                	c.slli	zero,0x1b
 908:	1324                	addi	s1,sp,424
 90a:	0086                	slli	ra,ra,0x1
 90c:	0000                	unimp
 90e:	05ca                	slli	a1,a1,0x12
 910:	0000                	unimp
 912:	630a                	.2byte	0x630a
 914:	2600                	.2byte	0x2600
 916:	1b0a                	slli	s6,s6,0x22
 918:	03000003          	lb	zero,48(zero) # 30 <_prog_start-0x7fffffd0>
 91c:	a091                	j	960 <_prog_start-0x7ffff6a0>
 91e:	127f                	.2byte	0x127f
 920:	015a                	slli	sp,sp,0x16
 922:	0000                	unimp
 924:	0178                	addi	a4,sp,140
 926:	0000                	unimp
 928:	6909                	lui	s2,0x2
 92a:	0100                	addi	s0,sp,128
 92c:	009b0e27          	.4byte	0x9b0e27
 930:	0000                	unimp
 932:	0b00                	addi	s0,sp,400
 934:	0978                	addi	a4,sp,156
 936:	8000                	.2byte	0x8000
 938:	0014                	.2byte	0x14
 93a:	0000                	unimp
 93c:	00000193          	li	gp,0
 940:	6906                	.2byte	0x6906
 942:	2d00                	.2byte	0x2d00
 944:	00009b0f          	.4byte	0x9b0f
 948:	f700                	.2byte	0xf700
 94a:	0005                	c.nop	1
 94c:	0000                	unimp
 94e:	0009a80b          	.4byte	0x9a80b
 952:	1680                	addi	s0,sp,864
 954:	0000                	unimp
 956:	d100                	sw	s0,32(a0)
 958:	0001                	nop
 95a:	0600                	addi	s0,sp,768
 95c:	0069                	c.nop	26
 95e:	0e31                	addi	t3,t3,12 # 1a00c <_prog_start-0x7ffe5ff4>
 960:	0000009b          	.4byte	0x9b
 964:	0629                	addi	a2,a2,10 # fffe100a <a+0x7ffe05de>
 966:	0000                	unimp
 968:	0003fe07          	.4byte	0x3fe07
 96c:	a800                	.2byte	0xa800
 96e:	0009                	c.nop	2
 970:	0c80                	addi	s0,sp,592
 972:	0000                	unimp
 974:	3100                	.2byte	0x3100
 976:	0325                	addi	t1,t1,9
 978:	00000407          	.4byte	0x407
 97c:	1104                	addi	s1,sp,160
 97e:	0004                	.2byte	0x4
 980:	0200                	addi	s0,sp,256
 982:	041c                	addi	a5,sp,512
 984:	0000                	unimp
 986:	064e                	slli	a2,a2,0x13
 988:	0000                	unimp
 98a:	0000                	unimp
 98c:	0008ae0b          	.4byte	0x8ae0b
 990:	4280                	lw	s0,0(a3)
 992:	0000                	unimp
 994:	3300                	.2byte	0x3300
 996:	0002                	c.slli64	zero
 998:	0a00                	addi	s0,sp,272
 99a:	006e                	c.slli	zero,0x1b
 99c:	00861337          	lui	t1,0x861
 9a0:	0000                	unimp
 9a2:	6f01                	.2byte	0x6f01
 9a4:	6906                	.2byte	0x6906
 9a6:	3800                	.2byte	0x3800
 9a8:	730a                	.2byte	0x730a
 9aa:	0000                	unimp
 9ac:	5a00                	lw	s0,48(a2)
 9ae:	0006                	c.slli	zero,0x1
 9b0:	0800                	addi	s0,sp,16
 9b2:	0121                	addi	sp,sp,8
 9b4:	0000                	unimp
 9b6:	6406                	.2byte	0x6406
 9b8:	4100                	lw	s0,0(a0)
 9ba:	0000730b          	.4byte	0x730b
 9be:	6600                	.2byte	0x6600
 9c0:	0006                	c.slli	zero,0x1
 9c2:	1300                	addi	s0,sp,416
 9c4:	03fe                	slli	t2,t2,0x1f
 9c6:	0000                	unimp
 9c8:	08c6                	slli	a7,a7,0x11
 9ca:	8000                	.2byte	0x8000
 9cc:	0134                	addi	a3,sp,136
 9ce:	0000                	unimp
 9d0:	07030643          	.4byte	0x7030643
 9d4:	0004                	.2byte	0x4
 9d6:	0800                	addi	s0,sp,16
 9d8:	0134                	addi	a3,sp,136
 9da:	0000                	unimp
 9dc:	1104                	addi	s1,sp,160
 9de:	0004                	.2byte	0x4
 9e0:	0200                	addi	s0,sp,256
 9e2:	041c                	addi	a5,sp,512
 9e4:	0000                	unimp
 9e6:	0672                	slli	a2,a2,0x1c
 9e8:	0000                	unimp
 9ea:	0000                	unimp
 9ec:	0000                	unimp
 9ee:	fe14                	.2byte	0xfe14
 9f0:	88000003          	lb	zero,-1920(zero) # fffff880 <a+0x7fffee54>
 9f4:	0008                	.2byte	0x8
 9f6:	0580                	addi	s0,sp,704
 9f8:	0001                	nop
 9fa:	4b00                	lw	s0,16(a4)
 9fc:	00000267          	jalr	tp,zero # 0 <_prog_start-0x80000000>
 a00:	070c                	addi	a1,sp,896
 a02:	0004                	.2byte	0x4
 a04:	7e00                	.2byte	0x7e00
 a06:	0006                	c.slli	zero,0x1
 a08:	0800                	addi	s0,sp,16
 a0a:	0105                	addi	sp,sp,1
 a0c:	0000                	unimp
 a0e:	1102                	slli	sp,sp,0x20
 a10:	0004                	.2byte	0x4
 a12:	8a00                	.2byte	0x8a00
 a14:	0006                	c.slli	zero,0x1
 a16:	0200                	addi	s0,sp,256
 a18:	041c                	addi	a5,sp,512
 a1a:	0000                	unimp
 a1c:	0699                	addi	a3,a3,6
 a1e:	0000                	unimp
 a20:	0000                	unimp
 a22:	dc14                	sw	a3,56(s0)
 a24:	f4000003          	lb	zero,-192(zero) # ffffff40 <a+0x7ffff514>
 a28:	0008                	.2byte	0x8
 a2a:	4780                	lw	s0,8(a5)
 a2c:	0001                	nop
 a2e:	4800                	lw	s0,16(s0)
 a30:	02b5                	addi	t0,t0,13
 a32:	0000                	unimp
 a34:	e90c                	.2byte	0xe90c
 a36:	a5000003          	lb	zero,-1456(zero) # fffffa50 <a+0x7ffff024>
 a3a:	0006                	c.slli	zero,0x1
 a3c:	0800                	addi	s0,sp,16
 a3e:	00000147          	.4byte	0x147
 a42:	f302                	.2byte	0xf302
 a44:	b1000003          	lb	zero,-1264(zero) # fffffb10 <a+0x7ffff0e4>
 a48:	0006                	c.slli	zero,0x1
 a4a:	0700                	addi	s0,sp,896
 a4c:	03fe                	slli	t2,t2,0x1f
 a4e:	0000                	unimp
 a50:	08fe                	slli	a7,a7,0x1f
 a52:	8000                	.2byte	0x8000
 a54:	000c                	.2byte	0xc
 a56:	0000                	unimp
 a58:	030c                	addi	a1,sp,384
 a5a:	00040703          	lb	a4,0(s0) # ffffb000 <a+0x7fffa5d4>
 a5e:	0400                	addi	s0,sp,512
 a60:	0411                	addi	s0,s0,4
 a62:	0000                	unimp
 a64:	1c02                	slli	s8,s8,0x20
 a66:	0004                	.2byte	0x4
 a68:	c800                	sw	s0,16(s0)
 a6a:	0006                	c.slli	zero,0x1
 a6c:	0000                	unimp
 a6e:	0000                	unimp
 a70:	0003fe07          	.4byte	0x3fe07
 a74:	4200                	lw	s0,0(a2)
 a76:	0009                	c.nop	2
 a78:	1280                	addi	s0,sp,352
 a7a:	0000                	unimp
 a7c:	2900                	.2byte	0x2900
 a7e:	0306                	slli	t1,t1,0x1
 a80:	00000407          	.4byte	0x407
 a84:	1104                	addi	s1,sp,160
 a86:	0004                	.2byte	0x4
 a88:	0200                	addi	s0,sp,256
 a8a:	041c                	addi	a5,sp,512
 a8c:	0000                	unimp
 a8e:	06d4                	addi	a3,sp,836
 a90:	0000                	unimp
 a92:	0000                	unimp
 a94:	0003fe13          	andi	t3,t2,0
 a98:	5e00                	lw	s0,56(a2)
 a9a:	0008                	.2byte	0x8
 a9c:	d680                	sw	s0,40(a3)
 a9e:	0000                	unimp
 aa0:	5400                	lw	s0,40(s0)
 aa2:	0304                	addi	s1,sp,384
 aa4:	00000407          	.4byte	0x407
 aa8:	d608                	sw	a0,40(a2)
 aaa:	0000                	unimp
 aac:	0400                	addi	s0,sp,512
 aae:	0411                	addi	s0,s0,4
 ab0:	0000                	unimp
 ab2:	1c02                	slli	s8,s8,0x20
 ab4:	0004                	.2byte	0x4
 ab6:	e000                	.2byte	0xe000
 ab8:	0006                	c.slli	zero,0x1
 aba:	0000                	unimp
 abc:	0000                	unimp
 abe:	0f0d                	addi	t5,t5,3
 ac0:	01000003          	lb	zero,16(zero) # 10 <_prog_start-0x7ffffff0>
 ac4:	0801                	addi	a6,a6,0
 ac6:	0000017b          	.4byte	0x17b
 aca:	080e                	slli	a6,a6,0x3
 acc:	01000003          	lb	zero,16(zero) # 10 <_prog_start-0x7ffffff0>
 ad0:	0201                	addi	tp,tp,0 # 0 <_prog_start-0x80000000>
 ad2:	00000253          	.4byte	0x253
 ad6:	081e                	slli	a6,a6,0x7
 ad8:	2b000003          	lb	zero,688(zero) # 2b0 <_prog_start-0x7ffffd50>
 adc:	1f000003          	lb	zero,496(zero) # 1f0 <_prog_start-0x7ffffe10>
 ae0:	0026                	c.slli	zero,0x9
 ae2:	0000                	unimp
 ae4:	470f003f 0f000002 	.8byte	0xf000002470f003f
 aec:	0800                	addi	s0,sp,16
 aee:	8000                	.2byte	0x8000
 af0:	0038                	addi	a4,sp,8
 af2:	0000                	unimp
 af4:	9c01                	.2byte	0x9c01
 af6:	03dc                	addi	a5,sp,452
 af8:	0000                	unimp
 afa:	7310                	.2byte	0x7310
 afc:	0f00                	addi	s0,sp,912
 afe:	0318                	addi	a4,sp,384
 b00:	ec000003          	lb	zero,-320(zero) # fffffec0 <a+0x7ffff494>
 b04:	0006                	c.slli	zero,0x1
 b06:	1500                	addi	s0,sp,672
 b08:	03dc                	addi	a5,sp,452
 b0a:	0000                	unimp
 b0c:	0800                	addi	s0,sp,16
 b0e:	8000                	.2byte	0x8000
 b10:	001a                	c.slli	zero,0x6
 b12:	0000                	unimp
 b14:	9411                	srai	s0,s0,0x24
 b16:	0c000003          	lb	zero,192(zero) # c0 <_prog_start-0x7fffff40>
 b1a:	03e9                	addi	t2,t2,26
 b1c:	0000                	unimp
 b1e:	0706                	slli	a4,a4,0x1
 b20:	0000                	unimp
 b22:	f302                	.2byte	0xf302
 b24:	12000003          	lb	zero,288(zero) # 120 <_prog_start-0x7ffffee0>
 b28:	07000007          	.4byte	0x7000007
 b2c:	03fe                	slli	t2,t2,0x1f
 b2e:	0000                	unimp
 b30:	0806                	slli	a6,a6,0x1
 b32:	8000                	.2byte	0x8000
 b34:	000c                	.2byte	0xc
 b36:	0000                	unimp
 b38:	030c                	addi	a1,sp,384
 b3a:	00040703          	lb	a4,0(s0)
 b3e:	0400                	addi	s0,sp,512
 b40:	0411                	addi	s0,s0,4
 b42:	0000                	unimp
 b44:	1c02                	slli	s8,s8,0x20
 b46:	0004                	.2byte	0x4
 b48:	2900                	.2byte	0x2900
 b4a:	00000007          	.4byte	0x7
 b4e:	1500                	addi	s0,sp,672
 b50:	03fe                	slli	t2,t2,0x1f
 b52:	0000                	unimp
 b54:	081a                	slli	a6,a6,0x6
 b56:	8000                	.2byte	0x8000
 b58:	000e                	c.slli	zero,0x3
 b5a:	0000                	unimp
 b5c:	ba12                	.2byte	0xba12
 b5e:	03000003          	lb	zero,48(zero) # 30 <_prog_start-0x7fffffd0>
 b62:	00000407          	.4byte	0x407
 b66:	1104                	addi	s1,sp,160
 b68:	0004                	.2byte	0x4
 b6a:	0200                	addi	s0,sp,256
 b6c:	041c                	addi	a5,sp,512
 b6e:	0000                	unimp
 b70:	0735                	addi	a4,a4,13 # d169 <_prog_start-0x7fff2e97>
 b72:	0000                	unimp
 b74:	0700                	addi	s0,sp,896
 b76:	03fe                	slli	t2,t2,0x1f
 b78:	0000                	unimp
 b7a:	0828                	addi	a0,sp,24
 b7c:	8000                	.2byte	0x8000
 b7e:	000e                	c.slli	zero,0x3
 b80:	0000                	unimp
 b82:	07030213          	addi	tp,t1,112 # 861070 <_prog_start-0x7f79ef90>
 b86:	0004                	.2byte	0x4
 b88:	0400                	addi	s0,sp,512
 b8a:	0411                	addi	s0,s0,4
 b8c:	0000                	unimp
 b8e:	1c20                	addi	s0,sp,568
 b90:	0004                	.2byte	0x4
 b92:	0100                	addi	s0,sp,128
 b94:	005d                	c.nop	23
 b96:	2100                	.2byte	0x2100
 b98:	0246                	slli	tp,tp,0x11
 b9a:	0000                	unimp
 b9c:	0801                	addi	a6,a6,0
 b9e:	0314                	addi	a3,sp,384
 ba0:	03fe                	slli	t2,t2,0x1f
 ba2:	0000                	unimp
 ba4:	7316                	.2byte	0x7316
 ba6:	0100                	addi	s0,sp,128
 ba8:	2708                	.2byte	0x2708
 baa:	00000303          	lb	t1,0(zero) # 0 <_prog_start-0x80000000>
 bae:	6309                	lui	t1,0x2
 bb0:	0100                	addi	s0,sp,128
 bb2:	070a                	slli	a4,a4,0x2
 bb4:	0308                	addi	a0,sp,384
 bb6:	0000                	unimp
 bb8:	2200                	.2byte	0x2200
 bba:	024d                	addi	tp,tp,19 # 13 <_prog_start-0x7fffffed>
 bbc:	0000                	unimp
 bbe:	1502                	slli	a0,a0,0x20
 bc0:	0314                	addi	a3,sp,384
 bc2:	6316                	.2byte	0x6316
 bc4:	0200                	addi	s0,sp,256
 bc6:	1f15                	addi	t5,t5,-27
 bc8:	0308                	addi	a0,sp,384
 bca:	0000                	unimp
 bcc:	7409                	lui	s0,0xfffe2
 bce:	0078                	addi	a4,sp,12
 bd0:	1702                	slli	a4,a4,0x20
 bd2:	cf15                	beqz	a4,c0e <_prog_start-0x7ffff3f2>
 bd4:	0000                	unimp
 bd6:	0900                	addi	s0,sp,144
 bd8:	0072                	c.slli	zero,0x1c
 bda:	1902                	slli	s2,s2,0x20
 bdc:	a20a                	.2byte	0xa20a
 bde:	0000                	unimp
 be0:	0000                	unimp
	...

Disassembly of section .debug_abbrev:

00000000 <.debug_abbrev>:
   0:	1101                	addi	sp,sp,-32
   2:	1000                	addi	s0,sp,32
   4:	12011117          	auipc	sp,0x12011
   8:	1b0e030f          	.4byte	0x1b0e030f
   c:	250e                	.2byte	0x250e
   e:	130e                	slli	t1,t1,0x23
  10:	0005                	c.nop	1
  12:	0000                	unimp
  14:	3401                	jal	fffffa14 <a+0x7fffefe8>
  16:	0300                	addi	s0,sp,384
  18:	3a08                	.2byte	0x3a08
  1a:	0121                	addi	sp,sp,8 # 1201100c <_prog_start-0x6dfeeff4>
  1c:	0b390b3b          	.4byte	0xb390b3b
  20:	1349                	addi	t1,t1,-14 # 1ff2 <_prog_start-0x7fffe00e>
  22:	1702                	slli	a4,a4,0x20
  24:	0000                	unimp
  26:	3402                	.2byte	0x3402
  28:	0300                	addi	s0,sp,384
  2a:	3a0e                	.2byte	0x3a0e
  2c:	0121                	addi	sp,sp,8
  2e:	0b390b3b          	.4byte	0xb390b3b
  32:	1349                	addi	t1,t1,-14
  34:	1702                	slli	a4,a4,0x20
  36:	0000                	unimp
  38:	03003403          	.4byte	0x3003403
  3c:	3a08                	.2byte	0x3a08
  3e:	0121                	addi	sp,sp,8
  40:	21390b3b          	.4byte	0x21390b3b
  44:	490a                	lw	s2,128(sp)
  46:	02193f13          	sltiu	t5,s2,33
  4a:	0018                	.2byte	0x18
  4c:	0400                	addi	s0,sp,512
  4e:	0024                	addi	s1,sp,8
  50:	0b3e0b0b          	.4byte	0xb3e0b0b
  54:	00000e03          	lb	t3,0(zero) # 0 <_prog_start-0x80000000>
  58:	4905                	li	s2,1
  5a:	0200                	addi	s0,sp,256
  5c:	7e18                	.2byte	0x7e18
  5e:	0018                	.2byte	0x18
  60:	0600                	addi	s0,sp,768
  62:	1331010b          	.4byte	0x1331010b
  66:	0111                	addi	sp,sp,4
  68:	0612                	slli	a2,a2,0x4
  6a:	0000                	unimp
  6c:	31003407          	.4byte	0x31003407
  70:	00170213          	addi	tp,a4,1
  74:	0800                	addi	s0,sp,16
  76:	0048                	addi	a0,sp,4
  78:	017d                	addi	sp,sp,31
  7a:	137f                	.2byte	0x137f
  7c:	0000                	unimp
  7e:	2e09                	jal	390 <_prog_start-0x7ffffc70>
  80:	3f01                	jal	ffffff90 <a+0x7ffff564>
  82:	0319                	addi	t1,t1,6
  84:	3a0e                	.2byte	0x3a0e
  86:	0121                	addi	sp,sp,8
  88:	21390b3b          	.4byte	0x21390b3b
  8c:	1106                	slli	sp,sp,0x21
  8e:	1201                	addi	tp,tp,-32 # ffffffe0 <a+0x7ffff5b4>
  90:	4006                	.2byte	0x4006
  92:	7a18                	.2byte	0x7a18
  94:	0119                	addi	sp,sp,6
  96:	0a000013          	li	zero,160
  9a:	0111010b          	.4byte	0x111010b
  9e:	0612                	slli	a2,a2,0x4
  a0:	0000                	unimp
  a2:	55010b0b          	.4byte	0x55010b0b
  a6:	0c000017          	auipc	zero,0xc000
  aa:	0111010b          	.4byte	0x111010b
  ae:	0612                	slli	a2,a2,0x4
  b0:	1301                	addi	t1,t1,-32
  b2:	0000                	unimp
  b4:	0f0d                	addi	t5,t5,3
  b6:	0b00                	addi	s0,sp,400
  b8:	0421                	addi	s0,s0,8 # fffe2008 <a+0x7ffe15dc>
  ba:	1349                	addi	t1,t1,-14
  bc:	0000                	unimp
  be:	160e                	slli	a2,a2,0x23
  c0:	0300                	addi	s0,sp,384
  c2:	3a0e                	.2byte	0x3a0e
  c4:	390b3b0b          	.4byte	0x390b3b0b
  c8:	0013490b          	.4byte	0x13490b
  cc:	0f00                	addi	s0,sp,912
  ce:	011d                	addi	sp,sp,7
  d0:	1331                	addi	t1,t1,-20
  d2:	0111                	addi	sp,sp,4
  d4:	0612                	slli	a2,a2,0x4
  d6:	2158                	.2byte	0x2158
  d8:	5901                	li	s2,-32
  da:	0521570b          	.4byte	0x521570b
  de:	1301                	addi	t1,t1,-32
  e0:	0000                	unimp
  e2:	2e10                	.2byte	0x2e10
  e4:	3f01                	jal	fffffff4 <a+0x7ffff5c8>
  e6:	0319                	addi	t1,t1,6
  e8:	3a0e                	.2byte	0x3a0e
  ea:	0121                	addi	sp,sp,8
  ec:	21390b3b          	.4byte	0x21390b3b
  f0:	2006                	.2byte	0x2006
  f2:	0121                	addi	sp,sp,8
  f4:	1301                	addi	t1,t1,-32
  f6:	0000                	unimp
  f8:	0b11                	addi	s6,s6,4
  fa:	0001                	nop
  fc:	1200                	addi	s0,sp,288
  fe:	0034                	addi	a3,sp,8
 100:	213a0803          	lb	a6,531(s4)
 104:	3b01                	jal	fffffe14 <a+0x7ffff3e8>
 106:	0c21390b          	.4byte	0xc21390b
 10a:	1349                	addi	t1,t1,-14
 10c:	0000                	unimp
 10e:	7d014813          	xori	a6,sp,2000
 112:	7f01                	lui	t5,0xfffe0
 114:	00130113          	addi	sp,t1,1
 118:	1400                	addi	s0,sp,544
 11a:	012e                	slli	sp,sp,0xb
 11c:	1331                	addi	t1,t1,-20
 11e:	0111                	addi	sp,sp,4
 120:	0612                	slli	a2,a2,0x4
 122:	1840                	addi	s0,sp,52
 124:	197a                	slli	s2,s2,0x3e
 126:	1301                	addi	t1,t1,-32
 128:	0000                	unimp
 12a:	3415                	jal	fffffb4e <a+0x7ffff122>
 12c:	0300                	addi	s0,sp,384
 12e:	3a0e                	.2byte	0x3a0e
 130:	390b3b0b          	.4byte	0x390b3b0b
 134:	2221                	jal	23c <_prog_start-0x7ffffdc4>
 136:	1349                	addi	t1,t1,-14
 138:	061c                	addi	a5,sp,768
 13a:	0000                	unimp
 13c:	2616                	.2byte	0x2616
 13e:	4900                	lw	s0,16(a0)
 140:	17000013          	li	zero,368
 144:	0111                	addi	sp,sp,4
 146:	0e25                	addi	t3,t3,9
 148:	1f030b13          	addi	s6,t1,496
 14c:	17551f1b          	.4byte	0x17551f1b
 150:	0111                	addi	sp,sp,4
 152:	1710                	addi	a2,sp,928
 154:	0000                	unimp
 156:	2418                	.2byte	0x2418
 158:	0b00                	addi	s0,sp,400
 15a:	030b3e0b          	.4byte	0x30b3e0b
 15e:	0008                	.2byte	0x8
 160:	1900                	addi	s0,sp,176
 162:	0035                	c.nop	13
 164:	1349                	addi	t1,t1,-14
 166:	0000                	unimp
 168:	2e1a                	.2byte	0x2e1a
 16a:	3f01                	jal	7a <_prog_start-0x7fffff86>
 16c:	0319                	addi	t1,t1,6
 16e:	3a0e                	.2byte	0x3a0e
 170:	390b3b0b          	.4byte	0x390b3b0b
 174:	3c19270b          	.4byte	0x3c19270b
 178:	0119                	addi	sp,sp,6
 17a:	1b000013          	li	zero,432
 17e:	0005                	c.nop	1
 180:	1349                	addi	t1,t1,-14
 182:	0000                	unimp
 184:	181c                	addi	a5,sp,48
 186:	0000                	unimp
 188:	1d00                	addi	s0,sp,688
 18a:	012e                	slli	sp,sp,0xb
 18c:	0e03193f 0b3b0b3a 	.8byte	0xb3b0b3a0e03193f
 194:	0b39                	addi	s6,s6,14
 196:	13491927          	.4byte	0x13491927
 19a:	0111                	addi	sp,sp,4
 19c:	0612                	slli	a2,a2,0x4
 19e:	1840                	addi	s0,sp,52
 1a0:	197a                	slli	s2,s2,0x3e
 1a2:	1301                	addi	t1,t1,-32
 1a4:	0000                	unimp
 1a6:	051e                	slli	a0,a0,0x7
 1a8:	0300                	addi	s0,sp,384
 1aa:	3a0e                	.2byte	0x3a0e
 1ac:	390b3b0b          	.4byte	0x390b3b0b
 1b0:	0213490b          	.4byte	0x213490b
 1b4:	1f000017          	auipc	zero,0x1f000
 1b8:	0005                	c.nop	1
 1ba:	0b3a0803          	lb	a6,179(s4)
 1be:	0b390b3b          	.4byte	0xb390b3b
 1c2:	1349                	addi	t1,t1,-14
 1c4:	1702                	slli	a4,a4,0x20
 1c6:	0000                	unimp
 1c8:	0b20                	addi	s0,sp,408
 1ca:	5501                	li	a0,-32
 1cc:	00130117          	auipc	sp,0x130
 1d0:	2100                	.2byte	0x2100
 1d2:	0148                	addi	a0,sp,132
 1d4:	017d                	addi	sp,sp,31 # 1301eb <_prog_start-0x7fecfe15>
 1d6:	137f                	.2byte	0x137f
 1d8:	0000                	unimp
 1da:	2e22                	.2byte	0x2e22
 1dc:	3101                	jal	fffffddc <a+0x7ffff3b0>
 1de:	12011113          	.4byte	0x12011113
 1e2:	4006                	.2byte	0x4006
 1e4:	7a18                	.2byte	0x7a18
 1e6:	0019                	c.nop	6
 1e8:	0000                	unimp
 1ea:	2401                	jal	3ea <_prog_start-0x7ffffc16>
 1ec:	0b00                	addi	s0,sp,400
 1ee:	030b3e0b          	.4byte	0x30b3e0b
 1f2:	000e                	c.slli	zero,0x3
 1f4:	0200                	addi	s0,sp,256
 1f6:	0034                	addi	a3,sp,8
 1f8:	1331                	addi	t1,t1,-20
 1fa:	1702                	slli	a4,a4,0x20
 1fc:	0000                	unimp
 1fe:	31000503          	lb	a0,784(zero) # 310 <_prog_start-0x7ffffcf0>
 202:	04000013          	li	zero,64
 206:	0034                	addi	a3,sp,8
 208:	1331                	addi	t1,t1,-20
 20a:	0000                	unimp
 20c:	1605                	addi	a2,a2,-31
 20e:	0300                	addi	s0,sp,384
 210:	3a0e                	.2byte	0x3a0e
 212:	390b3b0b          	.4byte	0x390b3b0b
 216:	0013490b          	.4byte	0x13490b
 21a:	0600                	addi	s0,sp,768
 21c:	0034                	addi	a3,sp,8
 21e:	213a0803          	lb	a6,531(s4)
 222:	3b01                	jal	ffffff32 <a+0x7ffff506>
 224:	490b390b          	.4byte	0x490b390b
 228:	00170213          	addi	tp,a4,1
 22c:	0700                	addi	s0,sp,896
 22e:	011d                	addi	sp,sp,7
 230:	1331                	addi	t1,t1,-20
 232:	0111                	addi	sp,sp,4
 234:	0612                	slli	a2,a2,0x4
 236:	2158                	.2byte	0x2158
 238:	5901                	li	s2,-32
 23a:	000b570b          	.4byte	0xb570b
 23e:	0800                	addi	s0,sp,16
 240:	1755010b          	.4byte	0x1755010b
 244:	0000                	unimp
 246:	3409                	jal	fffffc48 <a+0x7ffff21c>
 248:	0300                	addi	s0,sp,384
 24a:	3a08                	.2byte	0x3a08
 24c:	390b3b0b          	.4byte	0x390b3b0b
 250:	0013490b          	.4byte	0x13490b
 254:	0a00                	addi	s0,sp,272
 256:	0034                	addi	a3,sp,8
 258:	213a0803          	lb	a6,531(s4)
 25c:	3b01                	jal	ffffff6c <a+0x7ffff540>
 25e:	490b390b          	.4byte	0x490b390b
 262:	00180213          	addi	tp,a6,1
 266:	0b00                	addi	s0,sp,400
 268:	0111010b          	.4byte	0x111010b
 26c:	0612                	slli	a2,a2,0x4
 26e:	1301                	addi	t1,t1,-32
 270:	0000                	unimp
 272:	050c                	addi	a1,sp,640
 274:	3100                	.2byte	0x3100
 276:	00170213          	addi	tp,a4,1
 27a:	0d00                	addi	s0,sp,656
 27c:	210b000f          	.4byte	0x210b000f
 280:	4904                	lw	s1,16(a0)
 282:	0e000013          	li	zero,224
 286:	0026                	c.slli	zero,0x9
 288:	1349                	addi	t1,t1,-14
 28a:	0000                	unimp
 28c:	3f012e0f          	.4byte	0x3f012e0f
 290:	0319                	addi	t1,t1,6
 292:	3a0e                	.2byte	0x3a0e
 294:	0121                	addi	sp,sp,8
 296:	21390b3b          	.4byte	0x21390b3b
 29a:	2706                	.2byte	0x2706
 29c:	1119                	addi	sp,sp,-26
 29e:	1201                	addi	tp,tp,-32 # ffffffe0 <a+0x7ffff5b4>
 2a0:	4006                	.2byte	0x4006
 2a2:	7a18                	.2byte	0x7a18
 2a4:	0119                	addi	sp,sp,6
 2a6:	10000013          	li	zero,256
 2aa:	0005                	c.nop	1
 2ac:	213a0803          	lb	a6,531(s4)
 2b0:	3b01                	jal	ffffffc0 <a+0x7ffff594>
 2b2:	490b390b          	.4byte	0x490b390b
 2b6:	00170213          	addi	tp,a4,1
 2ba:	1100                	addi	s0,sp,160
 2bc:	0034                	addi	a3,sp,8
 2be:	213a0e03          	lb	t3,531(s4)
 2c2:	3b01                	jal	ffffffd2 <a+0x7ffff5a6>
 2c4:	1921                	addi	s2,s2,-24 # 1fe8 <_prog_start-0x7fffe018>
 2c6:	0b39                	addi	s6,s6,14
 2c8:	1349                	addi	t1,t1,-14
 2ca:	1702                	slli	a4,a4,0x20
 2cc:	0000                	unimp
 2ce:	0b12                	slli	s6,s6,0x4
 2d0:	5501                	li	a0,-32
 2d2:	00130117          	auipc	sp,0x130
 2d6:	1300                	addi	s0,sp,416
 2d8:	011d                	addi	sp,sp,7 # 1302d9 <_prog_start-0x7fecfd27>
 2da:	1331                	addi	t1,t1,-20
 2dc:	0152                	slli	sp,sp,0x14
 2de:	1755                	addi	a4,a4,-11
 2e0:	2158                	.2byte	0x2158
 2e2:	5901                	li	s2,-32
 2e4:	000b570b          	.4byte	0xb570b
 2e8:	1400                	addi	s0,sp,544
 2ea:	011d                	addi	sp,sp,7
 2ec:	1331                	addi	t1,t1,-20
 2ee:	0152                	slli	sp,sp,0x14
 2f0:	1755                	addi	a4,a4,-11
 2f2:	2158                	.2byte	0x2158
 2f4:	5901                	li	s2,-32
 2f6:	0521570b          	.4byte	0x521570b
 2fa:	1301                	addi	t1,t1,-32
 2fc:	0000                	unimp
 2fe:	1d15                	addi	s10,s10,-27 # 17fe5 <_prog_start-0x7ffe801b>
 300:	3101                	jal	ffffff00 <a+0x7ffff4d4>
 302:	12011113          	.4byte	0x12011113
 306:	5806                	lw	a6,96(sp)
 308:	0121                	addi	sp,sp,8
 30a:	0b59                	addi	s6,s6,22
 30c:	01022157          	.4byte	0x1022157
 310:	16000013          	li	zero,352
 314:	0005                	c.nop	1
 316:	0b3a0803          	lb	a6,179(s4)
 31a:	0b390b3b          	.4byte	0xb390b3b
 31e:	1349                	addi	t1,t1,-14
 320:	0000                	unimp
 322:	25011117          	auipc	sp,0x25011
 326:	130e                	slli	t1,t1,0x23
 328:	1b1f030b          	.4byte	0x1b1f030b
 32c:	111f 1201 1006      	.byte	0x1f, 0x11, 0x01, 0x12, 0x06, 0x10
 332:	18000017          	auipc	zero,0x18000
 336:	0b0b000f          	.4byte	0xb0b000f
 33a:	00000e03          	lb	t3,0(zero) # 0 <_prog_start-0x80000000>
 33e:	2419                	jal	544 <_prog_start-0x7ffffabc>
 340:	0b00                	addi	s0,sp,400
 342:	030b3e0b          	.4byte	0x30b3e0b
 346:	0008                	.2byte	0x8
 348:	1a00                	addi	s0,sp,304
 34a:	0035                	c.nop	13
 34c:	1349                	addi	t1,t1,-14
 34e:	0000                	unimp
 350:	0300341b          	.4byte	0x300341b
 354:	3a0e                	.2byte	0x3a0e
 356:	390b3b0b          	.4byte	0x390b3b0b
 35a:	1c13490b          	.4byte	0x1c13490b
 35e:	0006                	c.slli	zero,0x1
 360:	1c00                	addi	s0,sp,560
 362:	0018                	.2byte	0x18
 364:	0000                	unimp
 366:	341d                	jal	fffffd8c <a+0x7ffff360>
 368:	0300                	addi	s0,sp,384
 36a:	3a0e                	.2byte	0x3a0e
 36c:	390b3b0b          	.4byte	0x390b3b0b
 370:	1c13490b          	.4byte	0x1c13490b
 374:	1e00000b          	.4byte	0x1e00000b
 378:	0101                	addi	sp,sp,0 # 25011322 <_prog_start-0x5afeecde>
 37a:	1349                	addi	t1,t1,-14
 37c:	1301                	addi	t1,t1,-32
 37e:	0000                	unimp
 380:	211f 4900 2f13      	.byte	0x1f, 0x21, 0x00, 0x49, 0x13, 0x2f
 386:	2000000b          	.4byte	0x2000000b
 38a:	0034                	addi	a3,sp,8
 38c:	1331                	addi	t1,t1,-20
 38e:	1802                	slli	a6,a6,0x20
 390:	0000                	unimp
 392:	2e21                	jal	6aa <_prog_start-0x7ffff956>
 394:	0301                	addi	t1,t1,0
 396:	3a0e                	.2byte	0x3a0e
 398:	390b3b0b          	.4byte	0x390b3b0b
 39c:	2019270b          	.4byte	0x2019270b
 3a0:	0013010b          	.4byte	0x13010b
 3a4:	2200                	.2byte	0x2200
 3a6:	012e                	slli	sp,sp,0xb
 3a8:	0b3a0e03          	lb	t3,179(s4)
 3ac:	0b390b3b          	.4byte	0xb390b3b
 3b0:	0b201927          	.4byte	0xb201927
 3b4:	0000                	unimp
	...

Disassembly of section .debug_aranges:

00000000 <.debug_aranges>:
   0:	001c                	.2byte	0x1c
   2:	0000                	unimp
   4:	0002                	c.slli64	zero
   6:	0000                	unimp
   8:	0000                	unimp
   a:	0004                	.2byte	0x4
   c:	0000                	unimp
   e:	0000                	unimp
  10:	0000                	unimp
  12:	8000                	.2byte	0x8000
  14:	019a                	slli	gp,gp,0x6
	...
  1e:	0000                	unimp
  20:	0024                	addi	s1,sp,8
  22:	0000                	unimp
  24:	0002                	c.slli64	zero
  26:	0025                	c.nop	9
  28:	0000                	unimp
  2a:	0004                	.2byte	0x4
  2c:	0000                	unimp
  2e:	0000                	unimp
  30:	019a                	slli	gp,gp,0x6
  32:	8000                	.2byte	0x8000
  34:	03e0                	addi	s0,sp,460
  36:	0000                	unimp
  38:	057a                	slli	a0,a0,0x1e
  3a:	8000                	.2byte	0x8000
  3c:	0286                	slli	t0,t0,0x1
	...
  46:	0000                	unimp
  48:	001c                	.2byte	0x1c
  4a:	0000                	unimp
  4c:	0002                	c.slli64	zero
  4e:	000007bb          	.4byte	0x7bb
  52:	0004                	.2byte	0x4
  54:	0000                	unimp
  56:	0000                	unimp
  58:	0800                	addi	s0,sp,16
  5a:	8000                	.2byte	0x8000
  5c:	01be                	slli	gp,gp,0xf
	...

Disassembly of section .debug_str:

00000000 <.debug_str>:
   0:	30747263          	bgeu	s0,t2,304 <_prog_start-0x7ffffcfc>
   4:	532e                	lw	t1,232(sp)
   6:	2f00                	.2byte	0x2f00
   8:	6f68                	.2byte	0x6f68
   a:	656d                	lui	a0,0x1b
   c:	6e69622f          	.4byte	0x6e69622f
  10:	6b68                	.2byte	0x6b68
  12:	6569                	lui	a0,0x1a
  14:	6475                	lui	s0,0x1d
  16:	6f572f6f          	jal	t5,72f0a <_prog_start-0x7ff8d0f6>
  1a:	6b72                	.2byte	0x6b72
  1c:	63617073          	csrci	0x636,2
  20:	2f65                	jal	7d8 <_prog_start-0x7ffff828>
  22:	654e                	.2byte	0x654e
  24:	61724677          	.4byte	0x61724677
  28:	656d                	lui	a0,0x1b
  2a:	6b726f77          	.4byte	0x6b726f77
  2e:	6172662f          	.4byte	0x6172662f
  32:	656d                	lui	a0,0x1b
  34:	6b726f77          	.4byte	0x6b726f77
  38:	2f77732f          	.4byte	0x2f77732f
  3c:	616d                	addi	sp,sp,240
  3e:	7274                	.2byte	0x7274
  40:	7869                	lui	a6,0xffffa
  42:	6d5f 6c75 4700      	.byte	0x5f, 0x6d, 0x75, 0x6c, 0x00, 0x47
  48:	554e                	lw	a0,240(sp)
  4a:	4120                	lw	s0,64(a0)
  4c:	2e322053          	.4byte	0x2e322053
  50:	74003933          	.4byte	0x74003933
  54:	5f6c                	lw	a1,124(a4)
  56:	6e69                	lui	t3,0x1a
  58:	5f727473          	csrrci	s0,0x5f7,4
  5c:	72617473          	csrrci	s0,mhpmevent6h,2
  60:	0074                	addi	a3,sp,12
  62:	726f6873          	csrrsi	a6,mhpmevent6h,30
  66:	2074                	.2byte	0x2074
  68:	6e69                	lui	t3,0x1a
  6a:	0074                	addi	a3,sp,12
  6c:	5f5f 6d74 0070      	.byte	0x5f, 0x5f, 0x74, 0x6d, 0x70, 0x00
  72:	6972706b          	.4byte	0x6972706b
  76:	746e                	.2byte	0x746e
  78:	0066                	c.slli	zero,0x19
  7a:	616d                	addi	sp,sp,240
  7c:	6e69                	lui	t3,0x1a
  7e:	5f00                	lw	s0,56(a4)
  80:	755f 6e69 3374      	.byte	0x5f, 0x75, 0x69, 0x6e, 0x74, 0x33
  86:	5f32                	lw	t5,44(sp)
  88:	0074                	addi	a3,sp,12
  8a:	6175                	addi	sp,sp,368
  8c:	7472                	.2byte	0x7472
  8e:	7400                	.2byte	0x7400
  90:	5f68                	lw	a0,124(a4)
  92:	6e69                	lui	t3,0x1a
  94:	5f727473          	csrrci	s0,0x5f7,4
  98:	6e65                	lui	t3,0x19
  9a:	0064                	addi	s1,sp,12
  9c:	635f3173          	csrrc	sp,0x635,t5
  a0:	0030                	addi	a2,sp,8
  a2:	635f3173          	csrrc	sp,0x635,t5
  a6:	0032                	c.slli	zero,0xc
  a8:	5f74                	lw	a3,124(a4)
  aa:	00706167          	.4byte	0x706167
  ae:	20554e47          	.4byte	0x20554e47
  b2:	20313143          	.4byte	0x20313143
  b6:	3231                	jal	fffff9c2 <a+0x7fffef96>
  b8:	322e                	.2byte	0x322e
  ba:	302e                	.2byte	0x302e
  bc:	2d20                	.2byte	0x2d20
  be:	636d                	lui	t1,0x1b
  c0:	6f6d                	lui	t5,0x1b
  c2:	6564                	.2byte	0x6564
  c4:	3d6c                	.2byte	0x3d6c
  c6:	656d                	lui	a0,0x1b
  c8:	6164                	.2byte	0x6164
  ca:	796e                	.2byte	0x796e
  cc:	2d20                	.2byte	0x2d20
  ce:	616d                	addi	sp,sp,240
  d0:	6962                	.2byte	0x6962
  d2:	693d                	lui	s2,0xf
  d4:	706c                	.2byte	0x706c
  d6:	2d203233          	.4byte	0x2d203233
  da:	746d                	lui	s0,0xffffb
  dc:	6e75                	lui	t3,0x1d
  de:	3d65                	jal	ffffff96 <a+0x7ffff56a>
  e0:	6f72                	.2byte	0x6f72
  e2:	74656b63          	bltu	a0,t1,838 <_prog_start-0x7ffff7c8>
  e6:	2d20                	.2byte	0x2d20
  e8:	696d                	lui	s2,0x1b
  ea:	732d6173          	csrrsi	sp,mhpmevent18h,26
  ee:	6570                	.2byte	0x6570
  f0:	2e323d63          	.4byte	0x2e323d63
  f4:	2032                	.2byte	0x2032
  f6:	6d2d                	lui	s10,0xb
  f8:	7261                	lui	tp,0xffff8
  fa:	723d6863          	bltu	s10,gp,82a <_prog_start-0x7ffff7d6>
  fe:	3376                	.2byte	0x3376
 100:	6932                	.2byte	0x6932
 102:	616d                	addi	sp,sp,240
 104:	672d2063          	.4byte	0x672d2063
 108:	2d20                	.2byte	0x2d20
 10a:	7361664f          	.4byte	0x7361664f
 10e:	2074                	.2byte	0x2074
 110:	732d                	lui	t1,0xfffeb
 112:	6474                	.2byte	0x6474
 114:	673d                	lui	a4,0xf
 116:	756e                	.2byte	0x756e
 118:	3131                	jal	fffffd24 <a+0x7ffff2f8>
 11a:	2d20                	.2byte	0x2d20
 11c:	6e66                	.2byte	0x6e66
 11e:	6f632d6f          	jal	s10,32814 <_prog_start-0x7ffcd7ec>
 122:	6d6d                	lui	s10,0x1b
 124:	2d206e6f          	jal	t3,63f6 <_prog_start-0x7fff9c0a>
 128:	6e66                	.2byte	0x6e66
 12a:	75622d6f          	jal	s10,22880 <_prog_start-0x7ffdd780>
 12e:	6c69                	lui	s8,0x1a
 130:	6974                	.2byte	0x6974
 132:	006e                	c.slli	zero,0x1b
 134:	6f6c                	.2byte	0x6f6c
 136:	676e                	.2byte	0x676e
 138:	6c20                	.2byte	0x6c20
 13a:	20676e6f          	jal	t3,76340 <_prog_start-0x7ff89cc0>
 13e:	6e69                	lui	t3,0x1a
 140:	0074                	addi	a3,sp,12
 142:	5f74                	lw	a3,124(a4)
 144:	72617473          	csrrci	s0,mhpmevent6h,2
 148:	0074                	addi	a3,sp,12
 14a:	5f5f 6975 746e      	.byte	0x5f, 0x5f, 0x75, 0x69, 0x6e, 0x74
 150:	5f38                	lw	a4,120(a4)
 152:	0074                	addi	a3,sp,12
 154:	6e696c63          	bltu	s2,t1,84c <_prog_start-0x7ffff7b4>
 158:	0074                	addi	a3,sp,12
 15a:	635f3273          	csrrc	tp,0x635,t5
 15e:	0030                	addi	a2,sp,8
 160:	635f3273          	csrrc	tp,0x635,t5
 164:	0031                	c.nop	12
 166:	635f3273          	csrrc	tp,0x635,t5
 16a:	0032                	c.slli	zero,0xc
 16c:	635f3273          	csrrc	tp,0x635,t5
 170:	6e750033          	.4byte	0x6e750033
 174:	6e676973          	csrrsi	s2,0x6e6,14
 178:	6465                	lui	s0,0x19
 17a:	6320                	.2byte	0x6320
 17c:	6168                	.2byte	0x6168
 17e:	0072                	c.slli	zero,0x1c
 180:	6874                	.2byte	0x6874
 182:	695f 736e 7274      	.byte	0x5f, 0x69, 0x6e, 0x73, 0x74, 0x72
 188:	735f 6174 7472      	.byte	0x5f, 0x73, 0x74, 0x61, 0x72, 0x74
 18e:	6100                	.2byte	0x6100
 190:	6772                	.2byte	0x6772
 192:	6f6c0063          	beq	s8,s6,872 <_prog_start-0x7ffff78e>
 196:	676e                	.2byte	0x676e
 198:	6c20                	.2byte	0x6c20
 19a:	20676e6f          	jal	t3,763a0 <_prog_start-0x7ff89c60>
 19e:	6e75                	lui	t3,0x1d
 1a0:	6e676973          	csrrsi	s2,0x6e6,14
 1a4:	6465                	lui	s0,0x19
 1a6:	6920                	.2byte	0x6920
 1a8:	746e                	.2byte	0x746e
 1aa:	7300                	.2byte	0x7300
 1ac:	6f68                	.2byte	0x6f68
 1ae:	7472                	.2byte	0x7472
 1b0:	7520                	.2byte	0x7520
 1b2:	736e                	.2byte	0x736e
 1b4:	6769                	lui	a4,0x1a
 1b6:	656e                	.2byte	0x656e
 1b8:	2064                	.2byte	0x2064
 1ba:	6e69                	lui	t3,0x1a
 1bc:	0074                	addi	a3,sp,12
 1be:	635f3373          	csrrc	t1,0x635,t5
 1c2:	0030                	addi	a2,sp,8
 1c4:	635f3373          	csrrc	t1,0x635,t5
 1c8:	0032                	c.slli	zero,0xc
 1ca:	6c74                	.2byte	0x6c74
 1cc:	695f 736e 7274      	.byte	0x5f, 0x69, 0x6e, 0x73, 0x74, 0x72
 1d2:	655f 646e 6500      	.byte	0x5f, 0x65, 0x6e, 0x64, 0x00, 0x65
 1d8:	7272                	.2byte	0x7272
 1da:	635f726f          	jal	tp,f800e <_prog_start-0x7ff07ff2>
 1de:	746e756f          	jal	a0,e7924 <_prog_start-0x7ff186dc>
 1e2:	7400                	.2byte	0x7400
 1e4:	655f 646e 7300      	.byte	0x5f, 0x65, 0x6e, 0x64, 0x00, 0x73
 1ea:	5f30                	lw	a2,120(a4)
 1ec:	73003063          	.4byte	0x73003063
 1f0:	5f30                	lw	a2,120(a4)
 1f2:	73003163          	.4byte	0x73003163
 1f6:	5f30                	lw	a2,120(a4)
 1f8:	73003263          	.4byte	0x73003263
 1fc:	5f30                	lw	a2,120(a4)
 1fe:	69003363          	.4byte	0x69003363
 202:	68635f73          	csrrwi	t5,0x686,6
 206:	7261                	lui	tp,0xffff8
 208:	5f00                	lw	s0,56(a4)
 20a:	625f 6975 746c      	.byte	0x5f, 0x62, 0x75, 0x69, 0x6c, 0x74
 210:	6e69                	lui	t3,0x1a
 212:	765f 5f61 696c      	.byte	0x5f, 0x76, 0x61, 0x5f, 0x6c, 0x69
 218:	5f007473          	csrrci	s0,0x5f0,0
 21c:	695f 746e 3233      	.byte	0x5f, 0x69, 0x6e, 0x74, 0x33, 0x32
 222:	745f 6900 5f73      	.byte	0x5f, 0x74, 0x00, 0x69, 0x73, 0x5f
 228:	6f6c                	.2byte	0x6f6c
 22a:	676e                	.2byte	0x676e
 22c:	5f00                	lw	s0,56(a4)
 22e:	675f 756e 5f63      	.byte	0x5f, 0x67, 0x6e, 0x75, 0x63, 0x5f
 234:	6176                	.2byte	0x6176
 236:	6c5f 7369 0074      	.byte	0x5f, 0x6c, 0x69, 0x73, 0x74, 0x00
 23c:	7369                	lui	t1,0xffffa
 23e:	665f 726f 616d      	.byte	0x5f, 0x66, 0x6f, 0x72, 0x6d, 0x61
 244:	0074                	addi	a3,sp,12
 246:	6b5f 7570 7374      	.byte	0x5f, 0x6b, 0x70, 0x75, 0x74, 0x73
 24c:	6b00                	.2byte	0x6b00
 24e:	7570                	.2byte	0x7570
 250:	6374                	.2byte	0x6374
 252:	5f00                	lw	s0,56(a4)
 254:	6f42                	.2byte	0x6f42
 256:	6f 6c 00            	Address 0x0000000000000256 is out of bounds.


Disassembly of section .debug_loclists:

00000000 <.debug_loclists>:
   0:	04a8                	addi	a0,sp,584
   2:	0000                	unimp
   4:	0005                	c.nop	1
   6:	0004                	.2byte	0x4
   8:	0000                	unimp
   a:	0000                	unimp
   c:	00057a07          	.4byte	0x57a07
  10:	b880                	.2byte	0xb880
  12:	0005                	c.nop	1
  14:	0180                	addi	s0,sp,192
  16:	075a                	slli	a4,a4,0x16
  18:	05b8                	addi	a4,sp,712
  1a:	8000                	.2byte	0x8000
  1c:	0800                	addi	s0,sp,16
  1e:	8000                	.2byte	0x8000
  20:	a304                	.2byte	0xa304
  22:	5a01                	li	s4,-32
  24:	009f 7a07 0005      	.byte	0x9f, 0x00, 0x07, 0x7a, 0x05, 0x00
  2a:	c080                	sw	s0,0(s1)
  2c:	0005                	c.nop	1
  2e:	0180                	addi	s0,sp,192
  30:	05c0075b          	.4byte	0x5c0075b
  34:	8000                	.2byte	0x8000
  36:	0800                	addi	s0,sp,16
  38:	8000                	.2byte	0x8000
  3a:	a304                	.2byte	0xa304
  3c:	5b01                	li	s6,-32
  3e:	009f 8407 0006      	.byte	0x9f, 0x00, 0x07, 0x84, 0x06, 0x00
  44:	ec80                	.2byte	0xec80
  46:	01800007          	.4byte	0x1800007
  4a:	4e070063          	beqz	a4,52a <_prog_start-0x7ffffad6>
  4e:	b0800007          	.4byte	0xb0800007
  52:	01800007          	.4byte	0x1800007
  56:	ac07005b          	.4byte	0xac07005b
  5a:	b0800007          	.4byte	0xb0800007
  5e:	06800007          	.4byte	0x6800007
  62:	0083007b          	.4byte	0x83007b
  66:	9f1c                	.2byte	0x9f1c
  68:	0007b007          	.4byte	0x7b007
  6c:	b980                	.2byte	0xb980
  6e:	01800007          	.4byte	0x1800007
  72:	8807005b          	.4byte	0x8807005b
  76:	0006                	c.slli	zero,0x1
  78:	ea80                	.2byte	0xea80
  7a:	01800007          	.4byte	0x1800007
  7e:	0062                	c.slli	zero,0x18
  80:	00068c07          	.4byte	0x68c07
  84:	e880                	.2byte	0xe880
  86:	01800007          	.4byte	0x1800007
  8a:	0059                	c.nop	22
  8c:	00075207          	.4byte	0x75207
  90:	f080                	.2byte	0xf080
  92:	01800007          	.4byte	0x1800007
  96:	0065                	c.nop	25
  98:	00075607          	.4byte	0x75607
  9c:	ee80                	.2byte	0xee80
  9e:	01800007          	.4byte	0x1800007
  a2:	0064                	addi	s1,sp,12
  a4:	00059e07          	.4byte	0x59e07
  a8:	6e80                	.2byte	0x6e80
  aa:	02800007          	.4byte	0x2800007
  ae:	9f30                	.2byte	0x9f30
  b0:	00076e07          	.4byte	0x76e07
  b4:	e680                	.2byte	0xe680
  b6:	01800007          	.4byte	0x1800007
  ba:	0058                	addi	a4,sp,4
  bc:	00059e07          	.4byte	0x59e07
  c0:	0480                	addi	s0,sp,576
  c2:	0006                	c.slli	zero,0x1
  c4:	0280                	addi	s0,sp,320
  c6:	9f30                	.2byte	0x9f30
  c8:	00060407          	.4byte	0x60407
  cc:	8d80                	.2byte	0x8d80
  ce:	0006                	c.slli	zero,0x1
  d0:	0180                	addi	s0,sp,192
  d2:	005f 5607 0007      	.byte	0x5f, 0x00, 0x07, 0x56, 0x07, 0x00
  d8:	6e80                	.2byte	0x6e80
  da:	02800007          	.4byte	0x2800007
  de:	9f30                	.2byte	0x9f30
  e0:	00076e07          	.4byte	0x76e07
  e4:	a680                	.2byte	0xa680
  e6:	01800007          	.4byte	0x1800007
  ea:	075f 07a6 8000      	.byte	0x5f, 0x07, 0xa6, 0x07, 0x00, 0x80
  f0:	07a8                	addi	a0,sp,968
  f2:	8000                	.2byte	0x8000
  f4:	9f7f7f03          	.4byte	0x9f7f7f03
  f8:	0007a807          	.4byte	0x7a807
  fc:	b980                	.2byte	0xb980
  fe:	01800007          	.4byte	0x1800007
 102:	005f 9407 0006      	.byte	0x5f, 0x00, 0x07, 0x94, 0x06, 0x00
 108:	9a80                	.2byte	0x9a80
 10a:	0006                	c.slli	zero,0x1
 10c:	0280                	addi	s0,sp,320
 10e:	9f30                	.2byte	0x9f30
 110:	00069a07          	.4byte	0x69a07
 114:	b680                	.2byte	0xb680
 116:	0006                	c.slli	zero,0x1
 118:	0180                	addi	s0,sp,192
 11a:	075f 06b6 8000      	.byte	0x5f, 0x07, 0xb6, 0x06, 0x00, 0x80
 120:	06bc                	addi	a5,sp,840
 122:	8000                	.2byte	0x8000
 124:	9f7f7f03          	.4byte	0x9f7f7f03
 128:	0006bc07          	.4byte	0x6bc07
 12c:	c280                	sw	s0,0(a3)
 12e:	0006                	c.slli	zero,0x1
 130:	0180                	addi	s0,sp,192
 132:	005f c607 0006      	.byte	0x5f, 0x00, 0x07, 0xc6, 0x06, 0x00
 138:	e280                	.2byte	0xe280
 13a:	0006                	c.slli	zero,0x1
 13c:	0180                	addi	s0,sp,192
 13e:	075f 06e2 8000      	.byte	0x5f, 0x07, 0xe2, 0x06, 0x00, 0x80
 144:	06e8                	addi	a0,sp,844
 146:	8000                	.2byte	0x8000
 148:	9f7f7f03          	.4byte	0x9f7f7f03
 14c:	0006e807          	.4byte	0x6e807
 150:	ec80                	.2byte	0xec80
 152:	0006                	c.slli	zero,0x1
 154:	0180                	addi	s0,sp,192
 156:	005f f407 0006      	.byte	0x5f, 0x00, 0x07, 0xf4, 0x06, 0x00
 15c:	fa80                	.2byte	0xfa80
 15e:	0006                	c.slli	zero,0x1
 160:	0280                	addi	s0,sp,320
 162:	9f30                	.2byte	0x9f30
 164:	0006fa07          	.4byte	0x6fa07
 168:	1680                	addi	s0,sp,864
 16a:	01800007          	.4byte	0x1800007
 16e:	075f 0716 8000      	.byte	0x5f, 0x07, 0x16, 0x07, 0x00, 0x80
 174:	071c                	addi	a5,sp,896
 176:	8000                	.2byte	0x8000
 178:	9f7f7f03          	.4byte	0x9f7f7f03
 17c:	00071c07          	.4byte	0x71c07
 180:	2280                	.2byte	0x2280
 182:	01800007          	.4byte	0x1800007
 186:	005f 2607 0007      	.byte	0x5f, 0x00, 0x07, 0x26, 0x07, 0x00
 18c:	4080                	lw	s0,0(s1)
 18e:	01800007          	.4byte	0x1800007
 192:	075f 0740 8000      	.byte	0x5f, 0x07, 0x40, 0x07, 0x00, 0x80
 198:	0746                	slli	a4,a4,0x11
 19a:	8000                	.2byte	0x8000
 19c:	9f7f7f03          	.4byte	0x9f7f7f03
 1a0:	00074607          	.4byte	0x74607
 1a4:	4a80                	lw	s0,16(a3)
 1a6:	01800007          	.4byte	0x1800007
 1aa:	005f 9807 0004      	.byte	0x5f, 0x00, 0x07, 0x98, 0x04, 0x00
 1b0:	ba80                	.2byte	0xba80
 1b2:	0004                	.2byte	0x4
 1b4:	0280                	addi	s0,sp,320
 1b6:	9f30                	.2byte	0x9f30
 1b8:	0004ba07          	.4byte	0x4ba07
 1bc:	f280                	.2byte	0xf280
 1be:	0004                	.2byte	0x4
 1c0:	0180                	addi	s0,sp,192
 1c2:	005a                	c.slli	zero,0x16
 1c4:	0004ba07          	.4byte	0x4ba07
 1c8:	bc80                	.2byte	0xbc80
 1ca:	0004                	.2byte	0x4
 1cc:	0280                	addi	s0,sp,320
 1ce:	9f30                	.2byte	0x9f30
 1d0:	0004bc07          	.4byte	0x4bc07
 1d4:	e080                	.2byte	0xe080
 1d6:	0004                	.2byte	0x4
 1d8:	0180                	addi	s0,sp,192
 1da:	075e                	slli	a4,a4,0x17
 1dc:	04e0                	addi	s0,sp,588
 1de:	8000                	.2byte	0x8000
 1e0:	04e6                	slli	s1,s1,0x19
 1e2:	8000                	.2byte	0x8000
 1e4:	9f7f7e03          	.4byte	0x9f7f7e03
 1e8:	0004e607          	.4byte	0x4e607
 1ec:	f280                	.2byte	0xf280
 1ee:	0004                	.2byte	0x4
 1f0:	0180                	addi	s0,sp,192
 1f2:	005e                	c.slli	zero,0x17
 1f4:	00043e07          	.4byte	0x43e07
 1f8:	6080                	.2byte	0x6080
 1fa:	0004                	.2byte	0x4
 1fc:	0280                	addi	s0,sp,320
 1fe:	9f30                	.2byte	0x9f30
 200:	00046007          	.4byte	0x46007
 204:	9880                	.2byte	0x9880
 206:	0004                	.2byte	0x4
 208:	0180                	addi	s0,sp,192
 20a:	005a                	c.slli	zero,0x16
 20c:	00046007          	.4byte	0x46007
 210:	6280                	.2byte	0x6280
 212:	0004                	.2byte	0x4
 214:	0280                	addi	s0,sp,320
 216:	9f30                	.2byte	0x9f30
 218:	00046207          	.4byte	0x46207
 21c:	8680                	.2byte	0x8680
 21e:	0004                	.2byte	0x4
 220:	0180                	addi	s0,sp,192
 222:	075e                	slli	a4,a4,0x17
 224:	0486                	slli	s1,s1,0x1
 226:	8000                	.2byte	0x8000
 228:	048c                	addi	a1,sp,576
 22a:	8000                	.2byte	0x8000
 22c:	9f7f7e03          	.4byte	0x9f7f7e03
 230:	00048c07          	.4byte	0x48c07
 234:	9880                	.2byte	0x9880
 236:	0004                	.2byte	0x4
 238:	0180                	addi	s0,sp,192
 23a:	005e                	c.slli	zero,0x17
 23c:	0003e407          	.4byte	0x3e407
 240:	0680                	addi	s0,sp,832
 242:	0004                	.2byte	0x4
 244:	0280                	addi	s0,sp,320
 246:	9f30                	.2byte	0x9f30
 248:	00040607          	.4byte	0x40607
 24c:	3e80                	.2byte	0x3e80
 24e:	0004                	.2byte	0x4
 250:	0180                	addi	s0,sp,192
 252:	005a                	c.slli	zero,0x16
 254:	00040607          	.4byte	0x40607
 258:	0880                	addi	s0,sp,80
 25a:	0004                	.2byte	0x4
 25c:	0280                	addi	s0,sp,320
 25e:	9f30                	.2byte	0x9f30
 260:	00040807          	.4byte	0x40807
 264:	2c80                	.2byte	0x2c80
 266:	0004                	.2byte	0x4
 268:	0180                	addi	s0,sp,192
 26a:	075e                	slli	a4,a4,0x17
 26c:	042c                	addi	a1,sp,520
 26e:	8000                	.2byte	0x8000
 270:	0432                	slli	s0,s0,0xc
 272:	8000                	.2byte	0x8000
 274:	9f7f7e03          	.4byte	0x9f7f7e03
 278:	00043207          	.4byte	0x43207
 27c:	3e80                	.2byte	0x3e80
 27e:	0004                	.2byte	0x4
 280:	0180                	addi	s0,sp,192
 282:	005e                	c.slli	zero,0x17
 284:	00038a07          	.4byte	0x38a07
 288:	ac80                	.2byte	0xac80
 28a:	02800003          	lb	zero,40(zero) # 28 <_prog_start-0x7fffffd8>
 28e:	9f30                	.2byte	0x9f30
 290:	0003ac07          	.4byte	0x3ac07
 294:	e480                	.2byte	0xe480
 296:	01800003          	lb	zero,24(zero) # 18 <_prog_start-0x7fffffe8>
 29a:	005a                	c.slli	zero,0x16
 29c:	0003ac07          	.4byte	0x3ac07
 2a0:	ae80                	.2byte	0xae80
 2a2:	02800003          	lb	zero,40(zero) # 28 <_prog_start-0x7fffffd8>
 2a6:	9f30                	.2byte	0x9f30
 2a8:	0003ae07          	.4byte	0x3ae07
 2ac:	d280                	sw	s0,32(a3)
 2ae:	01800003          	lb	zero,24(zero) # 18 <_prog_start-0x7fffffe8>
 2b2:	075e                	slli	a4,a4,0x17
 2b4:	03d2                	slli	t2,t2,0x14
 2b6:	8000                	.2byte	0x8000
 2b8:	03d8                	addi	a4,sp,452
 2ba:	8000                	.2byte	0x8000
 2bc:	9f7f7e03          	.4byte	0x9f7f7e03
 2c0:	0003d807          	.4byte	0x3d807
 2c4:	e480                	.2byte	0xe480
 2c6:	01800003          	lb	zero,24(zero) # 18 <_prog_start-0x7fffffe8>
 2ca:	005e                	c.slli	zero,0x17
 2cc:	0002a807          	.4byte	0x2a807
 2d0:	ca80                	sw	s0,16(a3)
 2d2:	0002                	c.slli64	zero
 2d4:	0280                	addi	s0,sp,320
 2d6:	9f30                	.2byte	0x9f30
 2d8:	0002ca07          	.4byte	0x2ca07
 2dc:	0280                	addi	s0,sp,320
 2de:	01800003          	lb	zero,24(zero) # 18 <_prog_start-0x7fffffe8>
 2e2:	005a                	c.slli	zero,0x16
 2e4:	0002ca07          	.4byte	0x2ca07
 2e8:	cc80                	sw	s0,24(s1)
 2ea:	0002                	c.slli64	zero
 2ec:	0280                	addi	s0,sp,320
 2ee:	9f30                	.2byte	0x9f30
 2f0:	0002cc07          	.4byte	0x2cc07
 2f4:	f080                	.2byte	0xf080
 2f6:	0002                	c.slli64	zero
 2f8:	0180                	addi	s0,sp,192
 2fa:	075e                	slli	a4,a4,0x17
 2fc:	02f0                	addi	a2,sp,332
 2fe:	8000                	.2byte	0x8000
 300:	02f6                	slli	t0,t0,0x1d
 302:	8000                	.2byte	0x8000
 304:	9f7f7e03          	.4byte	0x9f7f7e03
 308:	0002f607          	.4byte	0x2f607
 30c:	0280                	addi	s0,sp,320
 30e:	01800003          	lb	zero,24(zero) # 18 <_prog_start-0x7fffffe8>
 312:	005e                	c.slli	zero,0x17
 314:	00024e07          	.4byte	0x24e07
 318:	7080                	.2byte	0x7080
 31a:	0002                	c.slli64	zero
 31c:	0280                	addi	s0,sp,320
 31e:	9f30                	.2byte	0x9f30
 320:	00027007          	.4byte	0x27007
 324:	a880                	.2byte	0xa880
 326:	0002                	c.slli64	zero
 328:	0180                	addi	s0,sp,192
 32a:	005a                	c.slli	zero,0x16
 32c:	00027007          	.4byte	0x27007
 330:	7280                	.2byte	0x7280
 332:	0002                	c.slli64	zero
 334:	0280                	addi	s0,sp,320
 336:	9f30                	.2byte	0x9f30
 338:	00027207          	.4byte	0x27207
 33c:	9680                	.2byte	0x9680
 33e:	0002                	c.slli64	zero
 340:	0180                	addi	s0,sp,192
 342:	075e                	slli	a4,a4,0x17
 344:	0296                	slli	t0,t0,0x5
 346:	8000                	.2byte	0x8000
 348:	029c                	addi	a5,sp,320
 34a:	8000                	.2byte	0x8000
 34c:	9f7f7e03          	.4byte	0x9f7f7e03
 350:	00029c07          	.4byte	0x29c07
 354:	a880                	.2byte	0xa880
 356:	0002                	c.slli64	zero
 358:	0180                	addi	s0,sp,192
 35a:	005e                	c.slli	zero,0x17
 35c:	0001f407          	.4byte	0x1f407
 360:	1680                	addi	s0,sp,864
 362:	0002                	c.slli64	zero
 364:	0280                	addi	s0,sp,320
 366:	9f30                	.2byte	0x9f30
 368:	00021607          	.4byte	0x21607
 36c:	4e80                	lw	s0,24(a3)
 36e:	0002                	c.slli64	zero
 370:	0180                	addi	s0,sp,192
 372:	005a                	c.slli	zero,0x16
 374:	00021607          	.4byte	0x21607
 378:	1880                	addi	s0,sp,112
 37a:	0002                	c.slli64	zero
 37c:	0280                	addi	s0,sp,320
 37e:	9f30                	.2byte	0x9f30
 380:	00021807          	.4byte	0x21807
 384:	3c80                	.2byte	0x3c80
 386:	0002                	c.slli64	zero
 388:	0180                	addi	s0,sp,192
 38a:	075e                	slli	a4,a4,0x17
 38c:	023c                	addi	a5,sp,264
 38e:	8000                	.2byte	0x8000
 390:	0242                	slli	tp,tp,0x10
 392:	8000                	.2byte	0x8000
 394:	9f7f7e03          	.4byte	0x9f7f7e03
 398:	00024207          	.4byte	0x24207
 39c:	4e80                	lw	s0,24(a3)
 39e:	0002                	c.slli64	zero
 3a0:	0180                	addi	s0,sp,192
 3a2:	005e                	c.slli	zero,0x17
 3a4:	00019a07          	.4byte	0x19a07
 3a8:	bc80                	.2byte	0xbc80
 3aa:	0001                	nop
 3ac:	0280                	addi	s0,sp,320
 3ae:	9f30                	.2byte	0x9f30
 3b0:	0001bc07          	.4byte	0x1bc07
 3b4:	f480                	.2byte	0xf480
 3b6:	0001                	nop
 3b8:	0180                	addi	s0,sp,192
 3ba:	005a                	c.slli	zero,0x16
 3bc:	0001bc07          	.4byte	0x1bc07
 3c0:	be80                	.2byte	0xbe80
 3c2:	0001                	nop
 3c4:	0280                	addi	s0,sp,320
 3c6:	9f30                	.2byte	0x9f30
 3c8:	0001be07          	.4byte	0x1be07
 3cc:	e280                	.2byte	0xe280
 3ce:	0001                	nop
 3d0:	0180                	addi	s0,sp,192
 3d2:	075e                	slli	a4,a4,0x17
 3d4:	01e2                	slli	gp,gp,0x18
 3d6:	8000                	.2byte	0x8000
 3d8:	01e8                	addi	a0,sp,204
 3da:	8000                	.2byte	0x8000
 3dc:	9f7f7e03          	.4byte	0x9f7f7e03
 3e0:	0001e807          	.4byte	0x1e807
 3e4:	f480                	.2byte	0xf480
 3e6:	0001                	nop
 3e8:	0180                	addi	s0,sp,192
 3ea:	005e                	c.slli	zero,0x17
 3ec:	00030207          	.4byte	0x30207
 3f0:	2080                	.2byte	0x2080
 3f2:	02800003          	lb	zero,40(zero) # 28 <_prog_start-0x7fffffd8>
 3f6:	9f30                	.2byte	0x9f30
 3f8:	00032007          	.4byte	0x32007
 3fc:	3a80                	.2byte	0x3a80
 3fe:	01800003          	lb	zero,24(zero) # 18 <_prog_start-0x7fffffe8>
 402:	075f 033a 8000      	.byte	0x5f, 0x07, 0x3a, 0x03, 0x00, 0x80
 408:	0340                	addi	s0,sp,388
 40a:	8000                	.2byte	0x8000
 40c:	9f7f7f03          	.4byte	0x9f7f7f03
 410:	00034007          	.4byte	0x34007
 414:	4680                	lw	s0,8(a3)
 416:	01800003          	lb	zero,24(zero) # 18 <_prog_start-0x7fffffe8>
 41a:	005f 4607 0003      	.byte	0x5f, 0x00, 0x07, 0x46, 0x03, 0x00
 420:	6480                	.2byte	0x6480
 422:	02800003          	lb	zero,40(zero) # 28 <_prog_start-0x7fffffd8>
 426:	9f30                	.2byte	0x9f30
 428:	00036407          	.4byte	0x36407
 42c:	7e80                	.2byte	0x7e80
 42e:	01800003          	lb	zero,24(zero) # 18 <_prog_start-0x7fffffe8>
 432:	075f 037e 8000      	.byte	0x5f, 0x07, 0x7e, 0x03, 0x00, 0x80
 438:	0384                	addi	s1,sp,448
 43a:	8000                	.2byte	0x8000
 43c:	9f7f7f03          	.4byte	0x9f7f7f03
 440:	00038407          	.4byte	0x38407
 444:	8a80                	.2byte	0x8a80
 446:	01800003          	lb	zero,24(zero) # 18 <_prog_start-0x7fffffe8>
 44a:	005f f207 0004      	.byte	0x5f, 0x00, 0x07, 0xf2, 0x04, 0x00
 450:	1080                	addi	s0,sp,96
 452:	0005                	c.nop	1
 454:	0280                	addi	s0,sp,320
 456:	9f30                	.2byte	0x9f30
 458:	00051007          	.4byte	0x51007
 45c:	2a80                	.2byte	0x2a80
 45e:	0005                	c.nop	1
 460:	0180                	addi	s0,sp,192
 462:	075f 052a 8000      	.byte	0x5f, 0x07, 0x2a, 0x05, 0x00, 0x80
 468:	0530                	addi	a2,sp,648
 46a:	8000                	.2byte	0x8000
 46c:	9f7f7f03          	.4byte	0x9f7f7f03
 470:	00053007          	.4byte	0x53007
 474:	3680                	.2byte	0x3680
 476:	0005                	c.nop	1
 478:	0180                	addi	s0,sp,192
 47a:	005f 3607 0005      	.byte	0x5f, 0x00, 0x07, 0x36, 0x05, 0x00
 480:	5480                	lw	s0,40(s1)
 482:	0005                	c.nop	1
 484:	0280                	addi	s0,sp,320
 486:	9f30                	.2byte	0x9f30
 488:	00055407          	.4byte	0x55407
 48c:	6e80                	.2byte	0x6e80
 48e:	0005                	c.nop	1
 490:	0180                	addi	s0,sp,192
 492:	075f 056e 8000      	.byte	0x5f, 0x07, 0x6e, 0x05, 0x00, 0x80
 498:	0574                	addi	a3,sp,652
 49a:	8000                	.2byte	0x8000
 49c:	9f7f7f03          	.4byte	0x9f7f7f03
 4a0:	00057407          	.4byte	0x57407
 4a4:	7a80                	.2byte	0x7a80
 4a6:	0005                	c.nop	1
 4a8:	0180                	addi	s0,sp,192
 4aa:	005f 0291 0000      	.byte	0x5f, 0x00, 0x91, 0x02, 0x00, 0x00
 4b0:	0005                	c.nop	1
 4b2:	0004                	.2byte	0x4
 4b4:	0000                	unimp
 4b6:	0000                	unimp
 4b8:	00083807          	.4byte	0x83807
 4bc:	5080                	lw	s0,32(s1)
 4be:	0008                	.2byte	0x8
 4c0:	0180                	addi	s0,sp,192
 4c2:	075a                	slli	a4,a4,0x16
 4c4:	0850                	addi	a2,sp,20
 4c6:	8000                	.2byte	0x8000
 4c8:	0856                	slli	a6,a6,0x15
 4ca:	8000                	.2byte	0x8000
 4cc:	9f017a03          	.4byte	0x9f017a03
 4d0:	00085607          	.4byte	0x85607
 4d4:	aa80                	.2byte	0xaa80
 4d6:	0008                	.2byte	0x8
 4d8:	0180                	addi	s0,sp,192
 4da:	075a                	slli	a4,a4,0x16
 4dc:	08ae                	slli	a7,a7,0xb
 4de:	8000                	.2byte	0x8000
 4e0:	09be                	slli	s3,s3,0xf
 4e2:	8000                	.2byte	0x8000
 4e4:	5a01                	li	s4,-32
 4e6:	0700                	addi	s0,sp,896
 4e8:	0850                	addi	a2,sp,20
 4ea:	8000                	.2byte	0x8000
 4ec:	086c                	addi	a1,sp,28
 4ee:	8000                	.2byte	0x8000
 4f0:	3002                	.2byte	0x3002
 4f2:	079f 086c 8000      	.byte	0x9f, 0x07, 0x6c, 0x08, 0x00, 0x80
 4f8:	0888                	addi	a0,sp,80
 4fa:	8000                	.2byte	0x8000
 4fc:	5d01                	li	s10,-32
 4fe:	0008a007          	.4byte	0x8a007
 502:	aa80                	.2byte	0xaa80
 504:	0008                	.2byte	0x8
 506:	0180                	addi	s0,sp,192
 508:	075d                	addi	a4,a4,23 # 1a017 <_prog_start-0x7ffe5fe9>
 50a:	08ae                	slli	a7,a7,0xb
 50c:	8000                	.2byte	0x8000
 50e:	08cc                	addi	a1,sp,84
 510:	8000                	.2byte	0x8000
 512:	5d01                	li	s10,-32
 514:	0008f007          	.4byte	0x8f007
 518:	0280                	addi	s0,sp,320
 51a:	0009                	c.nop	2
 51c:	0180                	addi	s0,sp,192
 51e:	075d                	addi	a4,a4,23
 520:	0914                	addi	a3,sp,144
 522:	8000                	.2byte	0x8000
 524:	094a                	slli	s2,s2,0x12
 526:	8000                	.2byte	0x8000
 528:	5d01                	li	s10,-32
 52a:	00095407          	.4byte	0x95407
 52e:	5880                	lw	s0,48(s1)
 530:	0009                	c.nop	2
 532:	0180                	addi	s0,sp,192
 534:	075d                	addi	a4,a4,23
 536:	0958                	addi	a4,sp,148
 538:	8000                	.2byte	0x8000
 53a:	0972                	slli	s2,s2,0x1c
 53c:	8000                	.2byte	0x8000
 53e:	3002                	.2byte	0x3002
 540:	079f 0972 8000      	.byte	0x9f, 0x07, 0x72, 0x09, 0x00, 0x80
 546:	0978                	addi	a4,sp,156
 548:	8000                	.2byte	0x8000
 54a:	5d01                	li	s10,-32
 54c:	0700                	addi	s0,sp,896
 54e:	0850                	addi	a2,sp,20
 550:	8000                	.2byte	0x8000
 552:	086c                	addi	a1,sp,28
 554:	8000                	.2byte	0x8000
 556:	3002                	.2byte	0x3002
 558:	079f 086c 8000      	.byte	0x9f, 0x07, 0x6c, 0x08, 0x00, 0x80
 55e:	0890                	addi	a2,sp,80
 560:	8000                	.2byte	0x8000
 562:	5e01                	li	t3,-32
 564:	0008a007          	.4byte	0x8a007
 568:	aa80                	.2byte	0xaa80
 56a:	0008                	.2byte	0x8
 56c:	0180                	addi	s0,sp,192
 56e:	075e                	slli	a4,a4,0x17
 570:	08ae                	slli	a7,a7,0xb
 572:	8000                	.2byte	0x8000
 574:	08cc                	addi	a1,sp,84
 576:	8000                	.2byte	0x8000
 578:	5e01                	li	t3,-32
 57a:	0008f007          	.4byte	0x8f007
 57e:	fc80                	.2byte	0xfc80
 580:	0008                	.2byte	0x8
 582:	0180                	addi	s0,sp,192
 584:	075e                	slli	a4,a4,0x17
 586:	0914                	addi	a3,sp,144
 588:	8000                	.2byte	0x8000
 58a:	094a                	slli	s2,s2,0x12
 58c:	8000                	.2byte	0x8000
 58e:	5e01                	li	t3,-32
 590:	00095407          	.4byte	0x95407
 594:	5880                	lw	s0,48(s1)
 596:	0009                	c.nop	2
 598:	0280                	addi	s0,sp,320
 59a:	9f31                	.2byte	0x9f31
 59c:	00095807          	.4byte	0x95807
 5a0:	7880                	.2byte	0x7880
 5a2:	0009                	c.nop	2
 5a4:	0180                	addi	s0,sp,192
 5a6:	005e                	c.slli	zero,0x17
 5a8:	00085007          	.4byte	0x85007
 5ac:	7280                	.2byte	0x7280
 5ae:	0008                	.2byte	0x8
 5b0:	0180                	addi	s0,sp,192
 5b2:	0756                	slli	a4,a4,0x15
 5b4:	08a6                	slli	a7,a7,0x9
 5b6:	8000                	.2byte	0x8000
 5b8:	08ae                	slli	a7,a7,0xb
 5ba:	8000                	.2byte	0x8000
 5bc:	5601                	li	a2,-32
 5be:	00095807          	.4byte	0x95807
 5c2:	7280                	.2byte	0x7280
 5c4:	0009                	c.nop	2
 5c6:	0180                	addi	s0,sp,192
 5c8:	0056                	c.slli	zero,0x15
 5ca:	00097807          	.4byte	0x97807
 5ce:	9c80                	.2byte	0x9c80
 5d0:	0009                	c.nop	2
 5d2:	0180                	addi	s0,sp,192
 5d4:	0756                	slli	a4,a4,0x15
 5d6:	099c                	addi	a5,sp,208
 5d8:	8000                	.2byte	0x8000
 5da:	09ac                	addi	a1,sp,216
 5dc:	8000                	.2byte	0x8000
 5de:	5f01                	li	t5,-32
 5e0:	0009ac07          	.4byte	0x9ac07
 5e4:	be80                	.2byte	0xbe80
 5e6:	0009                	c.nop	2
 5e8:	0c80                	addi	s0,sp,592
 5ea:	0076                	c.slli	zero,0x1d
 5ec:	26a8                	.2byte	0x26a8
 5ee:	008d                	addi	ra,ra,3
 5f0:	26a8                	.2byte	0x26a8
 5f2:	9f00a81b          	.4byte	0x9f00a81b
 5f6:	0700                	addi	s0,sp,896
 5f8:	0978                	addi	a4,sp,156
 5fa:	8000                	.2byte	0x8000
 5fc:	097c                	addi	a5,sp,156
 5fe:	8000                	.2byte	0x8000
 600:	9f3f0803          	lb	a6,-1549(t5) # 1a9f3 <_prog_start-0x7ffe560d>
 604:	00097c07          	.4byte	0x97c07
 608:	8480                	.2byte	0x8480
 60a:	0009                	c.nop	2
 60c:	0880                	addi	s0,sp,80
 60e:	007f                	.2byte	0x7f
 610:	0091                	addi	ra,ra,4
 612:	231c                	.2byte	0x231c
 614:	9f61                	.2byte	0x9f61
 616:	00098407          	.4byte	0x98407
 61a:	8880                	.2byte	0x8880
 61c:	0009                	c.nop	2
 61e:	0880                	addi	s0,sp,80
 620:	007e                	c.slli	zero,0x1f
 622:	0091                	addi	ra,ra,4
 624:	231c                	.2byte	0x231c
 626:	9f61                	.2byte	0x9f61
 628:	0700                	addi	s0,sp,896
 62a:	09b4                	addi	a3,sp,216
 62c:	8000                	.2byte	0x8000
 62e:	09ba                	slli	s3,s3,0xe
 630:	8000                	.2byte	0x8000
 632:	7c08                	.2byte	0x7c08
 634:	9100                	.2byte	0x9100
 636:	1c00                	addi	s0,sp,560
 638:	079f6023          	.4byte	0x79f6023
 63c:	09ba                	slli	s3,s3,0xe
 63e:	8000                	.2byte	0x8000
 640:	09be                	slli	s3,s3,0xf
 642:	8000                	.2byte	0x8000
 644:	7c08                	.2byte	0x7c08
 646:	9100                	.2byte	0x9100
 648:	1c00                	addi	s0,sp,560
 64a:	009f5f23          	.4byte	0x9f5f23
 64e:	0009b007          	.4byte	0x9b007
 652:	b480                	.2byte	0xb480
 654:	0009                	c.nop	2
 656:	0180                	addi	s0,sp,192
 658:	005d                	c.nop	23
 65a:	0008cc07          	.4byte	0x8cc07
 65e:	f080                	.2byte	0xf080
 660:	0008                	.2byte	0x8
 662:	0180                	addi	s0,sp,192
 664:	005c                	addi	a5,sp,4
 666:	0008d407          	.4byte	0x8d407
 66a:	f080                	.2byte	0xf080
 66c:	0008                	.2byte	0x8
 66e:	0180                	addi	s0,sp,192
 670:	0056                	c.slli	zero,0x15
 672:	0008e407          	.4byte	0x8e407
 676:	e880                	.2byte	0xe880
 678:	0008                	.2byte	0x8
 67a:	0180                	addi	s0,sp,192
 67c:	005d                	c.nop	23
 67e:	00089007          	.4byte	0x89007
 682:	9c80                	.2byte	0x9c80
 684:	0008                	.2byte	0x8
 686:	0180                	addi	s0,sp,192
 688:	005e                	c.slli	zero,0x17
 68a:	00089007          	.4byte	0x89007
 68e:	9c80                	.2byte	0x9c80
 690:	0008                	.2byte	0x8
 692:	0480                	addi	s0,sp,576
 694:	4a49                	li	s4,18
 696:	9f24                	.2byte	0x9f24
 698:	0700                	addi	s0,sp,896
 69a:	0898                	addi	a4,sp,80
 69c:	8000                	.2byte	0x8000
 69e:	089c                	addi	a5,sp,80
 6a0:	8000                	.2byte	0x8000
 6a2:	5d01                	li	s10,-32
 6a4:	0700                	addi	s0,sp,896
 6a6:	08f4                	addi	a3,sp,92
 6a8:	8000                	.2byte	0x8000
 6aa:	0914                	addi	a3,sp,144
 6ac:	8000                	.2byte	0x8000
 6ae:	5c01                	li	s8,-32
 6b0:	0700                	addi	s0,sp,896
 6b2:	08fc                	addi	a5,sp,92
 6b4:	8000                	.2byte	0x8000
 6b6:	090e                	slli	s2,s2,0x3
 6b8:	8000                	.2byte	0x8000
 6ba:	5e01                	li	t3,-32
 6bc:	00091007          	.4byte	0x91007
 6c0:	1480                	addi	s0,sp,608
 6c2:	0009                	c.nop	2
 6c4:	0180                	addi	s0,sp,192
 6c6:	005e                	c.slli	zero,0x17
 6c8:	00090607          	.4byte	0x90607
 6cc:	0a80                	addi	s0,sp,336
 6ce:	0009                	c.nop	2
 6d0:	0180                	addi	s0,sp,192
 6d2:	005d                	c.nop	23
 6d4:	00094e07          	.4byte	0x94e07
 6d8:	5480                	lw	s0,40(s1)
 6da:	0009                	c.nop	2
 6dc:	0180                	addi	s0,sp,192
 6de:	005d                	c.nop	23
 6e0:	00096407          	.4byte	0x96407
 6e4:	7280                	.2byte	0x7280
 6e6:	0009                	c.nop	2
 6e8:	0180                	addi	s0,sp,192
 6ea:	005f 0007 0008      	.byte	0x5f, 0x00, 0x07, 0x00, 0x08, 0x00
 6f0:	0a80                	addi	s0,sp,336
 6f2:	0008                	.2byte	0x8
 6f4:	0180                	addi	s0,sp,192
 6f6:	075a                	slli	a4,a4,0x16
 6f8:	080a                	slli	a6,a6,0x2
 6fa:	8000                	.2byte	0x8000
 6fc:	0838                	addi	a4,sp,24
 6fe:	8000                	.2byte	0x8000
 700:	a304                	.2byte	0xa304
 702:	5a01                	li	s4,-32
 704:	009f 0007 0008      	.byte	0x9f, 0x00, 0x07, 0x00, 0x08, 0x00
 70a:	2080                	.2byte	0x2080
 70c:	0008                	.2byte	0x8
 70e:	0180                	addi	s0,sp,192
 710:	005a                	c.slli	zero,0x16
 712:	00080407          	.4byte	0x80407
 716:	1680                	addi	s0,sp,864
 718:	0008                	.2byte	0x8
 71a:	0180                	addi	s0,sp,192
 71c:	075e                	slli	a4,a4,0x17
 71e:	0818                	addi	a4,sp,16
 720:	8000                	.2byte	0x8000
 722:	0820                	addi	s0,sp,24
 724:	8000                	.2byte	0x8000
 726:	5e01                	li	t3,-32
 728:	0700                	addi	s0,sp,896
 72a:	080e                	slli	a6,a6,0x3
 72c:	8000                	.2byte	0x8000
 72e:	0812                	slli	a6,a6,0x4
 730:	8000                	.2byte	0x8000
 732:	5d01                	li	s10,-32
 734:	0700                	addi	s0,sp,896
 736:	0824                	addi	s1,sp,24
 738:	8000                	.2byte	0x8000
 73a:	082e                	slli	a6,a6,0xb
 73c:	8000                	.2byte	0x8000
 73e:	5d01                	li	s10,-32
	...

Disassembly of section .debug_rnglists:

00000000 <.debug_rnglists>:
   0:	00c6                	slli	ra,ra,0x11
   2:	0000                	unimp
   4:	0005                	c.nop	1
   6:	0004                	.2byte	0x4
   8:	0000                	unimp
   a:	0000                	unimp
   c:	b406                	.2byte	0xb406
   e:	0001                	nop
  10:	b880                	.2byte	0xb880
  12:	0001                	nop
  14:	0680                	addi	s0,sp,832
  16:	01bc                	addi	a5,sp,200
  18:	8000                	.2byte	0x8000
  1a:	01ec                	addi	a1,sp,204
  1c:	8000                	.2byte	0x8000
  1e:	0600                	addi	s0,sp,768
  20:	020e                	slli	tp,tp,0x3
  22:	8000                	.2byte	0x8000
  24:	0212                	slli	tp,tp,0x4
  26:	8000                	.2byte	0x8000
  28:	1606                	slli	a2,a2,0x21
  2a:	0002                	c.slli64	zero
  2c:	4680                	lw	s0,8(a3)
  2e:	0002                	c.slli64	zero
  30:	0080                	addi	s0,sp,64
  32:	6806                	.2byte	0x6806
  34:	0002                	c.slli64	zero
  36:	6c80                	.2byte	0x6c80
  38:	0002                	c.slli64	zero
  3a:	0680                	addi	s0,sp,832
  3c:	0270                	addi	a2,sp,268
  3e:	8000                	.2byte	0x8000
  40:	02a0                	addi	s0,sp,328
  42:	8000                	.2byte	0x8000
  44:	0600                	addi	s0,sp,768
  46:	02c2                	slli	t0,t0,0x10
  48:	8000                	.2byte	0x8000
  4a:	02c6                	slli	t0,t0,0x11
  4c:	8000                	.2byte	0x8000
  4e:	ca06                	sw	ra,20(sp)
  50:	0002                	c.slli64	zero
  52:	fa80                	.2byte	0xfa80
  54:	0002                	c.slli64	zero
  56:	0080                	addi	s0,sp,64
  58:	a406                	.2byte	0xa406
  5a:	a8800003          	lb	zero,-1400(zero) # fffffa88 <a+0x7ffff05c>
  5e:	06800003          	lb	zero,104(zero) # 68 <_prog_start-0x7fffff98>
  62:	03ac                	addi	a1,sp,456
  64:	8000                	.2byte	0x8000
  66:	03dc                	addi	a5,sp,452
  68:	8000                	.2byte	0x8000
  6a:	0600                	addi	s0,sp,768
  6c:	03fe                	slli	t2,t2,0x1f
  6e:	8000                	.2byte	0x8000
  70:	0402                	c.slli64	s0
  72:	8000                	.2byte	0x8000
  74:	0606                	slli	a2,a2,0x1
  76:	0004                	.2byte	0x4
  78:	3680                	.2byte	0x3680
  7a:	0004                	.2byte	0x4
  7c:	0080                	addi	s0,sp,64
  7e:	5806                	lw	a6,96(sp)
  80:	0004                	.2byte	0x4
  82:	5c80                	lw	s0,56(s1)
  84:	0004                	.2byte	0x4
  86:	0680                	addi	s0,sp,832
  88:	0460                	addi	s0,sp,524
  8a:	8000                	.2byte	0x8000
  8c:	0490                	addi	a2,sp,576
  8e:	8000                	.2byte	0x8000
  90:	0600                	addi	s0,sp,768
  92:	04b2                	slli	s1,s1,0xc
  94:	8000                	.2byte	0x8000
  96:	04b6                	slli	s1,s1,0xd
  98:	8000                	.2byte	0x8000
  9a:	ba06                	.2byte	0xba06
  9c:	0004                	.2byte	0x4
  9e:	ea80                	.2byte	0xea80
  a0:	0004                	.2byte	0x4
  a2:	0080                	addi	s0,sp,64
  a4:	5606                	lw	a2,96(sp)
  a6:	68800007          	.4byte	0x68800007
  aa:	06800007          	.4byte	0x6800007
  ae:	076a                	slli	a4,a4,0x1a
  b0:	8000                	.2byte	0x8000
  b2:	07ac                	addi	a1,sp,968
  b4:	8000                	.2byte	0x8000
  b6:	0600                	addi	s0,sp,768
  b8:	019a                	slli	gp,gp,0x6
  ba:	8000                	.2byte	0x8000
  bc:	057a                	slli	a0,a0,0x1e
  be:	8000                	.2byte	0x8000
  c0:	7a06                	.2byte	0x7a06
  c2:	0005                	c.nop	1
  c4:	0080                	addi	s0,sp,64
  c6:	0008                	.2byte	0x8
  c8:	0080                	addi	s0,sp,64
  ca:	00a8                	addi	a0,sp,72
  cc:	0000                	unimp
  ce:	0005                	c.nop	1
  d0:	0004                	.2byte	0x4
  d2:	0000                	unimp
  d4:	0000                	unimp
  d6:	5e06                	lw	t3,96(sp)
  d8:	0008                	.2byte	0x8
  da:	6280                	.2byte	0x6280
  dc:	0008                	.2byte	0x8
  de:	0680                	addi	s0,sp,832
  e0:	0960                	addi	s0,sp,156
  e2:	8000                	.2byte	0x8000
  e4:	0974                	addi	a3,sp,156
  e6:	8000                	.2byte	0x8000
  e8:	0600                	addi	s0,sp,768
  ea:	0886                	slli	a7,a7,0x1
  ec:	8000                	.2byte	0x8000
  ee:	089c                	addi	a5,sp,80
  f0:	8000                	.2byte	0x8000
  f2:	ae06                	.2byte	0xae06
  f4:	0008                	.2byte	0x8
  f6:	5880                	lw	s0,48(s1)
  f8:	0009                	c.nop	2
  fa:	0680                	addi	s0,sp,832
  fc:	0974                	addi	a3,sp,156
  fe:	8000                	.2byte	0x8000
 100:	09be                	slli	s3,s3,0xf
 102:	8000                	.2byte	0x8000
 104:	0600                	addi	s0,sp,768
 106:	0888                	addi	a0,sp,80
 108:	8000                	.2byte	0x8000
 10a:	088c                	addi	a1,sp,80
 10c:	8000                	.2byte	0x8000
 10e:	9006                	c.add	zero,ra
 110:	0008                	.2byte	0x8
 112:	9080                	.2byte	0x9080
 114:	0008                	.2byte	0x8
 116:	0680                	addi	s0,sp,832
 118:	0894                	addi	a3,sp,80
 11a:	8000                	.2byte	0x8000
 11c:	089c                	addi	a5,sp,80
 11e:	8000                	.2byte	0x8000
 120:	0600                	addi	s0,sp,768
 122:	08c4                	addi	s1,sp,84
 124:	8000                	.2byte	0x8000
 126:	08ca                	slli	a7,a7,0x12
 128:	8000                	.2byte	0x8000
 12a:	cc06                	sw	ra,24(sp)
 12c:	0008                	.2byte	0x8
 12e:	e880                	.2byte	0xe880
 130:	0008                	.2byte	0x8
 132:	0080                	addi	s0,sp,64
 134:	c606                	sw	ra,12(sp)
 136:	0008                	.2byte	0x8
 138:	ca80                	sw	s0,16(a3)
 13a:	0008                	.2byte	0x8
 13c:	0680                	addi	s0,sp,832
 13e:	08e0                	addi	s0,sp,92
 140:	8000                	.2byte	0x8000
 142:	08e8                	addi	a0,sp,92
 144:	8000                	.2byte	0x8000
 146:	0600                	addi	s0,sp,768
 148:	08f4                	addi	a3,sp,92
 14a:	8000                	.2byte	0x8000
 14c:	08f4                	addi	a3,sp,92
 14e:	8000                	.2byte	0x8000
 150:	f806                	.2byte	0xf806
 152:	0008                	.2byte	0x8
 154:	1480                	addi	s0,sp,608
 156:	0009                	c.nop	2
 158:	0080                	addi	s0,sp,64
 15a:	1606                	slli	a2,a2,0x21
 15c:	0009                	c.nop	2
 15e:	1a80                	addi	s0,sp,368
 160:	0009                	c.nop	2
 162:	0680                	addi	s0,sp,832
 164:	091e                	slli	s2,s2,0x7
 166:	8000                	.2byte	0x8000
 168:	091e                	slli	s2,s2,0x7
 16a:	8000                	.2byte	0x8000
 16c:	2206                	.2byte	0x2206
 16e:	0009                	c.nop	2
 170:	3e80                	.2byte	0x3e80
 172:	0009                	c.nop	2
 174:	0080                	addi	s0,sp,64

Disassembly of section .debug_frame:

00000000 <.debug_frame>:
   0:	000c                	.2byte	0xc
   2:	0000                	unimp
   4:	ffff                	.2byte	0xffff
   6:	ffff                	.2byte	0xffff
   8:	7c010003          	lb	zero,1984(sp)
   c:	0d01                	addi	s10,s10,0 # 1b000 <_prog_start-0x7ffe5000>
   e:	0002                	c.slli64	zero
  10:	000c                	.2byte	0xc
  12:	0000                	unimp
  14:	0000                	unimp
  16:	0000                	unimp
  18:	019a                	slli	gp,gp,0x6
  1a:	8000                	.2byte	0x8000
  1c:	005a                	c.slli	zero,0x16
  1e:	0000                	unimp
  20:	000c                	.2byte	0xc
  22:	0000                	unimp
  24:	0000                	unimp
  26:	0000                	unimp
  28:	01f4                	addi	a3,sp,204
  2a:	8000                	.2byte	0x8000
  2c:	005a                	c.slli	zero,0x16
  2e:	0000                	unimp
  30:	000c                	.2byte	0xc
  32:	0000                	unimp
  34:	0000                	unimp
  36:	0000                	unimp
  38:	024e                	slli	tp,tp,0x13
  3a:	8000                	.2byte	0x8000
  3c:	005a                	c.slli	zero,0x16
  3e:	0000                	unimp
  40:	000c                	.2byte	0xc
  42:	0000                	unimp
  44:	0000                	unimp
  46:	0000                	unimp
  48:	02a8                	addi	a0,sp,328
  4a:	8000                	.2byte	0x8000
  4c:	005a                	c.slli	zero,0x16
  4e:	0000                	unimp
  50:	000c                	.2byte	0xc
  52:	0000                	unimp
  54:	0000                	unimp
  56:	0000                	unimp
  58:	0302                	c.slli64	t1
  5a:	8000                	.2byte	0x8000
  5c:	0044                	addi	s1,sp,4
  5e:	0000                	unimp
  60:	000c                	.2byte	0xc
  62:	0000                	unimp
  64:	0000                	unimp
  66:	0000                	unimp
  68:	0346                	slli	t1,t1,0x11
  6a:	8000                	.2byte	0x8000
  6c:	0044                	addi	s1,sp,4
  6e:	0000                	unimp
  70:	000c                	.2byte	0xc
  72:	0000                	unimp
  74:	0000                	unimp
  76:	0000                	unimp
  78:	038a                	slli	t2,t2,0x2
  7a:	8000                	.2byte	0x8000
  7c:	005a                	c.slli	zero,0x16
  7e:	0000                	unimp
  80:	000c                	.2byte	0xc
  82:	0000                	unimp
  84:	0000                	unimp
  86:	0000                	unimp
  88:	03e4                	addi	s1,sp,460
  8a:	8000                	.2byte	0x8000
  8c:	005a                	c.slli	zero,0x16
  8e:	0000                	unimp
  90:	000c                	.2byte	0xc
  92:	0000                	unimp
  94:	0000                	unimp
  96:	0000                	unimp
  98:	043e                	slli	s0,s0,0xf
  9a:	8000                	.2byte	0x8000
  9c:	005a                	c.slli	zero,0x16
  9e:	0000                	unimp
  a0:	000c                	.2byte	0xc
  a2:	0000                	unimp
  a4:	0000                	unimp
  a6:	0000                	unimp
  a8:	0498                	addi	a4,sp,576
  aa:	8000                	.2byte	0x8000
  ac:	005a                	c.slli	zero,0x16
  ae:	0000                	unimp
  b0:	000c                	.2byte	0xc
  b2:	0000                	unimp
  b4:	0000                	unimp
  b6:	0000                	unimp
  b8:	04f2                	slli	s1,s1,0x1c
  ba:	8000                	.2byte	0x8000
  bc:	0044                	addi	s1,sp,4
  be:	0000                	unimp
  c0:	000c                	.2byte	0xc
  c2:	0000                	unimp
  c4:	0000                	unimp
  c6:	0000                	unimp
  c8:	0536                	slli	a0,a0,0xd
  ca:	8000                	.2byte	0x8000
  cc:	0044                	addi	s1,sp,4
  ce:	0000                	unimp
  d0:	0048                	addi	a0,sp,4
  d2:	0000                	unimp
  d4:	0000                	unimp
  d6:	0000                	unimp
  d8:	057a                	slli	a0,a0,0x1e
  da:	8000                	.2byte	0x8000
  dc:	0286                	slli	t0,t0,0x1
  de:	0000                	unimp
  e0:	0e42                	slli	t3,t3,0x10
  e2:	5c30                	lw	a2,120(s0)
  e4:	0288                	addi	a0,sp,320
  e6:	0694                	addi	a3,sp,832
  e8:	0795                	addi	a5,a5,5 # 64000005 <_prog_start-0x1bfffffb>
  ea:	0896                	slli	a7,a7,0x5
  ec:	0a980997          	auipc	s3,0xa980
  f0:	0b99                	addi	s7,s7,6
  f2:	0c9a                	slli	s9,s9,0x6
  f4:	0181                	addi	gp,gp,0
  f6:	0389                	addi	t2,t2,2
  f8:	0492                	slli	s1,s1,0x4
  fa:	4c030593          	addi	a1,t1,1216 # ffffa4c0 <a+0x7fff9a94>
  fe:	c102                	sw	zero,128(sp)
 100:	c842                	sw	a6,16(sp)
 102:	c942                	sw	a6,144(sp)
 104:	d242                	sw	a6,36(sp)
 106:	d342                	sw	a6,164(sp)
 108:	d442                	sw	a6,40(sp)
 10a:	d542                	sw	a6,168(sp)
 10c:	d642                	sw	a6,44(sp)
 10e:	d742                	sw	a6,172(sp)
 110:	d842                	sw	a6,48(sp)
 112:	d942                	sw	a6,176(sp)
 114:	da42                	sw	a6,52(sp)
 116:	0e44                	addi	s1,sp,788
 118:	0000                	unimp
 11a:	0000                	unimp
 11c:	000c                	.2byte	0xc
 11e:	0000                	unimp
 120:	ffff                	.2byte	0xffff
 122:	ffff                	.2byte	0xffff
 124:	7c010003          	lb	zero,1984(sp)
 128:	0d01                	addi	s10,s10,0
 12a:	0002                	c.slli64	zero
 12c:	000c                	.2byte	0xc
 12e:	0000                	unimp
 130:	011c                	addi	a5,sp,128
 132:	0000                	unimp
 134:	0800                	addi	s0,sp,16
 136:	8000                	.2byte	0x8000
 138:	0038                	addi	a4,sp,8
 13a:	0000                	unimp
 13c:	0018                	.2byte	0x18
 13e:	0000                	unimp
 140:	011c                	addi	a5,sp,128
 142:	0000                	unimp
 144:	0838                	addi	a4,sp,24
 146:	8000                	.2byte	0x8000
 148:	0186                	slli	gp,gp,0x1
 14a:	0000                	unimp
 14c:	0e42                	slli	t3,t3,0x10
 14e:	0270                	addi	a2,sp,268
 150:	0a72                	slli	s4,s4,0x1c
 152:	000e                	c.slli	zero,0x3
 154:	0b42                	slli	s6,s6,0x10
	...
