
/home/binhkieudo/Workspace/NewFramework/framework/sw/matrix_mul/build/main.elf:     file format elf64-littleriscv


Disassembly of section .text:

0000000080000000 <_prog_start>:
  .option norvc
  .globl _prog_start
_prog_start:
    # li s0, MEMORY_MEM_ADDR
    # jr s0
  csrw mie, zero
    80000000:	30401073          	csrw	mie,zero
  csrr a0, mhartid
    80000004:	f1402573          	csrr	a0,mhartid
  beq a0, zero, _hart0
    80000008:	02050063          	beqz	a0,80000028 <_hart0>
  li t0, 1
    8000000c:	00100293          	li	t0,1
  beq a0, t0, _hart1
    80000010:	02550663          	beq	a0,t0,8000003c <_hart1>
  li t0, 2
    80000014:	00200293          	li	t0,2
  beq a0, t0, _hart2
    80000018:	0a550663          	beq	a0,t0,800000c4 <_hart2>
  li t0, 3
    8000001c:	00300293          	li	t0,3
  beq a0, t0, _hart3
    80000020:	18550263          	beq	a0,t0,800001a4 <_hart3>
  j _loopback
    80000024:	2080006f          	j	8000022c <_loopback>

0000000080000028 <_hart0>:
_hart0:
  csrrw t0, mcycle, zero
    80000028:	b00012f3          	csrrw	t0,mcycle,zero
  # csrw  instret, zero
  li sp, 0x40000ff0
    8000002c:	40001137          	lui	sp,0x40001
    80000030:	ff01011b          	addiw	sp,sp,-16 # 40000ff0 <_prog_start-0x3ffff010>
  call main
    80000034:	1b1000ef          	jal	ra,800009e4 <main>
  wfi
    80000038:	10500073          	wfi

000000008000003c <_hart1>:
_hart1:
  // Parallel
  wfi
    8000003c:	10500073          	wfi
  csrw mie, zero
    80000040:	30401073          	csrw	mie,zero
  li s1, 0
    80000044:	00000493          	li	s1,0
  li t0, (CLINT_CTRL_ADDR + CLINT_MSIP1)
    80000048:	020002b7          	lui	t0,0x2000
    8000004c:	0042829b          	addiw	t0,t0,4 # 2000004 <_prog_start-0x7dfffffc>
  amoswap.w t1, s1, (t0)
    80000050:	0892a32f          	amoswap.w	t1,s1,(t0)
  li sp, 0x40001ff0
    80000054:	40002137          	lui	sp,0x40002
    80000058:	ff01011b          	addiw	sp,sp,-16 # 40001ff0 <_prog_start-0x3fffe010>
  call core1
    8000005c:	7b4000ef          	jal	ra,80000810 <core1>
  li s1, 1
    80000060:	00100493          	li	s1,1
  csrw mie, s1
    80000064:	30449073          	csrw	mie,s1
  wfi
    80000068:	10500073          	wfi
  // Stage 0
  csrw mie, zero
    8000006c:	30401073          	csrw	mie,zero
  li s1, 0
    80000070:	00000493          	li	s1,0
  li t0, (CLINT_CTRL_ADDR + CLINT_MSIP1)
    80000074:	020002b7          	lui	t0,0x2000
    80000078:	0042829b          	addiw	t0,t0,4 # 2000004 <_prog_start-0x7dfffffc>
  amoswap.w t1, s1, (t0)
    8000007c:	0892a32f          	amoswap.w	t1,s1,(t0)
  li sp, 0x40001ff0
    80000080:	40002137          	lui	sp,0x40002
    80000084:	ff01011b          	addiw	sp,sp,-16 # 40001ff0 <_prog_start-0x3fffe010>
  call s0_c1
    80000088:	21c000ef          	jal	ra,800002a4 <s0_c1>
  li s1, 1
    8000008c:	00100493          	li	s1,1
  csrw mie, s1
    80000090:	30449073          	csrw	mie,s1
  wfi
    80000094:	10500073          	wfi
  // Stage 2
  csrw mie, zero
    80000098:	30401073          	csrw	mie,zero
  li s1, 0
    8000009c:	00000493          	li	s1,0
  li t0, (CLINT_CTRL_ADDR + CLINT_MSIP1)
    800000a0:	020002b7          	lui	t0,0x2000
    800000a4:	0042829b          	addiw	t0,t0,4 # 2000004 <_prog_start-0x7dfffffc>
  amoswap.w t1, s1, (t0)
    800000a8:	0892a32f          	amoswap.w	t1,s1,(t0)
  li sp, 0x40001ff0
    800000ac:	40002137          	lui	sp,0x40002
    800000b0:	ff01011b          	addiw	sp,sp,-16 # 40001ff0 <_prog_start-0x3fffe010>
  call s2_c1
    800000b4:	492000ef          	jal	ra,80000546 <s2_c1>
  li s1, 1
    800000b8:	00100493          	li	s1,1
  csrw mie, s1
    800000bc:	30449073          	csrw	mie,s1
  j _hart1
    800000c0:	f7dff06f          	j	8000003c <_hart1>

00000000800000c4 <_hart2>:
_hart2:
  // Parallel
  wfi
    800000c4:	10500073          	wfi
  csrw mie, zero
    800000c8:	30401073          	csrw	mie,zero
  li s1, 0
    800000cc:	00000493          	li	s1,0
  li t0, (CLINT_CTRL_ADDR + CLINT_MSIP2)
    800000d0:	020002b7          	lui	t0,0x2000
    800000d4:	0082829b          	addiw	t0,t0,8 # 2000008 <_prog_start-0x7dfffff8>
  amoswap.w t1, s1, (t0)
    800000d8:	0892a32f          	amoswap.w	t1,s1,(t0)
  li sp, 0x40002ff0
    800000dc:	40003137          	lui	sp,0x40003
    800000e0:	ff01011b          	addiw	sp,sp,-16 # 40002ff0 <_prog_start-0x3fffd010>
  call core1
    800000e4:	72c000ef          	jal	ra,80000810 <core1>
  li s1, 1
    800000e8:	00100493          	li	s1,1
  csrw mie, s1
    800000ec:	30449073          	csrw	mie,s1
  wfi
    800000f0:	10500073          	wfi
  // Stage 0
  csrw mie, zero
    800000f4:	30401073          	csrw	mie,zero
  li s1, 0
    800000f8:	00000493          	li	s1,0
  li t0, (CLINT_CTRL_ADDR + CLINT_MSIP2)
    800000fc:	020002b7          	lui	t0,0x2000
    80000100:	0082829b          	addiw	t0,t0,8 # 2000008 <_prog_start-0x7dfffff8>
  amoswap.w t1, s1, (t0)
    80000104:	0892a32f          	amoswap.w	t1,s1,(t0)
  li sp, 0x40002ff0
    80000108:	40003137          	lui	sp,0x40003
    8000010c:	ff01011b          	addiw	sp,sp,-16 # 40002ff0 <_prog_start-0x3fffd010>
  call s0_c2
    80000110:	218000ef          	jal	ra,80000328 <s0_c2>
  li s1, 1
    80000114:	00100493          	li	s1,1
  csrw mie, s1
    80000118:	30449073          	csrw	mie,s1
  wfi
    8000011c:	10500073          	wfi
  // Stage 1
  csrw mie, zero
    80000120:	30401073          	csrw	mie,zero
  li s1, 0
    80000124:	00000493          	li	s1,0
  li t0, (CLINT_CTRL_ADDR + CLINT_MSIP2)
    80000128:	020002b7          	lui	t0,0x2000
    8000012c:	0082829b          	addiw	t0,t0,8 # 2000008 <_prog_start-0x7dfffff8>
  amoswap.w t1, s1, (t0)
    80000130:	0892a32f          	amoswap.w	t1,s1,(t0)
  li sp, 0x40002ff0
    80000134:	40003137          	lui	sp,0x40003
    80000138:	ff01011b          	addiw	sp,sp,-16 # 40002ff0 <_prog_start-0x3fffd010>
  call s1_c2
    8000013c:	338000ef          	jal	ra,80000474 <s1_c2>
  li s1, 1
    80000140:	00100493          	li	s1,1
  csrw mie, s1
    80000144:	30449073          	csrw	mie,s1
  wfi
    80000148:	10500073          	wfi
  // Stage 2
  csrw mie, zero
    8000014c:	30401073          	csrw	mie,zero
  li s1, 0
    80000150:	00000493          	li	s1,0
  li t0, (CLINT_CTRL_ADDR + CLINT_MSIP2)
    80000154:	020002b7          	lui	t0,0x2000
    80000158:	0082829b          	addiw	t0,t0,8 # 2000008 <_prog_start-0x7dfffff8>
  amoswap.w t1, s1, (t0)
    8000015c:	0892a32f          	amoswap.w	t1,s1,(t0)
  li sp, 0x40002ff0
    80000160:	40003137          	lui	sp,0x40003
    80000164:	ff01011b          	addiw	sp,sp,-16 # 40002ff0 <_prog_start-0x3fffd010>
  call s2_c2
    80000168:	46c000ef          	jal	ra,800005d4 <s2_c2>
  li s1, 1
    8000016c:	00100493          	li	s1,1
  csrw mie, s1
    80000170:	30449073          	csrw	mie,s1
  wfi
    80000174:	10500073          	wfi
  // Stage 3
  csrw mie, zero
    80000178:	30401073          	csrw	mie,zero
  li s1, 0
    8000017c:	00000493          	li	s1,0
  li t0, (CLINT_CTRL_ADDR + CLINT_MSIP2)
    80000180:	020002b7          	lui	t0,0x2000
    80000184:	0082829b          	addiw	t0,t0,8 # 2000008 <_prog_start-0x7dfffff8>
  amoswap.w t1, s1, (t0)
    80000188:	0892a32f          	amoswap.w	t1,s1,(t0)
  li sp, 0x40002ff0
    8000018c:	40003137          	lui	sp,0x40003
    80000190:	ff01011b          	addiw	sp,sp,-16 # 40002ff0 <_prog_start-0x3fffd010>
  call s3_c2
    80000194:	5a0000ef          	jal	ra,80000734 <s3_c2>
  li s1, 1
    80000198:	00100493          	li	s1,1
  csrw mie, s1
    8000019c:	30449073          	csrw	mie,s1
  j _hart2
    800001a0:	f25ff06f          	j	800000c4 <_hart2>

00000000800001a4 <_hart3>:
_hart3:
  // Parallel
  wfi
    800001a4:	10500073          	wfi
  csrw mie, zero
    800001a8:	30401073          	csrw	mie,zero
  li s1, 0
    800001ac:	00000493          	li	s1,0
  li t0, (CLINT_CTRL_ADDR + CLINT_MSIP3)
    800001b0:	020002b7          	lui	t0,0x2000
    800001b4:	00c2829b          	addiw	t0,t0,12 # 200000c <_prog_start-0x7dfffff4>
  amoswap.w t1, s1, (t0)
    800001b8:	0892a32f          	amoswap.w	t1,s1,(t0)
  li sp, 0x40003ff0
    800001bc:	40004137          	lui	sp,0x40004
    800001c0:	ff01011b          	addiw	sp,sp,-16 # 40003ff0 <_prog_start-0x3fffc010>
  call core1
    800001c4:	64c000ef          	jal	ra,80000810 <core1>
  li s1, 1
    800001c8:	00100493          	li	s1,1
  csrw mie, s1
    800001cc:	30449073          	csrw	mie,s1
  wfi
    800001d0:	10500073          	wfi
  // Stage 0
  csrw mie, zero
    800001d4:	30401073          	csrw	mie,zero
  li s1, 0
    800001d8:	00000493          	li	s1,0
  li t0, (CLINT_CTRL_ADDR + CLINT_MSIP3)
    800001dc:	020002b7          	lui	t0,0x2000
    800001e0:	00c2829b          	addiw	t0,t0,12 # 200000c <_prog_start-0x7dfffff4>
  amoswap.w t1, s1, (t0)
    800001e4:	0892a32f          	amoswap.w	t1,s1,(t0)
  li sp, 0x40003ff0
    800001e8:	40004137          	lui	sp,0x40004
    800001ec:	ff01011b          	addiw	sp,sp,-16 # 40003ff0 <_prog_start-0x3fffc010>
  call s0_c3
    800001f0:	1bc000ef          	jal	ra,800003ac <s0_c3>
  li s1, 1
    800001f4:	00100493          	li	s1,1
  csrw mie, s1 
    800001f8:	30449073          	csrw	mie,s1
  wfi
    800001fc:	10500073          	wfi
  // Stage 2
  csrw mie, zero
    80000200:	30401073          	csrw	mie,zero
  li s1, 0
    80000204:	00000493          	li	s1,0
  li t0, (CLINT_CTRL_ADDR + CLINT_MSIP3)
    80000208:	020002b7          	lui	t0,0x2000
    8000020c:	00c2829b          	addiw	t0,t0,12 # 200000c <_prog_start-0x7dfffff4>
  amoswap.w t1, s1, (t0)
    80000210:	0892a32f          	amoswap.w	t1,s1,(t0)
  li sp, 0x40003ff0
    80000214:	40004137          	lui	sp,0x40004
    80000218:	ff01011b          	addiw	sp,sp,-16 # 40003ff0 <_prog_start-0x3fffc010>
  call s2_c3
    8000021c:	446000ef          	jal	ra,80000662 <s2_c3>
  li s1, 1
    80000220:	00100493          	li	s1,1
  csrw mie, s1 
    80000224:	30449073          	csrw	mie,s1
  j _hart3
    80000228:	f7dff06f          	j	800001a4 <_hart3>

000000008000022c <_loopback>:
_loopback:
  j _loopback
    8000022c:	0000006f          	j	8000022c <_loopback>

0000000080000230 <s0_c0>:
uint8_t *mat_a = (uint8_t *)0x70000000;
uint8_t *mat_b = (uint8_t *)0x70001000;
uint8_t *mat_c = (uint8_t *)0x70002000;

//============== Stage 0 ==================================
void s0_c0() {
    80000230:	4281                	li	t0,0
    80000232:	4f01                	li	t5,0
    80000234:	00001e17          	auipc	t3,0x1
    80000238:	d7ce0e13          	addi	t3,t3,-644 # 80000fb0 <ae>
    8000023c:	00001317          	auipc	t1,0x1
    80000240:	d9430313          	addi	t1,t1,-620 # 80000fd0 <a>
    80000244:	00001897          	auipc	a7,0x1
    80000248:	d4c88893          	addi	a7,a7,-692 # 80000f90 <e>
  for (int i = 0; i < HALF; i++)
    for (int j = 0; j < HALF; j++)
    8000024c:	42000f93          	li	t6,1056
  for (int i = 0; i < HALF; i++)
    80000250:	02000393          	li	t2,32
void s0_c0() {
    80000254:	8816                	mv	a6,t0
    80000256:	02000513          	li	a0,32
    8000025a:	4e81                	li	t4,0
    8000025c:	87f6                	mv	a5,t4
    8000025e:	85fa                	mv	a1,t5
      for (int k = 0; k < HALF; k++)
        ae[i*HALF + j] = a[i + k*HALF] + e[k + j*HALF];
    80000260:	00033683          	ld	a3,0(t1)
    80000264:	0008b603          	ld	a2,0(a7)
    80000268:	000e3703          	ld	a4,0(t3)
    8000026c:	96ae                	add	a3,a3,a1
    8000026e:	963e                	add	a2,a2,a5
    80000270:	0006c683          	lbu	a3,0(a3)
    80000274:	00064603          	lbu	a2,0(a2)
    80000278:	9742                	add	a4,a4,a6
      for (int k = 0; k < HALF; k++)
    8000027a:	0785                	addi	a5,a5,1
        ae[i*HALF + j] = a[i + k*HALF] + e[k + j*HALF];
    8000027c:	9eb1                	addw	a3,a3,a2
    8000027e:	00d70023          	sb	a3,0(a4)
      for (int k = 0; k < HALF; k++)
    80000282:	02058593          	addi	a1,a1,32
    80000286:	fcf51de3          	bne	a0,a5,80000260 <s0_c0+0x30>
    for (int j = 0; j < HALF; j++)
    8000028a:	02050513          	addi	a0,a0,32
    8000028e:	020e8e93          	addi	t4,t4,32
    80000292:	0805                	addi	a6,a6,1
    80000294:	fdf514e3          	bne	a0,t6,8000025c <s0_c0+0x2c>
  for (int i = 0; i < HALF; i++)
    80000298:	0f05                	addi	t5,t5,1
    8000029a:	02028293          	addi	t0,t0,32
    8000029e:	fa7f1be3          	bne	t5,t2,80000254 <s0_c0+0x24>
}
    800002a2:	8082                	ret

00000000800002a4 <s0_c1>:

void s0_c1() {
    800002a4:	1141                	addi	sp,sp,-16
    800002a6:	e422                	sd	s0,8(sp)
    800002a8:	4381                	li	t2,0
    800002aa:	4f81                	li	t6,0
    800002ac:	00001e97          	auipc	t4,0x1
    800002b0:	cfce8e93          	addi	t4,t4,-772 # 80000fa8 <bg>
    800002b4:	00001e17          	auipc	t3,0x1
    800002b8:	d14e0e13          	addi	t3,t3,-748 # 80000fc8 <b>
    800002bc:	00001317          	auipc	t1,0x1
    800002c0:	cc430313          	addi	t1,t1,-828 # 80000f80 <g>
  for (int i = 0; i < HALF; i++)
    for (int j = 0; j < HALF; j++)
    800002c4:	42000293          	li	t0,1056
  for (int i = 0; i < HALF; i++)
    800002c8:	02000413          	li	s0,32
void s0_c1() {
    800002cc:	889e                	mv	a7,t2
    800002ce:	02000813          	li	a6,32
    800002d2:	4f01                	li	t5,0
    800002d4:	86fa                	mv	a3,t5
    800002d6:	85fe                	mv	a1,t6
      for (int k = 0; k < HALF; k++)
        bg[i*HALF + j] += b[i + k*HALF] * g[k + j*HALF];
    800002d8:	000e3783          	ld	a5,0(t3)
    800002dc:	00033603          	ld	a2,0(t1)
    800002e0:	000eb703          	ld	a4,0(t4)
    800002e4:	97ae                	add	a5,a5,a1
    800002e6:	9636                	add	a2,a2,a3
    800002e8:	00064503          	lbu	a0,0(a2)
    800002ec:	0007c783          	lbu	a5,0(a5)
    800002f0:	9746                	add	a4,a4,a7
    800002f2:	00074603          	lbu	a2,0(a4)
    800002f6:	02a787bb          	mulw	a5,a5,a0
      for (int k = 0; k < HALF; k++)
    800002fa:	0685                	addi	a3,a3,1
    800002fc:	02058593          	addi	a1,a1,32
        bg[i*HALF + j] += b[i + k*HALF] * g[k + j*HALF];
    80000300:	9fb1                	addw	a5,a5,a2
    80000302:	00f70023          	sb	a5,0(a4)
      for (int k = 0; k < HALF; k++)
    80000306:	fcd819e3          	bne	a6,a3,800002d8 <s0_c1+0x34>
    for (int j = 0; j < HALF; j++)
    8000030a:	02080813          	addi	a6,a6,32
    8000030e:	020f0f13          	addi	t5,t5,32
    80000312:	0885                	addi	a7,a7,1
    80000314:	fc5810e3          	bne	a6,t0,800002d4 <s0_c1+0x30>
  for (int i = 0; i < HALF; i++)
    80000318:	0f85                	addi	t6,t6,1
    8000031a:	02038393          	addi	t2,t2,32
    8000031e:	fa8f97e3          	bne	t6,s0,800002cc <s0_c1+0x28>
}
    80000322:	6422                	ld	s0,8(sp)
    80000324:	0141                	addi	sp,sp,16
    80000326:	8082                	ret

0000000080000328 <s0_c2>:

void s0_c2() {
    80000328:	1141                	addi	sp,sp,-16
    8000032a:	e422                	sd	s0,8(sp)
    8000032c:	4381                	li	t2,0
    8000032e:	4f81                	li	t6,0
    80000330:	00001e97          	auipc	t4,0x1
    80000334:	c70e8e93          	addi	t4,t4,-912 # 80000fa0 <ce>
    80000338:	00001e17          	auipc	t3,0x1
    8000033c:	c88e0e13          	addi	t3,t3,-888 # 80000fc0 <c>
    80000340:	00001317          	auipc	t1,0x1
    80000344:	c5030313          	addi	t1,t1,-944 # 80000f90 <e>
  for (int i = 0; i < HALF; i++)
    for (int j = 0; j < HALF; j++)
    80000348:	42000293          	li	t0,1056
  for (int i = 0; i < HALF; i++)
    8000034c:	02000413          	li	s0,32
void s0_c2() {
    80000350:	889e                	mv	a7,t2
    80000352:	02000813          	li	a6,32
    80000356:	4f01                	li	t5,0
    80000358:	86fa                	mv	a3,t5
    8000035a:	85fe                	mv	a1,t6
      for (int k = 0; k < HALF; k++)
        ce[i*HALF + j] += c[i + k*HALF] * e[k + j*HALF];
    8000035c:	000e3783          	ld	a5,0(t3)
    80000360:	00033603          	ld	a2,0(t1)
    80000364:	000eb703          	ld	a4,0(t4)
    80000368:	97ae                	add	a5,a5,a1
    8000036a:	9636                	add	a2,a2,a3
    8000036c:	00064503          	lbu	a0,0(a2)
    80000370:	0007c783          	lbu	a5,0(a5)
    80000374:	9746                	add	a4,a4,a7
    80000376:	00074603          	lbu	a2,0(a4)
    8000037a:	02a787bb          	mulw	a5,a5,a0
      for (int k = 0; k < HALF; k++)
    8000037e:	0685                	addi	a3,a3,1
    80000380:	02058593          	addi	a1,a1,32
        ce[i*HALF + j] += c[i + k*HALF] * e[k + j*HALF];
    80000384:	9fb1                	addw	a5,a5,a2
    80000386:	00f70023          	sb	a5,0(a4)
      for (int k = 0; k < HALF; k++)
    8000038a:	fcd819e3          	bne	a6,a3,8000035c <s0_c2+0x34>
    for (int j = 0; j < HALF; j++)
    8000038e:	02080813          	addi	a6,a6,32
    80000392:	020f0f13          	addi	t5,t5,32
    80000396:	0885                	addi	a7,a7,1
    80000398:	fc5810e3          	bne	a6,t0,80000358 <s0_c2+0x30>
  for (int i = 0; i < HALF; i++)
    8000039c:	0f85                	addi	t6,t6,1
    8000039e:	02038393          	addi	t2,t2,32
    800003a2:	fa8f97e3          	bne	t6,s0,80000350 <s0_c2+0x28>
}
    800003a6:	6422                	ld	s0,8(sp)
    800003a8:	0141                	addi	sp,sp,16
    800003aa:	8082                	ret

00000000800003ac <s0_c3>:

void s0_c3() {
    800003ac:	1141                	addi	sp,sp,-16
    800003ae:	e422                	sd	s0,8(sp)
    800003b0:	4381                	li	t2,0
    800003b2:	4f81                	li	t6,0
    800003b4:	00001e97          	auipc	t4,0x1
    800003b8:	be4e8e93          	addi	t4,t4,-1052 # 80000f98 <dg>
    800003bc:	00001e17          	auipc	t3,0x1
    800003c0:	bfce0e13          	addi	t3,t3,-1028 # 80000fb8 <d>
    800003c4:	00001317          	auipc	t1,0x1
    800003c8:	bbc30313          	addi	t1,t1,-1092 # 80000f80 <g>
  for (int i = 0; i < HALF; i++)
    for (int j = 0; j < HALF; j++)
    800003cc:	42000293          	li	t0,1056
  for (int i = 0; i < HALF; i++)
    800003d0:	02000413          	li	s0,32
void s0_c3() {
    800003d4:	889e                	mv	a7,t2
    800003d6:	02000813          	li	a6,32
    800003da:	4f01                	li	t5,0
    800003dc:	86fa                	mv	a3,t5
    800003de:	85fe                	mv	a1,t6
      for (int k = 0; k < HALF; k++)
        dg[i*HALF + j] += d[i + k*HALF] * g[k + j*HALF];  
    800003e0:	000e3783          	ld	a5,0(t3)
    800003e4:	00033603          	ld	a2,0(t1)
    800003e8:	000eb703          	ld	a4,0(t4)
    800003ec:	97ae                	add	a5,a5,a1
    800003ee:	9636                	add	a2,a2,a3
    800003f0:	00064503          	lbu	a0,0(a2)
    800003f4:	0007c783          	lbu	a5,0(a5)
    800003f8:	9746                	add	a4,a4,a7
    800003fa:	00074603          	lbu	a2,0(a4)
    800003fe:	02a787bb          	mulw	a5,a5,a0
      for (int k = 0; k < HALF; k++)
    80000402:	0685                	addi	a3,a3,1
    80000404:	02058593          	addi	a1,a1,32
        dg[i*HALF + j] += d[i + k*HALF] * g[k + j*HALF];  
    80000408:	9fb1                	addw	a5,a5,a2
    8000040a:	00f70023          	sb	a5,0(a4)
      for (int k = 0; k < HALF; k++)
    8000040e:	fcd819e3          	bne	a6,a3,800003e0 <s0_c3+0x34>
    for (int j = 0; j < HALF; j++)
    80000412:	02080813          	addi	a6,a6,32
    80000416:	020f0f13          	addi	t5,t5,32
    8000041a:	0885                	addi	a7,a7,1
    8000041c:	fc5810e3          	bne	a6,t0,800003dc <s0_c3+0x30>
  for (int i = 0; i < HALF; i++)
    80000420:	0f85                	addi	t6,t6,1
    80000422:	02038393          	addi	t2,t2,32
    80000426:	fa8f97e3          	bne	t6,s0,800003d4 <s0_c3+0x28>
}
    8000042a:	6422                	ld	s0,8(sp)
    8000042c:	0141                	addi	sp,sp,16
    8000042e:	8082                	ret

0000000080000430 <s1_c0>:

// ============== Stage 1 ==================================
void s1_c0() {
    80000430:	4781                	li	a5,0
    80000432:	00001897          	auipc	a7,0x1
    80000436:	b5e88893          	addi	a7,a7,-1186 # 80000f90 <e>
    8000043a:	00001817          	auipc	a6,0x1
    8000043e:	b7680813          	addi	a6,a6,-1162 # 80000fb0 <ae>
    80000442:	00001517          	auipc	a0,0x1
    80000446:	b6650513          	addi	a0,a0,-1178 # 80000fa8 <bg>
  for (int i = 0; i < LENGTH; i++)
    8000044a:	40000593          	li	a1,1024
        e[i] = ae[i] + bg[i];
    8000044e:	00083683          	ld	a3,0(a6)
    80000452:	6110                	ld	a2,0(a0)
    80000454:	0008b703          	ld	a4,0(a7)
    80000458:	96be                	add	a3,a3,a5
    8000045a:	963e                	add	a2,a2,a5
    8000045c:	0006c683          	lbu	a3,0(a3)
    80000460:	00064603          	lbu	a2,0(a2)
    80000464:	973e                	add	a4,a4,a5
  for (int i = 0; i < LENGTH; i++)
    80000466:	0785                	addi	a5,a5,1
        e[i] = ae[i] + bg[i];
    80000468:	9eb1                	addw	a3,a3,a2
    8000046a:	00d70023          	sb	a3,0(a4)
  for (int i = 0; i < LENGTH; i++)
    8000046e:	feb790e3          	bne	a5,a1,8000044e <s1_c0+0x1e>
}
    80000472:	8082                	ret

0000000080000474 <s1_c2>:

void s1_c2() {
    80000474:	4781                	li	a5,0
    80000476:	00001897          	auipc	a7,0x1
    8000047a:	b0a88893          	addi	a7,a7,-1270 # 80000f80 <g>
    8000047e:	00001817          	auipc	a6,0x1
    80000482:	b2280813          	addi	a6,a6,-1246 # 80000fa0 <ce>
    80000486:	00001517          	auipc	a0,0x1
    8000048a:	b1250513          	addi	a0,a0,-1262 # 80000f98 <dg>
  for (int i = 0; i < LENGTH; i++)
    8000048e:	40000593          	li	a1,1024
        g[i] = ce[i] + dg[i];
    80000492:	00083683          	ld	a3,0(a6)
    80000496:	6110                	ld	a2,0(a0)
    80000498:	0008b703          	ld	a4,0(a7)
    8000049c:	96be                	add	a3,a3,a5
    8000049e:	963e                	add	a2,a2,a5
    800004a0:	0006c683          	lbu	a3,0(a3)
    800004a4:	00064603          	lbu	a2,0(a2)
    800004a8:	973e                	add	a4,a4,a5
  for (int i = 0; i < LENGTH; i++)
    800004aa:	0785                	addi	a5,a5,1
        g[i] = ce[i] + dg[i];
    800004ac:	9eb1                	addw	a3,a3,a2
    800004ae:	00d70023          	sb	a3,0(a4)
  for (int i = 0; i < LENGTH; i++)
    800004b2:	feb790e3          	bne	a5,a1,80000492 <s1_c2+0x1e>
}
    800004b6:	8082                	ret

00000000800004b8 <s2_c0>:

// ============== Stage 2 ==================================
void s2_c0() {
    800004b8:	1141                	addi	sp,sp,-16
    800004ba:	e422                	sd	s0,8(sp)
  for (int i = 0; i < HALF; i++)
    for (int j = 0; j < HALF; j++) {
      ae[i*HALF + j] = 0;
    800004bc:	4381                	li	t2,0
    800004be:	4f81                	li	t6,0
    800004c0:	00001317          	auipc	t1,0x1
    800004c4:	af030313          	addi	t1,t1,-1296 # 80000fb0 <ae>
    800004c8:	00001e97          	auipc	t4,0x1
    800004cc:	b08e8e93          	addi	t4,t4,-1272 # 80000fd0 <a>
    800004d0:	00001e17          	auipc	t3,0x1
    800004d4:	ab8e0e13          	addi	t3,t3,-1352 # 80000f88 <f>
    for (int j = 0; j < HALF; j++) {
    800004d8:	42000293          	li	t0,1056
  for (int i = 0; i < HALF; i++)
    800004dc:	02000413          	li	s0,32
void s2_c0() {
    800004e0:	889e                	mv	a7,t2
    800004e2:	02000813          	li	a6,32
    800004e6:	4f01                	li	t5,0
      ae[i*HALF + j] = 0;
    800004e8:	00033783          	ld	a5,0(t1)
    800004ec:	86fa                	mv	a3,t5
    800004ee:	85fe                	mv	a1,t6
    800004f0:	97c6                	add	a5,a5,a7
    800004f2:	00078023          	sb	zero,0(a5)
      for (int k = 0; k < HALF; k++)
        ae[i*HALF + j] += a[i + k*HALF] * f[k + j*HALF];
    800004f6:	000eb783          	ld	a5,0(t4)
    800004fa:	000e3603          	ld	a2,0(t3)
    800004fe:	00033703          	ld	a4,0(t1)
    80000502:	97ae                	add	a5,a5,a1
    80000504:	9636                	add	a2,a2,a3
    80000506:	00064503          	lbu	a0,0(a2)
    8000050a:	0007c783          	lbu	a5,0(a5)
    8000050e:	9746                	add	a4,a4,a7
    80000510:	00074603          	lbu	a2,0(a4)
    80000514:	02a787bb          	mulw	a5,a5,a0
      for (int k = 0; k < HALF; k++)
    80000518:	0685                	addi	a3,a3,1
    8000051a:	02058593          	addi	a1,a1,32
        ae[i*HALF + j] += a[i + k*HALF] * f[k + j*HALF];
    8000051e:	9fb1                	addw	a5,a5,a2
    80000520:	00f70023          	sb	a5,0(a4)
      for (int k = 0; k < HALF; k++)
    80000524:	fcd819e3          	bne	a6,a3,800004f6 <s2_c0+0x3e>
    for (int j = 0; j < HALF; j++) {
    80000528:	02080813          	addi	a6,a6,32
    8000052c:	0885                	addi	a7,a7,1
    8000052e:	020f0f13          	addi	t5,t5,32
    80000532:	fa581be3          	bne	a6,t0,800004e8 <s2_c0+0x30>
  for (int i = 0; i < HALF; i++)
    80000536:	0f85                	addi	t6,t6,1
    80000538:	02038393          	addi	t2,t2,32
    8000053c:	fa8f92e3          	bne	t6,s0,800004e0 <s2_c0+0x28>
    }
}
    80000540:	6422                	ld	s0,8(sp)
    80000542:	0141                	addi	sp,sp,16
    80000544:	8082                	ret

0000000080000546 <s2_c1>:

void s2_c1() {
    80000546:	1141                	addi	sp,sp,-16
    80000548:	e422                	sd	s0,8(sp)
  for (int i = 0; i < HALF; i++)
    for (int j = 0; j < HALF; j++) {
      bg[i*HALF + j] = 0;
    8000054a:	4381                	li	t2,0
    8000054c:	4f81                	li	t6,0
    8000054e:	00001317          	auipc	t1,0x1
    80000552:	a5a30313          	addi	t1,t1,-1446 # 80000fa8 <bg>
    80000556:	00001e97          	auipc	t4,0x1
    8000055a:	a72e8e93          	addi	t4,t4,-1422 # 80000fc8 <b>
    8000055e:	00001e17          	auipc	t3,0x1
    80000562:	a1ae0e13          	addi	t3,t3,-1510 # 80000f78 <h>
    for (int j = 0; j < HALF; j++) {
    80000566:	42000293          	li	t0,1056
  for (int i = 0; i < HALF; i++)
    8000056a:	02000413          	li	s0,32
void s2_c1() {
    8000056e:	889e                	mv	a7,t2
    80000570:	02000813          	li	a6,32
    80000574:	4f01                	li	t5,0
      bg[i*HALF + j] = 0;
    80000576:	00033783          	ld	a5,0(t1)
    8000057a:	86fa                	mv	a3,t5
    8000057c:	85fe                	mv	a1,t6
    8000057e:	97c6                	add	a5,a5,a7
    80000580:	00078023          	sb	zero,0(a5)
      for (int k = 0; k < HALF; k++)
        bg[i*HALF + j] += b[i + k*HALF] * h[k + j*HALF];
    80000584:	000eb783          	ld	a5,0(t4)
    80000588:	000e3603          	ld	a2,0(t3)
    8000058c:	00033703          	ld	a4,0(t1)
    80000590:	97ae                	add	a5,a5,a1
    80000592:	9636                	add	a2,a2,a3
    80000594:	00064503          	lbu	a0,0(a2)
    80000598:	0007c783          	lbu	a5,0(a5)
    8000059c:	9746                	add	a4,a4,a7
    8000059e:	00074603          	lbu	a2,0(a4)
    800005a2:	02a787bb          	mulw	a5,a5,a0
      for (int k = 0; k < HALF; k++)
    800005a6:	0685                	addi	a3,a3,1
    800005a8:	02058593          	addi	a1,a1,32
        bg[i*HALF + j] += b[i + k*HALF] * h[k + j*HALF];
    800005ac:	9fb1                	addw	a5,a5,a2
    800005ae:	00f70023          	sb	a5,0(a4)
      for (int k = 0; k < HALF; k++)
    800005b2:	fcd819e3          	bne	a6,a3,80000584 <s2_c1+0x3e>
    for (int j = 0; j < HALF; j++) {
    800005b6:	02080813          	addi	a6,a6,32
    800005ba:	0885                	addi	a7,a7,1
    800005bc:	020f0f13          	addi	t5,t5,32
    800005c0:	fa581be3          	bne	a6,t0,80000576 <s2_c1+0x30>
  for (int i = 0; i < HALF; i++)
    800005c4:	0f85                	addi	t6,t6,1
    800005c6:	02038393          	addi	t2,t2,32
    800005ca:	fa8f92e3          	bne	t6,s0,8000056e <s2_c1+0x28>
    }
}
    800005ce:	6422                	ld	s0,8(sp)
    800005d0:	0141                	addi	sp,sp,16
    800005d2:	8082                	ret

00000000800005d4 <s2_c2>:

void s2_c2() {
    800005d4:	1141                	addi	sp,sp,-16
    800005d6:	e422                	sd	s0,8(sp)
  for (int i = 0; i < HALF; i++)
    for (int j = 0; j < HALF; j++) {
      ce[i*HALF + j] = 0;
    800005d8:	4381                	li	t2,0
    800005da:	4f81                	li	t6,0
    800005dc:	00001317          	auipc	t1,0x1
    800005e0:	9c430313          	addi	t1,t1,-1596 # 80000fa0 <ce>
    800005e4:	00001e97          	auipc	t4,0x1
    800005e8:	9dce8e93          	addi	t4,t4,-1572 # 80000fc0 <c>
    800005ec:	00001e17          	auipc	t3,0x1
    800005f0:	99ce0e13          	addi	t3,t3,-1636 # 80000f88 <f>
    for (int j = 0; j < HALF; j++) {
    800005f4:	42000293          	li	t0,1056
  for (int i = 0; i < HALF; i++)
    800005f8:	02000413          	li	s0,32
void s2_c2() {
    800005fc:	889e                	mv	a7,t2
    800005fe:	02000813          	li	a6,32
    80000602:	4f01                	li	t5,0
      ce[i*HALF + j] = 0;
    80000604:	00033783          	ld	a5,0(t1)
    80000608:	86fa                	mv	a3,t5
    8000060a:	85fe                	mv	a1,t6
    8000060c:	97c6                	add	a5,a5,a7
    8000060e:	00078023          	sb	zero,0(a5)
      for (int k = 0; k < HALF; k++)
        ce[i*HALF + j] += c[i + k*HALF] * f[k + j*HALF];
    80000612:	000eb783          	ld	a5,0(t4)
    80000616:	000e3603          	ld	a2,0(t3)
    8000061a:	00033703          	ld	a4,0(t1)
    8000061e:	97ae                	add	a5,a5,a1
    80000620:	9636                	add	a2,a2,a3
    80000622:	00064503          	lbu	a0,0(a2)
    80000626:	0007c783          	lbu	a5,0(a5)
    8000062a:	9746                	add	a4,a4,a7
    8000062c:	00074603          	lbu	a2,0(a4)
    80000630:	02a787bb          	mulw	a5,a5,a0
      for (int k = 0; k < HALF; k++)
    80000634:	0685                	addi	a3,a3,1
    80000636:	02058593          	addi	a1,a1,32
        ce[i*HALF + j] += c[i + k*HALF] * f[k + j*HALF];
    8000063a:	9fb1                	addw	a5,a5,a2
    8000063c:	00f70023          	sb	a5,0(a4)
      for (int k = 0; k < HALF; k++)
    80000640:	fcd819e3          	bne	a6,a3,80000612 <s2_c2+0x3e>
    for (int j = 0; j < HALF; j++) {
    80000644:	02080813          	addi	a6,a6,32
    80000648:	0885                	addi	a7,a7,1
    8000064a:	020f0f13          	addi	t5,t5,32
    8000064e:	fa581be3          	bne	a6,t0,80000604 <s2_c2+0x30>
  for (int i = 0; i < HALF; i++)
    80000652:	0f85                	addi	t6,t6,1
    80000654:	02038393          	addi	t2,t2,32
    80000658:	fa8f92e3          	bne	t6,s0,800005fc <s2_c2+0x28>
    }
}
    8000065c:	6422                	ld	s0,8(sp)
    8000065e:	0141                	addi	sp,sp,16
    80000660:	8082                	ret

0000000080000662 <s2_c3>:

void s2_c3() {
    80000662:	1141                	addi	sp,sp,-16
    80000664:	e422                	sd	s0,8(sp)
  for (int i = 0; i < HALF; i++)
    for (int j = 0; j < HALF; j++) {
      dg[i*HALF + j] = 0;
    80000666:	4381                	li	t2,0
    80000668:	4f81                	li	t6,0
    8000066a:	00001317          	auipc	t1,0x1
    8000066e:	92e30313          	addi	t1,t1,-1746 # 80000f98 <dg>
    80000672:	00001e97          	auipc	t4,0x1
    80000676:	946e8e93          	addi	t4,t4,-1722 # 80000fb8 <d>
    8000067a:	00001e17          	auipc	t3,0x1
    8000067e:	8fee0e13          	addi	t3,t3,-1794 # 80000f78 <h>
    for (int j = 0; j < HALF; j++) {
    80000682:	42000293          	li	t0,1056
  for (int i = 0; i < HALF; i++)
    80000686:	02000413          	li	s0,32
void s2_c3() {
    8000068a:	889e                	mv	a7,t2
    8000068c:	02000813          	li	a6,32
    80000690:	4f01                	li	t5,0
      dg[i*HALF + j] = 0;
    80000692:	00033783          	ld	a5,0(t1)
    80000696:	86fa                	mv	a3,t5
    80000698:	85fe                	mv	a1,t6
    8000069a:	97c6                	add	a5,a5,a7
    8000069c:	00078023          	sb	zero,0(a5)
      for (int k = 0; k < HALF; k++)
        dg[i*HALF + j] += d[i + k*HALF] * h[k + j*HALF];
    800006a0:	000eb783          	ld	a5,0(t4)
    800006a4:	000e3603          	ld	a2,0(t3)
    800006a8:	00033703          	ld	a4,0(t1)
    800006ac:	97ae                	add	a5,a5,a1
    800006ae:	9636                	add	a2,a2,a3
    800006b0:	00064503          	lbu	a0,0(a2)
    800006b4:	0007c783          	lbu	a5,0(a5)
    800006b8:	9746                	add	a4,a4,a7
    800006ba:	00074603          	lbu	a2,0(a4)
    800006be:	02a787bb          	mulw	a5,a5,a0
      for (int k = 0; k < HALF; k++)
    800006c2:	0685                	addi	a3,a3,1
    800006c4:	02058593          	addi	a1,a1,32
        dg[i*HALF + j] += d[i + k*HALF] * h[k + j*HALF];
    800006c8:	9fb1                	addw	a5,a5,a2
    800006ca:	00f70023          	sb	a5,0(a4)
      for (int k = 0; k < HALF; k++)
    800006ce:	fcd819e3          	bne	a6,a3,800006a0 <s2_c3+0x3e>
    for (int j = 0; j < HALF; j++) {
    800006d2:	02080813          	addi	a6,a6,32
    800006d6:	0885                	addi	a7,a7,1
    800006d8:	020f0f13          	addi	t5,t5,32
    800006dc:	fa581be3          	bne	a6,t0,80000692 <s2_c3+0x30>
  for (int i = 0; i < HALF; i++)
    800006e0:	0f85                	addi	t6,t6,1
    800006e2:	02038393          	addi	t2,t2,32
    800006e6:	fa8f92e3          	bne	t6,s0,8000068a <s2_c3+0x28>
    }
}
    800006ea:	6422                	ld	s0,8(sp)
    800006ec:	0141                	addi	sp,sp,16
    800006ee:	8082                	ret

00000000800006f0 <s3_c0>:

// ============== Stage 3 ==================================
void s3_c0() {
    800006f0:	4781                	li	a5,0
    800006f2:	00001897          	auipc	a7,0x1
    800006f6:	89688893          	addi	a7,a7,-1898 # 80000f88 <f>
    800006fa:	00001817          	auipc	a6,0x1
    800006fe:	8b680813          	addi	a6,a6,-1866 # 80000fb0 <ae>
    80000702:	00001517          	auipc	a0,0x1
    80000706:	8a650513          	addi	a0,a0,-1882 # 80000fa8 <bg>
  for (int i = 0; i < LENGTH; i++)
    8000070a:	40000593          	li	a1,1024
        f[i] = ae[i] + bg[i];
    8000070e:	00083683          	ld	a3,0(a6)
    80000712:	6110                	ld	a2,0(a0)
    80000714:	0008b703          	ld	a4,0(a7)
    80000718:	96be                	add	a3,a3,a5
    8000071a:	963e                	add	a2,a2,a5
    8000071c:	0006c683          	lbu	a3,0(a3)
    80000720:	00064603          	lbu	a2,0(a2)
    80000724:	973e                	add	a4,a4,a5
  for (int i = 0; i < LENGTH; i++)
    80000726:	0785                	addi	a5,a5,1
        f[i] = ae[i] + bg[i];
    80000728:	9eb1                	addw	a3,a3,a2
    8000072a:	00d70023          	sb	a3,0(a4)
  for (int i = 0; i < LENGTH; i++)
    8000072e:	feb790e3          	bne	a5,a1,8000070e <s3_c0+0x1e>
}
    80000732:	8082                	ret

0000000080000734 <s3_c2>:

void s3_c2() {
    80000734:	4781                	li	a5,0
    80000736:	00001897          	auipc	a7,0x1
    8000073a:	84288893          	addi	a7,a7,-1982 # 80000f78 <h>
    8000073e:	00001817          	auipc	a6,0x1
    80000742:	86280813          	addi	a6,a6,-1950 # 80000fa0 <ce>
    80000746:	00001517          	auipc	a0,0x1
    8000074a:	85250513          	addi	a0,a0,-1966 # 80000f98 <dg>
  for (int i = 0; i < LENGTH; i++)
    8000074e:	40000593          	li	a1,1024
        h[i] = ce[i] + dg[i];
    80000752:	00083683          	ld	a3,0(a6)
    80000756:	6110                	ld	a2,0(a0)
    80000758:	0008b703          	ld	a4,0(a7)
    8000075c:	96be                	add	a3,a3,a5
    8000075e:	963e                	add	a2,a2,a5
    80000760:	0006c683          	lbu	a3,0(a3)
    80000764:	00064603          	lbu	a2,0(a2)
    80000768:	973e                	add	a4,a4,a5
  for (int i = 0; i < LENGTH; i++)
    8000076a:	0785                	addi	a5,a5,1
        h[i] = ce[i] + dg[i];
    8000076c:	9eb1                	addw	a3,a3,a2
    8000076e:	00d70023          	sb	a3,0(a4)
  for (int i = 0; i < LENGTH; i++)
    80000772:	feb790e3          	bne	a5,a1,80000752 <s3_c2+0x1e>
}
    80000776:	8082                	ret

0000000080000778 <core0>:

// ============== For normal parallel =======================
void core0() {
    80000778:	1101                	addi	sp,sp,-32
    8000077a:	ec22                	sd	s0,24(sp)
    8000077c:	e826                	sd	s1,16(sp)
    8000077e:	e44a                	sd	s2,8(sp)
    80000780:	e04e                	sd	s3,0(sp)
  for (int i = 0; i < 16; i = i + 1)
    for (int j = 0; j < SIZE; j = j + 1)
    80000782:	6805                	lui	a6,0x1
  for (int i = 0; i < 16; i = i + 1)
    80000784:	4401                	li	s0,0
    80000786:	00000e97          	auipc	t4,0x0
    8000078a:	7dae8e93          	addi	t4,t4,2010 # 80000f60 <mat_c>
    8000078e:	00000e17          	auipc	t3,0x0
    80000792:	7dae0e13          	addi	t3,t3,2010 # 80000f68 <mat_b>
    80000796:	00000317          	auipc	t1,0x0
    8000079a:	7da30313          	addi	t1,t1,2010 # 80000f70 <mat_a>
    8000079e:	6985                	lui	s3,0x1
    800007a0:	fffbf937          	lui	s2,0xfffbf
    800007a4:	73fd                	lui	t2,0xfffff
    for (int j = 0; j < SIZE; j = j + 1)
    800007a6:	04000293          	li	t0,64
  for (int i = 0; i < 16; i = i + 1)
    800007aa:	44c1                	li	s1,16
    for (int j = 0; j < SIZE; j = j + 1)
    800007ac:	00681f93          	slli	t6,a6,0x6
    800007b0:	9fc2                	add	t6,t6,a6
    800007b2:	41098533          	sub	a0,s3,a6
    800007b6:	9fca                	add	t6,t6,s2
    800007b8:	4f01                	li	t5,0
      for (int k = 0; k < SIZE; k  = k + 1)
    800007ba:	00af88b3          	add	a7,t6,a0
    800007be:	00780733          	add	a4,a6,t2
        mat_c[i*SIZE + j] += mat_a[i + k*SIZE] * mat_b[k*SIZE + j];
    800007c2:	000e3783          	ld	a5,0(t3)
    800007c6:	00033603          	ld	a2,0(t1)
    800007ca:	000eb683          	ld	a3,0(t4)
    800007ce:	97aa                	add	a5,a5,a0
    800007d0:	963a                	add	a2,a2,a4
    800007d2:	97ba                	add	a5,a5,a4
    800007d4:	00064583          	lbu	a1,0(a2)
    800007d8:	0007c783          	lbu	a5,0(a5)
    800007dc:	96c6                	add	a3,a3,a7
    800007de:	0006c603          	lbu	a2,0(a3)
    800007e2:	02b787bb          	mulw	a5,a5,a1
      for (int k = 0; k < SIZE; k  = k + 1)
    800007e6:	04070713          	addi	a4,a4,64
        mat_c[i*SIZE + j] += mat_a[i + k*SIZE] * mat_b[k*SIZE + j];
    800007ea:	9fb1                	addw	a5,a5,a2
    800007ec:	00f68023          	sb	a5,0(a3)
      for (int k = 0; k < SIZE; k  = k + 1)
    800007f0:	fce819e3          	bne	a6,a4,800007c2 <core0+0x4a>
    for (int j = 0; j < SIZE; j = j + 1)
    800007f4:	2f05                	addiw	t5,t5,1
    800007f6:	0505                	addi	a0,a0,1
    800007f8:	fc5f11e3          	bne	t5,t0,800007ba <core0+0x42>
  for (int i = 0; i < 16; i = i + 1)
    800007fc:	2405                	addiw	s0,s0,1
    800007fe:	0805                	addi	a6,a6,1 # 1001 <_prog_start-0x7fffefff>
    80000800:	fa9416e3          	bne	s0,s1,800007ac <core0+0x34>
}
    80000804:	6462                	ld	s0,24(sp)
    80000806:	64c2                	ld	s1,16(sp)
    80000808:	6922                	ld	s2,8(sp)
    8000080a:	6982                	ld	s3,0(sp)
    8000080c:	6105                	addi	sp,sp,32
    8000080e:	8082                	ret

0000000080000810 <core1>:

void core1() {
    80000810:	1101                	addi	sp,sp,-32
  for (int i = 16; i < 32; i = i + 1)
    for (int j = 0; j < SIZE; j = j + 1)
    80000812:	6805                	lui	a6,0x1
void core1() {
    80000814:	ec22                	sd	s0,24(sp)
    80000816:	e826                	sd	s1,16(sp)
    80000818:	e44a                	sd	s2,8(sp)
    8000081a:	e04e                	sd	s3,0(sp)
    for (int j = 0; j < SIZE; j = j + 1)
    8000081c:	0841                	addi	a6,a6,16 # 1010 <_prog_start-0x7fffeff0>
  for (int i = 16; i < 32; i = i + 1)
    8000081e:	4441                	li	s0,16
    80000820:	00000e97          	auipc	t4,0x0
    80000824:	740e8e93          	addi	t4,t4,1856 # 80000f60 <mat_c>
    80000828:	00000e17          	auipc	t3,0x0
    8000082c:	740e0e13          	addi	t3,t3,1856 # 80000f68 <mat_b>
    80000830:	00000317          	auipc	t1,0x0
    80000834:	74030313          	addi	t1,t1,1856 # 80000f70 <mat_a>
    80000838:	6985                	lui	s3,0x1
    8000083a:	fffbf937          	lui	s2,0xfffbf
    8000083e:	73fd                	lui	t2,0xfffff
    for (int j = 0; j < SIZE; j = j + 1)
    80000840:	04000293          	li	t0,64
  for (int i = 16; i < 32; i = i + 1)
    80000844:	02000493          	li	s1,32
    for (int j = 0; j < SIZE; j = j + 1)
    80000848:	00681f93          	slli	t6,a6,0x6
    8000084c:	9fc2                	add	t6,t6,a6
    8000084e:	41098533          	sub	a0,s3,a6
    80000852:	9fca                	add	t6,t6,s2
    80000854:	4f01                	li	t5,0
      for (int k = 0; k < SIZE; k  = k + 1)
    80000856:	00af88b3          	add	a7,t6,a0
    8000085a:	00780733          	add	a4,a6,t2
        mat_c[i*SIZE + j] += mat_a[i + k*SIZE] * mat_b[k*SIZE + j];
    8000085e:	000e3783          	ld	a5,0(t3)
    80000862:	00033603          	ld	a2,0(t1)
    80000866:	000eb683          	ld	a3,0(t4)
    8000086a:	97aa                	add	a5,a5,a0
    8000086c:	963a                	add	a2,a2,a4
    8000086e:	97ba                	add	a5,a5,a4
    80000870:	00064583          	lbu	a1,0(a2)
    80000874:	0007c783          	lbu	a5,0(a5)
    80000878:	96c6                	add	a3,a3,a7
    8000087a:	0006c603          	lbu	a2,0(a3)
    8000087e:	02b787bb          	mulw	a5,a5,a1
      for (int k = 0; k < SIZE; k  = k + 1)
    80000882:	04070713          	addi	a4,a4,64
        mat_c[i*SIZE + j] += mat_a[i + k*SIZE] * mat_b[k*SIZE + j];
    80000886:	9fb1                	addw	a5,a5,a2
    80000888:	00f68023          	sb	a5,0(a3)
      for (int k = 0; k < SIZE; k  = k + 1)
    8000088c:	fce819e3          	bne	a6,a4,8000085e <core1+0x4e>
    for (int j = 0; j < SIZE; j = j + 1)
    80000890:	2f05                	addiw	t5,t5,1
    80000892:	0505                	addi	a0,a0,1
    80000894:	fc5f11e3          	bne	t5,t0,80000856 <core1+0x46>
  for (int i = 16; i < 32; i = i + 1)
    80000898:	2405                	addiw	s0,s0,1
    8000089a:	0805                	addi	a6,a6,1
    8000089c:	fa9416e3          	bne	s0,s1,80000848 <core1+0x38>
}
    800008a0:	6462                	ld	s0,24(sp)
    800008a2:	64c2                	ld	s1,16(sp)
    800008a4:	6922                	ld	s2,8(sp)
    800008a6:	6982                	ld	s3,0(sp)
    800008a8:	6105                	addi	sp,sp,32
    800008aa:	8082                	ret

00000000800008ac <core2>:
void core2() {
    800008ac:	1101                	addi	sp,sp,-32
  for (int i = 32; i < 48; i = i + 1)
    for (int j = 0; j < SIZE; j = j + 1)
    800008ae:	6805                	lui	a6,0x1
void core2() {
    800008b0:	ec22                	sd	s0,24(sp)
    800008b2:	e826                	sd	s1,16(sp)
    800008b4:	e44a                	sd	s2,8(sp)
    800008b6:	e04e                	sd	s3,0(sp)
    for (int j = 0; j < SIZE; j = j + 1)
    800008b8:	02080813          	addi	a6,a6,32 # 1020 <_prog_start-0x7fffefe0>
  for (int i = 32; i < 48; i = i + 1)
    800008bc:	02000413          	li	s0,32
    800008c0:	00000e97          	auipc	t4,0x0
    800008c4:	6a0e8e93          	addi	t4,t4,1696 # 80000f60 <mat_c>
    800008c8:	00000e17          	auipc	t3,0x0
    800008cc:	6a0e0e13          	addi	t3,t3,1696 # 80000f68 <mat_b>
    800008d0:	00000317          	auipc	t1,0x0
    800008d4:	6a030313          	addi	t1,t1,1696 # 80000f70 <mat_a>
    800008d8:	6985                	lui	s3,0x1
    800008da:	fffbf937          	lui	s2,0xfffbf
    800008de:	73fd                	lui	t2,0xfffff
    for (int j = 0; j < SIZE; j = j + 1)
    800008e0:	04000293          	li	t0,64
  for (int i = 32; i < 48; i = i + 1)
    800008e4:	03000493          	li	s1,48
    for (int j = 0; j < SIZE; j = j + 1)
    800008e8:	00681f93          	slli	t6,a6,0x6
    800008ec:	9fc2                	add	t6,t6,a6
    800008ee:	41098533          	sub	a0,s3,a6
    800008f2:	9fca                	add	t6,t6,s2
    800008f4:	4f01                	li	t5,0
      for (int k = 0; k < SIZE; k  = k + 1)
    800008f6:	00af88b3          	add	a7,t6,a0
    800008fa:	00780733          	add	a4,a6,t2
        mat_c[i*SIZE + j] += mat_a[i + k*SIZE] * mat_b[k*SIZE + j];
    800008fe:	000e3783          	ld	a5,0(t3)
    80000902:	00033603          	ld	a2,0(t1)
    80000906:	000eb683          	ld	a3,0(t4)
    8000090a:	97aa                	add	a5,a5,a0
    8000090c:	963a                	add	a2,a2,a4
    8000090e:	97ba                	add	a5,a5,a4
    80000910:	00064583          	lbu	a1,0(a2)
    80000914:	0007c783          	lbu	a5,0(a5)
    80000918:	96c6                	add	a3,a3,a7
    8000091a:	0006c603          	lbu	a2,0(a3)
    8000091e:	02b787bb          	mulw	a5,a5,a1
      for (int k = 0; k < SIZE; k  = k + 1)
    80000922:	04070713          	addi	a4,a4,64
        mat_c[i*SIZE + j] += mat_a[i + k*SIZE] * mat_b[k*SIZE + j];
    80000926:	9fb1                	addw	a5,a5,a2
    80000928:	00f68023          	sb	a5,0(a3)
      for (int k = 0; k < SIZE; k  = k + 1)
    8000092c:	fce819e3          	bne	a6,a4,800008fe <core2+0x52>
    for (int j = 0; j < SIZE; j = j + 1)
    80000930:	2f05                	addiw	t5,t5,1
    80000932:	0505                	addi	a0,a0,1
    80000934:	fc5f11e3          	bne	t5,t0,800008f6 <core2+0x4a>
  for (int i = 32; i < 48; i = i + 1)
    80000938:	2405                	addiw	s0,s0,1
    8000093a:	0805                	addi	a6,a6,1
    8000093c:	fa9416e3          	bne	s0,s1,800008e8 <core2+0x3c>
}
    80000940:	6462                	ld	s0,24(sp)
    80000942:	64c2                	ld	s1,16(sp)
    80000944:	6922                	ld	s2,8(sp)
    80000946:	6982                	ld	s3,0(sp)
    80000948:	6105                	addi	sp,sp,32
    8000094a:	8082                	ret

000000008000094c <core3>:

void core3() {
    8000094c:	1101                	addi	sp,sp,-32
  for (int i = 48; i < 64; i = i + 1)
    for (int j = 0; j < SIZE; j = j + 1)
    8000094e:	6805                	lui	a6,0x1
void core3() {
    80000950:	ec22                	sd	s0,24(sp)
    80000952:	e826                	sd	s1,16(sp)
    80000954:	e44a                	sd	s2,8(sp)
    for (int j = 0; j < SIZE; j = j + 1)
    80000956:	03080813          	addi	a6,a6,48 # 1030 <_prog_start-0x7fffefd0>
  for (int i = 48; i < 64; i = i + 1)
    8000095a:	03000413          	li	s0,48
    8000095e:	00000e97          	auipc	t4,0x0
    80000962:	602e8e93          	addi	t4,t4,1538 # 80000f60 <mat_c>
    80000966:	00000e17          	auipc	t3,0x0
    8000096a:	602e0e13          	addi	t3,t3,1538 # 80000f68 <mat_b>
    8000096e:	00000317          	auipc	t1,0x0
    80000972:	60230313          	addi	t1,t1,1538 # 80000f70 <mat_a>
    80000976:	6905                	lui	s2,0x1
    80000978:	fffbf4b7          	lui	s1,0xfffbf
    8000097c:	73fd                	lui	t2,0xfffff
    for (int j = 0; j < SIZE; j = j + 1)
    8000097e:	04000293          	li	t0,64
    80000982:	00681f93          	slli	t6,a6,0x6
    80000986:	9fc2                	add	t6,t6,a6
    80000988:	41090533          	sub	a0,s2,a6
    8000098c:	9fa6                	add	t6,t6,s1
    8000098e:	4f01                	li	t5,0
      for (int k = 0; k < SIZE; k  = k + 1)
    80000990:	00af88b3          	add	a7,t6,a0
    80000994:	00780733          	add	a4,a6,t2
        mat_c[i*SIZE + j] += mat_a[i + k*SIZE] * mat_b[k*SIZE + j];
    80000998:	000e3783          	ld	a5,0(t3)
    8000099c:	00033603          	ld	a2,0(t1)
    800009a0:	000eb683          	ld	a3,0(t4)
    800009a4:	97aa                	add	a5,a5,a0
    800009a6:	963a                	add	a2,a2,a4
    800009a8:	97ba                	add	a5,a5,a4
    800009aa:	00064583          	lbu	a1,0(a2)
    800009ae:	0007c783          	lbu	a5,0(a5)
    800009b2:	96c6                	add	a3,a3,a7
    800009b4:	0006c603          	lbu	a2,0(a3)
    800009b8:	02b787bb          	mulw	a5,a5,a1
      for (int k = 0; k < SIZE; k  = k + 1)
    800009bc:	04070713          	addi	a4,a4,64
        mat_c[i*SIZE + j] += mat_a[i + k*SIZE] * mat_b[k*SIZE + j];
    800009c0:	9fb1                	addw	a5,a5,a2
    800009c2:	00f68023          	sb	a5,0(a3)
      for (int k = 0; k < SIZE; k  = k + 1)
    800009c6:	fce819e3          	bne	a6,a4,80000998 <core3+0x4c>
    for (int j = 0; j < SIZE; j = j + 1)
    800009ca:	2f05                	addiw	t5,t5,1
    800009cc:	0505                	addi	a0,a0,1
    800009ce:	fc5f11e3          	bne	t5,t0,80000990 <core3+0x44>
  for (int i = 48; i < 64; i = i + 1)
    800009d2:	2405                	addiw	s0,s0,1
    800009d4:	0805                	addi	a6,a6,1
    800009d6:	fbe416e3          	bne	s0,t5,80000982 <core3+0x36>
}
    800009da:	6462                	ld	s0,24(sp)
    800009dc:	64c2                	ld	s1,16(sp)
    800009de:	6922                	ld	s2,8(sp)
    800009e0:	6105                	addi	sp,sp,32
    800009e2:	8082                	ret

00000000800009e4 <main>:

int main(int argc, char **arv) {
    800009e4:	7159                	addi	sp,sp,-112
    800009e6:	f486                	sd	ra,104(sp)
    800009e8:	f0a2                	sd	s0,96(sp)
    800009ea:	eca6                	sd	s1,88(sp)
    800009ec:	e8ca                	sd	s2,80(sp)
    800009ee:	e4ce                	sd	s3,72(sp)
    800009f0:	e0d2                	sd	s4,64(sp)
    800009f2:	fc56                	sd	s5,56(sp)
    800009f4:	f85a                	sd	s6,48(sp)
    800009f6:	f45e                	sd	s7,40(sp)
    800009f8:	f062                	sd	s8,32(sp)
    800009fa:	ec66                	sd	s9,24(sp)
    800009fc:	e86a                	sd	s10,16(sp)
    800009fe:	e46e                	sd	s11,8(sp)
  
  REG32(uart, UART_REG_TXCTRL) = UART_TXEN;
    80000a00:	640007b7          	lui	a5,0x64000
    80000a04:	4705                	li	a4,1
    80000a06:	c798                	sw	a4,8(a5)
  uint32_t t_gap[4];

  uint32_t start[4];
  uint32_t end[4];

  kprintf("============= Naive ==================== \r\n");
    80000a08:	00000517          	auipc	a0,0x0
    80000a0c:	5d050513          	addi	a0,a0,1488 # 80000fd8 <a+0x8>
    80000a10:	38e000ef          	jal	ra,80000d9e <kprintf>
//================= Single thread =====================================
  t_start = read_csr(mcycle);
    80000a14:	b00025f3          	csrr	a1,mcycle
    80000a18:	6885                	lui	a7,0x1
    80000a1a:	2581                	sext.w	a1,a1
  for (int i = 0; i < SIZE; i = i + 1)
    80000a1c:	4081                	li	ra,0
    80000a1e:	00000417          	auipc	s0,0x0
    80000a22:	54240413          	addi	s0,s0,1346 # 80000f60 <mat_c>
    80000a26:	00000e97          	auipc	t4,0x0
    80000a2a:	542e8e93          	addi	t4,t4,1346 # 80000f68 <mat_b>
    80000a2e:	00000e17          	auipc	t3,0x0
    80000a32:	542e0e13          	addi	t3,t3,1346 # 80000f70 <mat_a>
    80000a36:	6905                	lui	s2,0x1
    80000a38:	fffbf4b7          	lui	s1,0xfffbf
    80000a3c:	73fd                	lui	t2,0xfffff
    for (int j = 0; j < SIZE; j = j + 1)
    80000a3e:	04000293          	li	t0,64
    80000a42:	00689f93          	slli	t6,a7,0x6
    80000a46:	9fc6                	add	t6,t6,a7
    80000a48:	41190833          	sub	a6,s2,a7
    80000a4c:	9fa6                	add	t6,t6,s1
    80000a4e:	4f01                	li	t5,0
      for (int k = 0; k < SIZE; k = k + 1)
    80000a50:	010f8333          	add	t1,t6,a6
    80000a54:	00788733          	add	a4,a7,t2
        mat_c[i*SIZE + j] += mat_a[i + k*SIZE] * mat_b[k*SIZE + j];
    80000a58:	000eb783          	ld	a5,0(t4)
    80000a5c:	000e3603          	ld	a2,0(t3)
    80000a60:	6014                	ld	a3,0(s0)
    80000a62:	97c2                	add	a5,a5,a6
    80000a64:	963a                	add	a2,a2,a4
    80000a66:	97ba                	add	a5,a5,a4
    80000a68:	00064503          	lbu	a0,0(a2)
    80000a6c:	0007c783          	lbu	a5,0(a5) # 64000000 <_prog_start-0x1c000000>
    80000a70:	969a                	add	a3,a3,t1
    80000a72:	0006c603          	lbu	a2,0(a3)
    80000a76:	02a787bb          	mulw	a5,a5,a0
      for (int k = 0; k < SIZE; k = k + 1)
    80000a7a:	04070713          	addi	a4,a4,64
        mat_c[i*SIZE + j] += mat_a[i + k*SIZE] * mat_b[k*SIZE + j];
    80000a7e:	9fb1                	addw	a5,a5,a2
    80000a80:	00f68023          	sb	a5,0(a3)
      for (int k = 0; k < SIZE; k = k + 1)
    80000a84:	fce89ae3          	bne	a7,a4,80000a58 <main+0x74>
    for (int j = 0; j < SIZE; j = j + 1)
    80000a88:	2f05                	addiw	t5,t5,1
    80000a8a:	0805                	addi	a6,a6,1
    80000a8c:	fc5f12e3          	bne	t5,t0,80000a50 <main+0x6c>
  for (int i = 0; i < SIZE; i = i + 1)
    80000a90:	2085                	addiw	ra,ra,1
    80000a92:	0885                	addi	a7,a7,1 # 1001 <_prog_start-0x7fffefff>
    80000a94:	fbe097e3          	bne	ra,t5,80000a42 <main+0x5e>
  t_end = read_csr(mcycle);
    80000a98:	b00027f3          	csrr	a5,mcycle
  t_gap[0] = t_end - t_start;

  kprintf("Time spent (single thread): %l (cycles)\r\n", t_gap[0]);
    80000a9c:	00000517          	auipc	a0,0x0
    80000aa0:	56c50513          	addi	a0,a0,1388 # 80001008 <a+0x38>
    80000aa4:	40b785bb          	subw	a1,a5,a1
    80000aa8:	2f6000ef          	jal	ra,80000d9e <kprintf>
  
  for (int i = 0; i < SIZE; i = i + 1)
    80000aac:	6505                	lui	a0,0x1
  kprintf("Time spent (single thread): %l (cycles)\r\n", t_gap[0]);
    80000aae:	04000613          	li	a2,64
    80000ab2:	4801                	li	a6,0
    80000ab4:	00000597          	auipc	a1,0x0
    80000ab8:	51c58593          	addi	a1,a1,1308 # 80000fd0 <a>
  for (int i = 0; i < SIZE; i = i + 1)
    80000abc:	04050513          	addi	a0,a0,64 # 1040 <_prog_start-0x7fffefc0>
  for (int i = 0; i < SIZE; i = i + 1)
    80000ac0:	87c2                	mv	a5,a6
    for (int j = 0; j < SIZE; j = j + 1)
      *a = mat_c[i*SIZE + j];
    80000ac2:	6018                	ld	a4,0(s0)
    80000ac4:	6194                	ld	a3,0(a1)
    80000ac6:	973e                	add	a4,a4,a5
    80000ac8:	00074703          	lbu	a4,0(a4)
    for (int j = 0; j < SIZE; j = j + 1)
    80000acc:	0785                	addi	a5,a5,1
      *a = mat_c[i*SIZE + j];
    80000ace:	00e68023          	sb	a4,0(a3)
    for (int j = 0; j < SIZE; j = j + 1)
    80000ad2:	fef618e3          	bne	a2,a5,80000ac2 <main+0xde>
  for (int i = 0; i < SIZE; i = i + 1)
    80000ad6:	04060613          	addi	a2,a2,64
    80000ada:	04080813          	addi	a6,a6,64
    80000ade:	fea611e3          	bne	a2,a0,80000ac0 <main+0xdc>

//================= Paralle ================================================
  t_start = read_csr(mcycle);
    80000ae2:	b0002473          	csrr	s0,mcycle
  REG32(clint, CLINT_MSIP1) = CLINT_MSIPEN;
    80000ae6:	020007b7          	lui	a5,0x2000
    80000aea:	4705                	li	a4,1
    80000aec:	c3d8                	sw	a4,4(a5)
  REG32(clint, CLINT_MSIP2) = CLINT_MSIPEN;
    80000aee:	c798                	sw	a4,8(a5)
  REG32(clint, CLINT_MSIP3) = CLINT_MSIPEN;
    80000af0:	c7d8                	sw	a4,12(a5)
  core0();
    80000af2:	c87ff0ef          	jal	ra,80000778 <core0>
  t_end = read_csr(mcycle);
    80000af6:	b00025f3          	csrr	a1,mcycle
  t_gap[1] = t_end - t_start;
  kprintf("Time spent (multi-threaded): %l (cycles)\r\n", t_gap[1]);
    80000afa:	00000517          	auipc	a0,0x0
    80000afe:	53e50513          	addi	a0,a0,1342 # 80001038 <a+0x68>
    80000b02:	9d81                	subw	a1,a1,s0
    80000b04:	29a000ef          	jal	ra,80000d9e <kprintf>

  kprintf("============= Strassen ==================== \r\n");
    80000b08:	00000517          	auipc	a0,0x0
    80000b0c:	56050513          	addi	a0,a0,1376 # 80001068 <a+0x98>
    80000b10:	28e000ef          	jal	ra,80000d9e <kprintf>
//================= Devide and Conquer (Single thread) =====================
  t_start = read_csr(mcycle);
    80000b14:	b0002473          	csrr	s0,mcycle
  s0_c0();
    80000b18:	f18ff0ef          	jal	ra,80000230 <s0_c0>
  s0_c1();
    80000b1c:	f88ff0ef          	jal	ra,800002a4 <s0_c1>
  s0_c2();
    80000b20:	809ff0ef          	jal	ra,80000328 <s0_c2>
  s0_c3();
    80000b24:	889ff0ef          	jal	ra,800003ac <s0_c3>
    80000b28:	00000917          	auipc	s2,0x0
    80000b2c:	46890913          	addi	s2,s2,1128 # 80000f90 <e>
  t_start = read_csr(mcycle);
    80000b30:	2401                	sext.w	s0,s0
  for (int i = 0; i < LENGTH; i++)
    80000b32:	00000997          	auipc	s3,0x0
    80000b36:	47e98993          	addi	s3,s3,1150 # 80000fb0 <ae>
    80000b3a:	00000a17          	auipc	s4,0x0
    80000b3e:	46ea0a13          	addi	s4,s4,1134 # 80000fa8 <bg>
  s0_c3();
    80000b42:	4781                	li	a5,0
  for (int i = 0; i < LENGTH; i++)
    80000b44:	40000593          	li	a1,1024
        e[i] = ae[i] + bg[i];
    80000b48:	0009b683          	ld	a3,0(s3)
    80000b4c:	000a3603          	ld	a2,0(s4)
    80000b50:	00093703          	ld	a4,0(s2)
    80000b54:	96be                	add	a3,a3,a5
    80000b56:	963e                	add	a2,a2,a5
    80000b58:	0006c683          	lbu	a3,0(a3)
    80000b5c:	00064603          	lbu	a2,0(a2)
    80000b60:	973e                	add	a4,a4,a5
  for (int i = 0; i < LENGTH; i++)
    80000b62:	0785                	addi	a5,a5,1 # 2000001 <_prog_start-0x7dffffff>
        e[i] = ae[i] + bg[i];
    80000b64:	9eb1                	addw	a3,a3,a2
    80000b66:	00d70023          	sb	a3,0(a4)
  for (int i = 0; i < LENGTH; i++)
    80000b6a:	fcb79fe3          	bne	a5,a1,80000b48 <main+0x164>
    80000b6e:	4781                	li	a5,0
    80000b70:	00000517          	auipc	a0,0x0
    80000b74:	41050513          	addi	a0,a0,1040 # 80000f80 <g>
    80000b78:	00000a97          	auipc	s5,0x0
    80000b7c:	428a8a93          	addi	s5,s5,1064 # 80000fa0 <ce>
    80000b80:	00000497          	auipc	s1,0x0
    80000b84:	41848493          	addi	s1,s1,1048 # 80000f98 <dg>
  for (int i = 0; i < LENGTH; i++)
    80000b88:	40000593          	li	a1,1024
        g[i] = ce[i] + dg[i];
    80000b8c:	000ab683          	ld	a3,0(s5)
    80000b90:	6090                	ld	a2,0(s1)
    80000b92:	6118                	ld	a4,0(a0)
    80000b94:	96be                	add	a3,a3,a5
    80000b96:	963e                	add	a2,a2,a5
    80000b98:	0006c683          	lbu	a3,0(a3)
    80000b9c:	00064603          	lbu	a2,0(a2)
    80000ba0:	973e                	add	a4,a4,a5
  for (int i = 0; i < LENGTH; i++)
    80000ba2:	0785                	addi	a5,a5,1
        g[i] = ce[i] + dg[i];
    80000ba4:	9eb1                	addw	a3,a3,a2
    80000ba6:	00d70023          	sb	a3,0(a4)
  for (int i = 0; i < LENGTH; i++)
    80000baa:	feb791e3          	bne	a5,a1,80000b8c <main+0x1a8>
  s1_c0();
  s1_c2();
  s2_c0();
    80000bae:	90bff0ef          	jal	ra,800004b8 <s2_c0>
  s2_c1();
    80000bb2:	995ff0ef          	jal	ra,80000546 <s2_c1>
  s2_c2();
    80000bb6:	a1fff0ef          	jal	ra,800005d4 <s2_c2>
  s2_c3();
    80000bba:	aa9ff0ef          	jal	ra,80000662 <s2_c3>
  for (int i = 0; i < LENGTH; i++)
    80000bbe:	00000b17          	auipc	s6,0x0
    80000bc2:	3cab0b13          	addi	s6,s6,970 # 80000f88 <f>
  s2_c3();
    80000bc6:	4781                	li	a5,0
  for (int i = 0; i < LENGTH; i++)
    80000bc8:	40000593          	li	a1,1024
        f[i] = ae[i] + bg[i];
    80000bcc:	0009b683          	ld	a3,0(s3)
    80000bd0:	000a3603          	ld	a2,0(s4)
    80000bd4:	000b3703          	ld	a4,0(s6)
    80000bd8:	96be                	add	a3,a3,a5
    80000bda:	963e                	add	a2,a2,a5
    80000bdc:	0006c683          	lbu	a3,0(a3)
    80000be0:	00064603          	lbu	a2,0(a2)
    80000be4:	973e                	add	a4,a4,a5
  for (int i = 0; i < LENGTH; i++)
    80000be6:	0785                	addi	a5,a5,1
        f[i] = ae[i] + bg[i];
    80000be8:	9eb1                	addw	a3,a3,a2
    80000bea:	00d70023          	sb	a3,0(a4)
  for (int i = 0; i < LENGTH; i++)
    80000bee:	fcb79fe3          	bne	a5,a1,80000bcc <main+0x1e8>
    80000bf2:	4781                	li	a5,0
    80000bf4:	00000517          	auipc	a0,0x0
    80000bf8:	38450513          	addi	a0,a0,900 # 80000f78 <h>
  for (int i = 0; i < LENGTH; i++)
    80000bfc:	40000593          	li	a1,1024
        h[i] = ce[i] + dg[i];
    80000c00:	000ab683          	ld	a3,0(s5)
    80000c04:	6090                	ld	a2,0(s1)
    80000c06:	6118                	ld	a4,0(a0)
    80000c08:	96be                	add	a3,a3,a5
    80000c0a:	963e                	add	a2,a2,a5
    80000c0c:	0006c683          	lbu	a3,0(a3)
    80000c10:	00064603          	lbu	a2,0(a2)
    80000c14:	973e                	add	a4,a4,a5
  for (int i = 0; i < LENGTH; i++)
    80000c16:	0785                	addi	a5,a5,1
        h[i] = ce[i] + dg[i];
    80000c18:	9eb1                	addw	a3,a3,a2
    80000c1a:	00d70023          	sb	a3,0(a4)
  for (int i = 0; i < LENGTH; i++)
    80000c1e:	feb791e3          	bne	a5,a1,80000c00 <main+0x21c>
  s3_c0();
  s3_c2();
  t_end = read_csr(mcycle);
    80000c22:	b00025f3          	csrr	a1,mcycle
  t_gap[2] = t_end - t_start;
  kprintf("Time spent (single thread): %l (cycles)\r\n", t_gap[2]);
    80000c26:	00000517          	auipc	a0,0x0
    80000c2a:	3e250513          	addi	a0,a0,994 # 80001008 <a+0x38>
    80000c2e:	9d81                	subw	a1,a1,s0
    80000c30:	16e000ef          	jal	ra,80000d9e <kprintf>

//================= Devide and Conquer =====================================
    t_start = read_csr(mcycle);
    80000c34:	b0002473          	csrr	s0,mcycle
    start[0] = t_start;
    // Stage 0
    REG32(clint, CLINT_MSIP1) = CLINT_MSIPEN;
    80000c38:	020004b7          	lui	s1,0x2000
    80000c3c:	4c05                	li	s8,1
    80000c3e:	0184a223          	sw	s8,4(s1) # 2000004 <_prog_start-0x7dfffffc>
    REG32(clint, CLINT_MSIP2) = CLINT_MSIPEN;
    80000c42:	0184a423          	sw	s8,8(s1)
    REG32(clint, CLINT_MSIP3) = CLINT_MSIPEN;
    80000c46:	0184a623          	sw	s8,12(s1)
    s0_c0();
    80000c4a:	de6ff0ef          	jal	ra,80000230 <s0_c0>
    t_start = read_csr(mcycle);
    80000c4e:	2401                	sext.w	s0,s0
    end[0] = read_csr(mcycle);
    80000c50:	b0002bf3          	csrr	s7,mcycle
    80000c54:	2b81                	sext.w	s7,s7

    // Stage 1
    start[1] = read_csr(mcycle);
    80000c56:	b0002af3          	csrr	s5,mcycle
    REG32(clint, CLINT_MSIP2) = CLINT_MSIPEN;
    80000c5a:	4781                	li	a5,0
    start[1] = read_csr(mcycle);
    80000c5c:	2a81                	sext.w	s5,s5
    REG32(clint, CLINT_MSIP2) = CLINT_MSIPEN;
    80000c5e:	0184a423          	sw	s8,8(s1)
  for (int i = 0; i < LENGTH; i++)
    80000c62:	40000593          	li	a1,1024
        e[i] = ae[i] + bg[i];
    80000c66:	0009b683          	ld	a3,0(s3)
    80000c6a:	000a3603          	ld	a2,0(s4)
    80000c6e:	00093703          	ld	a4,0(s2)
    80000c72:	96be                	add	a3,a3,a5
    80000c74:	963e                	add	a2,a2,a5
    80000c76:	0006c683          	lbu	a3,0(a3)
    80000c7a:	00064603          	lbu	a2,0(a2)
    80000c7e:	973e                	add	a4,a4,a5
  for (int i = 0; i < LENGTH; i++)
    80000c80:	0785                	addi	a5,a5,1
        e[i] = ae[i] + bg[i];
    80000c82:	9eb1                	addw	a3,a3,a2
    80000c84:	00d70023          	sb	a3,0(a4)
  for (int i = 0; i < LENGTH; i++)
    80000c88:	fcb79fe3          	bne	a5,a1,80000c66 <main+0x282>
    s1_c0();
    end[1] = read_csr(mcycle);
    80000c8c:	b0002d73          	csrr	s10,mcycle
    80000c90:	2d01                	sext.w	s10,s10

    // Stage 2
    start[2] = read_csr(mcycle);
    80000c92:	b0002cf3          	csrr	s9,mcycle
    REG32(clint, CLINT_MSIP1) = CLINT_MSIPEN;
    80000c96:	020004b7          	lui	s1,0x2000
    80000c9a:	4905                	li	s2,1
    80000c9c:	0124a223          	sw	s2,4(s1) # 2000004 <_prog_start-0x7dfffffc>
    REG32(clint, CLINT_MSIP2) = CLINT_MSIPEN;
    80000ca0:	0124a423          	sw	s2,8(s1)
    REG32(clint, CLINT_MSIP3) = CLINT_MSIPEN;
    80000ca4:	0124a623          	sw	s2,12(s1)
    s2_c0();
    80000ca8:	811ff0ef          	jal	ra,800004b8 <s2_c0>
    start[2] = read_csr(mcycle);
    80000cac:	2c81                	sext.w	s9,s9
    end[2] = read_csr(mcycle);
    80000cae:	b0002df3          	csrr	s11,mcycle
    80000cb2:	2d81                	sext.w	s11,s11

    // Stage 3
    start[3] = read_csr(mcycle);
    80000cb4:	b0002c73          	csrr	s8,mcycle
    REG32(clint, CLINT_MSIP2) = CLINT_MSIPEN;
    80000cb8:	4781                	li	a5,0
    start[3] = read_csr(mcycle);
    80000cba:	2c01                	sext.w	s8,s8
    REG32(clint, CLINT_MSIP2) = CLINT_MSIPEN;
    80000cbc:	0124a423          	sw	s2,8(s1)
  for (int i = 0; i < LENGTH; i++)
    80000cc0:	40000593          	li	a1,1024
        f[i] = ae[i] + bg[i];
    80000cc4:	0009b683          	ld	a3,0(s3)
    80000cc8:	000a3603          	ld	a2,0(s4)
    80000ccc:	000b3703          	ld	a4,0(s6)
    80000cd0:	96be                	add	a3,a3,a5
    80000cd2:	963e                	add	a2,a2,a5
    80000cd4:	0006c683          	lbu	a3,0(a3)
    80000cd8:	00064603          	lbu	a2,0(a2)
    80000cdc:	973e                	add	a4,a4,a5
  for (int i = 0; i < LENGTH; i++)
    80000cde:	0785                	addi	a5,a5,1
        f[i] = ae[i] + bg[i];
    80000ce0:	9eb1                	addw	a3,a3,a2
    80000ce2:	00d70023          	sb	a3,0(a4)
  for (int i = 0; i < LENGTH; i++)
    80000ce6:	fcb79fe3          	bne	a5,a1,80000cc4 <main+0x2e0>
    s3_c0();
    end[3] = read_csr(mcycle);
    80000cea:	b00024f3          	csrr	s1,mcycle
    t_end = read_csr(mcycle);
    80000cee:	b00025f3          	csrr	a1,mcycle
    t_gap[3] = t_end - t_start;

    kprintf("Time spent (multi-threaded): %l (cycles)\r\n", t_gap[3]);
    80000cf2:	00000517          	auipc	a0,0x0
    80000cf6:	34650513          	addi	a0,a0,838 # 80001038 <a+0x68>
    80000cfa:	9d81                	subw	a1,a1,s0
    80000cfc:	0a2000ef          	jal	ra,80000d9e <kprintf>
    kprintf("Stage 0: %l (cycles)\r\n", end[0] - start[0]);
    80000d00:	408b85bb          	subw	a1,s7,s0
    80000d04:	00000517          	auipc	a0,0x0
    80000d08:	39450513          	addi	a0,a0,916 # 80001098 <a+0xc8>
    80000d0c:	092000ef          	jal	ra,80000d9e <kprintf>
    kprintf("Stage 1: %l (cycles)\r\n", end[1] - start[1]);
    80000d10:	415d05bb          	subw	a1,s10,s5
    80000d14:	00000517          	auipc	a0,0x0
    80000d18:	39c50513          	addi	a0,a0,924 # 800010b0 <a+0xe0>
    80000d1c:	082000ef          	jal	ra,80000d9e <kprintf>
    kprintf("Stage 2: %l (cycles)\r\n", end[2] - start[2]);
    80000d20:	419d85bb          	subw	a1,s11,s9
    80000d24:	00000517          	auipc	a0,0x0
    80000d28:	3a450513          	addi	a0,a0,932 # 800010c8 <a+0xf8>
    80000d2c:	072000ef          	jal	ra,80000d9e <kprintf>
    kprintf("Stage 3: %l (cycles)\r\n", end[3] - start[3]);
    80000d30:	418485bb          	subw	a1,s1,s8
    80000d34:	00000517          	auipc	a0,0x0
    80000d38:	3ac50513          	addi	a0,a0,940 # 800010e0 <a+0x110>
    80000d3c:	062000ef          	jal	ra,80000d9e <kprintf>

  return 0;
}
    80000d40:	70a6                	ld	ra,104(sp)
    80000d42:	7406                	ld	s0,96(sp)
    80000d44:	64e6                	ld	s1,88(sp)
    80000d46:	6946                	ld	s2,80(sp)
    80000d48:	69a6                	ld	s3,72(sp)
    80000d4a:	6a06                	ld	s4,64(sp)
    80000d4c:	7ae2                	ld	s5,56(sp)
    80000d4e:	7b42                	ld	s6,48(sp)
    80000d50:	7ba2                	ld	s7,40(sp)
    80000d52:	7c02                	ld	s8,32(sp)
    80000d54:	6ce2                	ld	s9,24(sp)
    80000d56:	6d42                	ld	s10,16(sp)
    80000d58:	6da2                	ld	s11,8(sp)
    80000d5a:	4501                	li	a0,0
    80000d5c:	6165                	addi	sp,sp,112
    80000d5e:	8082                	ret

0000000080000d60 <kputs>:
#include "kprintf.h"

static inline void _kputs(const char *s)
{
	char c;
	for (; (c = *s) != '\0'; s++)
    80000d60:	00054683          	lbu	a3,0(a0)
    80000d64:	ce81                	beqz	a3,80000d7c <kputs+0x1c>
{
	volatile uint32_t *tx = &REG32(uart, UART_REG_TXFIFO);
#ifdef __riscv_atomic
	int32_t r;
	do {
		__asm__ __volatile__ (
    80000d66:	64000737          	lui	a4,0x64000
    80000d6a:	40d727af          	amoor.w	a5,a3,(a4)
    80000d6e:	2781                	sext.w	a5,a5
			"amoor.w %0, %2, %1\n"
			: "=r" (r), "+A" (*tx)
			: "r" (c));
	} while (r < 0);
    80000d70:	fe07cde3          	bltz	a5,80000d6a <kputs+0xa>
    80000d74:	00154683          	lbu	a3,1(a0)
    80000d78:	0505                	addi	a0,a0,1
    80000d7a:	fae5                	bnez	a3,80000d6a <kputs+0xa>
		__asm__ __volatile__ (
    80000d7c:	64000737          	lui	a4,0x64000
    80000d80:	46b5                	li	a3,13
    80000d82:	40d727af          	amoor.w	a5,a3,(a4)
    80000d86:	2781                	sext.w	a5,a5
	} while (r < 0);
    80000d88:	fe07cde3          	bltz	a5,80000d82 <kputs+0x22>
		__asm__ __volatile__ (
    80000d8c:	64000737          	lui	a4,0x64000
    80000d90:	46a9                	li	a3,10
    80000d92:	40d727af          	amoor.w	a5,a3,(a4)
    80000d96:	2781                	sext.w	a5,a5
	} while (r < 0);
    80000d98:	fe07cde3          	bltz	a5,80000d92 <kputs+0x32>
void kputs(const char *s)
{
	_kputs(s);
	kputc('\r');
	kputc('\n');
}
    80000d9c:	8082                	ret

0000000080000d9e <kprintf>:

void kprintf(const char *fmt, ...)
{
    80000d9e:	7175                	addi	sp,sp,-144

	va_start(vl, fmt);
	is_format = false;
	is_long = false;
	is_char = false;
	while ((c = *fmt++) != '\0') {
    80000da0:	00054303          	lbu	t1,0(a0)
{
    80000da4:	fcbe                	sd	a5,120(sp)
	va_start(vl, fmt);
    80000da6:	08bc                	addi	a5,sp,88
{
    80000da8:	ecae                	sd	a1,88(sp)
    80000daa:	f0b2                	sd	a2,96(sp)
    80000dac:	f4b6                	sd	a3,104(sp)
    80000dae:	f8ba                	sd	a4,112(sp)
    80000db0:	e142                	sd	a6,128(sp)
    80000db2:	e546                	sd	a7,136(sp)
	va_start(vl, fmt);
    80000db4:	e43e                	sd	a5,8(sp)
	while ((c = *fmt++) != '\0') {
    80000db6:	04030e63          	beqz	t1,80000e12 <kprintf+0x74>
    80000dba:	0505                	addi	a0,a0,1
    80000dbc:	4681                	li	a3,0
    80000dbe:	4701                	li	a4,0
				break;
			}
			is_format = false;
			is_long = false;
			is_char = false;
		} else if (c == '%') {
    80000dc0:	02500e13          	li	t3,37
		__asm__ __volatile__ (
    80000dc4:	640005b7          	lui	a1,0x64000
			switch (c) {
    80000dc8:	48d5                	li	a7,21
    80000dca:	00000817          	auipc	a6,0x0
    80000dce:	32e80813          	addi	a6,a6,814 # 800010f8 <a+0x128>
		if (is_format) {
    80000dd2:	cf79                	beqz	a4,80000eb0 <kprintf+0x112>
			switch (c) {
    80000dd4:	f9d3031b          	addiw	t1,t1,-99
    80000dd8:	0ff37313          	zext.b	t1,t1
    80000ddc:	0268e463          	bltu	a7,t1,80000e04 <kprintf+0x66>
    80000de0:	00231793          	slli	a5,t1,0x2
    80000de4:	97c2                	add	a5,a5,a6
    80000de6:	439c                	lw	a5,0(a5)
    80000de8:	97c2                	add	a5,a5,a6
    80000dea:	8782                	jr	a5
				kputc(va_arg(vl, int));
    80000dec:	67a2                	ld	a5,8(sp)
    80000dee:	64000737          	lui	a4,0x64000
    80000df2:	0007c683          	lbu	a3,0(a5)
    80000df6:	07a1                	addi	a5,a5,8
    80000df8:	e43e                	sd	a5,8(sp)
    80000dfa:	40d727af          	amoor.w	a5,a3,(a4)
    80000dfe:	2781                	sext.w	a5,a5
	} while (r < 0);
    80000e00:	fe07cde3          	bltz	a5,80000dfa <kprintf+0x5c>
			is_char = false;
    80000e04:	4681                	li	a3,0
			is_format = false;
    80000e06:	4701                	li	a4,0
	while ((c = *fmt++) != '\0') {
    80000e08:	00054303          	lbu	t1,0(a0)
    80000e0c:	0505                	addi	a0,a0,1
    80000e0e:	fc0312e3          	bnez	t1,80000dd2 <kprintf+0x34>
		} else {
			kputc(c);
		}
	}
	va_end(vl);
}
    80000e12:	6149                	addi	sp,sp,144
    80000e14:	8082                	ret
					n = va_arg(vl, unsigned int);
    80000e16:	67a2                	ld	a5,8(sp)
					i = is_char ? 4 : (sizeof(unsigned int) << 3) - 4;
    80000e18:	4611                	li	a2,4
					n = va_arg(vl, unsigned int);
    80000e1a:	00878713          	addi	a4,a5,8
    80000e1e:	e43a                	sd	a4,8(sp)
    80000e20:	0007ef83          	lwu	t6,0(a5)
					i = is_char ? 4 : (sizeof(unsigned int) << 3) - 4;
    80000e24:	cef1                	beqz	a3,80000f00 <kprintf+0x162>
					kputc(d < 10 ? '0' + d : 'a' + d - 10);
    80000e26:	4f25                	li	t5,9
		__asm__ __volatile__ (
    80000e28:	64000737          	lui	a4,0x64000
				for (; i >= 0; i -= 4) {
    80000e2c:	5ef1                	li	t4,-4
					d = (n >> i) & 0xF;
    80000e2e:	00cfd7b3          	srl	a5,t6,a2
					kputc(d < 10 ? '0' + d : 'a' + d - 10);
    80000e32:	00f7f313          	andi	t1,a5,15
    80000e36:	05730693          	addi	a3,t1,87
    80000e3a:	006f6463          	bltu	t5,t1,80000e42 <kprintf+0xa4>
    80000e3e:	03030693          	addi	a3,t1,48
    80000e42:	40d727af          	amoor.w	a5,a3,(a4)
    80000e46:	2781                	sext.w	a5,a5
	} while (r < 0);
    80000e48:	fe07cde3          	bltz	a5,80000e42 <kprintf+0xa4>
				for (; i >= 0; i -= 4) {
    80000e4c:	1671                	addi	a2,a2,-4
    80000e4e:	ffd610e3          	bne	a2,t4,80000e2e <kprintf+0x90>
    80000e52:	bf4d                	j	80000e04 <kprintf+0x66>
				_kputs(va_arg(vl, const char *));
    80000e54:	67a2                	ld	a5,8(sp)
    80000e56:	6390                	ld	a2,0(a5)
    80000e58:	07a1                	addi	a5,a5,8
    80000e5a:	e43e                	sd	a5,8(sp)
	for (; (c = *s) != '\0'; s++)
    80000e5c:	00064683          	lbu	a3,0(a2)
    80000e60:	d2d5                	beqz	a3,80000e04 <kprintf+0x66>
		__asm__ __volatile__ (
    80000e62:	64000737          	lui	a4,0x64000
    80000e66:	40d727af          	amoor.w	a5,a3,(a4)
    80000e6a:	2781                	sext.w	a5,a5
	} while (r < 0);
    80000e6c:	fe07cde3          	bltz	a5,80000e66 <kprintf+0xc8>
    80000e70:	00164683          	lbu	a3,1(a2)
    80000e74:	0605                	addi	a2,a2,1
    80000e76:	fae5                	bnez	a3,80000e66 <kprintf+0xc8>
    80000e78:	b771                	j	80000e04 <kprintf+0x66>
				n = va_arg(vl, unsigned long);
    80000e7a:	67a2                	ld	a5,8(sp)
				for (int i = 0; i < 64; i ++) c[i] = 0;
    80000e7c:	e802                	sd	zero,16(sp)
    80000e7e:	ec02                	sd	zero,24(sp)
				n = va_arg(vl, unsigned long);
    80000e80:	0007b303          	ld	t1,0(a5)
    80000e84:	07a1                	addi	a5,a5,8
    80000e86:	e43e                	sd	a5,8(sp)
				for (int i = 0; i < 64; i ++) c[i] = 0;
    80000e88:	f002                	sd	zero,32(sp)
    80000e8a:	f402                	sd	zero,40(sp)
    80000e8c:	f802                	sd	zero,48(sp)
    80000e8e:	fc02                	sd	zero,56(sp)
    80000e90:	e082                	sd	zero,64(sp)
    80000e92:	e482                	sd	zero,72(sp)
				if (n == 0) {
    80000e94:	02031d63          	bnez	t1,80000ece <kprintf+0x130>
		__asm__ __volatile__ (
    80000e98:	64000737          	lui	a4,0x64000
    80000e9c:	03000693          	li	a3,48
    80000ea0:	40d727af          	amoor.w	a5,a3,(a4)
    80000ea4:	2781                	sext.w	a5,a5
	} while (r < 0);
    80000ea6:	fe07cde3          	bltz	a5,80000ea0 <kprintf+0x102>
    80000eaa:	bfa9                	j	80000e04 <kprintf+0x66>
				is_char = true;
    80000eac:	86ba                	mv	a3,a4
    80000eae:	bfa9                	j	80000e08 <kprintf+0x6a>
		} else if (c == '%') {
    80000eb0:	01c31463          	bne	t1,t3,80000eb8 <kprintf+0x11a>
			is_format = true;
    80000eb4:	4705                	li	a4,1
    80000eb6:	bf89                	j	80000e08 <kprintf+0x6a>
		__asm__ __volatile__ (
    80000eb8:	4065a7af          	amoor.w	a5,t1,(a1)
    80000ebc:	2781                	sext.w	a5,a5
	} while (r < 0);
    80000ebe:	f407d5e3          	bgez	a5,80000e08 <kprintf+0x6a>
		__asm__ __volatile__ (
    80000ec2:	4065a7af          	amoor.w	a5,t1,(a1)
    80000ec6:	2781                	sext.w	a5,a5
	} while (r < 0);
    80000ec8:	fe07c8e3          	bltz	a5,80000eb8 <kprintf+0x11a>
    80000ecc:	bf35                	j	80000e08 <kprintf+0x6a>
    80000ece:	0810                	addi	a2,sp,16
					c[0] = '0' + (n%10);
    80000ed0:	4ea9                	li	t4,10
				for (;n != 0;) {
    80000ed2:	4f25                	li	t5,9
					for (int i = 63; i > 0; i--) c[i] = c[i-1];
    80000ed4:	04e10793          	addi	a5,sp,78
    80000ed8:	0007c683          	lbu	a3,0(a5)
    80000edc:	873e                	mv	a4,a5
    80000ede:	17fd                	addi	a5,a5,-1
    80000ee0:	00d78123          	sb	a3,2(a5)
    80000ee4:	fec71ae3          	bne	a4,a2,80000ed8 <kprintf+0x13a>
					c[0] = '0' + (n%10);
    80000ee8:	03d376b3          	remu	a3,t1,t4
    80000eec:	03068693          	addi	a3,a3,48
    80000ef0:	00d10823          	sb	a3,16(sp)
					n = n / 10;
    80000ef4:	03d357b3          	divu	a5,t1,t4
				for (;n != 0;) {
    80000ef8:	006f7663          	bgeu	t5,t1,80000f04 <kprintf+0x166>
					n = n / 10;
    80000efc:	833e                	mv	t1,a5
    80000efe:	bfd9                	j	80000ed4 <kprintf+0x136>
					i = is_char ? 4 : (sizeof(unsigned int) << 3) - 4;
    80000f00:	4671                	li	a2,28
    80000f02:	b715                	j	80000e26 <kprintf+0x88>
    80000f04:	01110613          	addi	a2,sp,17
		__asm__ __volatile__ (
    80000f08:	64000737          	lui	a4,0x64000
    80000f0c:	40d727af          	amoor.w	a5,a3,(a4)
    80000f10:	2781                	sext.w	a5,a5
	} while (r < 0);
    80000f12:	fe07cde3          	bltz	a5,80000f0c <kprintf+0x16e>
				for (int i = 0; c[i] != 0; i++) kputc(c[i]);
    80000f16:	00064683          	lbu	a3,0(a2)
    80000f1a:	0605                	addi	a2,a2,1
    80000f1c:	fae5                	bnez	a3,80000f0c <kprintf+0x16e>
    80000f1e:	b5dd                	j	80000e04 <kprintf+0x66>
	...
