
/home/binhkieudo/Workspace/NewFramework/framework/sw/matrix_mul/build/main.elf:     file format elf64-littleriscv


Disassembly of section .text:

0000000080000000 <_prog_start>:
  .option norvc
  .globl _prog_start
_prog_start:
    # li s0, MEMORY_MEM_ADDR
    # jr s0
  csrw mie, zero
    80000000:	30401073          	csrw	mie,zero
  csrr a0, mhartid
    80000004:	f1402573          	csrr	a0,mhartid
  beq a0, zero, _hart0
    80000008:	02050063          	beqz	a0,80000028 <_hart0>
  li t0, 1
    8000000c:	00100293          	li	t0,1
  beq a0, t0, _hart1
    80000010:	02550663          	beq	a0,t0,8000003c <_hart1>
  li t0, 2
    80000014:	00200293          	li	t0,2
  beq a0, t0, _hart2
    80000018:	0a550663          	beq	a0,t0,800000c4 <_hart2>
  li t0, 3
    8000001c:	00300293          	li	t0,3
  beq a0, t0, _hart3
    80000020:	18550263          	beq	a0,t0,800001a4 <_hart3>
  j _loopback
    80000024:	2080006f          	j	8000022c <_loopback>

0000000080000028 <_hart0>:
_hart0:
  csrrw t0, mcycle, zero
    80000028:	b00012f3          	csrrw	t0,mcycle,zero
  # csrw  instret, zero
  li sp, 0x40000ff0
    8000002c:	40001137          	lui	sp,0x40001
    80000030:	ff01011b          	addiw	sp,sp,-16 # 40000ff0 <_prog_start-0x3ffff010>
  call main
    80000034:	1b1000ef          	jal	ra,800009e4 <main>
  wfi
    80000038:	10500073          	wfi

000000008000003c <_hart1>:
_hart1:
  // Parallel
  wfi
    8000003c:	10500073          	wfi
  csrw mie, zero
    80000040:	30401073          	csrw	mie,zero
  li s1, 0
    80000044:	00000493          	li	s1,0
  li t0, (CLINT_CTRL_ADDR + CLINT_MSIP1)
    80000048:	020002b7          	lui	t0,0x2000
    8000004c:	0042829b          	addiw	t0,t0,4 # 2000004 <_prog_start-0x7dfffffc>
  amoswap.w t1, s1, (t0)
    80000050:	0892a32f          	amoswap.w	t1,s1,(t0)
  li sp, 0x40001ff0
    80000054:	40002137          	lui	sp,0x40002
    80000058:	ff01011b          	addiw	sp,sp,-16 # 40001ff0 <_prog_start-0x3fffe010>
  call core1
    8000005c:	7b4000ef          	jal	ra,80000810 <core1>
  li s1, 1
    80000060:	00100493          	li	s1,1
  csrw mie, s1
    80000064:	30449073          	csrw	mie,s1
  wfi
    80000068:	10500073          	wfi
  // Stage 0
  csrw mie, zero
    8000006c:	30401073          	csrw	mie,zero
  li s1, 0
    80000070:	00000493          	li	s1,0
  li t0, (CLINT_CTRL_ADDR + CLINT_MSIP1)
    80000074:	020002b7          	lui	t0,0x2000
    80000078:	0042829b          	addiw	t0,t0,4 # 2000004 <_prog_start-0x7dfffffc>
  amoswap.w t1, s1, (t0)
    8000007c:	0892a32f          	amoswap.w	t1,s1,(t0)
  li sp, 0x40001ff0
    80000080:	40002137          	lui	sp,0x40002
    80000084:	ff01011b          	addiw	sp,sp,-16 # 40001ff0 <_prog_start-0x3fffe010>
  call s0_c1
    80000088:	21c000ef          	jal	ra,800002a4 <s0_c1>
  li s1, 1
    8000008c:	00100493          	li	s1,1
  csrw mie, s1
    80000090:	30449073          	csrw	mie,s1
  wfi
    80000094:	10500073          	wfi
  // Stage 2
  csrw mie, zero
    80000098:	30401073          	csrw	mie,zero
  li s1, 0
    8000009c:	00000493          	li	s1,0
  li t0, (CLINT_CTRL_ADDR + CLINT_MSIP1)
    800000a0:	020002b7          	lui	t0,0x2000
    800000a4:	0042829b          	addiw	t0,t0,4 # 2000004 <_prog_start-0x7dfffffc>
  amoswap.w t1, s1, (t0)
    800000a8:	0892a32f          	amoswap.w	t1,s1,(t0)
  li sp, 0x40001ff0
    800000ac:	40002137          	lui	sp,0x40002
    800000b0:	ff01011b          	addiw	sp,sp,-16 # 40001ff0 <_prog_start-0x3fffe010>
  call s2_c1
    800000b4:	492000ef          	jal	ra,80000546 <s2_c1>
  li s1, 1
    800000b8:	00100493          	li	s1,1
  csrw mie, s1
    800000bc:	30449073          	csrw	mie,s1
  j _hart1
    800000c0:	f7dff06f          	j	8000003c <_hart1>

00000000800000c4 <_hart2>:
_hart2:
  // Parallel
  wfi
    800000c4:	10500073          	wfi
  csrw mie, zero
    800000c8:	30401073          	csrw	mie,zero
  li s1, 0
    800000cc:	00000493          	li	s1,0
  li t0, (CLINT_CTRL_ADDR + CLINT_MSIP2)
    800000d0:	020002b7          	lui	t0,0x2000
    800000d4:	0082829b          	addiw	t0,t0,8 # 2000008 <_prog_start-0x7dfffff8>
  amoswap.w t1, s1, (t0)
    800000d8:	0892a32f          	amoswap.w	t1,s1,(t0)
  li sp, 0x40002ff0
    800000dc:	40003137          	lui	sp,0x40003
    800000e0:	ff01011b          	addiw	sp,sp,-16 # 40002ff0 <_prog_start-0x3fffd010>
  call core1
    800000e4:	72c000ef          	jal	ra,80000810 <core1>
  li s1, 1
    800000e8:	00100493          	li	s1,1
  csrw mie, s1
    800000ec:	30449073          	csrw	mie,s1
  wfi
    800000f0:	10500073          	wfi
  // Stage 0
  csrw mie, zero
    800000f4:	30401073          	csrw	mie,zero
  li s1, 0
    800000f8:	00000493          	li	s1,0
  li t0, (CLINT_CTRL_ADDR + CLINT_MSIP2)
    800000fc:	020002b7          	lui	t0,0x2000
    80000100:	0082829b          	addiw	t0,t0,8 # 2000008 <_prog_start-0x7dfffff8>
  amoswap.w t1, s1, (t0)
    80000104:	0892a32f          	amoswap.w	t1,s1,(t0)
  li sp, 0x40002ff0
    80000108:	40003137          	lui	sp,0x40003
    8000010c:	ff01011b          	addiw	sp,sp,-16 # 40002ff0 <_prog_start-0x3fffd010>
  call s0_c2
    80000110:	218000ef          	jal	ra,80000328 <s0_c2>
  li s1, 1
    80000114:	00100493          	li	s1,1
  csrw mie, s1
    80000118:	30449073          	csrw	mie,s1
  wfi
    8000011c:	10500073          	wfi
  // Stage 1
  csrw mie, zero
    80000120:	30401073          	csrw	mie,zero
  li s1, 0
    80000124:	00000493          	li	s1,0
  li t0, (CLINT_CTRL_ADDR + CLINT_MSIP2)
    80000128:	020002b7          	lui	t0,0x2000
    8000012c:	0082829b          	addiw	t0,t0,8 # 2000008 <_prog_start-0x7dfffff8>
  amoswap.w t1, s1, (t0)
    80000130:	0892a32f          	amoswap.w	t1,s1,(t0)
  li sp, 0x40002ff0
    80000134:	40003137          	lui	sp,0x40003
    80000138:	ff01011b          	addiw	sp,sp,-16 # 40002ff0 <_prog_start-0x3fffd010>
  call s1_c2
    8000013c:	338000ef          	jal	ra,80000474 <s1_c2>
  li s1, 1
    80000140:	00100493          	li	s1,1
  csrw mie, s1
    80000144:	30449073          	csrw	mie,s1
  wfi
    80000148:	10500073          	wfi
  // Stage 2
  csrw mie, zero
    8000014c:	30401073          	csrw	mie,zero
  li s1, 0
    80000150:	00000493          	li	s1,0
  li t0, (CLINT_CTRL_ADDR + CLINT_MSIP2)
    80000154:	020002b7          	lui	t0,0x2000
    80000158:	0082829b          	addiw	t0,t0,8 # 2000008 <_prog_start-0x7dfffff8>
  amoswap.w t1, s1, (t0)
    8000015c:	0892a32f          	amoswap.w	t1,s1,(t0)
  li sp, 0x40002ff0
    80000160:	40003137          	lui	sp,0x40003
    80000164:	ff01011b          	addiw	sp,sp,-16 # 40002ff0 <_prog_start-0x3fffd010>
  call s2_c2
    80000168:	46c000ef          	jal	ra,800005d4 <s2_c2>
  li s1, 1
    8000016c:	00100493          	li	s1,1
  csrw mie, s1
    80000170:	30449073          	csrw	mie,s1
  wfi
    80000174:	10500073          	wfi
  // Stage 3
  csrw mie, zero
    80000178:	30401073          	csrw	mie,zero
  li s1, 0
    8000017c:	00000493          	li	s1,0
  li t0, (CLINT_CTRL_ADDR + CLINT_MSIP2)
    80000180:	020002b7          	lui	t0,0x2000
    80000184:	0082829b          	addiw	t0,t0,8 # 2000008 <_prog_start-0x7dfffff8>
  amoswap.w t1, s1, (t0)
    80000188:	0892a32f          	amoswap.w	t1,s1,(t0)
  li sp, 0x40002ff0
    8000018c:	40003137          	lui	sp,0x40003
    80000190:	ff01011b          	addiw	sp,sp,-16 # 40002ff0 <_prog_start-0x3fffd010>
  call s3_c2
    80000194:	5a0000ef          	jal	ra,80000734 <s3_c2>
  li s1, 1
    80000198:	00100493          	li	s1,1
  csrw mie, s1
    8000019c:	30449073          	csrw	mie,s1
  j _hart2
    800001a0:	f25ff06f          	j	800000c4 <_hart2>

00000000800001a4 <_hart3>:
_hart3:
  // Parallel
  wfi
    800001a4:	10500073          	wfi
  csrw mie, zero
    800001a8:	30401073          	csrw	mie,zero
  li s1, 0
    800001ac:	00000493          	li	s1,0
  li t0, (CLINT_CTRL_ADDR + CLINT_MSIP3)
    800001b0:	020002b7          	lui	t0,0x2000
    800001b4:	00c2829b          	addiw	t0,t0,12 # 200000c <_prog_start-0x7dfffff4>
  amoswap.w t1, s1, (t0)
    800001b8:	0892a32f          	amoswap.w	t1,s1,(t0)
  li sp, 0x40003ff0
    800001bc:	40004137          	lui	sp,0x40004
    800001c0:	ff01011b          	addiw	sp,sp,-16 # 40003ff0 <_prog_start-0x3fffc010>
  call core1
    800001c4:	64c000ef          	jal	ra,80000810 <core1>
  li s1, 1
    800001c8:	00100493          	li	s1,1
  csrw mie, s1
    800001cc:	30449073          	csrw	mie,s1
  wfi
    800001d0:	10500073          	wfi
  // Stage 0
  csrw mie, zero
    800001d4:	30401073          	csrw	mie,zero
  li s1, 0
    800001d8:	00000493          	li	s1,0
  li t0, (CLINT_CTRL_ADDR + CLINT_MSIP3)
    800001dc:	020002b7          	lui	t0,0x2000
    800001e0:	00c2829b          	addiw	t0,t0,12 # 200000c <_prog_start-0x7dfffff4>
  amoswap.w t1, s1, (t0)
    800001e4:	0892a32f          	amoswap.w	t1,s1,(t0)
  li sp, 0x40003ff0
    800001e8:	40004137          	lui	sp,0x40004
    800001ec:	ff01011b          	addiw	sp,sp,-16 # 40003ff0 <_prog_start-0x3fffc010>
  call s0_c3
    800001f0:	1bc000ef          	jal	ra,800003ac <s0_c3>
  li s1, 1
    800001f4:	00100493          	li	s1,1
  csrw mie, s1 
    800001f8:	30449073          	csrw	mie,s1
  wfi
    800001fc:	10500073          	wfi
  // Stage 2
  csrw mie, zero
    80000200:	30401073          	csrw	mie,zero
  li s1, 0
    80000204:	00000493          	li	s1,0
  li t0, (CLINT_CTRL_ADDR + CLINT_MSIP3)
    80000208:	020002b7          	lui	t0,0x2000
    8000020c:	00c2829b          	addiw	t0,t0,12 # 200000c <_prog_start-0x7dfffff4>
  amoswap.w t1, s1, (t0)
    80000210:	0892a32f          	amoswap.w	t1,s1,(t0)
  li sp, 0x40003ff0
    80000214:	40004137          	lui	sp,0x40004
    80000218:	ff01011b          	addiw	sp,sp,-16 # 40003ff0 <_prog_start-0x3fffc010>
  call s2_c3
    8000021c:	446000ef          	jal	ra,80000662 <s2_c3>
  li s1, 1
    80000220:	00100493          	li	s1,1
  csrw mie, s1 
    80000224:	30449073          	csrw	mie,s1
  j _hart3
    80000228:	f7dff06f          	j	800001a4 <_hart3>

000000008000022c <_loopback>:
_loopback:
  j _loopback
    8000022c:	0000006f          	j	8000022c <_loopback>

0000000080000230 <s0_c0>:
uint8_t *mat_a = (uint8_t *)0x70000000;
uint8_t *mat_b = (uint8_t *)0x70001000;
uint8_t *mat_c = (uint8_t *)0x70002000;

//============== Stage 0 ==================================
void s0_c0() {
    80000230:	4281                	li	t0,0
    80000232:	4f01                	li	t5,0
    80000234:	00001e17          	auipc	t3,0x1
    80000238:	d7ce0e13          	addi	t3,t3,-644 # 80000fb0 <ae>
    8000023c:	00001317          	auipc	t1,0x1
    80000240:	d9430313          	addi	t1,t1,-620 # 80000fd0 <a>
    80000244:	00001897          	auipc	a7,0x1
    80000248:	d4c88893          	addi	a7,a7,-692 # 80000f90 <e>
  for (int i = 0; i < HALF; i++)
    for (int j = 0; j < HALF; j++)
    8000024c:	42000f93          	li	t6,1056
  for (int i = 0; i < HALF; i++)
    80000250:	02000393          	li	t2,32
void s0_c0() {
    80000254:	8816                	mv	a6,t0
    80000256:	02000513          	li	a0,32
    8000025a:	4e81                	li	t4,0
    8000025c:	87f6                	mv	a5,t4
    8000025e:	85fa                	mv	a1,t5
      for (int k = 0; k < HALF; k++)
        ae[i*HALF + j] = a[i + k*HALF] + e[k + j*HALF];
    80000260:	00033683          	ld	a3,0(t1)
    80000264:	0008b603          	ld	a2,0(a7)
    80000268:	000e3703          	ld	a4,0(t3)
    8000026c:	96ae                	add	a3,a3,a1
    8000026e:	963e                	add	a2,a2,a5
    80000270:	0006c683          	lbu	a3,0(a3)
    80000274:	00064603          	lbu	a2,0(a2)
    80000278:	9742                	add	a4,a4,a6
      for (int k = 0; k < HALF; k++)
    8000027a:	0785                	addi	a5,a5,1
        ae[i*HALF + j] = a[i + k*HALF] + e[k + j*HALF];
    8000027c:	9eb1                	addw	a3,a3,a2
    8000027e:	00d70023          	sb	a3,0(a4)
      for (int k = 0; k < HALF; k++)
    80000282:	02058593          	addi	a1,a1,32
    80000286:	fcf51de3          	bne	a0,a5,80000260 <s0_c0+0x30>
    for (int j = 0; j < HALF; j++)
    8000028a:	02050513          	addi	a0,a0,32
    8000028e:	020e8e93          	addi	t4,t4,32
    80000292:	0805                	addi	a6,a6,1
    80000294:	fdf514e3          	bne	a0,t6,8000025c <s0_c0+0x2c>
  for (int i = 0; i < HALF; i++)
    80000298:	0f05                	addi	t5,t5,1
    8000029a:	02028293          	addi	t0,t0,32
    8000029e:	fa7f1be3          	bne	t5,t2,80000254 <s0_c0+0x24>
}
    800002a2:	8082                	ret

00000000800002a4 <s0_c1>:

void s0_c1() {
    800002a4:	1141                	addi	sp,sp,-16
    800002a6:	e422                	sd	s0,8(sp)
    800002a8:	4381                	li	t2,0
    800002aa:	4f81                	li	t6,0
    800002ac:	00001e97          	auipc	t4,0x1
    800002b0:	cfce8e93          	addi	t4,t4,-772 # 80000fa8 <bg>
    800002b4:	00001e17          	auipc	t3,0x1
    800002b8:	d14e0e13          	addi	t3,t3,-748 # 80000fc8 <b>
    800002bc:	00001317          	auipc	t1,0x1
    800002c0:	cc430313          	addi	t1,t1,-828 # 80000f80 <g>
  for (int i = 0; i < HALF; i++)
    for (int j = 0; j < HALF; j++)
    800002c4:	42000293          	li	t0,1056
  for (int i = 0; i < HALF; i++)
    800002c8:	02000413          	li	s0,32
void s0_c1() {
    800002cc:	889e                	mv	a7,t2
    800002ce:	02000813          	li	a6,32
    800002d2:	4f01                	li	t5,0
    800002d4:	86fa                	mv	a3,t5
    800002d6:	85fe                	mv	a1,t6
      for (int k = 0; k < HALF; k++)
        bg[i*HALF + j] += b[i + k*HALF] * g[k + j*HALF];
    800002d8:	000e3783          	ld	a5,0(t3)
    800002dc:	00033603          	ld	a2,0(t1)
    800002e0:	000eb703          	ld	a4,0(t4)
    800002e4:	97ae                	add	a5,a5,a1
    800002e6:	9636                	add	a2,a2,a3
    800002e8:	00064503          	lbu	a0,0(a2)
    800002ec:	0007c783          	lbu	a5,0(a5)
    800002f0:	9746                	add	a4,a4,a7
    800002f2:	00074603          	lbu	a2,0(a4)
    800002f6:	02a787bb          	mulw	a5,a5,a0
      for (int k = 0; k < HALF; k++)
    800002fa:	0685                	addi	a3,a3,1
    800002fc:	02058593          	addi	a1,a1,32
        bg[i*HALF + j] += b[i + k*HALF] * g[k + j*HALF];
    80000300:	9fb1                	addw	a5,a5,a2
    80000302:	00f70023          	sb	a5,0(a4)
      for (int k = 0; k < HALF; k++)
    80000306:	fcd819e3          	bne	a6,a3,800002d8 <s0_c1+0x34>
    for (int j = 0; j < HALF; j++)
    8000030a:	02080813          	addi	a6,a6,32
    8000030e:	020f0f13          	addi	t5,t5,32
    80000312:	0885                	addi	a7,a7,1
    80000314:	fc5810e3          	bne	a6,t0,800002d4 <s0_c1+0x30>
  for (int i = 0; i < HALF; i++)
    80000318:	0f85                	addi	t6,t6,1
    8000031a:	02038393          	addi	t2,t2,32
    8000031e:	fa8f97e3          	bne	t6,s0,800002cc <s0_c1+0x28>
}
    80000322:	6422                	ld	s0,8(sp)
    80000324:	0141                	addi	sp,sp,16
    80000326:	8082                	ret

0000000080000328 <s0_c2>:

void s0_c2() {
    80000328:	1141                	addi	sp,sp,-16
    8000032a:	e422                	sd	s0,8(sp)
    8000032c:	4381                	li	t2,0
    8000032e:	4f81                	li	t6,0
    80000330:	00001e97          	auipc	t4,0x1
    80000334:	c70e8e93          	addi	t4,t4,-912 # 80000fa0 <ce>
    80000338:	00001e17          	auipc	t3,0x1
    8000033c:	c88e0e13          	addi	t3,t3,-888 # 80000fc0 <c>
    80000340:	00001317          	auipc	t1,0x1
    80000344:	c5030313          	addi	t1,t1,-944 # 80000f90 <e>
  for (int i = 0; i < HALF; i++)
    for (int j = 0; j < HALF; j++)
    80000348:	42000293          	li	t0,1056
  for (int i = 0; i < HALF; i++)
    8000034c:	02000413          	li	s0,32
void s0_c2() {
    80000350:	889e                	mv	a7,t2
    80000352:	02000813          	li	a6,32
    80000356:	4f01                	li	t5,0
    80000358:	86fa                	mv	a3,t5
    8000035a:	85fe                	mv	a1,t6
      for (int k = 0; k < HALF; k++)
        ce[i*HALF + j] += c[i + k*HALF] * e[k + j*HALF];
    8000035c:	000e3783          	ld	a5,0(t3)
    80000360:	00033603          	ld	a2,0(t1)
    80000364:	000eb703          	ld	a4,0(t4)
    80000368:	97ae                	add	a5,a5,a1
    8000036a:	9636                	add	a2,a2,a3
    8000036c:	00064503          	lbu	a0,0(a2)
    80000370:	0007c783          	lbu	a5,0(a5)
    80000374:	9746                	add	a4,a4,a7
    80000376:	00074603          	lbu	a2,0(a4)
    8000037a:	02a787bb          	mulw	a5,a5,a0
      for (int k = 0; k < HALF; k++)
    8000037e:	0685                	addi	a3,a3,1
    80000380:	02058593          	addi	a1,a1,32
        ce[i*HALF + j] += c[i + k*HALF] * e[k + j*HALF];
    80000384:	9fb1                	addw	a5,a5,a2
    80000386:	00f70023          	sb	a5,0(a4)
      for (int k = 0; k < HALF; k++)
    8000038a:	fcd819e3          	bne	a6,a3,8000035c <s0_c2+0x34>
    for (int j = 0; j < HALF; j++)
    8000038e:	02080813          	addi	a6,a6,32
    80000392:	020f0f13          	addi	t5,t5,32
    80000396:	0885                	addi	a7,a7,1
    80000398:	fc5810e3          	bne	a6,t0,80000358 <s0_c2+0x30>
  for (int i = 0; i < HALF; i++)
    8000039c:	0f85                	addi	t6,t6,1
    8000039e:	02038393          	addi	t2,t2,32
    800003a2:	fa8f97e3          	bne	t6,s0,80000350 <s0_c2+0x28>
}
    800003a6:	6422                	ld	s0,8(sp)
    800003a8:	0141                	addi	sp,sp,16
    800003aa:	8082                	ret

00000000800003ac <s0_c3>:

void s0_c3() {
    800003ac:	1141                	addi	sp,sp,-16
    800003ae:	e422                	sd	s0,8(sp)
    800003b0:	4381                	li	t2,0
    800003b2:	4f81                	li	t6,0
    800003b4:	00001e97          	auipc	t4,0x1
    800003b8:	be4e8e93          	addi	t4,t4,-1052 # 80000f98 <dg>
    800003bc:	00001e17          	auipc	t3,0x1
    800003c0:	bfce0e13          	addi	t3,t3,-1028 # 80000fb8 <d>
    800003c4:	00001317          	auipc	t1,0x1
    800003c8:	bbc30313          	addi	t1,t1,-1092 # 80000f80 <g>
  for (int i = 0; i < HALF; i++)
    for (int j = 0; j < HALF; j++)
    800003cc:	42000293          	li	t0,1056
  for (int i = 0; i < HALF; i++)
    800003d0:	02000413          	li	s0,32
void s0_c3() {
    800003d4:	889e                	mv	a7,t2
    800003d6:	02000813          	li	a6,32
    800003da:	4f01                	li	t5,0
    800003dc:	86fa                	mv	a3,t5
    800003de:	85fe                	mv	a1,t6
      for (int k = 0; k < HALF; k++)
        dg[i*HALF + j] += d[i + k*HALF] * g[k + j*HALF];  
    800003e0:	000e3783          	ld	a5,0(t3)
    800003e4:	00033603          	ld	a2,0(t1)
    800003e8:	000eb703          	ld	a4,0(t4)
    800003ec:	97ae                	add	a5,a5,a1
    800003ee:	9636                	add	a2,a2,a3
    800003f0:	00064503          	lbu	a0,0(a2)
    800003f4:	0007c783          	lbu	a5,0(a5)
    800003f8:	9746                	add	a4,a4,a7
    800003fa:	00074603          	lbu	a2,0(a4)
    800003fe:	02a787bb          	mulw	a5,a5,a0
      for (int k = 0; k < HALF; k++)
    80000402:	0685                	addi	a3,a3,1
    80000404:	02058593          	addi	a1,a1,32
        dg[i*HALF + j] += d[i + k*HALF] * g[k + j*HALF];  
    80000408:	9fb1                	addw	a5,a5,a2
    8000040a:	00f70023          	sb	a5,0(a4)
      for (int k = 0; k < HALF; k++)
    8000040e:	fcd819e3          	bne	a6,a3,800003e0 <s0_c3+0x34>
    for (int j = 0; j < HALF; j++)
    80000412:	02080813          	addi	a6,a6,32
    80000416:	020f0f13          	addi	t5,t5,32
    8000041a:	0885                	addi	a7,a7,1
    8000041c:	fc5810e3          	bne	a6,t0,800003dc <s0_c3+0x30>
  for (int i = 0; i < HALF; i++)
    80000420:	0f85                	addi	t6,t6,1
    80000422:	02038393          	addi	t2,t2,32
    80000426:	fa8f97e3          	bne	t6,s0,800003d4 <s0_c3+0x28>
}
    8000042a:	6422                	ld	s0,8(sp)
    8000042c:	0141                	addi	sp,sp,16
    8000042e:	8082                	ret

0000000080000430 <s1_c0>:

// ============== Stage 1 ==================================
void s1_c0() {
    80000430:	4781                	li	a5,0
    80000432:	00001897          	auipc	a7,0x1
    80000436:	b5e88893          	addi	a7,a7,-1186 # 80000f90 <e>
    8000043a:	00001817          	auipc	a6,0x1
    8000043e:	b7680813          	addi	a6,a6,-1162 # 80000fb0 <ae>
    80000442:	00001517          	auipc	a0,0x1
    80000446:	b6650513          	addi	a0,a0,-1178 # 80000fa8 <bg>
  for (int i = 0; i < LENGTH; i++)
    8000044a:	40000593          	li	a1,1024
        e[i] = ae[i] + bg[i];
    8000044e:	00083683          	ld	a3,0(a6)
    80000452:	6110                	ld	a2,0(a0)
    80000454:	0008b703          	ld	a4,0(a7)
    80000458:	96be                	add	a3,a3,a5
    8000045a:	963e                	add	a2,a2,a5
    8000045c:	0006c683          	lbu	a3,0(a3)
    80000460:	00064603          	lbu	a2,0(a2)
    80000464:	973e                	add	a4,a4,a5
  for (int i = 0; i < LENGTH; i++)
    80000466:	0785                	addi	a5,a5,1
        e[i] = ae[i] + bg[i];
    80000468:	9eb1                	addw	a3,a3,a2
    8000046a:	00d70023          	sb	a3,0(a4)
  for (int i = 0; i < LENGTH; i++)
    8000046e:	feb790e3          	bne	a5,a1,8000044e <s1_c0+0x1e>
}
    80000472:	8082                	ret

0000000080000474 <s1_c2>:

void s1_c2() {
    80000474:	4781                	li	a5,0
    80000476:	00001897          	auipc	a7,0x1
    8000047a:	b0a88893          	addi	a7,a7,-1270 # 80000f80 <g>
    8000047e:	00001817          	auipc	a6,0x1
    80000482:	b2280813          	addi	a6,a6,-1246 # 80000fa0 <ce>
    80000486:	00001517          	auipc	a0,0x1
    8000048a:	b1250513          	addi	a0,a0,-1262 # 80000f98 <dg>
  for (int i = 0; i < LENGTH; i++)
    8000048e:	40000593          	li	a1,1024
        g[i] = ce[i] + dg[i];
    80000492:	00083683          	ld	a3,0(a6)
    80000496:	6110                	ld	a2,0(a0)
    80000498:	0008b703          	ld	a4,0(a7)
    8000049c:	96be                	add	a3,a3,a5
    8000049e:	963e                	add	a2,a2,a5
    800004a0:	0006c683          	lbu	a3,0(a3)
    800004a4:	00064603          	lbu	a2,0(a2)
    800004a8:	973e                	add	a4,a4,a5
  for (int i = 0; i < LENGTH; i++)
    800004aa:	0785                	addi	a5,a5,1
        g[i] = ce[i] + dg[i];
    800004ac:	9eb1                	addw	a3,a3,a2
    800004ae:	00d70023          	sb	a3,0(a4)
  for (int i = 0; i < LENGTH; i++)
    800004b2:	feb790e3          	bne	a5,a1,80000492 <s1_c2+0x1e>
}
    800004b6:	8082                	ret

00000000800004b8 <s2_c0>:

// ============== Stage 2 ==================================
void s2_c0() {
    800004b8:	1141                	addi	sp,sp,-16
    800004ba:	e422                	sd	s0,8(sp)
  for (int i = 0; i < HALF; i++)
    for (int j = 0; j < HALF; j++) {
      ae[i*HALF + j] = 0;
    800004bc:	4381                	li	t2,0
    800004be:	4f81                	li	t6,0
    800004c0:	00001317          	auipc	t1,0x1
    800004c4:	af030313          	addi	t1,t1,-1296 # 80000fb0 <ae>
    800004c8:	00001e97          	auipc	t4,0x1
    800004cc:	b08e8e93          	addi	t4,t4,-1272 # 80000fd0 <a>
    800004d0:	00001e17          	auipc	t3,0x1
    800004d4:	ab8e0e13          	addi	t3,t3,-1352 # 80000f88 <f>
    for (int j = 0; j < HALF; j++) {
    800004d8:	42000293          	li	t0,1056
  for (int i = 0; i < HALF; i++)
    800004dc:	02000413          	li	s0,32
void s2_c0() {
    800004e0:	889e                	mv	a7,t2
    800004e2:	02000813          	li	a6,32
    800004e6:	4f01                	li	t5,0
      ae[i*HALF + j] = 0;
    800004e8:	00033783          	ld	a5,0(t1)
    800004ec:	86fa                	mv	a3,t5
    800004ee:	85fe                	mv	a1,t6
    800004f0:	97c6                	add	a5,a5,a7
    800004f2:	00078023          	sb	zero,0(a5)
      for (int k = 0; k < HALF; k++)
        ae[i*HALF + j] += a[i + k*HALF] * f[k + j*HALF];
    800004f6:	000eb783          	ld	a5,0(t4)
    800004fa:	000e3603          	ld	a2,0(t3)
    800004fe:	00033703          	ld	a4,0(t1)
    80000502:	97ae                	add	a5,a5,a1
    80000504:	9636                	add	a2,a2,a3
    80000506:	00064503          	lbu	a0,0(a2)
    8000050a:	0007c783          	lbu	a5,0(a5)
    8000050e:	9746                	add	a4,a4,a7
    80000510:	00074603          	lbu	a2,0(a4)
    80000514:	02a787bb          	mulw	a5,a5,a0
      for (int k = 0; k < HALF; k++)
    80000518:	0685                	addi	a3,a3,1
    8000051a:	02058593          	addi	a1,a1,32
        ae[i*HALF + j] += a[i + k*HALF] * f[k + j*HALF];
    8000051e:	9fb1                	addw	a5,a5,a2
    80000520:	00f70023          	sb	a5,0(a4)
      for (int k = 0; k < HALF; k++)
    80000524:	fcd819e3          	bne	a6,a3,800004f6 <s2_c0+0x3e>
    for (int j = 0; j < HALF; j++) {
    80000528:	02080813          	addi	a6,a6,32
    8000052c:	0885                	addi	a7,a7,1
    8000052e:	020f0f13          	addi	t5,t5,32
    80000532:	fa581be3          	bne	a6,t0,800004e8 <s2_c0+0x30>
  for (int i = 0; i < HALF; i++)
    80000536:	0f85                	addi	t6,t6,1
    80000538:	02038393          	addi	t2,t2,32
    8000053c:	fa8f92e3          	bne	t6,s0,800004e0 <s2_c0+0x28>
    }
}
    80000540:	6422                	ld	s0,8(sp)
    80000542:	0141                	addi	sp,sp,16
    80000544:	8082                	ret

0000000080000546 <s2_c1>:

void s2_c1() {
    80000546:	1141                	addi	sp,sp,-16
    80000548:	e422                	sd	s0,8(sp)
  for (int i = 0; i < HALF; i++)
    for (int j = 0; j < HALF; j++) {
      bg[i*HALF + j] = 0;
    8000054a:	4381                	li	t2,0
    8000054c:	4f81                	li	t6,0
    8000054e:	00001317          	auipc	t1,0x1
    80000552:	a5a30313          	addi	t1,t1,-1446 # 80000fa8 <bg>
    80000556:	00001e97          	auipc	t4,0x1
    8000055a:	a72e8e93          	addi	t4,t4,-1422 # 80000fc8 <b>
    8000055e:	00001e17          	auipc	t3,0x1
    80000562:	a1ae0e13          	addi	t3,t3,-1510 # 80000f78 <h>
    for (int j = 0; j < HALF; j++) {
    80000566:	42000293          	li	t0,1056
  for (int i = 0; i < HALF; i++)
    8000056a:	02000413          	li	s0,32
void s2_c1() {
    8000056e:	889e                	mv	a7,t2
    80000570:	02000813          	li	a6,32
    80000574:	4f01                	li	t5,0
      bg[i*HALF + j] = 0;
    80000576:	00033783          	ld	a5,0(t1)
    8000057a:	86fa                	mv	a3,t5
    8000057c:	85fe                	mv	a1,t6
    8000057e:	97c6                	add	a5,a5,a7
    80000580:	00078023          	sb	zero,0(a5)
      for (int k = 0; k < HALF; k++)
        bg[i*HALF + j] += b[i + k*HALF] * h[k + j*HALF];
    80000584:	000eb783          	ld	a5,0(t4)
    80000588:	000e3603          	ld	a2,0(t3)
    8000058c:	00033703          	ld	a4,0(t1)
    80000590:	97ae                	add	a5,a5,a1
    80000592:	9636                	add	a2,a2,a3
    80000594:	00064503          	lbu	a0,0(a2)
    80000598:	0007c783          	lbu	a5,0(a5)
    8000059c:	9746                	add	a4,a4,a7
    8000059e:	00074603          	lbu	a2,0(a4)
    800005a2:	02a787bb          	mulw	a5,a5,a0
      for (int k = 0; k < HALF; k++)
    800005a6:	0685                	addi	a3,a3,1
    800005a8:	02058593          	addi	a1,a1,32
        bg[i*HALF + j] += b[i + k*HALF] * h[k + j*HALF];
    800005ac:	9fb1                	addw	a5,a5,a2
    800005ae:	00f70023          	sb	a5,0(a4)
      for (int k = 0; k < HALF; k++)
    800005b2:	fcd819e3          	bne	a6,a3,80000584 <s2_c1+0x3e>
    for (int j = 0; j < HALF; j++) {
    800005b6:	02080813          	addi	a6,a6,32
    800005ba:	0885                	addi	a7,a7,1
    800005bc:	020f0f13          	addi	t5,t5,32
    800005c0:	fa581be3          	bne	a6,t0,80000576 <s2_c1+0x30>
  for (int i = 0; i < HALF; i++)
    800005c4:	0f85                	addi	t6,t6,1
    800005c6:	02038393          	addi	t2,t2,32
    800005ca:	fa8f92e3          	bne	t6,s0,8000056e <s2_c1+0x28>
    }
}
    800005ce:	6422                	ld	s0,8(sp)
    800005d0:	0141                	addi	sp,sp,16
    800005d2:	8082                	ret

00000000800005d4 <s2_c2>:

void s2_c2() {
    800005d4:	1141                	addi	sp,sp,-16
    800005d6:	e422                	sd	s0,8(sp)
  for (int i = 0; i < HALF; i++)
    for (int j = 0; j < HALF; j++) {
      ce[i*HALF + j] = 0;
    800005d8:	4381                	li	t2,0
    800005da:	4f81                	li	t6,0
    800005dc:	00001317          	auipc	t1,0x1
    800005e0:	9c430313          	addi	t1,t1,-1596 # 80000fa0 <ce>
    800005e4:	00001e97          	auipc	t4,0x1
    800005e8:	9dce8e93          	addi	t4,t4,-1572 # 80000fc0 <c>
    800005ec:	00001e17          	auipc	t3,0x1
    800005f0:	99ce0e13          	addi	t3,t3,-1636 # 80000f88 <f>
    for (int j = 0; j < HALF; j++) {
    800005f4:	42000293          	li	t0,1056
  for (int i = 0; i < HALF; i++)
    800005f8:	02000413          	li	s0,32
void s2_c2() {
    800005fc:	889e                	mv	a7,t2
    800005fe:	02000813          	li	a6,32
    80000602:	4f01                	li	t5,0
      ce[i*HALF + j] = 0;
    80000604:	00033783          	ld	a5,0(t1)
    80000608:	86fa                	mv	a3,t5
    8000060a:	85fe                	mv	a1,t6
    8000060c:	97c6                	add	a5,a5,a7
    8000060e:	00078023          	sb	zero,0(a5)
      for (int k = 0; k < HALF; k++)
        ce[i*HALF + j] += c[i + k*HALF] * f[k + j*HALF];
    80000612:	000eb783          	ld	a5,0(t4)
    80000616:	000e3603          	ld	a2,0(t3)
    8000061a:	00033703          	ld	a4,0(t1)
    8000061e:	97ae                	add	a5,a5,a1
    80000620:	9636                	add	a2,a2,a3
    80000622:	00064503          	lbu	a0,0(a2)
    80000626:	0007c783          	lbu	a5,0(a5)
    8000062a:	9746                	add	a4,a4,a7
    8000062c:	00074603          	lbu	a2,0(a4)
    80000630:	02a787bb          	mulw	a5,a5,a0
      for (int k = 0; k < HALF; k++)
    80000634:	0685                	addi	a3,a3,1
    80000636:	02058593          	addi	a1,a1,32
        ce[i*HALF + j] += c[i + k*HALF] * f[k + j*HALF];
    8000063a:	9fb1                	addw	a5,a5,a2
    8000063c:	00f70023          	sb	a5,0(a4)
      for (int k = 0; k < HALF; k++)
    80000640:	fcd819e3          	bne	a6,a3,80000612 <s2_c2+0x3e>
    for (int j = 0; j < HALF; j++) {
    80000644:	02080813          	addi	a6,a6,32
    80000648:	0885                	addi	a7,a7,1
    8000064a:	020f0f13          	addi	t5,t5,32
    8000064e:	fa581be3          	bne	a6,t0,80000604 <s2_c2+0x30>
  for (int i = 0; i < HALF; i++)
    80000652:	0f85                	addi	t6,t6,1
    80000654:	02038393          	addi	t2,t2,32
    80000658:	fa8f92e3          	bne	t6,s0,800005fc <s2_c2+0x28>
    }
}
    8000065c:	6422                	ld	s0,8(sp)
    8000065e:	0141                	addi	sp,sp,16
    80000660:	8082                	ret

0000000080000662 <s2_c3>:

void s2_c3() {
    80000662:	1141                	addi	sp,sp,-16
    80000664:	e422                	sd	s0,8(sp)
  for (int i = 0; i < HALF; i++)
    for (int j = 0; j < HALF; j++) {
      dg[i*HALF + j] = 0;
    80000666:	4381                	li	t2,0
    80000668:	4f81                	li	t6,0
    8000066a:	00001317          	auipc	t1,0x1
    8000066e:	92e30313          	addi	t1,t1,-1746 # 80000f98 <dg>
    80000672:	00001e97          	auipc	t4,0x1
    80000676:	946e8e93          	addi	t4,t4,-1722 # 80000fb8 <d>
    8000067a:	00001e17          	auipc	t3,0x1
    8000067e:	8fee0e13          	addi	t3,t3,-1794 # 80000f78 <h>
    for (int j = 0; j < HALF; j++) {
    80000682:	42000293          	li	t0,1056
  for (int i = 0; i < HALF; i++)
    80000686:	02000413          	li	s0,32
void s2_c3() {
    8000068a:	889e                	mv	a7,t2
    8000068c:	02000813          	li	a6,32
    80000690:	4f01                	li	t5,0
      dg[i*HALF + j] = 0;
    80000692:	00033783          	ld	a5,0(t1)
    80000696:	86fa                	mv	a3,t5
    80000698:	85fe                	mv	a1,t6
    8000069a:	97c6                	add	a5,a5,a7
    8000069c:	00078023          	sb	zero,0(a5)
      for (int k = 0; k < HALF; k++)
        dg[i*HALF + j] += d[i + k*HALF] * h[k + j*HALF];
    800006a0:	000eb783          	ld	a5,0(t4)
    800006a4:	000e3603          	ld	a2,0(t3)
    800006a8:	00033703          	ld	a4,0(t1)
    800006ac:	97ae                	add	a5,a5,a1
    800006ae:	9636                	add	a2,a2,a3
    800006b0:	00064503          	lbu	a0,0(a2)
    800006b4:	0007c783          	lbu	a5,0(a5)
    800006b8:	9746                	add	a4,a4,a7
    800006ba:	00074603          	lbu	a2,0(a4)
    800006be:	02a787bb          	mulw	a5,a5,a0
      for (int k = 0; k < HALF; k++)
    800006c2:	0685                	addi	a3,a3,1
    800006c4:	02058593          	addi	a1,a1,32
        dg[i*HALF + j] += d[i + k*HALF] * h[k + j*HALF];
    800006c8:	9fb1                	addw	a5,a5,a2
    800006ca:	00f70023          	sb	a5,0(a4)
      for (int k = 0; k < HALF; k++)
    800006ce:	fcd819e3          	bne	a6,a3,800006a0 <s2_c3+0x3e>
    for (int j = 0; j < HALF; j++) {
    800006d2:	02080813          	addi	a6,a6,32
    800006d6:	0885                	addi	a7,a7,1
    800006d8:	020f0f13          	addi	t5,t5,32
    800006dc:	fa581be3          	bne	a6,t0,80000692 <s2_c3+0x30>
  for (int i = 0; i < HALF; i++)
    800006e0:	0f85                	addi	t6,t6,1
    800006e2:	02038393          	addi	t2,t2,32
    800006e6:	fa8f92e3          	bne	t6,s0,8000068a <s2_c3+0x28>
    }
}
    800006ea:	6422                	ld	s0,8(sp)
    800006ec:	0141                	addi	sp,sp,16
    800006ee:	8082                	ret

00000000800006f0 <s3_c0>:

// ============== Stage 3 ==================================
void s3_c0() {
    800006f0:	4781                	li	a5,0
    800006f2:	00001897          	auipc	a7,0x1
    800006f6:	89688893          	addi	a7,a7,-1898 # 80000f88 <f>
    800006fa:	00001817          	auipc	a6,0x1
    800006fe:	8b680813          	addi	a6,a6,-1866 # 80000fb0 <ae>
    80000702:	00001517          	auipc	a0,0x1
    80000706:	8a650513          	addi	a0,a0,-1882 # 80000fa8 <bg>
  for (int i = 0; i < LENGTH; i++)
    8000070a:	40000593          	li	a1,1024
        f[i] = ae[i] + bg[i];
    8000070e:	00083683          	ld	a3,0(a6)
    80000712:	6110                	ld	a2,0(a0)
    80000714:	0008b703          	ld	a4,0(a7)
    80000718:	96be                	add	a3,a3,a5
    8000071a:	963e                	add	a2,a2,a5
    8000071c:	0006c683          	lbu	a3,0(a3)
    80000720:	00064603          	lbu	a2,0(a2)
    80000724:	973e                	add	a4,a4,a5
  for (int i = 0; i < LENGTH; i++)
    80000726:	0785                	addi	a5,a5,1
        f[i] = ae[i] + bg[i];
    80000728:	9eb1                	addw	a3,a3,a2
    8000072a:	00d70023          	sb	a3,0(a4)
  for (int i = 0; i < LENGTH; i++)
    8000072e:	feb790e3          	bne	a5,a1,8000070e <s3_c0+0x1e>
}
    80000732:	8082                	ret

0000000080000734 <s3_c2>:

void s3_c2() {
    80000734:	4781                	li	a5,0
    80000736:	00001897          	auipc	a7,0x1
    8000073a:	84288893          	addi	a7,a7,-1982 # 80000f78 <h>
    8000073e:	00001817          	auipc	a6,0x1
    80000742:	86280813          	addi	a6,a6,-1950 # 80000fa0 <ce>
    80000746:	00001517          	auipc	a0,0x1
    8000074a:	85250513          	addi	a0,a0,-1966 # 80000f98 <dg>
  for (int i = 0; i < LENGTH; i++)
    8000074e:	40000593          	li	a1,1024
        h[i] = ce[i] + dg[i];
    80000752:	00083683          	ld	a3,0(a6)
    80000756:	6110                	ld	a2,0(a0)
    80000758:	0008b703          	ld	a4,0(a7)
    8000075c:	96be                	add	a3,a3,a5
    8000075e:	963e                	add	a2,a2,a5
    80000760:	0006c683          	lbu	a3,0(a3)
    80000764:	00064603          	lbu	a2,0(a2)
    80000768:	973e                	add	a4,a4,a5
  for (int i = 0; i < LENGTH; i++)
    8000076a:	0785                	addi	a5,a5,1
        h[i] = ce[i] + dg[i];
    8000076c:	9eb1                	addw	a3,a3,a2
    8000076e:	00d70023          	sb	a3,0(a4)
  for (int i = 0; i < LENGTH; i++)
    80000772:	feb790e3          	bne	a5,a1,80000752 <s3_c2+0x1e>
}
    80000776:	8082                	ret

0000000080000778 <core0>:

// ============== For normal parallel =======================
void core0() {
    80000778:	1101                	addi	sp,sp,-32
    8000077a:	ec22                	sd	s0,24(sp)
    8000077c:	e826                	sd	s1,16(sp)
    8000077e:	e44a                	sd	s2,8(sp)
    80000780:	e04e                	sd	s3,0(sp)
  for (int i = 0; i < 16; i = i + 1)
    for (int j = 0; j < SIZE; j = j + 1)
    80000782:	6805                	lui	a6,0x1
  for (int i = 0; i < 16; i = i + 1)
    80000784:	4401                	li	s0,0
    80000786:	00000e97          	auipc	t4,0x0
    8000078a:	7dae8e93          	addi	t4,t4,2010 # 80000f60 <mat_c>
    8000078e:	00000e17          	auipc	t3,0x0
    80000792:	7dae0e13          	addi	t3,t3,2010 # 80000f68 <mat_b>
    80000796:	00000317          	auipc	t1,0x0
    8000079a:	7da30313          	addi	t1,t1,2010 # 80000f70 <mat_a>
    8000079e:	6985                	lui	s3,0x1
    800007a0:	fffbf937          	lui	s2,0xfffbf
    800007a4:	73fd                	lui	t2,0xfffff
    for (int j = 0; j < SIZE; j = j + 1)
    800007a6:	04000293          	li	t0,64
  for (int i = 0; i < 16; i = i + 1)
    800007aa:	44c1                	li	s1,16
    for (int j = 0; j < SIZE; j = j + 1)
    800007ac:	00681f93          	slli	t6,a6,0x6
    800007b0:	9fc2                	add	t6,t6,a6
    800007b2:	41098533          	sub	a0,s3,a6
    800007b6:	9fca                	add	t6,t6,s2
    800007b8:	4f01                	li	t5,0
      for (int k = 0; k < SIZE; k  = k + 1)
    800007ba:	00af88b3          	add	a7,t6,a0
    800007be:	00780733          	add	a4,a6,t2
        mat_c[i*SIZE + j] += mat_a[i + k*SIZE] * mat_b[k*SIZE + j];
    800007c2:	000e3783          	ld	a5,0(t3)
    800007c6:	00033603          	ld	a2,0(t1)
    800007ca:	000eb683          	ld	a3,0(t4)
    800007ce:	97aa                	add	a5,a5,a0
    800007d0:	963a                	add	a2,a2,a4
    800007d2:	97ba                	add	a5,a5,a4
    800007d4:	00064583          	lbu	a1,0(a2)
    800007d8:	0007c783          	lbu	a5,0(a5)
    800007dc:	96c6                	add	a3,a3,a7
    800007de:	0006c603          	lbu	a2,0(a3)
    800007e2:	02b787bb          	mulw	a5,a5,a1
      for (int k = 0; k < SIZE; k  = k + 1)
    800007e6:	04070713          	addi	a4,a4,64
        mat_c[i*SIZE + j] += mat_a[i + k*SIZE] * mat_b[k*SIZE + j];
    800007ea:	9fb1                	addw	a5,a5,a2
    800007ec:	00f68023          	sb	a5,0(a3)
      for (int k = 0; k < SIZE; k  = k + 1)
    800007f0:	fce819e3          	bne	a6,a4,800007c2 <core0+0x4a>
    for (int j = 0; j < SIZE; j = j + 1)
    800007f4:	2f05                	addiw	t5,t5,1
    800007f6:	0505                	addi	a0,a0,1
    800007f8:	fc5f11e3          	bne	t5,t0,800007ba <core0+0x42>
  for (int i = 0; i < 16; i = i + 1)
    800007fc:	2405                	addiw	s0,s0,1
    800007fe:	0805                	addi	a6,a6,1 # 1001 <_prog_start-0x7fffefff>
    80000800:	fa9416e3          	bne	s0,s1,800007ac <core0+0x34>
}
    80000804:	6462                	ld	s0,24(sp)
    80000806:	64c2                	ld	s1,16(sp)
    80000808:	6922                	ld	s2,8(sp)
    8000080a:	6982                	ld	s3,0(sp)
    8000080c:	6105                	addi	sp,sp,32
    8000080e:	8082                	ret

0000000080000810 <core1>:

void core1() {
    80000810:	1101                	addi	sp,sp,-32
  for (int i = 16; i < 32; i = i + 1)
    for (int j = 0; j < SIZE; j = j + 1)
    80000812:	6805                	lui	a6,0x1
void core1() {
    80000814:	ec22                	sd	s0,24(sp)
    80000816:	e826                	sd	s1,16(sp)
    80000818:	e44a                	sd	s2,8(sp)
    8000081a:	e04e                	sd	s3,0(sp)
    for (int j = 0; j < SIZE; j = j + 1)
    8000081c:	0841                	addi	a6,a6,16 # 1010 <_prog_start-0x7fffeff0>
  for (int i = 16; i < 32; i = i + 1)
    8000081e:	4441                	li	s0,16
    80000820:	00000e97          	auipc	t4,0x0
    80000824:	740e8e93          	addi	t4,t4,1856 # 80000f60 <mat_c>
    80000828:	00000e17          	auipc	t3,0x0
    8000082c:	740e0e13          	addi	t3,t3,1856 # 80000f68 <mat_b>
    80000830:	00000317          	auipc	t1,0x0
    80000834:	74030313          	addi	t1,t1,1856 # 80000f70 <mat_a>
    80000838:	6985                	lui	s3,0x1
    8000083a:	fffbf937          	lui	s2,0xfffbf
    8000083e:	73fd                	lui	t2,0xfffff
    for (int j = 0; j < SIZE; j = j + 1)
    80000840:	04000293          	li	t0,64
  for (int i = 16; i < 32; i = i + 1)
    80000844:	02000493          	li	s1,32
    for (int j = 0; j < SIZE; j = j + 1)
    80000848:	00681f93          	slli	t6,a6,0x6
    8000084c:	9fc2                	add	t6,t6,a6
    8000084e:	41098533          	sub	a0,s3,a6
    80000852:	9fca                	add	t6,t6,s2
    80000854:	4f01                	li	t5,0
      for (int k = 0; k < SIZE; k  = k + 1)
    80000856:	00af88b3          	add	a7,t6,a0
    8000085a:	00780733          	add	a4,a6,t2
        mat_c[i*SIZE + j] += mat_a[i + k*SIZE] * mat_b[k*SIZE + j];
    8000085e:	000e3783          	ld	a5,0(t3)
    80000862:	00033603          	ld	a2,0(t1)
    80000866:	000eb683          	ld	a3,0(t4)
    8000086a:	97aa                	add	a5,a5,a0
    8000086c:	963a                	add	a2,a2,a4
    8000086e:	97ba                	add	a5,a5,a4
    80000870:	00064583          	lbu	a1,0(a2)
    80000874:	0007c783          	lbu	a5,0(a5)
    80000878:	96c6                	add	a3,a3,a7
    8000087a:	0006c603          	lbu	a2,0(a3)
    8000087e:	02b787bb          	mulw	a5,a5,a1
      for (int k = 0; k < SIZE; k  = k + 1)
    80000882:	04070713          	addi	a4,a4,64
        mat_c[i*SIZE + j] += mat_a[i + k*SIZE] * mat_b[k*SIZE + j];
    80000886:	9fb1                	addw	a5,a5,a2
    80000888:	00f68023          	sb	a5,0(a3)
      for (int k = 0; k < SIZE; k  = k + 1)
    8000088c:	fce819e3          	bne	a6,a4,8000085e <core1+0x4e>
    for (int j = 0; j < SIZE; j = j + 1)
    80000890:	2f05                	addiw	t5,t5,1
    80000892:	0505                	addi	a0,a0,1
    80000894:	fc5f11e3          	bne	t5,t0,80000856 <core1+0x46>
  for (int i = 16; i < 32; i = i + 1)
    80000898:	2405                	addiw	s0,s0,1
    8000089a:	0805                	addi	a6,a6,1
    8000089c:	fa9416e3          	bne	s0,s1,80000848 <core1+0x38>
}
    800008a0:	6462                	ld	s0,24(sp)
    800008a2:	64c2                	ld	s1,16(sp)
    800008a4:	6922                	ld	s2,8(sp)
    800008a6:	6982                	ld	s3,0(sp)
    800008a8:	6105                	addi	sp,sp,32
    800008aa:	8082                	ret

00000000800008ac <core2>:
void core2() {
    800008ac:	1101                	addi	sp,sp,-32
  for (int i = 32; i < 48; i = i + 1)
    for (int j = 0; j < SIZE; j = j + 1)
    800008ae:	6805                	lui	a6,0x1
void core2() {
    800008b0:	ec22                	sd	s0,24(sp)
    800008b2:	e826                	sd	s1,16(sp)
    800008b4:	e44a                	sd	s2,8(sp)
    800008b6:	e04e                	sd	s3,0(sp)
    for (int j = 0; j < SIZE; j = j + 1)
    800008b8:	02080813          	addi	a6,a6,32 # 1020 <_prog_start-0x7fffefe0>
  for (int i = 32; i < 48; i = i + 1)
    800008bc:	02000413          	li	s0,32
    800008c0:	00000e97          	auipc	t4,0x0
    800008c4:	6a0e8e93          	addi	t4,t4,1696 # 80000f60 <mat_c>
    800008c8:	00000e17          	auipc	t3,0x0
    800008cc:	6a0e0e13          	addi	t3,t3,1696 # 80000f68 <mat_b>
    800008d0:	00000317          	auipc	t1,0x0
    800008d4:	6a030313          	addi	t1,t1,1696 # 80000f70 <mat_a>
    800008d8:	6985                	lui	s3,0x1
    800008da:	fffbf937          	lui	s2,0xfffbf
    800008de:	73fd                	lui	t2,0xfffff
    for (int j = 0; j < SIZE; j = j + 1)
    800008e0:	04000293          	li	t0,64
  for (int i = 32; i < 48; i = i + 1)
    800008e4:	03000493          	li	s1,48
    for (int j = 0; j < SIZE; j = j + 1)
    800008e8:	00681f93          	slli	t6,a6,0x6
    800008ec:	9fc2                	add	t6,t6,a6
    800008ee:	41098533          	sub	a0,s3,a6
    800008f2:	9fca                	add	t6,t6,s2
    800008f4:	4f01                	li	t5,0
      for (int k = 0; k < SIZE; k  = k + 1)
    800008f6:	00af88b3          	add	a7,t6,a0
    800008fa:	00780733          	add	a4,a6,t2
        mat_c[i*SIZE + j] += mat_a[i + k*SIZE] * mat_b[k*SIZE + j];
    800008fe:	000e3783          	ld	a5,0(t3)
    80000902:	00033603          	ld	a2,0(t1)
    80000906:	000eb683          	ld	a3,0(t4)
    8000090a:	97aa                	add	a5,a5,a0
    8000090c:	963a                	add	a2,a2,a4
    8000090e:	97ba                	add	a5,a5,a4
    80000910:	00064583          	lbu	a1,0(a2)
    80000914:	0007c783          	lbu	a5,0(a5)
    80000918:	96c6                	add	a3,a3,a7
    8000091a:	0006c603          	lbu	a2,0(a3)
    8000091e:	02b787bb          	mulw	a5,a5,a1
      for (int k = 0; k < SIZE; k  = k + 1)
    80000922:	04070713          	addi	a4,a4,64
        mat_c[i*SIZE + j] += mat_a[i + k*SIZE] * mat_b[k*SIZE + j];
    80000926:	9fb1                	addw	a5,a5,a2
    80000928:	00f68023          	sb	a5,0(a3)
      for (int k = 0; k < SIZE; k  = k + 1)
    8000092c:	fce819e3          	bne	a6,a4,800008fe <core2+0x52>
    for (int j = 0; j < SIZE; j = j + 1)
    80000930:	2f05                	addiw	t5,t5,1
    80000932:	0505                	addi	a0,a0,1
    80000934:	fc5f11e3          	bne	t5,t0,800008f6 <core2+0x4a>
  for (int i = 32; i < 48; i = i + 1)
    80000938:	2405                	addiw	s0,s0,1
    8000093a:	0805                	addi	a6,a6,1
    8000093c:	fa9416e3          	bne	s0,s1,800008e8 <core2+0x3c>
}
    80000940:	6462                	ld	s0,24(sp)
    80000942:	64c2                	ld	s1,16(sp)
    80000944:	6922                	ld	s2,8(sp)
    80000946:	6982                	ld	s3,0(sp)
    80000948:	6105                	addi	sp,sp,32
    8000094a:	8082                	ret

000000008000094c <core3>:

void core3() {
    8000094c:	1101                	addi	sp,sp,-32
  for (int i = 48; i < 64; i = i + 1)
    for (int j = 0; j < SIZE; j = j + 1)
    8000094e:	6805                	lui	a6,0x1
void core3() {
    80000950:	ec22                	sd	s0,24(sp)
    80000952:	e826                	sd	s1,16(sp)
    80000954:	e44a                	sd	s2,8(sp)
    for (int j = 0; j < SIZE; j = j + 1)
    80000956:	03080813          	addi	a6,a6,48 # 1030 <_prog_start-0x7fffefd0>
  for (int i = 48; i < 64; i = i + 1)
    8000095a:	03000413          	li	s0,48
    8000095e:	00000e97          	auipc	t4,0x0
    80000962:	602e8e93          	addi	t4,t4,1538 # 80000f60 <mat_c>
    80000966:	00000e17          	auipc	t3,0x0
    8000096a:	602e0e13          	addi	t3,t3,1538 # 80000f68 <mat_b>
    8000096e:	00000317          	auipc	t1,0x0
    80000972:	60230313          	addi	t1,t1,1538 # 80000f70 <mat_a>
    80000976:	6905                	lui	s2,0x1
    80000978:	fffbf4b7          	lui	s1,0xfffbf
    8000097c:	73fd                	lui	t2,0xfffff
    for (int j = 0; j < SIZE; j = j + 1)
    8000097e:	04000293          	li	t0,64
    80000982:	00681f93          	slli	t6,a6,0x6
    80000986:	9fc2                	add	t6,t6,a6
    80000988:	41090533          	sub	a0,s2,a6
    8000098c:	9fa6                	add	t6,t6,s1
    8000098e:	4f01                	li	t5,0
      for (int k = 0; k < SIZE; k  = k + 1)
    80000990:	00af88b3          	add	a7,t6,a0
    80000994:	00780733          	add	a4,a6,t2
        mat_c[i*SIZE + j] += mat_a[i + k*SIZE] * mat_b[k*SIZE + j];
    80000998:	000e3783          	ld	a5,0(t3)
    8000099c:	00033603          	ld	a2,0(t1)
    800009a0:	000eb683          	ld	a3,0(t4)
    800009a4:	97aa                	add	a5,a5,a0
    800009a6:	963a                	add	a2,a2,a4
    800009a8:	97ba                	add	a5,a5,a4
    800009aa:	00064583          	lbu	a1,0(a2)
    800009ae:	0007c783          	lbu	a5,0(a5)
    800009b2:	96c6                	add	a3,a3,a7
    800009b4:	0006c603          	lbu	a2,0(a3)
    800009b8:	02b787bb          	mulw	a5,a5,a1
      for (int k = 0; k < SIZE; k  = k + 1)
    800009bc:	04070713          	addi	a4,a4,64
        mat_c[i*SIZE + j] += mat_a[i + k*SIZE] * mat_b[k*SIZE + j];
    800009c0:	9fb1                	addw	a5,a5,a2
    800009c2:	00f68023          	sb	a5,0(a3)
      for (int k = 0; k < SIZE; k  = k + 1)
    800009c6:	fce819e3          	bne	a6,a4,80000998 <core3+0x4c>
    for (int j = 0; j < SIZE; j = j + 1)
    800009ca:	2f05                	addiw	t5,t5,1
    800009cc:	0505                	addi	a0,a0,1
    800009ce:	fc5f11e3          	bne	t5,t0,80000990 <core3+0x44>
  for (int i = 48; i < 64; i = i + 1)
    800009d2:	2405                	addiw	s0,s0,1
    800009d4:	0805                	addi	a6,a6,1
    800009d6:	fbe416e3          	bne	s0,t5,80000982 <core3+0x36>
}
    800009da:	6462                	ld	s0,24(sp)
    800009dc:	64c2                	ld	s1,16(sp)
    800009de:	6922                	ld	s2,8(sp)
    800009e0:	6105                	addi	sp,sp,32
    800009e2:	8082                	ret

00000000800009e4 <main>:

int main(int argc, char **arv) {
    800009e4:	7159                	addi	sp,sp,-112
    800009e6:	f486                	sd	ra,104(sp)
    800009e8:	f0a2                	sd	s0,96(sp)
    800009ea:	eca6                	sd	s1,88(sp)
    800009ec:	e8ca                	sd	s2,80(sp)
    800009ee:	e4ce                	sd	s3,72(sp)
    800009f0:	e0d2                	sd	s4,64(sp)
    800009f2:	fc56                	sd	s5,56(sp)
    800009f4:	f85a                	sd	s6,48(sp)
    800009f6:	f45e                	sd	s7,40(sp)
    800009f8:	f062                	sd	s8,32(sp)
    800009fa:	ec66                	sd	s9,24(sp)
    800009fc:	e86a                	sd	s10,16(sp)
    800009fe:	e46e                	sd	s11,8(sp)
  
  REG32(uart, UART_REG_TXCTRL) = UART_TXEN;
    80000a00:	640007b7          	lui	a5,0x64000
    80000a04:	4705                	li	a4,1
    80000a06:	c798                	sw	a4,8(a5)
  uint32_t t_gap[4];

  uint32_t start[4];
  uint32_t end[4];

  kprintf("============= Naive ==================== \r\n");
    80000a08:	00000517          	auipc	a0,0x0
    80000a0c:	5d050513          	addi	a0,a0,1488 # 80000fd8 <a+0x8>
    80000a10:	38e000ef          	jal	ra,80000d9e <kprintf>
//================= Single thread =====================================
  t_start = read_csr(mcycle);
    80000a14:	b00025f3          	csrr	a1,mcycle
    80000a18:	6885                	lui	a7,0x1
    80000a1a:	2581                	sext.w	a1,a1
  for (int i = 0; i < SIZE; i = i + 1)
    80000a1c:	4081                	li	ra,0
    80000a1e:	00000417          	auipc	s0,0x0
    80000a22:	54240413          	addi	s0,s0,1346 # 80000f60 <mat_c>
    80000a26:	00000e97          	auipc	t4,0x0
    80000a2a:	542e8e93          	addi	t4,t4,1346 # 80000f68 <mat_b>
    80000a2e:	00000e17          	auipc	t3,0x0
    80000a32:	542e0e13          	addi	t3,t3,1346 # 80000f70 <mat_a>
    80000a36:	6905                	lui	s2,0x1
    80000a38:	fffbf4b7          	lui	s1,0xfffbf
    80000a3c:	73fd                	lui	t2,0xfffff
    for (int j = 0; j < SIZE; j = j + 1)
    80000a3e:	04000293          	li	t0,64
    80000a42:	00689f93          	slli	t6,a7,0x6
    80000a46:	9fc6                	add	t6,t6,a7
    80000a48:	41190833          	sub	a6,s2,a7
    80000a4c:	9fa6                	add	t6,t6,s1
    80000a4e:	4f01                	li	t5,0
      for (int k = 0; k < SIZE; k = k + 1)
    80000a50:	010f8333          	add	t1,t6,a6
    80000a54:	00788733          	add	a4,a7,t2
        mat_c[i*SIZE + j] += mat_a[i + k*SIZE] * mat_b[k*SIZE + j];
    80000a58:	000eb783          	ld	a5,0(t4)
    80000a5c:	000e3603          	ld	a2,0(t3)
    80000a60:	6014                	ld	a3,0(s0)
    80000a62:	97c2                	add	a5,a5,a6
    80000a64:	963a                	add	a2,a2,a4
    80000a66:	97ba                	add	a5,a5,a4
    80000a68:	00064503          	lbu	a0,0(a2)
    80000a6c:	0007c783          	lbu	a5,0(a5) # 64000000 <_prog_start-0x1c000000>
    80000a70:	969a                	add	a3,a3,t1
    80000a72:	0006c603          	lbu	a2,0(a3)
    80000a76:	02a787bb          	mulw	a5,a5,a0
      for (int k = 0; k < SIZE; k = k + 1)
    80000a7a:	04070713          	addi	a4,a4,64
        mat_c[i*SIZE + j] += mat_a[i + k*SIZE] * mat_b[k*SIZE + j];
    80000a7e:	9fb1                	addw	a5,a5,a2
    80000a80:	00f68023          	sb	a5,0(a3)
      for (int k = 0; k < SIZE; k = k + 1)
    80000a84:	fce89ae3          	bne	a7,a4,80000a58 <main+0x74>
    for (int j = 0; j < SIZE; j = j + 1)
    80000a88:	2f05                	addiw	t5,t5,1
    80000a8a:	0805                	addi	a6,a6,1
    80000a8c:	fc5f12e3          	bne	t5,t0,80000a50 <main+0x6c>
  for (int i = 0; i < SIZE; i = i + 1)
    80000a90:	2085                	addiw	ra,ra,1
    80000a92:	0885                	addi	a7,a7,1 # 1001 <_prog_start-0x7fffefff>
    80000a94:	fbe097e3          	bne	ra,t5,80000a42 <main+0x5e>
  t_end = read_csr(mcycle);
    80000a98:	b00027f3          	csrr	a5,mcycle
  t_gap[0] = t_end - t_start;

  kprintf("Time spent (single thread): %l (cycles)\r\n", t_gap[0]);
    80000a9c:	00000517          	auipc	a0,0x0
    80000aa0:	56c50513          	addi	a0,a0,1388 # 80001008 <a+0x38>
    80000aa4:	40b785bb          	subw	a1,a5,a1
    80000aa8:	2f6000ef          	jal	ra,80000d9e <kprintf>
  
  for (int i = 0; i < SIZE; i = i + 1)
    80000aac:	6505                	lui	a0,0x1
  kprintf("Time spent (single thread): %l (cycles)\r\n", t_gap[0]);
    80000aae:	04000613          	li	a2,64
    80000ab2:	4801                	li	a6,0
    80000ab4:	00000597          	auipc	a1,0x0
    80000ab8:	51c58593          	addi	a1,a1,1308 # 80000fd0 <a>
  for (int i = 0; i < SIZE; i = i + 1)
    80000abc:	04050513          	addi	a0,a0,64 # 1040 <_prog_start-0x7fffefc0>
  for (int i = 0; i < SIZE; i = i + 1)
    80000ac0:	87c2                	mv	a5,a6
    for (int j = 0; j < SIZE; j = j + 1)
      *a = mat_c[i*SIZE + j];
    80000ac2:	6018                	ld	a4,0(s0)
    80000ac4:	6194                	ld	a3,0(a1)
    80000ac6:	973e                	add	a4,a4,a5
    80000ac8:	00074703          	lbu	a4,0(a4)
    for (int j = 0; j < SIZE; j = j + 1)
    80000acc:	0785                	addi	a5,a5,1
      *a = mat_c[i*SIZE + j];
    80000ace:	00e68023          	sb	a4,0(a3)
    for (int j = 0; j < SIZE; j = j + 1)
    80000ad2:	fef618e3          	bne	a2,a5,80000ac2 <main+0xde>
  for (int i = 0; i < SIZE; i = i + 1)
    80000ad6:	04060613          	addi	a2,a2,64
    80000ada:	04080813          	addi	a6,a6,64
    80000ade:	fea611e3          	bne	a2,a0,80000ac0 <main+0xdc>

//================= Paralle ================================================
  t_start = read_csr(mcycle);
    80000ae2:	b0002473          	csrr	s0,mcycle
  REG32(clint, CLINT_MSIP1) = CLINT_MSIPEN;
    80000ae6:	020007b7          	lui	a5,0x2000
    80000aea:	4705                	li	a4,1
    80000aec:	c3d8                	sw	a4,4(a5)
  REG32(clint, CLINT_MSIP2) = CLINT_MSIPEN;
    80000aee:	c798                	sw	a4,8(a5)
  REG32(clint, CLINT_MSIP3) = CLINT_MSIPEN;
    80000af0:	c7d8                	sw	a4,12(a5)
  core0();
    80000af2:	c87ff0ef          	jal	ra,80000778 <core0>
  t_end = read_csr(mcycle);
    80000af6:	b00025f3          	csrr	a1,mcycle
  t_gap[1] = t_end - t_start;
  kprintf("Time spent (multi-threaded): %l (cycles)\r\n", t_gap[1]);
    80000afa:	00000517          	auipc	a0,0x0
    80000afe:	53e50513          	addi	a0,a0,1342 # 80001038 <a+0x68>
    80000b02:	9d81                	subw	a1,a1,s0
    80000b04:	29a000ef          	jal	ra,80000d9e <kprintf>

  kprintf("============= Strassen ==================== \r\n");
    80000b08:	00000517          	auipc	a0,0x0
    80000b0c:	56050513          	addi	a0,a0,1376 # 80001068 <a+0x98>
    80000b10:	28e000ef          	jal	ra,80000d9e <kprintf>
//================= Devide and Conquer (Single thread) =====================
  t_start = read_csr(mcycle);
    80000b14:	b0002473          	csrr	s0,mcycle
  s0_c0();
    80000b18:	f18ff0ef          	jal	ra,80000230 <s0_c0>
  s0_c1();
    80000b1c:	f88ff0ef          	jal	ra,800002a4 <s0_c1>
  s0_c2();
    80000b20:	809ff0ef          	jal	ra,80000328 <s0_c2>
  s0_c3();
    80000b24:	889ff0ef          	jal	ra,800003ac <s0_c3>
    80000b28:	00000917          	auipc	s2,0x0
    80000b2c:	46890913          	addi	s2,s2,1128 # 80000f90 <e>
  t_start = read_csr(mcycle);
    80000b30:	2401                	sext.w	s0,s0
  for (int i = 0; i < LENGTH; i++)
    80000b32:	00000997          	auipc	s3,0x0
    80000b36:	47e98993          	addi	s3,s3,1150 # 80000fb0 <ae>
    80000b3a:	00000a17          	auipc	s4,0x0
    80000b3e:	46ea0a13          	addi	s4,s4,1134 # 80000fa8 <bg>
  s0_c3();
    80000b42:	4781                	li	a5,0
  for (int i = 0; i < LENGTH; i++)
    80000b44:	40000593          	li	a1,1024
        e[i] = ae[i] + bg[i];
    80000b48:	0009b683          	ld	a3,0(s3)
    80000b4c:	000a3603          	ld	a2,0(s4)
    80000b50:	00093703          	ld	a4,0(s2)
    80000b54:	96be                	add	a3,a3,a5
    80000b56:	963e                	add	a2,a2,a5
    80000b58:	0006c683          	lbu	a3,0(a3)
    80000b5c:	00064603          	lbu	a2,0(a2)
    80000b60:	973e                	add	a4,a4,a5
  for (int i = 0; i < LENGTH; i++)
    80000b62:	0785                	addi	a5,a5,1 # 2000001 <_prog_start-0x7dffffff>
        e[i] = ae[i] + bg[i];
    80000b64:	9eb1                	addw	a3,a3,a2
    80000b66:	00d70023          	sb	a3,0(a4)
  for (int i = 0; i < LENGTH; i++)
    80000b6a:	fcb79fe3          	bne	a5,a1,80000b48 <main+0x164>
    80000b6e:	4781                	li	a5,0
    80000b70:	00000517          	auipc	a0,0x0
    80000b74:	41050513          	addi	a0,a0,1040 # 80000f80 <g>
    80000b78:	00000a97          	auipc	s5,0x0
    80000b7c:	428a8a93          	addi	s5,s5,1064 # 80000fa0 <ce>
    80000b80:	00000497          	auipc	s1,0x0
    80000b84:	41848493          	addi	s1,s1,1048 # 80000f98 <dg>
  for (int i = 0; i < LENGTH; i++)
    80000b88:	40000593          	li	a1,1024
        g[i] = ce[i] + dg[i];
    80000b8c:	000ab683          	ld	a3,0(s5)
    80000b90:	6090                	ld	a2,0(s1)
    80000b92:	6118                	ld	a4,0(a0)
    80000b94:	96be                	add	a3,a3,a5
    80000b96:	963e                	add	a2,a2,a5
    80000b98:	0006c683          	lbu	a3,0(a3)
    80000b9c:	00064603          	lbu	a2,0(a2)
    80000ba0:	973e                	add	a4,a4,a5
  for (int i = 0; i < LENGTH; i++)
    80000ba2:	0785                	addi	a5,a5,1
        g[i] = ce[i] + dg[i];
    80000ba4:	9eb1                	addw	a3,a3,a2
    80000ba6:	00d70023          	sb	a3,0(a4)
  for (int i = 0; i < LENGTH; i++)
    80000baa:	feb791e3          	bne	a5,a1,80000b8c <main+0x1a8>
  s1_c0();
  s1_c2();
  s2_c0();
    80000bae:	90bff0ef          	jal	ra,800004b8 <s2_c0>
  s2_c1();
    80000bb2:	995ff0ef          	jal	ra,80000546 <s2_c1>
  s2_c2();
    80000bb6:	a1fff0ef          	jal	ra,800005d4 <s2_c2>
  s2_c3();
    80000bba:	aa9ff0ef          	jal	ra,80000662 <s2_c3>
  for (int i = 0; i < LENGTH; i++)
    80000bbe:	00000b17          	auipc	s6,0x0
    80000bc2:	3cab0b13          	addi	s6,s6,970 # 80000f88 <f>
  s2_c3();
    80000bc6:	4781                	li	a5,0
  for (int i = 0; i < LENGTH; i++)
    80000bc8:	40000593          	li	a1,1024
        f[i] = ae[i] + bg[i];
    80000bcc:	0009b683          	ld	a3,0(s3)
    80000bd0:	000a3603          	ld	a2,0(s4)
    80000bd4:	000b3703          	ld	a4,0(s6)
    80000bd8:	96be                	add	a3,a3,a5
    80000bda:	963e                	add	a2,a2,a5
    80000bdc:	0006c683          	lbu	a3,0(a3)
    80000be0:	00064603          	lbu	a2,0(a2)
    80000be4:	973e                	add	a4,a4,a5
  for (int i = 0; i < LENGTH; i++)
    80000be6:	0785                	addi	a5,a5,1
        f[i] = ae[i] + bg[i];
    80000be8:	9eb1                	addw	a3,a3,a2
    80000bea:	00d70023          	sb	a3,0(a4)
  for (int i = 0; i < LENGTH; i++)
    80000bee:	fcb79fe3          	bne	a5,a1,80000bcc <main+0x1e8>
    80000bf2:	4781                	li	a5,0
    80000bf4:	00000517          	auipc	a0,0x0
    80000bf8:	38450513          	addi	a0,a0,900 # 80000f78 <h>
  for (int i = 0; i < LENGTH; i++)
    80000bfc:	40000593          	li	a1,1024
        h[i] = ce[i] + dg[i];
    80000c00:	000ab683          	ld	a3,0(s5)
    80000c04:	6090                	ld	a2,0(s1)
    80000c06:	6118                	ld	a4,0(a0)
    80000c08:	96be                	add	a3,a3,a5
    80000c0a:	963e                	add	a2,a2,a5
    80000c0c:	0006c683          	lbu	a3,0(a3)
    80000c10:	00064603          	lbu	a2,0(a2)
    80000c14:	973e                	add	a4,a4,a5
  for (int i = 0; i < LENGTH; i++)
    80000c16:	0785                	addi	a5,a5,1
        h[i] = ce[i] + dg[i];
    80000c18:	9eb1                	addw	a3,a3,a2
    80000c1a:	00d70023          	sb	a3,0(a4)
  for (int i = 0; i < LENGTH; i++)
    80000c1e:	feb791e3          	bne	a5,a1,80000c00 <main+0x21c>
  s3_c0();
  s3_c2();
  t_end = read_csr(mcycle);
    80000c22:	b00025f3          	csrr	a1,mcycle
  t_gap[2] = t_end - t_start;
  kprintf("Time spent (single thread): %l (cycles)\r\n", t_gap[2]);
    80000c26:	00000517          	auipc	a0,0x0
    80000c2a:	3e250513          	addi	a0,a0,994 # 80001008 <a+0x38>
    80000c2e:	9d81                	subw	a1,a1,s0
    80000c30:	16e000ef          	jal	ra,80000d9e <kprintf>

//================= Devide and Conquer =====================================
    t_start = read_csr(mcycle);
    80000c34:	b0002473          	csrr	s0,mcycle
    start[0] = t_start;
    // Stage 0
    REG32(clint, CLINT_MSIP1) = CLINT_MSIPEN;
    80000c38:	020004b7          	lui	s1,0x2000
    80000c3c:	4c05                	li	s8,1
    80000c3e:	0184a223          	sw	s8,4(s1) # 2000004 <_prog_start-0x7dfffffc>
    REG32(clint, CLINT_MSIP2) = CLINT_MSIPEN;
    80000c42:	0184a423          	sw	s8,8(s1)
    REG32(clint, CLINT_MSIP3) = CLINT_MSIPEN;
    80000c46:	0184a623          	sw	s8,12(s1)
    s0_c0();
    80000c4a:	de6ff0ef          	jal	ra,80000230 <s0_c0>
    t_start = read_csr(mcycle);
    80000c4e:	2401                	sext.w	s0,s0
    end[0] = read_csr(mcycle);
    80000c50:	b0002bf3          	csrr	s7,mcycle
    80000c54:	2b81                	sext.w	s7,s7

    // Stage 1
    start[1] = read_csr(mcycle);
    80000c56:	b0002af3          	csrr	s5,mcycle
    REG32(clint, CLINT_MSIP2) = CLINT_MSIPEN;
    80000c5a:	4781                	li	a5,0
    start[1] = read_csr(mcycle);
    80000c5c:	2a81                	sext.w	s5,s5
    REG32(clint, CLINT_MSIP2) = CLINT_MSIPEN;
    80000c5e:	0184a423          	sw	s8,8(s1)
  for (int i = 0; i < LENGTH; i++)
    80000c62:	40000593          	li	a1,1024
        e[i] = ae[i] + bg[i];
    80000c66:	0009b683          	ld	a3,0(s3)
    80000c6a:	000a3603          	ld	a2,0(s4)
    80000c6e:	00093703          	ld	a4,0(s2)
    80000c72:	96be                	add	a3,a3,a5
    80000c74:	963e                	add	a2,a2,a5
    80000c76:	0006c683          	lbu	a3,0(a3)
    80000c7a:	00064603          	lbu	a2,0(a2)
    80000c7e:	973e                	add	a4,a4,a5
  for (int i = 0; i < LENGTH; i++)
    80000c80:	0785                	addi	a5,a5,1
        e[i] = ae[i] + bg[i];
    80000c82:	9eb1                	addw	a3,a3,a2
    80000c84:	00d70023          	sb	a3,0(a4)
  for (int i = 0; i < LENGTH; i++)
    80000c88:	fcb79fe3          	bne	a5,a1,80000c66 <main+0x282>
    s1_c0();
    end[1] = read_csr(mcycle);
    80000c8c:	b0002d73          	csrr	s10,mcycle
    80000c90:	2d01                	sext.w	s10,s10

    // Stage 2
    start[2] = read_csr(mcycle);
    80000c92:	b0002cf3          	csrr	s9,mcycle
    REG32(clint, CLINT_MSIP1) = CLINT_MSIPEN;
    80000c96:	020004b7          	lui	s1,0x2000
    80000c9a:	4905                	li	s2,1
    80000c9c:	0124a223          	sw	s2,4(s1) # 2000004 <_prog_start-0x7dfffffc>
    REG32(clint, CLINT_MSIP2) = CLINT_MSIPEN;
    80000ca0:	0124a423          	sw	s2,8(s1)
    REG32(clint, CLINT_MSIP3) = CLINT_MSIPEN;
    80000ca4:	0124a623          	sw	s2,12(s1)
    s2_c0();
    80000ca8:	811ff0ef          	jal	ra,800004b8 <s2_c0>
    start[2] = read_csr(mcycle);
    80000cac:	2c81                	sext.w	s9,s9
    end[2] = read_csr(mcycle);
    80000cae:	b0002df3          	csrr	s11,mcycle
    80000cb2:	2d81                	sext.w	s11,s11

    // Stage 3
    start[3] = read_csr(mcycle);
    80000cb4:	b0002c73          	csrr	s8,mcycle
    REG32(clint, CLINT_MSIP2) = CLINT_MSIPEN;
    80000cb8:	4781                	li	a5,0
    start[3] = read_csr(mcycle);
    80000cba:	2c01                	sext.w	s8,s8
    REG32(clint, CLINT_MSIP2) = CLINT_MSIPEN;
    80000cbc:	0124a423          	sw	s2,8(s1)
  for (int i = 0; i < LENGTH; i++)
    80000cc0:	40000593          	li	a1,1024
        f[i] = ae[i] + bg[i];
    80000cc4:	0009b683          	ld	a3,0(s3)
    80000cc8:	000a3603          	ld	a2,0(s4)
    80000ccc:	000b3703          	ld	a4,0(s6)
    80000cd0:	96be                	add	a3,a3,a5
    80000cd2:	963e                	add	a2,a2,a5
    80000cd4:	0006c683          	lbu	a3,0(a3)
    80000cd8:	00064603          	lbu	a2,0(a2)
    80000cdc:	973e                	add	a4,a4,a5
  for (int i = 0; i < LENGTH; i++)
    80000cde:	0785                	addi	a5,a5,1
        f[i] = ae[i] + bg[i];
    80000ce0:	9eb1                	addw	a3,a3,a2
    80000ce2:	00d70023          	sb	a3,0(a4)
  for (int i = 0; i < LENGTH; i++)
    80000ce6:	fcb79fe3          	bne	a5,a1,80000cc4 <main+0x2e0>
    s3_c0();
    end[3] = read_csr(mcycle);
    80000cea:	b00024f3          	csrr	s1,mcycle
    t_end = read_csr(mcycle);
    80000cee:	b00025f3          	csrr	a1,mcycle
    t_gap[3] = t_end - t_start;

    kprintf("Time spent (multi-threaded): %l (cycles)\r\n", t_gap[3]);
    80000cf2:	00000517          	auipc	a0,0x0
    80000cf6:	34650513          	addi	a0,a0,838 # 80001038 <a+0x68>
    80000cfa:	9d81                	subw	a1,a1,s0
    80000cfc:	0a2000ef          	jal	ra,80000d9e <kprintf>
    kprintf("Stage 0: %l (cycles)\r\n", end[0] - start[0]);
    80000d00:	408b85bb          	subw	a1,s7,s0
    80000d04:	00000517          	auipc	a0,0x0
    80000d08:	39450513          	addi	a0,a0,916 # 80001098 <a+0xc8>
    80000d0c:	092000ef          	jal	ra,80000d9e <kprintf>
    kprintf("Stage 1: %l (cycles)\r\n", end[1] - start[1]);
    80000d10:	415d05bb          	subw	a1,s10,s5
    80000d14:	00000517          	auipc	a0,0x0
    80000d18:	39c50513          	addi	a0,a0,924 # 800010b0 <a+0xe0>
    80000d1c:	082000ef          	jal	ra,80000d9e <kprintf>
    kprintf("Stage 2: %l (cycles)\r\n", end[2] - start[2]);
    80000d20:	419d85bb          	subw	a1,s11,s9
    80000d24:	00000517          	auipc	a0,0x0
    80000d28:	3a450513          	addi	a0,a0,932 # 800010c8 <a+0xf8>
    80000d2c:	072000ef          	jal	ra,80000d9e <kprintf>
    kprintf("Stage 3: %l (cycles)\r\n", end[3] - start[3]);
    80000d30:	418485bb          	subw	a1,s1,s8
    80000d34:	00000517          	auipc	a0,0x0
    80000d38:	3ac50513          	addi	a0,a0,940 # 800010e0 <a+0x110>
    80000d3c:	062000ef          	jal	ra,80000d9e <kprintf>

  return 0;
}
    80000d40:	70a6                	ld	ra,104(sp)
    80000d42:	7406                	ld	s0,96(sp)
    80000d44:	64e6                	ld	s1,88(sp)
    80000d46:	6946                	ld	s2,80(sp)
    80000d48:	69a6                	ld	s3,72(sp)
    80000d4a:	6a06                	ld	s4,64(sp)
    80000d4c:	7ae2                	ld	s5,56(sp)
    80000d4e:	7b42                	ld	s6,48(sp)
    80000d50:	7ba2                	ld	s7,40(sp)
    80000d52:	7c02                	ld	s8,32(sp)
    80000d54:	6ce2                	ld	s9,24(sp)
    80000d56:	6d42                	ld	s10,16(sp)
    80000d58:	6da2                	ld	s11,8(sp)
    80000d5a:	4501                	li	a0,0
    80000d5c:	6165                	addi	sp,sp,112
    80000d5e:	8082                	ret

0000000080000d60 <kputs>:
#include "kprintf.h"

static inline void _kputs(const char *s)
{
	char c;
	for (; (c = *s) != '\0'; s++)
    80000d60:	00054683          	lbu	a3,0(a0)
    80000d64:	ce81                	beqz	a3,80000d7c <kputs+0x1c>
{
	volatile uint32_t *tx = &REG32(uart, UART_REG_TXFIFO);
#ifdef __riscv_atomic
	int32_t r;
	do {
		__asm__ __volatile__ (
    80000d66:	64000737          	lui	a4,0x64000
    80000d6a:	40d727af          	amoor.w	a5,a3,(a4)
    80000d6e:	2781                	sext.w	a5,a5
			"amoor.w %0, %2, %1\n"
			: "=r" (r), "+A" (*tx)
			: "r" (c));
	} while (r < 0);
    80000d70:	fe07cde3          	bltz	a5,80000d6a <kputs+0xa>
    80000d74:	00154683          	lbu	a3,1(a0)
    80000d78:	0505                	addi	a0,a0,1
    80000d7a:	fae5                	bnez	a3,80000d6a <kputs+0xa>
		__asm__ __volatile__ (
    80000d7c:	64000737          	lui	a4,0x64000
    80000d80:	46b5                	li	a3,13
    80000d82:	40d727af          	amoor.w	a5,a3,(a4)
    80000d86:	2781                	sext.w	a5,a5
	} while (r < 0);
    80000d88:	fe07cde3          	bltz	a5,80000d82 <kputs+0x22>
		__asm__ __volatile__ (
    80000d8c:	64000737          	lui	a4,0x64000
    80000d90:	46a9                	li	a3,10
    80000d92:	40d727af          	amoor.w	a5,a3,(a4)
    80000d96:	2781                	sext.w	a5,a5
	} while (r < 0);
    80000d98:	fe07cde3          	bltz	a5,80000d92 <kputs+0x32>
void kputs(const char *s)
{
	_kputs(s);
	kputc('\r');
	kputc('\n');
}
    80000d9c:	8082                	ret

0000000080000d9e <kprintf>:

void kprintf(const char *fmt, ...)
{
    80000d9e:	7175                	addi	sp,sp,-144

	va_start(vl, fmt);
	is_format = false;
	is_long = false;
	is_char = false;
	while ((c = *fmt++) != '\0') {
    80000da0:	00054303          	lbu	t1,0(a0)
{
    80000da4:	fcbe                	sd	a5,120(sp)
	va_start(vl, fmt);
    80000da6:	08bc                	addi	a5,sp,88
{
    80000da8:	ecae                	sd	a1,88(sp)
    80000daa:	f0b2                	sd	a2,96(sp)
    80000dac:	f4b6                	sd	a3,104(sp)
    80000dae:	f8ba                	sd	a4,112(sp)
    80000db0:	e142                	sd	a6,128(sp)
    80000db2:	e546                	sd	a7,136(sp)
	va_start(vl, fmt);
    80000db4:	e43e                	sd	a5,8(sp)
	while ((c = *fmt++) != '\0') {
    80000db6:	04030e63          	beqz	t1,80000e12 <kprintf+0x74>
    80000dba:	0505                	addi	a0,a0,1
    80000dbc:	4681                	li	a3,0
    80000dbe:	4701                	li	a4,0
				break;
			}
			is_format = false;
			is_long = false;
			is_char = false;
		} else if (c == '%') {
    80000dc0:	02500e13          	li	t3,37
		__asm__ __volatile__ (
    80000dc4:	640005b7          	lui	a1,0x64000
			switch (c) {
    80000dc8:	48d5                	li	a7,21
    80000dca:	00000817          	auipc	a6,0x0
    80000dce:	32e80813          	addi	a6,a6,814 # 800010f8 <a+0x128>
		if (is_format) {
    80000dd2:	cf79                	beqz	a4,80000eb0 <kprintf+0x112>
			switch (c) {
    80000dd4:	f9d3031b          	addiw	t1,t1,-99
    80000dd8:	0ff37313          	zext.b	t1,t1
    80000ddc:	0268e463          	bltu	a7,t1,80000e04 <kprintf+0x66>
    80000de0:	00231793          	slli	a5,t1,0x2
    80000de4:	97c2                	add	a5,a5,a6
    80000de6:	439c                	lw	a5,0(a5)
    80000de8:	97c2                	add	a5,a5,a6
    80000dea:	8782                	jr	a5
				kputc(va_arg(vl, int));
    80000dec:	67a2                	ld	a5,8(sp)
    80000dee:	64000737          	lui	a4,0x64000
    80000df2:	0007c683          	lbu	a3,0(a5)
    80000df6:	07a1                	addi	a5,a5,8
    80000df8:	e43e                	sd	a5,8(sp)
    80000dfa:	40d727af          	amoor.w	a5,a3,(a4)
    80000dfe:	2781                	sext.w	a5,a5
	} while (r < 0);
    80000e00:	fe07cde3          	bltz	a5,80000dfa <kprintf+0x5c>
			is_char = false;
    80000e04:	4681                	li	a3,0
			is_format = false;
    80000e06:	4701                	li	a4,0
	while ((c = *fmt++) != '\0') {
    80000e08:	00054303          	lbu	t1,0(a0)
    80000e0c:	0505                	addi	a0,a0,1
    80000e0e:	fc0312e3          	bnez	t1,80000dd2 <kprintf+0x34>
		} else {
			kputc(c);
		}
	}
	va_end(vl);
}
    80000e12:	6149                	addi	sp,sp,144
    80000e14:	8082                	ret
					n = va_arg(vl, unsigned int);
    80000e16:	67a2                	ld	a5,8(sp)
					i = is_char ? 4 : (sizeof(unsigned int) << 3) - 4;
    80000e18:	4611                	li	a2,4
					n = va_arg(vl, unsigned int);
    80000e1a:	00878713          	addi	a4,a5,8
    80000e1e:	e43a                	sd	a4,8(sp)
    80000e20:	0007ef83          	lwu	t6,0(a5)
					i = is_char ? 4 : (sizeof(unsigned int) << 3) - 4;
    80000e24:	cef1                	beqz	a3,80000f00 <kprintf+0x162>
					kputc(d < 10 ? '0' + d : 'a' + d - 10);
    80000e26:	4f25                	li	t5,9
		__asm__ __volatile__ (
    80000e28:	64000737          	lui	a4,0x64000
				for (; i >= 0; i -= 4) {
    80000e2c:	5ef1                	li	t4,-4
					d = (n >> i) & 0xF;
    80000e2e:	00cfd7b3          	srl	a5,t6,a2
					kputc(d < 10 ? '0' + d : 'a' + d - 10);
    80000e32:	00f7f313          	andi	t1,a5,15
    80000e36:	05730693          	addi	a3,t1,87
    80000e3a:	006f6463          	bltu	t5,t1,80000e42 <kprintf+0xa4>
    80000e3e:	03030693          	addi	a3,t1,48
    80000e42:	40d727af          	amoor.w	a5,a3,(a4)
    80000e46:	2781                	sext.w	a5,a5
	} while (r < 0);
    80000e48:	fe07cde3          	bltz	a5,80000e42 <kprintf+0xa4>
				for (; i >= 0; i -= 4) {
    80000e4c:	1671                	addi	a2,a2,-4
    80000e4e:	ffd610e3          	bne	a2,t4,80000e2e <kprintf+0x90>
    80000e52:	bf4d                	j	80000e04 <kprintf+0x66>
				_kputs(va_arg(vl, const char *));
    80000e54:	67a2                	ld	a5,8(sp)
    80000e56:	6390                	ld	a2,0(a5)
    80000e58:	07a1                	addi	a5,a5,8
    80000e5a:	e43e                	sd	a5,8(sp)
	for (; (c = *s) != '\0'; s++)
    80000e5c:	00064683          	lbu	a3,0(a2)
    80000e60:	d2d5                	beqz	a3,80000e04 <kprintf+0x66>
		__asm__ __volatile__ (
    80000e62:	64000737          	lui	a4,0x64000
    80000e66:	40d727af          	amoor.w	a5,a3,(a4)
    80000e6a:	2781                	sext.w	a5,a5
	} while (r < 0);
    80000e6c:	fe07cde3          	bltz	a5,80000e66 <kprintf+0xc8>
    80000e70:	00164683          	lbu	a3,1(a2)
    80000e74:	0605                	addi	a2,a2,1
    80000e76:	fae5                	bnez	a3,80000e66 <kprintf+0xc8>
    80000e78:	b771                	j	80000e04 <kprintf+0x66>
				n = va_arg(vl, unsigned long);
    80000e7a:	67a2                	ld	a5,8(sp)
				for (int i = 0; i < 64; i ++) c[i] = 0;
    80000e7c:	e802                	sd	zero,16(sp)
    80000e7e:	ec02                	sd	zero,24(sp)
				n = va_arg(vl, unsigned long);
    80000e80:	0007b303          	ld	t1,0(a5)
    80000e84:	07a1                	addi	a5,a5,8
    80000e86:	e43e                	sd	a5,8(sp)
				for (int i = 0; i < 64; i ++) c[i] = 0;
    80000e88:	f002                	sd	zero,32(sp)
    80000e8a:	f402                	sd	zero,40(sp)
    80000e8c:	f802                	sd	zero,48(sp)
    80000e8e:	fc02                	sd	zero,56(sp)
    80000e90:	e082                	sd	zero,64(sp)
    80000e92:	e482                	sd	zero,72(sp)
				if (n == 0) {
    80000e94:	02031d63          	bnez	t1,80000ece <kprintf+0x130>
		__asm__ __volatile__ (
    80000e98:	64000737          	lui	a4,0x64000
    80000e9c:	03000693          	li	a3,48
    80000ea0:	40d727af          	amoor.w	a5,a3,(a4)
    80000ea4:	2781                	sext.w	a5,a5
	} while (r < 0);
    80000ea6:	fe07cde3          	bltz	a5,80000ea0 <kprintf+0x102>
    80000eaa:	bfa9                	j	80000e04 <kprintf+0x66>
				is_char = true;
    80000eac:	86ba                	mv	a3,a4
    80000eae:	bfa9                	j	80000e08 <kprintf+0x6a>
		} else if (c == '%') {
    80000eb0:	01c31463          	bne	t1,t3,80000eb8 <kprintf+0x11a>
			is_format = true;
    80000eb4:	4705                	li	a4,1
    80000eb6:	bf89                	j	80000e08 <kprintf+0x6a>
		__asm__ __volatile__ (
    80000eb8:	4065a7af          	amoor.w	a5,t1,(a1)
    80000ebc:	2781                	sext.w	a5,a5
	} while (r < 0);
    80000ebe:	f407d5e3          	bgez	a5,80000e08 <kprintf+0x6a>
		__asm__ __volatile__ (
    80000ec2:	4065a7af          	amoor.w	a5,t1,(a1)
    80000ec6:	2781                	sext.w	a5,a5
	} while (r < 0);
    80000ec8:	fe07c8e3          	bltz	a5,80000eb8 <kprintf+0x11a>
    80000ecc:	bf35                	j	80000e08 <kprintf+0x6a>
    80000ece:	0810                	addi	a2,sp,16
					c[0] = '0' + (n%10);
    80000ed0:	4ea9                	li	t4,10
				for (;n != 0;) {
    80000ed2:	4f25                	li	t5,9
					for (int i = 63; i > 0; i--) c[i] = c[i-1];
    80000ed4:	04e10793          	addi	a5,sp,78
    80000ed8:	0007c683          	lbu	a3,0(a5)
    80000edc:	873e                	mv	a4,a5
    80000ede:	17fd                	addi	a5,a5,-1
    80000ee0:	00d78123          	sb	a3,2(a5)
    80000ee4:	fec71ae3          	bne	a4,a2,80000ed8 <kprintf+0x13a>
					c[0] = '0' + (n%10);
    80000ee8:	03d376b3          	remu	a3,t1,t4
    80000eec:	03068693          	addi	a3,a3,48
    80000ef0:	00d10823          	sb	a3,16(sp)
					n = n / 10;
    80000ef4:	03d357b3          	divu	a5,t1,t4
				for (;n != 0;) {
    80000ef8:	006f7663          	bgeu	t5,t1,80000f04 <kprintf+0x166>
					n = n / 10;
    80000efc:	833e                	mv	t1,a5
    80000efe:	bfd9                	j	80000ed4 <kprintf+0x136>
					i = is_char ? 4 : (sizeof(unsigned int) << 3) - 4;
    80000f00:	4671                	li	a2,28
    80000f02:	b715                	j	80000e26 <kprintf+0x88>
    80000f04:	01110613          	addi	a2,sp,17
		__asm__ __volatile__ (
    80000f08:	64000737          	lui	a4,0x64000
    80000f0c:	40d727af          	amoor.w	a5,a3,(a4)
    80000f10:	2781                	sext.w	a5,a5
	} while (r < 0);
    80000f12:	fe07cde3          	bltz	a5,80000f0c <kprintf+0x16e>
				for (int i = 0; c[i] != 0; i++) kputc(c[i]);
    80000f16:	00064683          	lbu	a3,0(a2)
    80000f1a:	0605                	addi	a2,a2,1
    80000f1c:	fae5                	bnez	a3,80000f0c <kprintf+0x16e>
    80000f1e:	b5dd                	j	80000e04 <kprintf+0x66>
	...

Disassembly of section .sdata:

0000000080000f60 <mat_c>:
uint8_t *mat_c = (uint8_t *)0x70002000;
    80000f60:	2000                	fld	fs0,0(s0)
    80000f62:	7000                	ld	s0,32(s0)
    80000f64:	0000                	unimp
	...

0000000080000f68 <mat_b>:
uint8_t *mat_b = (uint8_t *)0x70001000;
    80000f68:	1000                	addi	s0,sp,32
    80000f6a:	7000                	ld	s0,32(s0)
    80000f6c:	0000                	unimp
	...

0000000080000f70 <mat_a>:
uint8_t *mat_a = (uint8_t *)0x70000000;
    80000f70:	0000                	unimp
    80000f72:	7000                	ld	s0,32(s0)
    80000f74:	0000                	unimp
	...

0000000080000f78 <h>:
uint8_t *h = (uint8_t *)0x70008000;
    80000f78:	8000                	.2byte	0x8000
    80000f7a:	7000                	ld	s0,32(s0)
    80000f7c:	0000                	unimp
	...

0000000080000f80 <g>:
uint8_t *g = (uint8_t *)0x70007000;
    80000f80:	7000                	ld	s0,32(s0)
    80000f82:	7000                	ld	s0,32(s0)
    80000f84:	0000                	unimp
	...

0000000080000f88 <f>:
uint8_t *f = (uint8_t *)0x70006000;
    80000f88:	6000                	ld	s0,0(s0)
    80000f8a:	7000                	ld	s0,32(s0)
    80000f8c:	0000                	unimp
	...

0000000080000f90 <e>:
uint8_t *e = (uint8_t *)0x70005000;
    80000f90:	5000                	lw	s0,32(s0)
    80000f92:	7000                	ld	s0,32(s0)
    80000f94:	0000                	unimp
	...

0000000080000f98 <dg>:
uint8_t *dg = (uint8_t *)0x40003400;
    80000f98:	3400                	fld	fs0,40(s0)
    80000f9a:	4000                	lw	s0,0(s0)
    80000f9c:	0000                	unimp
	...

0000000080000fa0 <ce>:
uint8_t *ce = (uint8_t *)0x40002400;
    80000fa0:	2400                	fld	fs0,8(s0)
    80000fa2:	4000                	lw	s0,0(s0)
    80000fa4:	0000                	unimp
	...

0000000080000fa8 <bg>:
uint8_t *bg = (uint8_t *)0x40001400;
    80000fa8:	1400                	addi	s0,sp,544
    80000faa:	4000                	lw	s0,0(s0)
    80000fac:	0000                	unimp
	...

0000000080000fb0 <ae>:
uint8_t *ae = (uint8_t *)0x40000400;
    80000fb0:	0400                	addi	s0,sp,512
    80000fb2:	4000                	lw	s0,0(s0)
    80000fb4:	0000                	unimp
	...

0000000080000fb8 <d>:
uint8_t *d = (uint8_t *)0x40003000;
    80000fb8:	3000                	fld	fs0,32(s0)
    80000fba:	4000                	lw	s0,0(s0)
    80000fbc:	0000                	unimp
	...

0000000080000fc0 <c>:
uint8_t *c = (uint8_t *)0x40002000;
    80000fc0:	2000                	fld	fs0,0(s0)
    80000fc2:	4000                	lw	s0,0(s0)
    80000fc4:	0000                	unimp
	...

0000000080000fc8 <b>:
uint8_t *b = (uint8_t *)0x40001000;
    80000fc8:	1000                	addi	s0,sp,32
    80000fca:	4000                	lw	s0,0(s0)
    80000fcc:	0000                	unimp
	...

0000000080000fd0 <a>:
uint8_t *a = (uint8_t *)0x40000000;
    80000fd0:	0000                	unimp
    80000fd2:	4000                	lw	s0,0(s0)
    80000fd4:	0000                	unimp
	...

Disassembly of section .rodata:

0000000080000fd8 <.rodata>:
    80000fd8:	3d3d                	addiw	s10,s10,-17
    80000fda:	3d3d                	addiw	s10,s10,-17
    80000fdc:	3d3d                	addiw	s10,s10,-17
    80000fde:	3d3d                	addiw	s10,s10,-17
    80000fe0:	3d3d                	addiw	s10,s10,-17
    80000fe2:	3d3d                	addiw	s10,s10,-17
    80000fe4:	203d                	.2byte	0x203d
    80000fe6:	614e                	ld	sp,208(sp)
    80000fe8:	7669                	lui	a2,0xffffa
    80000fea:	2065                	.2byte	0x2065
    80000fec:	3d3d                	addiw	s10,s10,-17
    80000fee:	3d3d                	addiw	s10,s10,-17
    80000ff0:	3d3d                	addiw	s10,s10,-17
    80000ff2:	3d3d                	addiw	s10,s10,-17
    80000ff4:	3d3d                	addiw	s10,s10,-17
    80000ff6:	3d3d                	addiw	s10,s10,-17
    80000ff8:	3d3d                	addiw	s10,s10,-17
    80000ffa:	3d3d                	addiw	s10,s10,-17
    80000ffc:	3d3d                	addiw	s10,s10,-17
    80000ffe:	3d3d                	addiw	s10,s10,-17
    80001000:	0d20                	addi	s0,sp,664
    80001002:	000a                	c.slli	zero,0x2
    80001004:	0000                	unimp
    80001006:	0000                	unimp
    80001008:	6954                	ld	a3,144(a0)
    8000100a:	656d                	lui	a0,0x1b
    8000100c:	7320                	ld	s0,96(a4)
    8000100e:	6570                	ld	a2,200(a0)
    80001010:	746e                	ld	s0,248(sp)
    80001012:	2820                	fld	fs0,80(s0)
    80001014:	676e6973          	csrrsi	s2,0x676,28
    80001018:	656c                	ld	a1,200(a0)
    8000101a:	7420                	ld	s0,104(s0)
    8000101c:	7268                	ld	a0,224(a2)
    8000101e:	6165                	addi	sp,sp,112
    80001020:	2964                	fld	fs1,208(a0)
    80001022:	203a                	fld	ft0,392(sp)
    80001024:	6c25                	lui	s8,0x9
    80001026:	2820                	fld	fs0,80(s0)
    80001028:	6c637963          	bgeu	t1,t1,800016fa <a+0x72a>
    8000102c:	7365                	lui	t1,0xffff9
    8000102e:	0d29                	addi	s10,s10,10
    80001030:	000a                	c.slli	zero,0x2
    80001032:	0000                	unimp
    80001034:	0000                	unimp
    80001036:	0000                	unimp
    80001038:	6954                	ld	a3,144(a0)
    8000103a:	656d                	lui	a0,0x1b
    8000103c:	7320                	ld	s0,96(a4)
    8000103e:	6570                	ld	a2,200(a0)
    80001040:	746e                	ld	s0,248(sp)
    80001042:	2820                	fld	fs0,80(s0)
    80001044:	756d                	lui	a0,0xffffb
    80001046:	746c                	ld	a1,232(s0)
    80001048:	2d69                	addiw	s10,s10,26
    8000104a:	6874                	ld	a3,208(s0)
    8000104c:	6572                	ld	a0,280(sp)
    8000104e:	6461                	lui	s0,0x18
    80001050:	6465                	lui	s0,0x19
    80001052:	3a29                	addiw	s4,s4,-22
    80001054:	2520                	fld	fs0,72(a0)
    80001056:	206c                	fld	fa1,192(s0)
    80001058:	6328                	ld	a0,64(a4)
    8000105a:	6379                	lui	t1,0x1e
    8000105c:	656c                	ld	a1,200(a0)
    8000105e:	0a0d2973          	csrrs	s2,0xa0,s10
    80001062:	0000                	unimp
    80001064:	0000                	unimp
    80001066:	0000                	unimp
    80001068:	3d3d                	addiw	s10,s10,-17
    8000106a:	3d3d                	addiw	s10,s10,-17
    8000106c:	3d3d                	addiw	s10,s10,-17
    8000106e:	3d3d                	addiw	s10,s10,-17
    80001070:	3d3d                	addiw	s10,s10,-17
    80001072:	3d3d                	addiw	s10,s10,-17
    80001074:	203d                	.2byte	0x203d
    80001076:	61727453          	.4byte	0x61727453
    8000107a:	6e657373          	csrrci	t1,0x6e6,10
    8000107e:	3d20                	fld	fs0,120(a0)
    80001080:	3d3d                	addiw	s10,s10,-17
    80001082:	3d3d                	addiw	s10,s10,-17
    80001084:	3d3d                	addiw	s10,s10,-17
    80001086:	3d3d                	addiw	s10,s10,-17
    80001088:	3d3d                	addiw	s10,s10,-17
    8000108a:	3d3d                	addiw	s10,s10,-17
    8000108c:	3d3d                	addiw	s10,s10,-17
    8000108e:	3d3d                	addiw	s10,s10,-17
    80001090:	3d3d                	addiw	s10,s10,-17
    80001092:	203d                	.2byte	0x203d
    80001094:	0a0d                	addi	s4,s4,3
    80001096:	0000                	unimp
    80001098:	67617453          	.4byte	0x67617453
    8000109c:	2065                	.2byte	0x2065
    8000109e:	3a30                	fld	fa2,112(a2)
    800010a0:	2520                	fld	fs0,72(a0)
    800010a2:	206c                	fld	fa1,192(s0)
    800010a4:	6328                	ld	a0,64(a4)
    800010a6:	6379                	lui	t1,0x1e
    800010a8:	656c                	ld	a1,200(a0)
    800010aa:	0a0d2973          	csrrs	s2,0xa0,s10
    800010ae:	0000                	unimp
    800010b0:	67617453          	.4byte	0x67617453
    800010b4:	2065                	.2byte	0x2065
    800010b6:	3a31                	addiw	s4,s4,-20
    800010b8:	2520                	fld	fs0,72(a0)
    800010ba:	206c                	fld	fa1,192(s0)
    800010bc:	6328                	ld	a0,64(a4)
    800010be:	6379                	lui	t1,0x1e
    800010c0:	656c                	ld	a1,200(a0)
    800010c2:	0a0d2973          	csrrs	s2,0xa0,s10
    800010c6:	0000                	unimp
    800010c8:	67617453          	.4byte	0x67617453
    800010cc:	2065                	.2byte	0x2065
    800010ce:	3a32                	fld	fs4,296(sp)
    800010d0:	2520                	fld	fs0,72(a0)
    800010d2:	206c                	fld	fa1,192(s0)
    800010d4:	6328                	ld	a0,64(a4)
    800010d6:	6379                	lui	t1,0x1e
    800010d8:	656c                	ld	a1,200(a0)
    800010da:	0a0d2973          	csrrs	s2,0xa0,s10
    800010de:	0000                	unimp
    800010e0:	67617453          	.4byte	0x67617453
    800010e4:	2065                	.2byte	0x2065
    800010e6:	25203a33          	.4byte	0x25203a33
    800010ea:	206c                	fld	fa1,192(s0)
    800010ec:	6328                	ld	a0,64(a4)
    800010ee:	6379                	lui	t1,0x1e
    800010f0:	656c                	ld	a1,200(a0)
    800010f2:	0a0d2973          	csrrs	s2,0xa0,s10
    800010f6:	0000                	unimp
    800010f8:	fcf4                	sd	a3,248(s1)
    800010fa:	ffff                	.2byte	0xffff
    800010fc:	fd0c                	sd	a1,56(a0)
    800010fe:	ffff                	.2byte	0xffff
    80001100:	fd0c                	sd	a1,56(a0)
    80001102:	ffff                	.2byte	0xffff
    80001104:	fd0c                	sd	a1,56(a0)
    80001106:	ffff                	.2byte	0xffff
    80001108:	fd0c                	sd	a1,56(a0)
    8000110a:	ffff                	.2byte	0xffff
    8000110c:	fdb4                	sd	a3,120(a1)
    8000110e:	ffff                	.2byte	0xffff
    80001110:	fd0c                	sd	a1,56(a0)
    80001112:	ffff                	.2byte	0xffff
    80001114:	fd0c                	sd	a1,56(a0)
    80001116:	ffff                	.2byte	0xffff
    80001118:	fd0c                	sd	a1,56(a0)
    8000111a:	ffff                	.2byte	0xffff
    8000111c:	fd82                	sd	zero,248(sp)
    8000111e:	ffff                	.2byte	0xffff
    80001120:	fd0c                	sd	a1,56(a0)
    80001122:	ffff                	.2byte	0xffff
    80001124:	fd0c                	sd	a1,56(a0)
    80001126:	ffff                	.2byte	0xffff
    80001128:	fd0c                	sd	a1,56(a0)
    8000112a:	ffff                	.2byte	0xffff
    8000112c:	fd0c                	sd	a1,56(a0)
    8000112e:	ffff                	.2byte	0xffff
    80001130:	fd0c                	sd	a1,56(a0)
    80001132:	ffff                	.2byte	0xffff
    80001134:	fd0c                	sd	a1,56(a0)
    80001136:	ffff                	.2byte	0xffff
    80001138:	fd5c                	sd	a5,184(a0)
    8000113a:	ffff                	.2byte	0xffff
    8000113c:	fd0c                	sd	a1,56(a0)
    8000113e:	ffff                	.2byte	0xffff
    80001140:	fd0c                	sd	a1,56(a0)
    80001142:	ffff                	.2byte	0xffff
    80001144:	fd0c                	sd	a1,56(a0)
    80001146:	ffff                	.2byte	0xffff
    80001148:	fd0c                	sd	a1,56(a0)
    8000114a:	ffff                	.2byte	0xffff
    8000114c:	fd1e                	sd	t2,184(sp)
    8000114e:	ffff                	.2byte	0xffff

Disassembly of section .riscv.attributes:

0000000000000000 <.riscv.attributes>:
   0:	3841                	addiw	a6,a6,-16
   2:	0000                	unimp
   4:	7200                	ld	s0,32(a2)
   6:	7369                	lui	t1,0xffffa
   8:	01007663          	bgeu	zero,a6,14 <_prog_start-0x7fffffec>
   c:	002e                	c.slli	zero,0xb
   e:	0000                	unimp
  10:	1004                	addi	s1,sp,32
  12:	7205                	lui	tp,0xfffe1
  14:	3676                	fld	fa2,376(sp)
  16:	6934                	ld	a3,80(a0)
  18:	7032                	.2byte	0x7032
  1a:	5f30                	lw	a2,120(a4)
  1c:	326d                	addiw	tp,tp,-5 # fffffffffffe0ffb <a+0xffffffff7ffe002b>
  1e:	3070                	fld	fa2,224(s0)
  20:	615f 7032 5f30      	.byte	0x5f, 0x61, 0x32, 0x70, 0x30, 0x5f
  26:	3266                	fld	ft4,120(sp)
  28:	3070                	fld	fa2,224(s0)
  2a:	645f 7032 5f30      	.byte	0x5f, 0x64, 0x32, 0x70, 0x30, 0x5f
  30:	30703263          	.4byte	0x30703263
  34:	0800                	addi	s0,sp,16
  36:	0a01                	addi	s4,s4,0
  38:	0b              	Address 0x0000000000000038 is out of bounds.


Disassembly of section .comment:

0000000000000000 <.comment>:
   0:	3a434347          	fmsub.d	ft6,ft6,ft4,ft7,rmm
   4:	2820                	fld	fs0,80(s0)
   6:	65653267          	.4byte	0x65653267
   a:	6535                	lui	a0,0xd
   c:	3334                	fld	fa3,96(a4)
   e:	3030                	fld	fa2,96(s0)
  10:	3831                	addiw	a6,a6,-20
  12:	2029                	.2byte	0x2029
  14:	3231                	addiw	tp,tp,-20 # ffffffffffffffec <a+0xffffffff7ffff01c>
  16:	322e                	fld	ft4,232(sp)
  18:	302e                	fld	ft0,232(sp)
	...

Disassembly of section .debug_line:

0000000000000000 <.debug_line>:
       0:	02fe                	slli	t0,t0,0x1f
       2:	0000                	unimp
       4:	0005                	c.nop	1
       6:	0008                	.2byte	0x8
       8:	002a                	c.slli	zero,0xa
       a:	0000                	unimp
       c:	0101                	addi	sp,sp,0
       e:	fb01                	bnez	a4,ffffffffffffff1e <a+0xffffffff7fffef4e>
      10:	0d0e                	slli	s10,s10,0x3
      12:	0100                	addi	s0,sp,128
      14:	0101                	addi	sp,sp,0
      16:	0001                	nop
      18:	0000                	unimp
      1a:	0001                	nop
      1c:	0100                	addi	s0,sp,128
      1e:	0101                	addi	sp,sp,0
      20:	011f 0000 0000      	.byte	0x1f, 0x01, 0x00, 0x00, 0x00, 0x00
      26:	0102                	c.slli64	sp
      28:	021f 020f 0040      	.byte	0x1f, 0x02, 0x0f, 0x02, 0x40, 0x00
      2e:	0000                	unimp
      30:	4000                	lw	s0,0(s0)
      32:	0000                	unimp
      34:	0000                	unimp
      36:	0900                	addi	s0,sp,144
      38:	0002                	c.slli64	zero
      3a:	0000                	unimp
      3c:	0080                	addi	s0,sp,64
      3e:	0000                	unimp
      40:	0300                	addi	s0,sp,384
      42:	010c                	addi	a1,sp,128
      44:	04090103          	lb	sp,64(s2)
      48:	0100                	addi	s0,sp,128
      4a:	04090103          	lb	sp,64(s2)
      4e:	0100                	addi	s0,sp,128
      50:	04090103          	lb	sp,64(s2)
      54:	0100                	addi	s0,sp,128
      56:	04090103          	lb	sp,64(s2)
      5a:	0100                	addi	s0,sp,128
      5c:	04090103          	lb	sp,64(s2)
      60:	0100                	addi	s0,sp,128
      62:	04090103          	lb	sp,64(s2)
      66:	0100                	addi	s0,sp,128
      68:	04090103          	lb	sp,64(s2)
      6c:	0100                	addi	s0,sp,128
      6e:	04090103          	lb	sp,64(s2)
      72:	0100                	addi	s0,sp,128
      74:	04090103          	lb	sp,64(s2)
      78:	0100                	addi	s0,sp,128
      7a:	04090203          	lb	tp,64(s2)
      7e:	0100                	addi	s0,sp,128
      80:	04090203          	lb	tp,64(s2)
      84:	0100                	addi	s0,sp,128
      86:	08090103          	lb	sp,128(s2)
      8a:	0100                	addi	s0,sp,128
      8c:	04090103          	lb	sp,64(s2)
      90:	0100                	addi	s0,sp,128
      92:	04090303          	lb	t1,64(s2)
      96:	0100                	addi	s0,sp,128
      98:	04090103          	lb	sp,64(s2)
      9c:	0100                	addi	s0,sp,128
      9e:	04090103          	lb	sp,64(s2)
      a2:	0100                	addi	s0,sp,128
      a4:	04090103          	lb	sp,64(s2)
      a8:	0100                	addi	s0,sp,128
      aa:	08090103          	lb	sp,128(s2)
      ae:	0100                	addi	s0,sp,128
      b0:	04090103          	lb	sp,64(s2)
      b4:	0100                	addi	s0,sp,128
      b6:	08090103          	lb	sp,128(s2)
      ba:	0100                	addi	s0,sp,128
      bc:	04090103          	lb	sp,64(s2)
      c0:	0100                	addi	s0,sp,128
      c2:	04090103          	lb	sp,64(s2)
      c6:	0100                	addi	s0,sp,128
      c8:	04090103          	lb	sp,64(s2)
      cc:	0100                	addi	s0,sp,128
      ce:	04090203          	lb	tp,64(s2)
      d2:	0100                	addi	s0,sp,128
      d4:	04090103          	lb	sp,64(s2)
      d8:	0100                	addi	s0,sp,128
      da:	04090103          	lb	sp,64(s2)
      de:	0100                	addi	s0,sp,128
      e0:	08090103          	lb	sp,128(s2)
      e4:	0100                	addi	s0,sp,128
      e6:	04090103          	lb	sp,64(s2)
      ea:	0100                	addi	s0,sp,128
      ec:	08090103          	lb	sp,128(s2)
      f0:	0100                	addi	s0,sp,128
      f2:	04090103          	lb	sp,64(s2)
      f6:	0100                	addi	s0,sp,128
      f8:	04090103          	lb	sp,64(s2)
      fc:	0100                	addi	s0,sp,128
      fe:	04090103          	lb	sp,64(s2)
     102:	0100                	addi	s0,sp,128
     104:	04090203          	lb	tp,64(s2)
     108:	0100                	addi	s0,sp,128
     10a:	04090103          	lb	sp,64(s2)
     10e:	0100                	addi	s0,sp,128
     110:	04090103          	lb	sp,64(s2)
     114:	0100                	addi	s0,sp,128
     116:	08090103          	lb	sp,128(s2)
     11a:	0100                	addi	s0,sp,128
     11c:	04090103          	lb	sp,64(s2)
     120:	0100                	addi	s0,sp,128
     122:	08090103          	lb	sp,128(s2)
     126:	0100                	addi	s0,sp,128
     128:	04090103          	lb	sp,64(s2)
     12c:	0100                	addi	s0,sp,128
     12e:	04090103          	lb	sp,64(s2)
     132:	0100                	addi	s0,sp,128
     134:	04090103          	lb	sp,64(s2)
     138:	0100                	addi	s0,sp,128
     13a:	04090303          	lb	t1,64(s2)
     13e:	0100                	addi	s0,sp,128
     140:	04090103          	lb	sp,64(s2)
     144:	0100                	addi	s0,sp,128
     146:	04090103          	lb	sp,64(s2)
     14a:	0100                	addi	s0,sp,128
     14c:	04090103          	lb	sp,64(s2)
     150:	0100                	addi	s0,sp,128
     152:	08090103          	lb	sp,128(s2)
     156:	0100                	addi	s0,sp,128
     158:	04090103          	lb	sp,64(s2)
     15c:	0100                	addi	s0,sp,128
     15e:	08090103          	lb	sp,128(s2)
     162:	0100                	addi	s0,sp,128
     164:	04090103          	lb	sp,64(s2)
     168:	0100                	addi	s0,sp,128
     16a:	04090103          	lb	sp,64(s2)
     16e:	0100                	addi	s0,sp,128
     170:	04090103          	lb	sp,64(s2)
     174:	0100                	addi	s0,sp,128
     176:	04090203          	lb	tp,64(s2)
     17a:	0100                	addi	s0,sp,128
     17c:	04090103          	lb	sp,64(s2)
     180:	0100                	addi	s0,sp,128
     182:	04090103          	lb	sp,64(s2)
     186:	0100                	addi	s0,sp,128
     188:	08090103          	lb	sp,128(s2)
     18c:	0100                	addi	s0,sp,128
     18e:	04090103          	lb	sp,64(s2)
     192:	0100                	addi	s0,sp,128
     194:	08090103          	lb	sp,128(s2)
     198:	0100                	addi	s0,sp,128
     19a:	04090103          	lb	sp,64(s2)
     19e:	0100                	addi	s0,sp,128
     1a0:	04090103          	lb	sp,64(s2)
     1a4:	0100                	addi	s0,sp,128
     1a6:	04090103          	lb	sp,64(s2)
     1aa:	0100                	addi	s0,sp,128
     1ac:	04090203          	lb	tp,64(s2)
     1b0:	0100                	addi	s0,sp,128
     1b2:	04090103          	lb	sp,64(s2)
     1b6:	0100                	addi	s0,sp,128
     1b8:	04090103          	lb	sp,64(s2)
     1bc:	0100                	addi	s0,sp,128
     1be:	08090103          	lb	sp,128(s2)
     1c2:	0100                	addi	s0,sp,128
     1c4:	04090103          	lb	sp,64(s2)
     1c8:	0100                	addi	s0,sp,128
     1ca:	08090103          	lb	sp,128(s2)
     1ce:	0100                	addi	s0,sp,128
     1d0:	04090103          	lb	sp,64(s2)
     1d4:	0100                	addi	s0,sp,128
     1d6:	04090103          	lb	sp,64(s2)
     1da:	0100                	addi	s0,sp,128
     1dc:	04090103          	lb	sp,64(s2)
     1e0:	0100                	addi	s0,sp,128
     1e2:	04090203          	lb	tp,64(s2)
     1e6:	0100                	addi	s0,sp,128
     1e8:	04090103          	lb	sp,64(s2)
     1ec:	0100                	addi	s0,sp,128
     1ee:	04090103          	lb	sp,64(s2)
     1f2:	0100                	addi	s0,sp,128
     1f4:	08090103          	lb	sp,128(s2)
     1f8:	0100                	addi	s0,sp,128
     1fa:	04090103          	lb	sp,64(s2)
     1fe:	0100                	addi	s0,sp,128
     200:	08090103          	lb	sp,128(s2)
     204:	0100                	addi	s0,sp,128
     206:	04090103          	lb	sp,64(s2)
     20a:	0100                	addi	s0,sp,128
     20c:	04090103          	lb	sp,64(s2)
     210:	0100                	addi	s0,sp,128
     212:	04090103          	lb	sp,64(s2)
     216:	0100                	addi	s0,sp,128
     218:	04090203          	lb	tp,64(s2)
     21c:	0100                	addi	s0,sp,128
     21e:	04090103          	lb	sp,64(s2)
     222:	0100                	addi	s0,sp,128
     224:	04090103          	lb	sp,64(s2)
     228:	0100                	addi	s0,sp,128
     22a:	08090103          	lb	sp,128(s2)
     22e:	0100                	addi	s0,sp,128
     230:	04090103          	lb	sp,64(s2)
     234:	0100                	addi	s0,sp,128
     236:	08090103          	lb	sp,128(s2)
     23a:	0100                	addi	s0,sp,128
     23c:	04090103          	lb	sp,64(s2)
     240:	0100                	addi	s0,sp,128
     242:	04090103          	lb	sp,64(s2)
     246:	0100                	addi	s0,sp,128
     248:	04090103          	lb	sp,64(s2)
     24c:	0100                	addi	s0,sp,128
     24e:	04090303          	lb	t1,64(s2)
     252:	0100                	addi	s0,sp,128
     254:	04090103          	lb	sp,64(s2)
     258:	0100                	addi	s0,sp,128
     25a:	04090103          	lb	sp,64(s2)
     25e:	0100                	addi	s0,sp,128
     260:	04090103          	lb	sp,64(s2)
     264:	0100                	addi	s0,sp,128
     266:	08090103          	lb	sp,128(s2)
     26a:	0100                	addi	s0,sp,128
     26c:	04090103          	lb	sp,64(s2)
     270:	0100                	addi	s0,sp,128
     272:	08090103          	lb	sp,128(s2)
     276:	0100                	addi	s0,sp,128
     278:	04090103          	lb	sp,64(s2)
     27c:	0100                	addi	s0,sp,128
     27e:	04090103          	lb	sp,64(s2)
     282:	0100                	addi	s0,sp,128
     284:	04090103          	lb	sp,64(s2)
     288:	0100                	addi	s0,sp,128
     28a:	04090203          	lb	tp,64(s2)
     28e:	0100                	addi	s0,sp,128
     290:	04090103          	lb	sp,64(s2)
     294:	0100                	addi	s0,sp,128
     296:	04090103          	lb	sp,64(s2)
     29a:	0100                	addi	s0,sp,128
     29c:	08090103          	lb	sp,128(s2)
     2a0:	0100                	addi	s0,sp,128
     2a2:	04090103          	lb	sp,64(s2)
     2a6:	0100                	addi	s0,sp,128
     2a8:	08090103          	lb	sp,128(s2)
     2ac:	0100                	addi	s0,sp,128
     2ae:	04090103          	lb	sp,64(s2)
     2b2:	0100                	addi	s0,sp,128
     2b4:	04090103          	lb	sp,64(s2)
     2b8:	0100                	addi	s0,sp,128
     2ba:	04090103          	lb	sp,64(s2)
     2be:	0100                	addi	s0,sp,128
     2c0:	04090203          	lb	tp,64(s2)
     2c4:	0100                	addi	s0,sp,128
     2c6:	04090103          	lb	sp,64(s2)
     2ca:	0100                	addi	s0,sp,128
     2cc:	04090103          	lb	sp,64(s2)
     2d0:	0100                	addi	s0,sp,128
     2d2:	08090103          	lb	sp,128(s2)
     2d6:	0100                	addi	s0,sp,128
     2d8:	04090103          	lb	sp,64(s2)
     2dc:	0100                	addi	s0,sp,128
     2de:	08090103          	lb	sp,128(s2)
     2e2:	0100                	addi	s0,sp,128
     2e4:	04090103          	lb	sp,64(s2)
     2e8:	0100                	addi	s0,sp,128
     2ea:	04090103          	lb	sp,64(s2)
     2ee:	0100                	addi	s0,sp,128
     2f0:	04090103          	lb	sp,64(s2)
     2f4:	0100                	addi	s0,sp,128
     2f6:	04090203          	lb	tp,64(s2)
     2fa:	0100                	addi	s0,sp,128
     2fc:	0409                	addi	s0,s0,2 # 19002 <_prog_start-0x7ffe6ffe>
     2fe:	0000                	unimp
     300:	0101                	addi	sp,sp,0
     302:	1c74                	addi	a3,sp,572
     304:	0000                	unimp
     306:	0005                	c.nop	1
     308:	0008                	.2byte	0x8
     30a:	0041                	c.nop	16
     30c:	0000                	unimp
     30e:	0101                	addi	sp,sp,0
     310:	fb01                	bnez	a4,220 <_prog_start-0x7ffffde0>
     312:	0d0e                	slli	s10,s10,0x3
     314:	0100                	addi	s0,sp,128
     316:	0101                	addi	sp,sp,0
     318:	0001                	nop
     31a:	0000                	unimp
     31c:	0001                	nop
     31e:	0100                	addi	s0,sp,128
     320:	0101                	addi	sp,sp,0
     322:	031f 0000 0000      	.byte	0x1f, 0x03, 0x00, 0x00, 0x00, 0x00
     328:	004e                	c.slli	zero,0x13
     32a:	0000                	unimp
     32c:	00b1                	addi	ra,ra,12
     32e:	0000                	unimp
     330:	0102                	c.slli64	sp
     332:	021f 050f 0047      	.byte	0x1f, 0x02, 0x0f, 0x05, 0x47, 0x00
     338:	0000                	unimp
     33a:	4700                	lw	s0,8(a4)
     33c:	0000                	unimp
     33e:	0000                	unimp
     340:	0110                	addi	a2,sp,128
     342:	0000                	unimp
     344:	2101                	sext.w	sp,sp
     346:	0001                	nop
     348:	0200                	addi	s0,sp,256
     34a:	0000012b          	.4byte	0x12b
     34e:	0500                	addi	s0,sp,640
     350:	000e                	c.slli	zero,0x3
     352:	0209                	addi	tp,tp,2 # 2 <_prog_start-0x7ffffffe>
     354:	0230                	addi	a2,sp,264
     356:	8000                	.2byte	0x8000
     358:	0000                	unimp
     35a:	0000                	unimp
     35c:	05012303          	lw	t1,80(sp)
     360:	09010303          	lb	t1,144(sp)
     364:	0000                	unimp
     366:	0501                	addi	a0,a0,0 # d000 <_prog_start-0x7fff3000>
     368:	0308                	addi	a0,sp,384
     36a:	0900                	addi	s0,sp,144
     36c:	0000                	unimp
     36e:	0501                	addi	a0,a0,0
     370:	0315                	addi	t1,t1,5 # ffffffffffffa005 <a+0xffffffff7fff9035>
     372:	0900                	addi	s0,sp,144
     374:	0000                	unimp
     376:	0501                	addi	a0,a0,0
     378:	060e                	slli	a2,a2,0x3
     37a:	00097f03          	.4byte	0x97f03
     37e:	0100                	addi	s0,sp,128
     380:	1705                	addi	a4,a4,-31 # 63ffffe1 <_prog_start-0x1c00001f>
     382:	1c090203          	lb	tp,448(s2)
     386:	0100                	addi	s0,sp,128
     388:	1505                	addi	a0,a0,-31
     38a:	04097f03          	.4byte	0x4097f03
     38e:	0100                	addi	s0,sp,128
     390:	1705                	addi	a4,a4,-31
     392:	0306                	slli	t1,t1,0x1
     394:	0901                	addi	s2,s2,0
     396:	0004                	.2byte	0x4
     398:	0501                	addi	a0,a0,0
     39a:	060e                	slli	a2,a2,0x3
     39c:	00097e03          	.4byte	0x97e03
     3a0:	0100                	addi	s0,sp,128
     3a2:	1905                	addi	s2,s2,-31
     3a4:	0306                	slli	t1,t1,0x1
     3a6:	00080903          	lb	s2,0(a6)
     3aa:	0501                	addi	a0,a0,0
     3ac:	060e                	slli	a2,a2,0x3
     3ae:	00097d03          	.4byte	0x97d03
     3b2:	0100                	addi	s0,sp,128
     3b4:	0905                	addi	s2,s2,1
     3b6:	0200                	addi	s0,sp,256
     3b8:	0304                	addi	s1,sp,384
     3ba:	0306                	slli	t1,t1,0x1
     3bc:	0904                	addi	s1,sp,144
     3be:	0004                	.2byte	0x4
     3c0:	0501                	addi	a0,a0,0
     3c2:	0402001b          	addiw	zero,tp,64 # 40 <_prog_start-0x7fffffc0>
     3c6:	00030603          	lb	a2,0(t1)
     3ca:	0009                	c.nop	2
     3cc:	0100                	addi	s0,sp,128
     3ce:	2b05                	addiw	s6,s6,1
     3d0:	0200                	addi	s0,sp,256
     3d2:	0304                	addi	s1,sp,384
     3d4:	04090003          	lb	zero,64(s2)
     3d8:	0100                	addi	s0,sp,128
     3da:	1805                	addi	a6,a6,-31
     3dc:	0200                	addi	s0,sp,256
     3de:	0304                	addi	s1,sp,384
     3e0:	04090003          	lb	zero,64(s2)
     3e4:	0100                	addi	s0,sp,128
     3e6:	1b05                	addi	s6,s6,-31
     3e8:	0200                	addi	s0,sp,256
     3ea:	0304                	addi	s1,sp,384
     3ec:	04090003          	lb	zero,64(s2)
     3f0:	0100                	addi	s0,sp,128
     3f2:	2b05                	addiw	s6,s6,1
     3f4:	0200                	addi	s0,sp,256
     3f6:	0304                	addi	s1,sp,384
     3f8:	02090003          	lb	zero,32(s2)
     3fc:	0100                	addi	s0,sp,128
     3fe:	2805                	addiw	a6,a6,1
     400:	0200                	addi	s0,sp,256
     402:	0304                	addi	s1,sp,384
     404:	02090003          	lb	zero,32(s2)
     408:	0100                	addi	s0,sp,128
     40a:	1805                	addi	a6,a6,-31
     40c:	0200                	addi	s0,sp,256
     40e:	0304                	addi	s1,sp,384
     410:	08090003          	lb	zero,128(s2)
     414:	0100                	addi	s0,sp,128
     416:	1905                	addi	s2,s2,-31
     418:	0200                	addi	s0,sp,256
     41a:	0304                	addi	s1,sp,384
     41c:	02097f03          	.4byte	0x2097f03
     420:	0100                	addi	s0,sp,128
     422:	2805                	addiw	a6,a6,1
     424:	0200                	addi	s0,sp,256
     426:	0304                	addi	s1,sp,384
     428:	02090103          	lb	sp,32(s2)
     42c:	0100                	addi	s0,sp,128
     42e:	1805                	addi	a6,a6,-31
     430:	0200                	addi	s0,sp,256
     432:	0304                	addi	s1,sp,384
     434:	02090003          	lb	zero,32(s2)
     438:	0100                	addi	s0,sp,128
     43a:	2205                	addiw	tp,tp,1 # 1 <_prog_start-0x7fffffff>
     43c:	0200                	addi	s0,sp,256
     43e:	0304                	addi	s1,sp,384
     440:	0306                	slli	t1,t1,0x1
     442:	097f                	.2byte	0x97f
     444:	0004                	.2byte	0x4
     446:	0501                	addi	a0,a0,0
     448:	0019                	c.nop	6
     44a:	0402                	c.slli64	s0
     44c:	09000303          	lb	t1,144(zero) # 90 <_prog_start-0x7fffff70>
     450:	0000                	unimp
     452:	0501                	addi	a0,a0,0
     454:	0020                	addi	s0,sp,8
     456:	0402                	c.slli64	s0
     458:	0302                	c.slli64	t1
     45a:	097f                	.2byte	0x97f
     45c:	0008                	.2byte	0x8
     45e:	0501                	addi	a0,a0,0
     460:	04020017          	auipc	zero,0x4020
     464:	0302                	c.slli64	t1
     466:	0900                	addi	s0,sp,144
     468:	0000                	unimp
     46a:	0501                	addi	a0,a0,0
     46c:	001e                	c.slli	zero,0x7
     46e:	0402                	c.slli64	s0
     470:	0302                	c.slli64	t1
     472:	097f                	.2byte	0x97f
     474:	000e                	c.slli	zero,0x3
     476:	0501                	addi	a0,a0,0
     478:	0015                	c.nop	5
     47a:	0402                	c.slli64	s0
     47c:	0302                	c.slli64	t1
     47e:	0900                	addi	s0,sp,144
     480:	0000                	unimp
     482:	0501                	addi	a0,a0,0
     484:	0601                	addi	a2,a2,0 # ffffffffffffa000 <a+0xffffffff7fff9030>
     486:	0a090403          	lb	s0,160(s2)
     48a:	0100                	addi	s0,sp,128
     48c:	0e05                	addi	t3,t3,1
     48e:	0306                	slli	t1,t1,0x1
     490:	0902                	c.slli64	s2
     492:	0002                	c.slli64	zero
     494:	0501                	addi	a0,a0,0
     496:	09010303          	lb	t1,144(sp)
     49a:	0000                	unimp
     49c:	0501                	addi	a0,a0,0
     49e:	0308                	addi	a0,sp,384
     4a0:	0900                	addi	s0,sp,144
     4a2:	0000                	unimp
     4a4:	0501                	addi	a0,a0,0
     4a6:	0315                	addi	t1,t1,5
     4a8:	0900                	addi	s0,sp,144
     4aa:	0000                	unimp
     4ac:	0501                	addi	a0,a0,0
     4ae:	060e                	slli	a2,a2,0x3
     4b0:	00097f03          	.4byte	0x97f03
     4b4:	0100                	addi	s0,sp,128
     4b6:	04090003          	lb	zero,64(s2)
     4ba:	0100                	addi	s0,sp,128
     4bc:	1705                	addi	a4,a4,-31
     4be:	1c090203          	lb	tp,448(s2)
     4c2:	0100                	addi	s0,sp,128
     4c4:	1505                	addi	a0,a0,-31
     4c6:	04097f03          	.4byte	0x4097f03
     4ca:	0100                	addi	s0,sp,128
     4cc:	1705                	addi	a4,a4,-31
     4ce:	0306                	slli	t1,t1,0x1
     4d0:	0901                	addi	s2,s2,0
     4d2:	0004                	.2byte	0x4
     4d4:	0501                	addi	a0,a0,0
     4d6:	060e                	slli	a2,a2,0x3
     4d8:	00097e03          	.4byte	0x97e03
     4dc:	0100                	addi	s0,sp,128
     4de:	1905                	addi	s2,s2,-31
     4e0:	0306                	slli	t1,t1,0x1
     4e2:	00080903          	lb	s2,0(a6)
     4e6:	0501                	addi	a0,a0,0
     4e8:	060e                	slli	a2,a2,0x3
     4ea:	00097d03          	.4byte	0x97d03
     4ee:	0100                	addi	s0,sp,128
     4f0:	0905                	addi	s2,s2,1
     4f2:	0200                	addi	s0,sp,256
     4f4:	0304                	addi	s1,sp,384
     4f6:	0306                	slli	t1,t1,0x1
     4f8:	0904                	addi	s1,sp,144
     4fa:	0004                	.2byte	0x4
     4fc:	0501                	addi	a0,a0,0
     4fe:	001c                	.2byte	0x1c
     500:	0402                	c.slli64	s0
     502:	00030603          	lb	a2,0(t1)
     506:	0009                	c.nop	2
     508:	0100                	addi	s0,sp,128
     50a:	2c05                	addiw	s8,s8,1 # 9001 <_prog_start-0x7fff6fff>
     50c:	0200                	addi	s0,sp,256
     50e:	0304                	addi	s1,sp,384
     510:	04090003          	lb	zero,64(s2)
     514:	0100                	addi	s0,sp,128
     516:	0b05                	addi	s6,s6,1
     518:	0200                	addi	s0,sp,256
     51a:	0304                	addi	s1,sp,384
     51c:	04090003          	lb	zero,64(s2)
     520:	0100                	addi	s0,sp,128
     522:	1c05                	addi	s8,s8,-31
     524:	0200                	addi	s0,sp,256
     526:	0304                	addi	s1,sp,384
     528:	04090003          	lb	zero,64(s2)
     52c:	0100                	addi	s0,sp,128
     52e:	2c05                	addiw	s8,s8,1
     530:	0200                	addi	s0,sp,256
     532:	0304                	addi	s1,sp,384
     534:	02090003          	lb	zero,32(s2)
     538:	0100                	addi	s0,sp,128
     53a:	2905                	addiw	s2,s2,1
     53c:	0200                	addi	s0,sp,256
     53e:	0304                	addi	s1,sp,384
     540:	02090003          	lb	zero,32(s2)
     544:	0100                	addi	s0,sp,128
     546:	0b05                	addi	s6,s6,1
     548:	0200                	addi	s0,sp,256
     54a:	0304                	addi	s1,sp,384
     54c:	08090003          	lb	zero,128(s2)
     550:	0100                	addi	s0,sp,128
     552:	1805                	addi	a6,a6,-31
     554:	0200                	addi	s0,sp,256
     556:	0304                	addi	s1,sp,384
     558:	02090003          	lb	zero,32(s2)
     55c:	0100                	addi	s0,sp,128
     55e:	2905                	addiw	s2,s2,1
     560:	0200                	addi	s0,sp,256
     562:	0304                	addi	s1,sp,384
     564:	04090003          	lb	zero,64(s2)
     568:	0100                	addi	s0,sp,128
     56a:	1905                	addi	s2,s2,-31
     56c:	0200                	addi	s0,sp,256
     56e:	0304                	addi	s1,sp,384
     570:	04097f03          	.4byte	0x4097f03
     574:	0100                	addi	s0,sp,128
     576:	1805                	addi	a6,a6,-31
     578:	0200                	addi	s0,sp,256
     57a:	0304                	addi	s1,sp,384
     57c:	06090103          	lb	sp,96(s2)
     580:	0100                	addi	s0,sp,128
     582:	2205                	addiw	tp,tp,1 # 1 <_prog_start-0x7fffffff>
     584:	0200                	addi	s0,sp,256
     586:	0304                	addi	s1,sp,384
     588:	0306                	slli	t1,t1,0x1
     58a:	097f                	.2byte	0x97f
     58c:	0006                	c.slli	zero,0x1
     58e:	0501                	addi	a0,a0,0
     590:	0019                	c.nop	6
     592:	0402                	c.slli64	s0
     594:	09000303          	lb	t1,144(zero) # 90 <_prog_start-0x7fffff70>
     598:	0000                	unimp
     59a:	0501                	addi	a0,a0,0
     59c:	0020                	addi	s0,sp,8
     59e:	0402                	c.slli64	s0
     5a0:	0302                	c.slli64	t1
     5a2:	097f                	.2byte	0x97f
     5a4:	0004                	.2byte	0x4
     5a6:	0501                	addi	a0,a0,0
     5a8:	04020017          	auipc	zero,0x4020
     5ac:	0302                	c.slli64	t1
     5ae:	0900                	addi	s0,sp,144
     5b0:	0000                	unimp
     5b2:	0501                	addi	a0,a0,0
     5b4:	001e                	c.slli	zero,0x7
     5b6:	0402                	c.slli64	s0
     5b8:	0302                	c.slli64	t1
     5ba:	097f                	.2byte	0x97f
     5bc:	000e                	c.slli	zero,0x3
     5be:	0501                	addi	a0,a0,0
     5c0:	0015                	c.nop	5
     5c2:	0402                	c.slli64	s0
     5c4:	0302                	c.slli64	t1
     5c6:	0900                	addi	s0,sp,144
     5c8:	0000                	unimp
     5ca:	0501                	addi	a0,a0,0
     5cc:	0601                	addi	a2,a2,0
     5ce:	0a090403          	lb	s0,160(s2)
     5d2:	0100                	addi	s0,sp,128
     5d4:	0e05                	addi	t3,t3,1
     5d6:	0306                	slli	t1,t1,0x1
     5d8:	0902                	c.slli64	s2
     5da:	0006                	c.slli	zero,0x1
     5dc:	0501                	addi	a0,a0,0
     5de:	09010303          	lb	t1,144(sp)
     5e2:	0000                	unimp
     5e4:	0501                	addi	a0,a0,0
     5e6:	0308                	addi	a0,sp,384
     5e8:	0900                	addi	s0,sp,144
     5ea:	0000                	unimp
     5ec:	0501                	addi	a0,a0,0
     5ee:	0315                	addi	t1,t1,5
     5f0:	0900                	addi	s0,sp,144
     5f2:	0000                	unimp
     5f4:	0501                	addi	a0,a0,0
     5f6:	060e                	slli	a2,a2,0x3
     5f8:	00097f03          	.4byte	0x97f03
     5fc:	0100                	addi	s0,sp,128
     5fe:	04090003          	lb	zero,64(s2)
     602:	0100                	addi	s0,sp,128
     604:	1705                	addi	a4,a4,-31
     606:	1c090203          	lb	tp,448(s2)
     60a:	0100                	addi	s0,sp,128
     60c:	1505                	addi	a0,a0,-31
     60e:	04097f03          	.4byte	0x4097f03
     612:	0100                	addi	s0,sp,128
     614:	1705                	addi	a4,a4,-31
     616:	0306                	slli	t1,t1,0x1
     618:	0901                	addi	s2,s2,0
     61a:	0004                	.2byte	0x4
     61c:	0501                	addi	a0,a0,0
     61e:	060e                	slli	a2,a2,0x3
     620:	00097e03          	.4byte	0x97e03
     624:	0100                	addi	s0,sp,128
     626:	1905                	addi	s2,s2,-31
     628:	0306                	slli	t1,t1,0x1
     62a:	00080903          	lb	s2,0(a6)
     62e:	0501                	addi	a0,a0,0
     630:	060e                	slli	a2,a2,0x3
     632:	00097d03          	.4byte	0x97d03
     636:	0100                	addi	s0,sp,128
     638:	0905                	addi	s2,s2,1
     63a:	0200                	addi	s0,sp,256
     63c:	0304                	addi	s1,sp,384
     63e:	0306                	slli	t1,t1,0x1
     640:	0904                	addi	s1,sp,144
     642:	0004                	.2byte	0x4
     644:	0501                	addi	a0,a0,0
     646:	001c                	.2byte	0x1c
     648:	0402                	c.slli64	s0
     64a:	00030603          	lb	a2,0(t1)
     64e:	0009                	c.nop	2
     650:	0100                	addi	s0,sp,128
     652:	2c05                	addiw	s8,s8,1
     654:	0200                	addi	s0,sp,256
     656:	0304                	addi	s1,sp,384
     658:	04090003          	lb	zero,64(s2)
     65c:	0100                	addi	s0,sp,128
     65e:	0b05                	addi	s6,s6,1
     660:	0200                	addi	s0,sp,256
     662:	0304                	addi	s1,sp,384
     664:	04090003          	lb	zero,64(s2)
     668:	0100                	addi	s0,sp,128
     66a:	1c05                	addi	s8,s8,-31
     66c:	0200                	addi	s0,sp,256
     66e:	0304                	addi	s1,sp,384
     670:	04090003          	lb	zero,64(s2)
     674:	0100                	addi	s0,sp,128
     676:	2c05                	addiw	s8,s8,1
     678:	0200                	addi	s0,sp,256
     67a:	0304                	addi	s1,sp,384
     67c:	02090003          	lb	zero,32(s2)
     680:	0100                	addi	s0,sp,128
     682:	2905                	addiw	s2,s2,1
     684:	0200                	addi	s0,sp,256
     686:	0304                	addi	s1,sp,384
     688:	02090003          	lb	zero,32(s2)
     68c:	0100                	addi	s0,sp,128
     68e:	0b05                	addi	s6,s6,1
     690:	0200                	addi	s0,sp,256
     692:	0304                	addi	s1,sp,384
     694:	08090003          	lb	zero,128(s2)
     698:	0100                	addi	s0,sp,128
     69a:	1805                	addi	a6,a6,-31
     69c:	0200                	addi	s0,sp,256
     69e:	0304                	addi	s1,sp,384
     6a0:	02090003          	lb	zero,32(s2)
     6a4:	0100                	addi	s0,sp,128
     6a6:	2905                	addiw	s2,s2,1
     6a8:	0200                	addi	s0,sp,256
     6aa:	0304                	addi	s1,sp,384
     6ac:	04090003          	lb	zero,64(s2)
     6b0:	0100                	addi	s0,sp,128
     6b2:	1905                	addi	s2,s2,-31
     6b4:	0200                	addi	s0,sp,256
     6b6:	0304                	addi	s1,sp,384
     6b8:	04097f03          	.4byte	0x4097f03
     6bc:	0100                	addi	s0,sp,128
     6be:	1805                	addi	a6,a6,-31
     6c0:	0200                	addi	s0,sp,256
     6c2:	0304                	addi	s1,sp,384
     6c4:	06090103          	lb	sp,96(s2)
     6c8:	0100                	addi	s0,sp,128
     6ca:	2205                	addiw	tp,tp,1 # 1 <_prog_start-0x7fffffff>
     6cc:	0200                	addi	s0,sp,256
     6ce:	0304                	addi	s1,sp,384
     6d0:	0306                	slli	t1,t1,0x1
     6d2:	097f                	.2byte	0x97f
     6d4:	0006                	c.slli	zero,0x1
     6d6:	0501                	addi	a0,a0,0
     6d8:	0019                	c.nop	6
     6da:	0402                	c.slli64	s0
     6dc:	09000303          	lb	t1,144(zero) # 90 <_prog_start-0x7fffff70>
     6e0:	0000                	unimp
     6e2:	0501                	addi	a0,a0,0
     6e4:	0020                	addi	s0,sp,8
     6e6:	0402                	c.slli64	s0
     6e8:	0302                	c.slli64	t1
     6ea:	097f                	.2byte	0x97f
     6ec:	0004                	.2byte	0x4
     6ee:	0501                	addi	a0,a0,0
     6f0:	04020017          	auipc	zero,0x4020
     6f4:	0302                	c.slli64	t1
     6f6:	0900                	addi	s0,sp,144
     6f8:	0000                	unimp
     6fa:	0501                	addi	a0,a0,0
     6fc:	001e                	c.slli	zero,0x7
     6fe:	0402                	c.slli64	s0
     700:	0302                	c.slli64	t1
     702:	097f                	.2byte	0x97f
     704:	000e                	c.slli	zero,0x3
     706:	0501                	addi	a0,a0,0
     708:	0015                	c.nop	5
     70a:	0402                	c.slli64	s0
     70c:	0302                	c.slli64	t1
     70e:	0900                	addi	s0,sp,144
     710:	0000                	unimp
     712:	0501                	addi	a0,a0,0
     714:	0601                	addi	a2,a2,0
     716:	0a090403          	lb	s0,160(s2)
     71a:	0100                	addi	s0,sp,128
     71c:	0e05                	addi	t3,t3,1
     71e:	0306                	slli	t1,t1,0x1
     720:	0902                	c.slli64	s2
     722:	0006                	c.slli	zero,0x1
     724:	0501                	addi	a0,a0,0
     726:	09010303          	lb	t1,144(sp)
     72a:	0000                	unimp
     72c:	0501                	addi	a0,a0,0
     72e:	0308                	addi	a0,sp,384
     730:	0900                	addi	s0,sp,144
     732:	0000                	unimp
     734:	0501                	addi	a0,a0,0
     736:	0315                	addi	t1,t1,5
     738:	0900                	addi	s0,sp,144
     73a:	0000                	unimp
     73c:	0501                	addi	a0,a0,0
     73e:	060e                	slli	a2,a2,0x3
     740:	00097f03          	.4byte	0x97f03
     744:	0100                	addi	s0,sp,128
     746:	04090003          	lb	zero,64(s2)
     74a:	0100                	addi	s0,sp,128
     74c:	1705                	addi	a4,a4,-31
     74e:	1c090203          	lb	tp,448(s2)
     752:	0100                	addi	s0,sp,128
     754:	1505                	addi	a0,a0,-31
     756:	04097f03          	.4byte	0x4097f03
     75a:	0100                	addi	s0,sp,128
     75c:	1705                	addi	a4,a4,-31
     75e:	0306                	slli	t1,t1,0x1
     760:	0901                	addi	s2,s2,0
     762:	0004                	.2byte	0x4
     764:	0501                	addi	a0,a0,0
     766:	060e                	slli	a2,a2,0x3
     768:	00097e03          	.4byte	0x97e03
     76c:	0100                	addi	s0,sp,128
     76e:	1905                	addi	s2,s2,-31
     770:	0306                	slli	t1,t1,0x1
     772:	00080903          	lb	s2,0(a6)
     776:	0501                	addi	a0,a0,0
     778:	060e                	slli	a2,a2,0x3
     77a:	00097d03          	.4byte	0x97d03
     77e:	0100                	addi	s0,sp,128
     780:	0905                	addi	s2,s2,1
     782:	0200                	addi	s0,sp,256
     784:	0304                	addi	s1,sp,384
     786:	0306                	slli	t1,t1,0x1
     788:	0904                	addi	s1,sp,144
     78a:	0004                	.2byte	0x4
     78c:	0501                	addi	a0,a0,0
     78e:	001c                	.2byte	0x1c
     790:	0402                	c.slli64	s0
     792:	00030603          	lb	a2,0(t1)
     796:	0009                	c.nop	2
     798:	0100                	addi	s0,sp,128
     79a:	2c05                	addiw	s8,s8,1
     79c:	0200                	addi	s0,sp,256
     79e:	0304                	addi	s1,sp,384
     7a0:	04090003          	lb	zero,64(s2)
     7a4:	0100                	addi	s0,sp,128
     7a6:	0b05                	addi	s6,s6,1
     7a8:	0200                	addi	s0,sp,256
     7aa:	0304                	addi	s1,sp,384
     7ac:	04090003          	lb	zero,64(s2)
     7b0:	0100                	addi	s0,sp,128
     7b2:	1c05                	addi	s8,s8,-31
     7b4:	0200                	addi	s0,sp,256
     7b6:	0304                	addi	s1,sp,384
     7b8:	04090003          	lb	zero,64(s2)
     7bc:	0100                	addi	s0,sp,128
     7be:	2c05                	addiw	s8,s8,1
     7c0:	0200                	addi	s0,sp,256
     7c2:	0304                	addi	s1,sp,384
     7c4:	02090003          	lb	zero,32(s2)
     7c8:	0100                	addi	s0,sp,128
     7ca:	2905                	addiw	s2,s2,1
     7cc:	0200                	addi	s0,sp,256
     7ce:	0304                	addi	s1,sp,384
     7d0:	02090003          	lb	zero,32(s2)
     7d4:	0100                	addi	s0,sp,128
     7d6:	0b05                	addi	s6,s6,1
     7d8:	0200                	addi	s0,sp,256
     7da:	0304                	addi	s1,sp,384
     7dc:	08090003          	lb	zero,128(s2)
     7e0:	0100                	addi	s0,sp,128
     7e2:	1805                	addi	a6,a6,-31
     7e4:	0200                	addi	s0,sp,256
     7e6:	0304                	addi	s1,sp,384
     7e8:	02090003          	lb	zero,32(s2)
     7ec:	0100                	addi	s0,sp,128
     7ee:	2905                	addiw	s2,s2,1
     7f0:	0200                	addi	s0,sp,256
     7f2:	0304                	addi	s1,sp,384
     7f4:	04090003          	lb	zero,64(s2)
     7f8:	0100                	addi	s0,sp,128
     7fa:	1905                	addi	s2,s2,-31
     7fc:	0200                	addi	s0,sp,256
     7fe:	0304                	addi	s1,sp,384
     800:	04097f03          	.4byte	0x4097f03
     804:	0100                	addi	s0,sp,128
     806:	1805                	addi	a6,a6,-31
     808:	0200                	addi	s0,sp,256
     80a:	0304                	addi	s1,sp,384
     80c:	06090103          	lb	sp,96(s2)
     810:	0100                	addi	s0,sp,128
     812:	2205                	addiw	tp,tp,1 # 1 <_prog_start-0x7fffffff>
     814:	0200                	addi	s0,sp,256
     816:	0304                	addi	s1,sp,384
     818:	0306                	slli	t1,t1,0x1
     81a:	097f                	.2byte	0x97f
     81c:	0006                	c.slli	zero,0x1
     81e:	0501                	addi	a0,a0,0
     820:	0019                	c.nop	6
     822:	0402                	c.slli64	s0
     824:	09000303          	lb	t1,144(zero) # 90 <_prog_start-0x7fffff70>
     828:	0000                	unimp
     82a:	0501                	addi	a0,a0,0
     82c:	0020                	addi	s0,sp,8
     82e:	0402                	c.slli64	s0
     830:	0302                	c.slli64	t1
     832:	097f                	.2byte	0x97f
     834:	0004                	.2byte	0x4
     836:	0501                	addi	a0,a0,0
     838:	04020017          	auipc	zero,0x4020
     83c:	0302                	c.slli64	t1
     83e:	0900                	addi	s0,sp,144
     840:	0000                	unimp
     842:	0501                	addi	a0,a0,0
     844:	001e                	c.slli	zero,0x7
     846:	0402                	c.slli64	s0
     848:	0302                	c.slli64	t1
     84a:	097f                	.2byte	0x97f
     84c:	000e                	c.slli	zero,0x3
     84e:	0501                	addi	a0,a0,0
     850:	0015                	c.nop	5
     852:	0402                	c.slli64	s0
     854:	0302                	c.slli64	t1
     856:	0900                	addi	s0,sp,144
     858:	0000                	unimp
     85a:	0501                	addi	a0,a0,0
     85c:	0601                	addi	a2,a2,0
     85e:	0a090403          	lb	s0,160(s2)
     862:	0100                	addi	s0,sp,128
     864:	0e05                	addi	t3,t3,1
     866:	0306                	slli	t1,t1,0x1
     868:	00060903          	lb	s2,0(a2)
     86c:	0501                	addi	a0,a0,0
     86e:	09010303          	lb	t1,144(sp)
     872:	0000                	unimp
     874:	0501                	addi	a0,a0,0
     876:	0308                	addi	a0,sp,384
     878:	0900                	addi	s0,sp,144
     87a:	0000                	unimp
     87c:	0501                	addi	a0,a0,0
     87e:	0315                	addi	t1,t1,5
     880:	0900                	addi	s0,sp,144
     882:	0000                	unimp
     884:	0501                	addi	a0,a0,0
     886:	060e                	slli	a2,a2,0x3
     888:	00097f03          	.4byte	0x97f03
     88c:	0100                	addi	s0,sp,128
     88e:	1505                	addi	a0,a0,-31
     890:	1a090103          	lb	sp,416(s2)
     894:	0100                	addi	s0,sp,128
     896:	0905                	addi	s2,s2,1
     898:	0200                	addi	s0,sp,256
     89a:	0304                	addi	s1,sp,384
     89c:	0306                	slli	t1,t1,0x1
     89e:	0901                	addi	s2,s2,0
     8a0:	0004                	.2byte	0x4
     8a2:	0501                	addi	a0,a0,0
     8a4:	0012                	c.slli	zero,0x4
     8a6:	0402                	c.slli64	s0
     8a8:	00030603          	lb	a2,0(t1)
     8ac:	0009                	c.nop	2
     8ae:	0100                	addi	s0,sp,128
     8b0:	1a05                	addi	s4,s4,-31
     8b2:	0200                	addi	s0,sp,256
     8b4:	0304                	addi	s1,sp,384
     8b6:	04090003          	lb	zero,64(s2)
     8ba:	0100                	addi	s0,sp,128
     8bc:	0e05                	addi	t3,t3,1
     8be:	0200                	addi	s0,sp,256
     8c0:	0304                	addi	s1,sp,384
     8c2:	02090003          	lb	zero,32(s2)
     8c6:	0100                	addi	s0,sp,128
     8c8:	1205                	addi	tp,tp,-31 # ffffffffffffffe1 <a+0xffffffff7ffff011>
     8ca:	0200                	addi	s0,sp,256
     8cc:	0304                	addi	s1,sp,384
     8ce:	04090003          	lb	zero,64(s2)
     8d2:	0100                	addi	s0,sp,128
     8d4:	1a05                	addi	s4,s4,-31
     8d6:	0200                	addi	s0,sp,256
     8d8:	0304                	addi	s1,sp,384
     8da:	02090003          	lb	zero,32(s2)
     8de:	0100                	addi	s0,sp,128
     8e0:	1605                	addi	a2,a2,-31
     8e2:	0200                	addi	s0,sp,256
     8e4:	0304                	addi	s1,sp,384
     8e6:	02090003          	lb	zero,32(s2)
     8ea:	0100                	addi	s0,sp,128
     8ec:	0e05                	addi	t3,t3,1
     8ee:	0200                	addi	s0,sp,256
     8f0:	0304                	addi	s1,sp,384
     8f2:	08090003          	lb	zero,128(s2)
     8f6:	0100                	addi	s0,sp,128
     8f8:	1505                	addi	a0,a0,-31
     8fa:	0200                	addi	s0,sp,256
     8fc:	0304                	addi	s1,sp,384
     8fe:	02097f03          	.4byte	0x2097f03
     902:	0100                	addi	s0,sp,128
     904:	1605                	addi	a2,a2,-31
     906:	0200                	addi	s0,sp,256
     908:	0304                	addi	s1,sp,384
     90a:	02090103          	lb	sp,32(s2)
     90e:	0100                	addi	s0,sp,128
     910:	0e05                	addi	t3,t3,1
     912:	0200                	addi	s0,sp,256
     914:	0304                	addi	s1,sp,384
     916:	02090003          	lb	zero,32(s2)
     91a:	0100                	addi	s0,sp,128
     91c:	2005                	.2byte	0x2005
     91e:	0200                	addi	s0,sp,256
     920:	0304                	addi	s1,sp,384
     922:	0306                	slli	t1,t1,0x1
     924:	097f                	.2byte	0x97f
     926:	0004                	.2byte	0x4
     928:	0501                	addi	a0,a0,0
     92a:	0015                	c.nop	5
     92c:	0402                	c.slli64	s0
     92e:	09000303          	lb	t1,144(zero) # 90 <_prog_start-0x7fffff70>
     932:	0000                	unimp
     934:	0501                	addi	a0,a0,0
     936:	0601                	addi	a2,a2,0
     938:	04090203          	lb	tp,64(s2)
     93c:	0100                	addi	s0,sp,128
     93e:	0e05                	addi	t3,t3,1
     940:	0306                	slli	t1,t1,0x1
     942:	0902                	c.slli64	s2
     944:	0002                	c.slli64	zero
     946:	0501                	addi	a0,a0,0
     948:	09010303          	lb	t1,144(sp)
     94c:	0000                	unimp
     94e:	0501                	addi	a0,a0,0
     950:	0308                	addi	a0,sp,384
     952:	0900                	addi	s0,sp,144
     954:	0000                	unimp
     956:	0501                	addi	a0,a0,0
     958:	0315                	addi	t1,t1,5
     95a:	0900                	addi	s0,sp,144
     95c:	0000                	unimp
     95e:	0501                	addi	a0,a0,0
     960:	060e                	slli	a2,a2,0x3
     962:	00097f03          	.4byte	0x97f03
     966:	0100                	addi	s0,sp,128
     968:	1505                	addi	a0,a0,-31
     96a:	1a090103          	lb	sp,416(s2)
     96e:	0100                	addi	s0,sp,128
     970:	0905                	addi	s2,s2,1
     972:	0200                	addi	s0,sp,256
     974:	0304                	addi	s1,sp,384
     976:	0306                	slli	t1,t1,0x1
     978:	0901                	addi	s2,s2,0
     97a:	0004                	.2byte	0x4
     97c:	0501                	addi	a0,a0,0
     97e:	0012                	c.slli	zero,0x4
     980:	0402                	c.slli64	s0
     982:	00030603          	lb	a2,0(t1)
     986:	0009                	c.nop	2
     988:	0100                	addi	s0,sp,128
     98a:	1a05                	addi	s4,s4,-31
     98c:	0200                	addi	s0,sp,256
     98e:	0304                	addi	s1,sp,384
     990:	04090003          	lb	zero,64(s2)
     994:	0100                	addi	s0,sp,128
     996:	0e05                	addi	t3,t3,1
     998:	0200                	addi	s0,sp,256
     99a:	0304                	addi	s1,sp,384
     99c:	02090003          	lb	zero,32(s2)
     9a0:	0100                	addi	s0,sp,128
     9a2:	1205                	addi	tp,tp,-31 # ffffffffffffffe1 <a+0xffffffff7ffff011>
     9a4:	0200                	addi	s0,sp,256
     9a6:	0304                	addi	s1,sp,384
     9a8:	04090003          	lb	zero,64(s2)
     9ac:	0100                	addi	s0,sp,128
     9ae:	1a05                	addi	s4,s4,-31
     9b0:	0200                	addi	s0,sp,256
     9b2:	0304                	addi	s1,sp,384
     9b4:	02090003          	lb	zero,32(s2)
     9b8:	0100                	addi	s0,sp,128
     9ba:	1605                	addi	a2,a2,-31
     9bc:	0200                	addi	s0,sp,256
     9be:	0304                	addi	s1,sp,384
     9c0:	02090003          	lb	zero,32(s2)
     9c4:	0100                	addi	s0,sp,128
     9c6:	0e05                	addi	t3,t3,1
     9c8:	0200                	addi	s0,sp,256
     9ca:	0304                	addi	s1,sp,384
     9cc:	08090003          	lb	zero,128(s2)
     9d0:	0100                	addi	s0,sp,128
     9d2:	1505                	addi	a0,a0,-31
     9d4:	0200                	addi	s0,sp,256
     9d6:	0304                	addi	s1,sp,384
     9d8:	02097f03          	.4byte	0x2097f03
     9dc:	0100                	addi	s0,sp,128
     9de:	1605                	addi	a2,a2,-31
     9e0:	0200                	addi	s0,sp,256
     9e2:	0304                	addi	s1,sp,384
     9e4:	02090103          	lb	sp,32(s2)
     9e8:	0100                	addi	s0,sp,128
     9ea:	0e05                	addi	t3,t3,1
     9ec:	0200                	addi	s0,sp,256
     9ee:	0304                	addi	s1,sp,384
     9f0:	02090003          	lb	zero,32(s2)
     9f4:	0100                	addi	s0,sp,128
     9f6:	2005                	.2byte	0x2005
     9f8:	0200                	addi	s0,sp,256
     9fa:	0304                	addi	s1,sp,384
     9fc:	0306                	slli	t1,t1,0x1
     9fe:	097f                	.2byte	0x97f
     a00:	0004                	.2byte	0x4
     a02:	0501                	addi	a0,a0,0
     a04:	0015                	c.nop	5
     a06:	0402                	c.slli64	s0
     a08:	09000303          	lb	t1,144(zero) # 90 <_prog_start-0x7fffff70>
     a0c:	0000                	unimp
     a0e:	0501                	addi	a0,a0,0
     a10:	0601                	addi	a2,a2,0
     a12:	04090203          	lb	tp,64(s2)
     a16:	0100                	addi	s0,sp,128
     a18:	0e05                	addi	t3,t3,1
     a1a:	0306                	slli	t1,t1,0x1
     a1c:	00020903          	lb	s2,0(tp) # 0 <_prog_start-0x80000000>
     a20:	0501                	addi	a0,a0,0
     a22:	09010303          	lb	t1,144(sp)
     a26:	0000                	unimp
     a28:	0501                	addi	a0,a0,0
     a2a:	0308                	addi	a0,sp,384
     a2c:	0900                	addi	s0,sp,144
     a2e:	0000                	unimp
     a30:	0501                	addi	a0,a0,0
     a32:	0315                	addi	t1,t1,5
     a34:	0900                	addi	s0,sp,144
     a36:	0000                	unimp
     a38:	0501                	addi	a0,a0,0
     a3a:	060e                	slli	a2,a2,0x3
     a3c:	00097f03          	.4byte	0x97f03
     a40:	0100                	addi	s0,sp,128
     a42:	1605                	addi	a2,a2,-31
     a44:	04090303          	lb	t1,64(s2)
     a48:	0100                	addi	s0,sp,128
     a4a:	1705                	addi	a4,a4,-31
     a4c:	1c097f03          	.4byte	0x1c097f03
     a50:	0100                	addi	s0,sp,128
     a52:	1505                	addi	a0,a0,-31
     a54:	04097f03          	.4byte	0x4097f03
     a58:	0100                	addi	s0,sp,128
     a5a:	1705                	addi	a4,a4,-31
     a5c:	0306                	slli	t1,t1,0x1
     a5e:	0901                	addi	s2,s2,0
     a60:	0004                	.2byte	0x4
     a62:	0501                	addi	a0,a0,0
     a64:	060e                	slli	a2,a2,0x3
     a66:	00097e03          	.4byte	0x97e03
     a6a:	0100                	addi	s0,sp,128
     a6c:	0705                	addi	a4,a4,1
     a6e:	0306                	slli	t1,t1,0x1
     a70:	00080903          	lb	s2,0(a6)
     a74:	0501                	addi	a0,a0,0
     a76:	0616                	slli	a2,a2,0x5
     a78:	00090003          	lb	zero,0(s2)
     a7c:	0100                	addi	s0,sp,128
     a7e:	0705                	addi	a4,a4,1
     a80:	0306                	slli	t1,t1,0x1
     a82:	0901                	addi	s2,s2,0
     a84:	000e                	c.slli	zero,0x3
     a86:	0501                	addi	a0,a0,0
     a88:	030c                	addi	a1,sp,384
     a8a:	0900                	addi	s0,sp,144
     a8c:	0000                	unimp
     a8e:	0501                	addi	a0,a0,0
     a90:	0319                	addi	t1,t1,6
     a92:	0900                	addi	s0,sp,144
     a94:	0000                	unimp
     a96:	0501                	addi	a0,a0,0
     a98:	0009                	c.nop	2
     a9a:	0402                	c.slli64	s0
     a9c:	09010303          	lb	t1,144(sp)
     aa0:	0000                	unimp
     aa2:	0501                	addi	a0,a0,0
     aa4:	001c                	.2byte	0x1c
     aa6:	0402                	c.slli64	s0
     aa8:	00030603          	lb	a2,0(t1)
     aac:	0009                	c.nop	2
     aae:	0100                	addi	s0,sp,128
     ab0:	2c05                	addiw	s8,s8,1
     ab2:	0200                	addi	s0,sp,256
     ab4:	0304                	addi	s1,sp,384
     ab6:	04090003          	lb	zero,64(s2)
     aba:	0100                	addi	s0,sp,128
     abc:	0b05                	addi	s6,s6,1
     abe:	0200                	addi	s0,sp,256
     ac0:	0304                	addi	s1,sp,384
     ac2:	04090003          	lb	zero,64(s2)
     ac6:	0100                	addi	s0,sp,128
     ac8:	1c05                	addi	s8,s8,-31
     aca:	0200                	addi	s0,sp,256
     acc:	0304                	addi	s1,sp,384
     ace:	04090003          	lb	zero,64(s2)
     ad2:	0100                	addi	s0,sp,128
     ad4:	2c05                	addiw	s8,s8,1
     ad6:	0200                	addi	s0,sp,256
     ad8:	0304                	addi	s1,sp,384
     ada:	02090003          	lb	zero,32(s2)
     ade:	0100                	addi	s0,sp,128
     ae0:	2905                	addiw	s2,s2,1
     ae2:	0200                	addi	s0,sp,256
     ae4:	0304                	addi	s1,sp,384
     ae6:	02090003          	lb	zero,32(s2)
     aea:	0100                	addi	s0,sp,128
     aec:	0b05                	addi	s6,s6,1
     aee:	0200                	addi	s0,sp,256
     af0:	0304                	addi	s1,sp,384
     af2:	08090003          	lb	zero,128(s2)
     af6:	0100                	addi	s0,sp,128
     af8:	1805                	addi	a6,a6,-31
     afa:	0200                	addi	s0,sp,256
     afc:	0304                	addi	s1,sp,384
     afe:	02090003          	lb	zero,32(s2)
     b02:	0100                	addi	s0,sp,128
     b04:	2905                	addiw	s2,s2,1
     b06:	0200                	addi	s0,sp,256
     b08:	0304                	addi	s1,sp,384
     b0a:	04090003          	lb	zero,64(s2)
     b0e:	0100                	addi	s0,sp,128
     b10:	1905                	addi	s2,s2,-31
     b12:	0200                	addi	s0,sp,256
     b14:	0304                	addi	s1,sp,384
     b16:	04097f03          	.4byte	0x4097f03
     b1a:	0100                	addi	s0,sp,128
     b1c:	1805                	addi	a6,a6,-31
     b1e:	0200                	addi	s0,sp,256
     b20:	0304                	addi	s1,sp,384
     b22:	06090103          	lb	sp,96(s2)
     b26:	0100                	addi	s0,sp,128
     b28:	2205                	addiw	tp,tp,1 # 1 <_prog_start-0x7fffffff>
     b2a:	0200                	addi	s0,sp,256
     b2c:	0304                	addi	s1,sp,384
     b2e:	0306                	slli	t1,t1,0x1
     b30:	097f                	.2byte	0x97f
     b32:	0006                	c.slli	zero,0x1
     b34:	0501                	addi	a0,a0,0
     b36:	0019                	c.nop	6
     b38:	0402                	c.slli64	s0
     b3a:	09000303          	lb	t1,144(zero) # 90 <_prog_start-0x7fffff70>
     b3e:	0000                	unimp
     b40:	0501                	addi	a0,a0,0
     b42:	0020                	addi	s0,sp,8
     b44:	0402                	c.slli64	s0
     b46:	0302                	c.slli64	t1
     b48:	097e                	slli	s2,s2,0x1f
     b4a:	0004                	.2byte	0x4
     b4c:	0501                	addi	a0,a0,0
     b4e:	04020017          	auipc	zero,0x4020
     b52:	0302                	c.slli64	t1
     b54:	0900                	addi	s0,sp,144
     b56:	0000                	unimp
     b58:	0501                	addi	a0,a0,0
     b5a:	001e                	c.slli	zero,0x7
     b5c:	0402                	c.slli64	s0
     b5e:	0302                	c.slli64	t1
     b60:	097f                	.2byte	0x97f
     b62:	000e                	c.slli	zero,0x3
     b64:	0501                	addi	a0,a0,0
     b66:	0015                	c.nop	5
     b68:	0402                	c.slli64	s0
     b6a:	0302                	c.slli64	t1
     b6c:	0900                	addi	s0,sp,144
     b6e:	0000                	unimp
     b70:	0501                	addi	a0,a0,0
     b72:	0601                	addi	a2,a2,0
     b74:	0a090603          	lb	a2,160(s2)
     b78:	0100                	addi	s0,sp,128
     b7a:	0e05                	addi	t3,t3,1
     b7c:	0306                	slli	t1,t1,0x1
     b7e:	0902                	c.slli64	s2
     b80:	0006                	c.slli	zero,0x1
     b82:	0501                	addi	a0,a0,0
     b84:	09010303          	lb	t1,144(sp)
     b88:	0000                	unimp
     b8a:	0501                	addi	a0,a0,0
     b8c:	0308                	addi	a0,sp,384
     b8e:	0900                	addi	s0,sp,144
     b90:	0000                	unimp
     b92:	0501                	addi	a0,a0,0
     b94:	0315                	addi	t1,t1,5
     b96:	0900                	addi	s0,sp,144
     b98:	0000                	unimp
     b9a:	0501                	addi	a0,a0,0
     b9c:	060e                	slli	a2,a2,0x3
     b9e:	00097f03          	.4byte	0x97f03
     ba2:	0100                	addi	s0,sp,128
     ba4:	1605                	addi	a2,a2,-31
     ba6:	04090303          	lb	t1,64(s2)
     baa:	0100                	addi	s0,sp,128
     bac:	1705                	addi	a4,a4,-31
     bae:	1c097f03          	.4byte	0x1c097f03
     bb2:	0100                	addi	s0,sp,128
     bb4:	1505                	addi	a0,a0,-31
     bb6:	04097f03          	.4byte	0x4097f03
     bba:	0100                	addi	s0,sp,128
     bbc:	1705                	addi	a4,a4,-31
     bbe:	0306                	slli	t1,t1,0x1
     bc0:	0901                	addi	s2,s2,0
     bc2:	0004                	.2byte	0x4
     bc4:	0501                	addi	a0,a0,0
     bc6:	060e                	slli	a2,a2,0x3
     bc8:	00097e03          	.4byte	0x97e03
     bcc:	0100                	addi	s0,sp,128
     bce:	0705                	addi	a4,a4,1
     bd0:	0306                	slli	t1,t1,0x1
     bd2:	00080903          	lb	s2,0(a6)
     bd6:	0501                	addi	a0,a0,0
     bd8:	0616                	slli	a2,a2,0x5
     bda:	00090003          	lb	zero,0(s2)
     bde:	0100                	addi	s0,sp,128
     be0:	0705                	addi	a4,a4,1
     be2:	0306                	slli	t1,t1,0x1
     be4:	0901                	addi	s2,s2,0
     be6:	000e                	c.slli	zero,0x3
     be8:	0501                	addi	a0,a0,0
     bea:	030c                	addi	a1,sp,384
     bec:	0900                	addi	s0,sp,144
     bee:	0000                	unimp
     bf0:	0501                	addi	a0,a0,0
     bf2:	0319                	addi	t1,t1,6
     bf4:	0900                	addi	s0,sp,144
     bf6:	0000                	unimp
     bf8:	0501                	addi	a0,a0,0
     bfa:	0009                	c.nop	2
     bfc:	0402                	c.slli64	s0
     bfe:	09010303          	lb	t1,144(sp)
     c02:	0000                	unimp
     c04:	0501                	addi	a0,a0,0
     c06:	001c                	.2byte	0x1c
     c08:	0402                	c.slli64	s0
     c0a:	00030603          	lb	a2,0(t1)
     c0e:	0009                	c.nop	2
     c10:	0100                	addi	s0,sp,128
     c12:	2c05                	addiw	s8,s8,1
     c14:	0200                	addi	s0,sp,256
     c16:	0304                	addi	s1,sp,384
     c18:	04090003          	lb	zero,64(s2)
     c1c:	0100                	addi	s0,sp,128
     c1e:	0b05                	addi	s6,s6,1
     c20:	0200                	addi	s0,sp,256
     c22:	0304                	addi	s1,sp,384
     c24:	04090003          	lb	zero,64(s2)
     c28:	0100                	addi	s0,sp,128
     c2a:	1c05                	addi	s8,s8,-31
     c2c:	0200                	addi	s0,sp,256
     c2e:	0304                	addi	s1,sp,384
     c30:	04090003          	lb	zero,64(s2)
     c34:	0100                	addi	s0,sp,128
     c36:	2c05                	addiw	s8,s8,1
     c38:	0200                	addi	s0,sp,256
     c3a:	0304                	addi	s1,sp,384
     c3c:	02090003          	lb	zero,32(s2)
     c40:	0100                	addi	s0,sp,128
     c42:	2905                	addiw	s2,s2,1
     c44:	0200                	addi	s0,sp,256
     c46:	0304                	addi	s1,sp,384
     c48:	02090003          	lb	zero,32(s2)
     c4c:	0100                	addi	s0,sp,128
     c4e:	0b05                	addi	s6,s6,1
     c50:	0200                	addi	s0,sp,256
     c52:	0304                	addi	s1,sp,384
     c54:	08090003          	lb	zero,128(s2)
     c58:	0100                	addi	s0,sp,128
     c5a:	1805                	addi	a6,a6,-31
     c5c:	0200                	addi	s0,sp,256
     c5e:	0304                	addi	s1,sp,384
     c60:	02090003          	lb	zero,32(s2)
     c64:	0100                	addi	s0,sp,128
     c66:	2905                	addiw	s2,s2,1
     c68:	0200                	addi	s0,sp,256
     c6a:	0304                	addi	s1,sp,384
     c6c:	04090003          	lb	zero,64(s2)
     c70:	0100                	addi	s0,sp,128
     c72:	1905                	addi	s2,s2,-31
     c74:	0200                	addi	s0,sp,256
     c76:	0304                	addi	s1,sp,384
     c78:	04097f03          	.4byte	0x4097f03
     c7c:	0100                	addi	s0,sp,128
     c7e:	1805                	addi	a6,a6,-31
     c80:	0200                	addi	s0,sp,256
     c82:	0304                	addi	s1,sp,384
     c84:	06090103          	lb	sp,96(s2)
     c88:	0100                	addi	s0,sp,128
     c8a:	2205                	addiw	tp,tp,1 # 1 <_prog_start-0x7fffffff>
     c8c:	0200                	addi	s0,sp,256
     c8e:	0304                	addi	s1,sp,384
     c90:	0306                	slli	t1,t1,0x1
     c92:	097f                	.2byte	0x97f
     c94:	0006                	c.slli	zero,0x1
     c96:	0501                	addi	a0,a0,0
     c98:	0019                	c.nop	6
     c9a:	0402                	c.slli64	s0
     c9c:	09000303          	lb	t1,144(zero) # 90 <_prog_start-0x7fffff70>
     ca0:	0000                	unimp
     ca2:	0501                	addi	a0,a0,0
     ca4:	0020                	addi	s0,sp,8
     ca6:	0402                	c.slli64	s0
     ca8:	0302                	c.slli64	t1
     caa:	097e                	slli	s2,s2,0x1f
     cac:	0004                	.2byte	0x4
     cae:	0501                	addi	a0,a0,0
     cb0:	04020017          	auipc	zero,0x4020
     cb4:	0302                	c.slli64	t1
     cb6:	0900                	addi	s0,sp,144
     cb8:	0000                	unimp
     cba:	0501                	addi	a0,a0,0
     cbc:	001e                	c.slli	zero,0x7
     cbe:	0402                	c.slli64	s0
     cc0:	0302                	c.slli64	t1
     cc2:	097f                	.2byte	0x97f
     cc4:	000e                	c.slli	zero,0x3
     cc6:	0501                	addi	a0,a0,0
     cc8:	0015                	c.nop	5
     cca:	0402                	c.slli64	s0
     ccc:	0302                	c.slli64	t1
     cce:	0900                	addi	s0,sp,144
     cd0:	0000                	unimp
     cd2:	0501                	addi	a0,a0,0
     cd4:	0601                	addi	a2,a2,0
     cd6:	0a090603          	lb	a2,160(s2)
     cda:	0100                	addi	s0,sp,128
     cdc:	0e05                	addi	t3,t3,1
     cde:	0306                	slli	t1,t1,0x1
     ce0:	0902                	c.slli64	s2
     ce2:	0006                	c.slli	zero,0x1
     ce4:	0501                	addi	a0,a0,0
     ce6:	09010303          	lb	t1,144(sp)
     cea:	0000                	unimp
     cec:	0501                	addi	a0,a0,0
     cee:	0308                	addi	a0,sp,384
     cf0:	0900                	addi	s0,sp,144
     cf2:	0000                	unimp
     cf4:	0501                	addi	a0,a0,0
     cf6:	0315                	addi	t1,t1,5
     cf8:	0900                	addi	s0,sp,144
     cfa:	0000                	unimp
     cfc:	0501                	addi	a0,a0,0
     cfe:	060e                	slli	a2,a2,0x3
     d00:	00097f03          	.4byte	0x97f03
     d04:	0100                	addi	s0,sp,128
     d06:	1605                	addi	a2,a2,-31
     d08:	04090303          	lb	t1,64(s2)
     d0c:	0100                	addi	s0,sp,128
     d0e:	1705                	addi	a4,a4,-31
     d10:	1c097f03          	.4byte	0x1c097f03
     d14:	0100                	addi	s0,sp,128
     d16:	1505                	addi	a0,a0,-31
     d18:	04097f03          	.4byte	0x4097f03
     d1c:	0100                	addi	s0,sp,128
     d1e:	1705                	addi	a4,a4,-31
     d20:	0306                	slli	t1,t1,0x1
     d22:	0901                	addi	s2,s2,0
     d24:	0004                	.2byte	0x4
     d26:	0501                	addi	a0,a0,0
     d28:	060e                	slli	a2,a2,0x3
     d2a:	00097e03          	.4byte	0x97e03
     d2e:	0100                	addi	s0,sp,128
     d30:	0705                	addi	a4,a4,1
     d32:	0306                	slli	t1,t1,0x1
     d34:	00080903          	lb	s2,0(a6)
     d38:	0501                	addi	a0,a0,0
     d3a:	0616                	slli	a2,a2,0x5
     d3c:	00090003          	lb	zero,0(s2)
     d40:	0100                	addi	s0,sp,128
     d42:	0705                	addi	a4,a4,1
     d44:	0306                	slli	t1,t1,0x1
     d46:	0901                	addi	s2,s2,0
     d48:	000e                	c.slli	zero,0x3
     d4a:	0501                	addi	a0,a0,0
     d4c:	030c                	addi	a1,sp,384
     d4e:	0900                	addi	s0,sp,144
     d50:	0000                	unimp
     d52:	0501                	addi	a0,a0,0
     d54:	0319                	addi	t1,t1,6
     d56:	0900                	addi	s0,sp,144
     d58:	0000                	unimp
     d5a:	0501                	addi	a0,a0,0
     d5c:	0009                	c.nop	2
     d5e:	0402                	c.slli64	s0
     d60:	09010303          	lb	t1,144(sp)
     d64:	0000                	unimp
     d66:	0501                	addi	a0,a0,0
     d68:	001c                	.2byte	0x1c
     d6a:	0402                	c.slli64	s0
     d6c:	00030603          	lb	a2,0(t1)
     d70:	0009                	c.nop	2
     d72:	0100                	addi	s0,sp,128
     d74:	2c05                	addiw	s8,s8,1
     d76:	0200                	addi	s0,sp,256
     d78:	0304                	addi	s1,sp,384
     d7a:	04090003          	lb	zero,64(s2)
     d7e:	0100                	addi	s0,sp,128
     d80:	0b05                	addi	s6,s6,1
     d82:	0200                	addi	s0,sp,256
     d84:	0304                	addi	s1,sp,384
     d86:	04090003          	lb	zero,64(s2)
     d8a:	0100                	addi	s0,sp,128
     d8c:	1c05                	addi	s8,s8,-31
     d8e:	0200                	addi	s0,sp,256
     d90:	0304                	addi	s1,sp,384
     d92:	04090003          	lb	zero,64(s2)
     d96:	0100                	addi	s0,sp,128
     d98:	2c05                	addiw	s8,s8,1
     d9a:	0200                	addi	s0,sp,256
     d9c:	0304                	addi	s1,sp,384
     d9e:	02090003          	lb	zero,32(s2)
     da2:	0100                	addi	s0,sp,128
     da4:	2905                	addiw	s2,s2,1
     da6:	0200                	addi	s0,sp,256
     da8:	0304                	addi	s1,sp,384
     daa:	02090003          	lb	zero,32(s2)
     dae:	0100                	addi	s0,sp,128
     db0:	0b05                	addi	s6,s6,1
     db2:	0200                	addi	s0,sp,256
     db4:	0304                	addi	s1,sp,384
     db6:	08090003          	lb	zero,128(s2)
     dba:	0100                	addi	s0,sp,128
     dbc:	1805                	addi	a6,a6,-31
     dbe:	0200                	addi	s0,sp,256
     dc0:	0304                	addi	s1,sp,384
     dc2:	02090003          	lb	zero,32(s2)
     dc6:	0100                	addi	s0,sp,128
     dc8:	2905                	addiw	s2,s2,1
     dca:	0200                	addi	s0,sp,256
     dcc:	0304                	addi	s1,sp,384
     dce:	04090003          	lb	zero,64(s2)
     dd2:	0100                	addi	s0,sp,128
     dd4:	1905                	addi	s2,s2,-31
     dd6:	0200                	addi	s0,sp,256
     dd8:	0304                	addi	s1,sp,384
     dda:	04097f03          	.4byte	0x4097f03
     dde:	0100                	addi	s0,sp,128
     de0:	1805                	addi	a6,a6,-31
     de2:	0200                	addi	s0,sp,256
     de4:	0304                	addi	s1,sp,384
     de6:	06090103          	lb	sp,96(s2)
     dea:	0100                	addi	s0,sp,128
     dec:	2205                	addiw	tp,tp,1 # 1 <_prog_start-0x7fffffff>
     dee:	0200                	addi	s0,sp,256
     df0:	0304                	addi	s1,sp,384
     df2:	0306                	slli	t1,t1,0x1
     df4:	097f                	.2byte	0x97f
     df6:	0006                	c.slli	zero,0x1
     df8:	0501                	addi	a0,a0,0
     dfa:	0019                	c.nop	6
     dfc:	0402                	c.slli64	s0
     dfe:	09000303          	lb	t1,144(zero) # 90 <_prog_start-0x7fffff70>
     e02:	0000                	unimp
     e04:	0501                	addi	a0,a0,0
     e06:	0020                	addi	s0,sp,8
     e08:	0402                	c.slli64	s0
     e0a:	0302                	c.slli64	t1
     e0c:	097e                	slli	s2,s2,0x1f
     e0e:	0004                	.2byte	0x4
     e10:	0501                	addi	a0,a0,0
     e12:	04020017          	auipc	zero,0x4020
     e16:	0302                	c.slli64	t1
     e18:	0900                	addi	s0,sp,144
     e1a:	0000                	unimp
     e1c:	0501                	addi	a0,a0,0
     e1e:	001e                	c.slli	zero,0x7
     e20:	0402                	c.slli64	s0
     e22:	0302                	c.slli64	t1
     e24:	097f                	.2byte	0x97f
     e26:	000e                	c.slli	zero,0x3
     e28:	0501                	addi	a0,a0,0
     e2a:	0015                	c.nop	5
     e2c:	0402                	c.slli64	s0
     e2e:	0302                	c.slli64	t1
     e30:	0900                	addi	s0,sp,144
     e32:	0000                	unimp
     e34:	0501                	addi	a0,a0,0
     e36:	0601                	addi	a2,a2,0
     e38:	0a090603          	lb	a2,160(s2)
     e3c:	0100                	addi	s0,sp,128
     e3e:	0e05                	addi	t3,t3,1
     e40:	0306                	slli	t1,t1,0x1
     e42:	0902                	c.slli64	s2
     e44:	0006                	c.slli	zero,0x1
     e46:	0501                	addi	a0,a0,0
     e48:	09010303          	lb	t1,144(sp)
     e4c:	0000                	unimp
     e4e:	0501                	addi	a0,a0,0
     e50:	0308                	addi	a0,sp,384
     e52:	0900                	addi	s0,sp,144
     e54:	0000                	unimp
     e56:	0501                	addi	a0,a0,0
     e58:	0315                	addi	t1,t1,5
     e5a:	0900                	addi	s0,sp,144
     e5c:	0000                	unimp
     e5e:	0501                	addi	a0,a0,0
     e60:	060e                	slli	a2,a2,0x3
     e62:	00097f03          	.4byte	0x97f03
     e66:	0100                	addi	s0,sp,128
     e68:	1605                	addi	a2,a2,-31
     e6a:	04090303          	lb	t1,64(s2)
     e6e:	0100                	addi	s0,sp,128
     e70:	1705                	addi	a4,a4,-31
     e72:	1c097f03          	.4byte	0x1c097f03
     e76:	0100                	addi	s0,sp,128
     e78:	1505                	addi	a0,a0,-31
     e7a:	04097f03          	.4byte	0x4097f03
     e7e:	0100                	addi	s0,sp,128
     e80:	1705                	addi	a4,a4,-31
     e82:	0306                	slli	t1,t1,0x1
     e84:	0901                	addi	s2,s2,0
     e86:	0004                	.2byte	0x4
     e88:	0501                	addi	a0,a0,0
     e8a:	060e                	slli	a2,a2,0x3
     e8c:	00097e03          	.4byte	0x97e03
     e90:	0100                	addi	s0,sp,128
     e92:	0705                	addi	a4,a4,1
     e94:	0306                	slli	t1,t1,0x1
     e96:	00080903          	lb	s2,0(a6)
     e9a:	0501                	addi	a0,a0,0
     e9c:	0616                	slli	a2,a2,0x5
     e9e:	00090003          	lb	zero,0(s2)
     ea2:	0100                	addi	s0,sp,128
     ea4:	0705                	addi	a4,a4,1
     ea6:	0306                	slli	t1,t1,0x1
     ea8:	0901                	addi	s2,s2,0
     eaa:	000e                	c.slli	zero,0x3
     eac:	0501                	addi	a0,a0,0
     eae:	030c                	addi	a1,sp,384
     eb0:	0900                	addi	s0,sp,144
     eb2:	0000                	unimp
     eb4:	0501                	addi	a0,a0,0
     eb6:	0319                	addi	t1,t1,6
     eb8:	0900                	addi	s0,sp,144
     eba:	0000                	unimp
     ebc:	0501                	addi	a0,a0,0
     ebe:	0009                	c.nop	2
     ec0:	0402                	c.slli64	s0
     ec2:	09010303          	lb	t1,144(sp)
     ec6:	0000                	unimp
     ec8:	0501                	addi	a0,a0,0
     eca:	001c                	.2byte	0x1c
     ecc:	0402                	c.slli64	s0
     ece:	00030603          	lb	a2,0(t1)
     ed2:	0009                	c.nop	2
     ed4:	0100                	addi	s0,sp,128
     ed6:	2c05                	addiw	s8,s8,1
     ed8:	0200                	addi	s0,sp,256
     eda:	0304                	addi	s1,sp,384
     edc:	04090003          	lb	zero,64(s2)
     ee0:	0100                	addi	s0,sp,128
     ee2:	0b05                	addi	s6,s6,1
     ee4:	0200                	addi	s0,sp,256
     ee6:	0304                	addi	s1,sp,384
     ee8:	04090003          	lb	zero,64(s2)
     eec:	0100                	addi	s0,sp,128
     eee:	1c05                	addi	s8,s8,-31
     ef0:	0200                	addi	s0,sp,256
     ef2:	0304                	addi	s1,sp,384
     ef4:	04090003          	lb	zero,64(s2)
     ef8:	0100                	addi	s0,sp,128
     efa:	2c05                	addiw	s8,s8,1
     efc:	0200                	addi	s0,sp,256
     efe:	0304                	addi	s1,sp,384
     f00:	02090003          	lb	zero,32(s2)
     f04:	0100                	addi	s0,sp,128
     f06:	2905                	addiw	s2,s2,1
     f08:	0200                	addi	s0,sp,256
     f0a:	0304                	addi	s1,sp,384
     f0c:	02090003          	lb	zero,32(s2)
     f10:	0100                	addi	s0,sp,128
     f12:	0b05                	addi	s6,s6,1
     f14:	0200                	addi	s0,sp,256
     f16:	0304                	addi	s1,sp,384
     f18:	08090003          	lb	zero,128(s2)
     f1c:	0100                	addi	s0,sp,128
     f1e:	1805                	addi	a6,a6,-31
     f20:	0200                	addi	s0,sp,256
     f22:	0304                	addi	s1,sp,384
     f24:	02090003          	lb	zero,32(s2)
     f28:	0100                	addi	s0,sp,128
     f2a:	2905                	addiw	s2,s2,1
     f2c:	0200                	addi	s0,sp,256
     f2e:	0304                	addi	s1,sp,384
     f30:	04090003          	lb	zero,64(s2)
     f34:	0100                	addi	s0,sp,128
     f36:	1905                	addi	s2,s2,-31
     f38:	0200                	addi	s0,sp,256
     f3a:	0304                	addi	s1,sp,384
     f3c:	04097f03          	.4byte	0x4097f03
     f40:	0100                	addi	s0,sp,128
     f42:	1805                	addi	a6,a6,-31
     f44:	0200                	addi	s0,sp,256
     f46:	0304                	addi	s1,sp,384
     f48:	06090103          	lb	sp,96(s2)
     f4c:	0100                	addi	s0,sp,128
     f4e:	2205                	addiw	tp,tp,1 # 1 <_prog_start-0x7fffffff>
     f50:	0200                	addi	s0,sp,256
     f52:	0304                	addi	s1,sp,384
     f54:	0306                	slli	t1,t1,0x1
     f56:	097f                	.2byte	0x97f
     f58:	0006                	c.slli	zero,0x1
     f5a:	0501                	addi	a0,a0,0
     f5c:	0019                	c.nop	6
     f5e:	0402                	c.slli64	s0
     f60:	09000303          	lb	t1,144(zero) # 90 <_prog_start-0x7fffff70>
     f64:	0000                	unimp
     f66:	0501                	addi	a0,a0,0
     f68:	0020                	addi	s0,sp,8
     f6a:	0402                	c.slli64	s0
     f6c:	0302                	c.slli64	t1
     f6e:	097e                	slli	s2,s2,0x1f
     f70:	0004                	.2byte	0x4
     f72:	0501                	addi	a0,a0,0
     f74:	04020017          	auipc	zero,0x4020
     f78:	0302                	c.slli64	t1
     f7a:	0900                	addi	s0,sp,144
     f7c:	0000                	unimp
     f7e:	0501                	addi	a0,a0,0
     f80:	001e                	c.slli	zero,0x7
     f82:	0402                	c.slli64	s0
     f84:	0302                	c.slli64	t1
     f86:	097f                	.2byte	0x97f
     f88:	000e                	c.slli	zero,0x3
     f8a:	0501                	addi	a0,a0,0
     f8c:	0015                	c.nop	5
     f8e:	0402                	c.slli64	s0
     f90:	0302                	c.slli64	t1
     f92:	0900                	addi	s0,sp,144
     f94:	0000                	unimp
     f96:	0501                	addi	a0,a0,0
     f98:	0601                	addi	a2,a2,0
     f9a:	0a090603          	lb	a2,160(s2)
     f9e:	0100                	addi	s0,sp,128
     fa0:	0e05                	addi	t3,t3,1
     fa2:	0306                	slli	t1,t1,0x1
     fa4:	00060903          	lb	s2,0(a2)
     fa8:	0501                	addi	a0,a0,0
     faa:	09010303          	lb	t1,144(sp)
     fae:	0000                	unimp
     fb0:	0501                	addi	a0,a0,0
     fb2:	0308                	addi	a0,sp,384
     fb4:	0900                	addi	s0,sp,144
     fb6:	0000                	unimp
     fb8:	0501                	addi	a0,a0,0
     fba:	0315                	addi	t1,t1,5
     fbc:	0900                	addi	s0,sp,144
     fbe:	0000                	unimp
     fc0:	0501                	addi	a0,a0,0
     fc2:	060e                	slli	a2,a2,0x3
     fc4:	00097f03          	.4byte	0x97f03
     fc8:	0100                	addi	s0,sp,128
     fca:	1505                	addi	a0,a0,-31
     fcc:	1a090103          	lb	sp,416(s2)
     fd0:	0100                	addi	s0,sp,128
     fd2:	0905                	addi	s2,s2,1
     fd4:	0200                	addi	s0,sp,256
     fd6:	0304                	addi	s1,sp,384
     fd8:	0306                	slli	t1,t1,0x1
     fda:	0901                	addi	s2,s2,0
     fdc:	0004                	.2byte	0x4
     fde:	0501                	addi	a0,a0,0
     fe0:	0012                	c.slli	zero,0x4
     fe2:	0402                	c.slli64	s0
     fe4:	00030603          	lb	a2,0(t1)
     fe8:	0009                	c.nop	2
     fea:	0100                	addi	s0,sp,128
     fec:	1a05                	addi	s4,s4,-31
     fee:	0200                	addi	s0,sp,256
     ff0:	0304                	addi	s1,sp,384
     ff2:	04090003          	lb	zero,64(s2)
     ff6:	0100                	addi	s0,sp,128
     ff8:	0e05                	addi	t3,t3,1
     ffa:	0200                	addi	s0,sp,256
     ffc:	0304                	addi	s1,sp,384
     ffe:	02090003          	lb	zero,32(s2)
    1002:	0100                	addi	s0,sp,128
    1004:	1205                	addi	tp,tp,-31 # ffffffffffffffe1 <a+0xffffffff7ffff011>
    1006:	0200                	addi	s0,sp,256
    1008:	0304                	addi	s1,sp,384
    100a:	04090003          	lb	zero,64(s2)
    100e:	0100                	addi	s0,sp,128
    1010:	1a05                	addi	s4,s4,-31
    1012:	0200                	addi	s0,sp,256
    1014:	0304                	addi	s1,sp,384
    1016:	02090003          	lb	zero,32(s2)
    101a:	0100                	addi	s0,sp,128
    101c:	1605                	addi	a2,a2,-31
    101e:	0200                	addi	s0,sp,256
    1020:	0304                	addi	s1,sp,384
    1022:	02090003          	lb	zero,32(s2)
    1026:	0100                	addi	s0,sp,128
    1028:	0e05                	addi	t3,t3,1
    102a:	0200                	addi	s0,sp,256
    102c:	0304                	addi	s1,sp,384
    102e:	08090003          	lb	zero,128(s2)
    1032:	0100                	addi	s0,sp,128
    1034:	1505                	addi	a0,a0,-31
    1036:	0200                	addi	s0,sp,256
    1038:	0304                	addi	s1,sp,384
    103a:	02097f03          	.4byte	0x2097f03
    103e:	0100                	addi	s0,sp,128
    1040:	1605                	addi	a2,a2,-31
    1042:	0200                	addi	s0,sp,256
    1044:	0304                	addi	s1,sp,384
    1046:	02090103          	lb	sp,32(s2)
    104a:	0100                	addi	s0,sp,128
    104c:	0e05                	addi	t3,t3,1
    104e:	0200                	addi	s0,sp,256
    1050:	0304                	addi	s1,sp,384
    1052:	02090003          	lb	zero,32(s2)
    1056:	0100                	addi	s0,sp,128
    1058:	2005                	.2byte	0x2005
    105a:	0200                	addi	s0,sp,256
    105c:	0304                	addi	s1,sp,384
    105e:	0306                	slli	t1,t1,0x1
    1060:	097f                	.2byte	0x97f
    1062:	0004                	.2byte	0x4
    1064:	0501                	addi	a0,a0,0
    1066:	0015                	c.nop	5
    1068:	0402                	c.slli64	s0
    106a:	09000303          	lb	t1,144(zero) # 90 <_prog_start-0x7fffff70>
    106e:	0000                	unimp
    1070:	0501                	addi	a0,a0,0
    1072:	0601                	addi	a2,a2,0
    1074:	04090203          	lb	tp,64(s2)
    1078:	0100                	addi	s0,sp,128
    107a:	0e05                	addi	t3,t3,1
    107c:	0306                	slli	t1,t1,0x1
    107e:	0902                	c.slli64	s2
    1080:	0002                	c.slli64	zero
    1082:	0501                	addi	a0,a0,0
    1084:	09010303          	lb	t1,144(sp)
    1088:	0000                	unimp
    108a:	0501                	addi	a0,a0,0
    108c:	0308                	addi	a0,sp,384
    108e:	0900                	addi	s0,sp,144
    1090:	0000                	unimp
    1092:	0501                	addi	a0,a0,0
    1094:	0315                	addi	t1,t1,5
    1096:	0900                	addi	s0,sp,144
    1098:	0000                	unimp
    109a:	0501                	addi	a0,a0,0
    109c:	060e                	slli	a2,a2,0x3
    109e:	00097f03          	.4byte	0x97f03
    10a2:	0100                	addi	s0,sp,128
    10a4:	1505                	addi	a0,a0,-31
    10a6:	1a090103          	lb	sp,416(s2)
    10aa:	0100                	addi	s0,sp,128
    10ac:	0905                	addi	s2,s2,1
    10ae:	0200                	addi	s0,sp,256
    10b0:	0304                	addi	s1,sp,384
    10b2:	0306                	slli	t1,t1,0x1
    10b4:	0901                	addi	s2,s2,0
    10b6:	0004                	.2byte	0x4
    10b8:	0501                	addi	a0,a0,0
    10ba:	0012                	c.slli	zero,0x4
    10bc:	0402                	c.slli64	s0
    10be:	00030603          	lb	a2,0(t1)
    10c2:	0009                	c.nop	2
    10c4:	0100                	addi	s0,sp,128
    10c6:	1a05                	addi	s4,s4,-31
    10c8:	0200                	addi	s0,sp,256
    10ca:	0304                	addi	s1,sp,384
    10cc:	04090003          	lb	zero,64(s2)
    10d0:	0100                	addi	s0,sp,128
    10d2:	0e05                	addi	t3,t3,1
    10d4:	0200                	addi	s0,sp,256
    10d6:	0304                	addi	s1,sp,384
    10d8:	02090003          	lb	zero,32(s2)
    10dc:	0100                	addi	s0,sp,128
    10de:	1205                	addi	tp,tp,-31 # ffffffffffffffe1 <a+0xffffffff7ffff011>
    10e0:	0200                	addi	s0,sp,256
    10e2:	0304                	addi	s1,sp,384
    10e4:	04090003          	lb	zero,64(s2)
    10e8:	0100                	addi	s0,sp,128
    10ea:	1a05                	addi	s4,s4,-31
    10ec:	0200                	addi	s0,sp,256
    10ee:	0304                	addi	s1,sp,384
    10f0:	02090003          	lb	zero,32(s2)
    10f4:	0100                	addi	s0,sp,128
    10f6:	1605                	addi	a2,a2,-31
    10f8:	0200                	addi	s0,sp,256
    10fa:	0304                	addi	s1,sp,384
    10fc:	02090003          	lb	zero,32(s2)
    1100:	0100                	addi	s0,sp,128
    1102:	0e05                	addi	t3,t3,1
    1104:	0200                	addi	s0,sp,256
    1106:	0304                	addi	s1,sp,384
    1108:	08090003          	lb	zero,128(s2)
    110c:	0100                	addi	s0,sp,128
    110e:	1505                	addi	a0,a0,-31
    1110:	0200                	addi	s0,sp,256
    1112:	0304                	addi	s1,sp,384
    1114:	02097f03          	.4byte	0x2097f03
    1118:	0100                	addi	s0,sp,128
    111a:	1605                	addi	a2,a2,-31
    111c:	0200                	addi	s0,sp,256
    111e:	0304                	addi	s1,sp,384
    1120:	02090103          	lb	sp,32(s2)
    1124:	0100                	addi	s0,sp,128
    1126:	0e05                	addi	t3,t3,1
    1128:	0200                	addi	s0,sp,256
    112a:	0304                	addi	s1,sp,384
    112c:	02090003          	lb	zero,32(s2)
    1130:	0100                	addi	s0,sp,128
    1132:	2005                	.2byte	0x2005
    1134:	0200                	addi	s0,sp,256
    1136:	0304                	addi	s1,sp,384
    1138:	0306                	slli	t1,t1,0x1
    113a:	097f                	.2byte	0x97f
    113c:	0004                	.2byte	0x4
    113e:	0501                	addi	a0,a0,0
    1140:	0015                	c.nop	5
    1142:	0402                	c.slli64	s0
    1144:	09000303          	lb	t1,144(zero) # 90 <_prog_start-0x7fffff70>
    1148:	0000                	unimp
    114a:	0501                	addi	a0,a0,0
    114c:	0601                	addi	a2,a2,0
    114e:	04090203          	lb	tp,64(s2)
    1152:	0100                	addi	s0,sp,128
    1154:	0e05                	addi	t3,t3,1
    1156:	0306                	slli	t1,t1,0x1
    1158:	00020903          	lb	s2,0(tp) # 0 <_prog_start-0x80000000>
    115c:	0501                	addi	a0,a0,0
    115e:	09010303          	lb	t1,144(sp)
    1162:	0000                	unimp
    1164:	0501                	addi	a0,a0,0
    1166:	0308                	addi	a0,sp,384
    1168:	0900                	addi	s0,sp,144
    116a:	0000                	unimp
    116c:	0501                	addi	a0,a0,0
    116e:	0315                	addi	t1,t1,5
    1170:	0900                	addi	s0,sp,144
    1172:	0000                	unimp
    1174:	0501                	addi	a0,a0,0
    1176:	060e                	slli	a2,a2,0x3
    1178:	00097f03          	.4byte	0x97f03
    117c:	0100                	addi	s0,sp,128
    117e:	0a090203          	lb	tp,160(s2)
    1182:	0100                	addi	s0,sp,128
    1184:	0c05                	addi	s8,s8,1
    1186:	02097f03          	.4byte	0x2097f03
    118a:	0100                	addi	s0,sp,128
    118c:	1705                	addi	a4,a4,-31
    118e:	22090103          	lb	sp,544(s2)
    1192:	0100                	addi	s0,sp,128
    1194:	1505                	addi	a0,a0,-31
    1196:	04097f03          	.4byte	0x4097f03
    119a:	0100                	addi	s0,sp,128
    119c:	1705                	addi	a4,a4,-31
    119e:	0306                	slli	t1,t1,0x1
    11a0:	0901                	addi	s2,s2,0
    11a2:	0002                	c.slli64	zero
    11a4:	0501                	addi	a0,a0,0
    11a6:	060e                	slli	a2,a2,0x3
    11a8:	0c090003          	lb	zero,192(s2)
    11ac:	0100                	addi	s0,sp,128
    11ae:	1905                	addi	s2,s2,-31
    11b0:	0306                	slli	t1,t1,0x1
    11b2:	0901                	addi	s2,s2,0
    11b4:	0002                	c.slli64	zero
    11b6:	0501                	addi	a0,a0,0
    11b8:	0009                	c.nop	2
    11ba:	0402                	c.slli64	s0
    11bc:	09010303          	lb	t1,144(sp)
    11c0:	0008                	.2byte	0x8
    11c2:	0501                	addi	a0,a0,0
    11c4:	04020037          	lui	zero,0x4020
    11c8:	00030603          	lb	a2,0(t1)
    11cc:	0009                	c.nop	2
    11ce:	0100                	addi	s0,sp,128
    11d0:	2305                	addiw	t1,t1,1
    11d2:	0200                	addi	s0,sp,256
    11d4:	0304                	addi	s1,sp,384
    11d6:	04090003          	lb	zero,64(s2)
    11da:	0100                	addi	s0,sp,128
    11dc:	0e05                	addi	t3,t3,1
    11de:	0200                	addi	s0,sp,256
    11e0:	0304                	addi	s1,sp,384
    11e2:	04090003          	lb	zero,64(s2)
    11e6:	0100                	addi	s0,sp,128
    11e8:	3705                	addiw	a4,a4,-31
    11ea:	0200                	addi	s0,sp,256
    11ec:	0304                	addi	s1,sp,384
    11ee:	04090003          	lb	zero,64(s2)
    11f2:	0100                	addi	s0,sp,128
    11f4:	2305                	addiw	t1,t1,1
    11f6:	0200                	addi	s0,sp,256
    11f8:	0304                	addi	s1,sp,384
    11fa:	02090003          	lb	zero,32(s2)
    11fe:	0100                	addi	s0,sp,128
    1200:	3705                	addiw	a4,a4,-31
    1202:	0200                	addi	s0,sp,256
    1204:	0304                	addi	s1,sp,384
    1206:	02090003          	lb	zero,32(s2)
    120a:	0100                	addi	s0,sp,128
    120c:	3005                	.2byte	0x3005
    120e:	0200                	addi	s0,sp,256
    1210:	0304                	addi	s1,sp,384
    1212:	02090003          	lb	zero,32(s2)
    1216:	0100                	addi	s0,sp,128
    1218:	0e05                	addi	t3,t3,1
    121a:	0200                	addi	s0,sp,256
    121c:	0304                	addi	s1,sp,384
    121e:	08090003          	lb	zero,128(s2)
    1222:	0100                	addi	s0,sp,128
    1224:	1b05                	addi	s6,s6,-31
    1226:	0200                	addi	s0,sp,256
    1228:	0304                	addi	s1,sp,384
    122a:	02090003          	lb	zero,32(s2)
    122e:	0100                	addi	s0,sp,128
    1230:	3005                	.2byte	0x3005
    1232:	0200                	addi	s0,sp,256
    1234:	0304                	addi	s1,sp,384
    1236:	04090003          	lb	zero,64(s2)
    123a:	0100                	addi	s0,sp,128
    123c:	1905                	addi	s2,s2,-31
    123e:	0200                	addi	s0,sp,256
    1240:	0304                	addi	s1,sp,384
    1242:	04097f03          	.4byte	0x4097f03
    1246:	0100                	addi	s0,sp,128
    1248:	1b05                	addi	s6,s6,-31
    124a:	0200                	addi	s0,sp,256
    124c:	0304                	addi	s1,sp,384
    124e:	04090103          	lb	sp,64(s2)
    1252:	0100                	addi	s0,sp,128
    1254:	2405                	addiw	s0,s0,1
    1256:	0200                	addi	s0,sp,256
    1258:	0304                	addi	s1,sp,384
    125a:	0306                	slli	t1,t1,0x1
    125c:	097f                	.2byte	0x97f
    125e:	0006                	c.slli	zero,0x1
    1260:	0501                	addi	a0,a0,0
    1262:	0019                	c.nop	6
    1264:	0402                	c.slli64	s0
    1266:	09000303          	lb	t1,144(zero) # 90 <_prog_start-0x7fffff70>
    126a:	0000                	unimp
    126c:	0501                	addi	a0,a0,0
    126e:	0021                	c.nop	8
    1270:	0402                	c.slli64	s0
    1272:	0302                	c.slli64	t1
    1274:	097f                	.2byte	0x97f
    1276:	0004                	.2byte	0x4
    1278:	0501                	addi	a0,a0,0
    127a:	04020017          	auipc	zero,0x4020
    127e:	0302                	c.slli64	t1
    1280:	0900                	addi	s0,sp,144
    1282:	0002                	c.slli64	zero
    1284:	0501                	addi	a0,a0,0
    1286:	001d                	c.nop	7
    1288:	0402                	c.slli64	s0
    128a:	0302                	c.slli64	t1
    128c:	097f                	.2byte	0x97f
    128e:	0006                	c.slli	zero,0x1
    1290:	0501                	addi	a0,a0,0
    1292:	0015                	c.nop	5
    1294:	0402                	c.slli64	s0
    1296:	0302                	c.slli64	t1
    1298:	0900                	addi	s0,sp,144
    129a:	0002                	c.slli64	zero
    129c:	0501                	addi	a0,a0,0
    129e:	0601                	addi	a2,a2,0
    12a0:	06090403          	lb	s0,96(s2)
    12a4:	0100                	addi	s0,sp,128
    12a6:	0e05                	addi	t3,t3,1
    12a8:	0306                	slli	t1,t1,0x1
    12aa:	0902                	c.slli64	s2
    12ac:	000c                	.2byte	0xc
    12ae:	0501                	addi	a0,a0,0
    12b0:	09010303          	lb	t1,144(sp)
    12b4:	0000                	unimp
    12b6:	0501                	addi	a0,a0,0
    12b8:	0308                	addi	a0,sp,384
    12ba:	0900                	addi	s0,sp,144
    12bc:	0000                	unimp
    12be:	0501                	addi	a0,a0,0
    12c0:	0316                	slli	t1,t1,0x5
    12c2:	0900                	addi	s0,sp,144
    12c4:	0000                	unimp
    12c6:	0501                	addi	a0,a0,0
    12c8:	060e                	slli	a2,a2,0x3
    12ca:	00097f03          	.4byte	0x97f03
    12ce:	0100                	addi	s0,sp,128
    12d0:	02090203          	lb	tp,32(s2)
    12d4:	0100                	addi	s0,sp,128
    12d6:	02097e03          	.4byte	0x2097e03
    12da:	0100                	addi	s0,sp,128
    12dc:	08090203          	lb	tp,128(s2)
    12e0:	0100                	addi	s0,sp,128
    12e2:	0c05                	addi	s8,s8,1
    12e4:	02097f03          	.4byte	0x2097f03
    12e8:	0100                	addi	s0,sp,128
    12ea:	1705                	addi	a4,a4,-31
    12ec:	22090103          	lb	sp,544(s2)
    12f0:	0100                	addi	s0,sp,128
    12f2:	1605                	addi	a2,a2,-31
    12f4:	04097f03          	.4byte	0x4097f03
    12f8:	0100                	addi	s0,sp,128
    12fa:	1705                	addi	a4,a4,-31
    12fc:	0306                	slli	t1,t1,0x1
    12fe:	0901                	addi	s2,s2,0
    1300:	0004                	.2byte	0x4
    1302:	0501                	addi	a0,a0,0
    1304:	060e                	slli	a2,a2,0x3
    1306:	0c090003          	lb	zero,192(s2)
    130a:	0100                	addi	s0,sp,128
    130c:	1905                	addi	s2,s2,-31
    130e:	0306                	slli	t1,t1,0x1
    1310:	0901                	addi	s2,s2,0
    1312:	0002                	c.slli64	zero
    1314:	0501                	addi	a0,a0,0
    1316:	0009                	c.nop	2
    1318:	0402                	c.slli64	s0
    131a:	09010303          	lb	t1,144(sp)
    131e:	0008                	.2byte	0x8
    1320:	0501                	addi	a0,a0,0
    1322:	04020037          	lui	zero,0x4020
    1326:	00030603          	lb	a2,0(t1)
    132a:	0009                	c.nop	2
    132c:	0100                	addi	s0,sp,128
    132e:	2305                	addiw	t1,t1,1
    1330:	0200                	addi	s0,sp,256
    1332:	0304                	addi	s1,sp,384
    1334:	04090003          	lb	zero,64(s2)
    1338:	0100                	addi	s0,sp,128
    133a:	0e05                	addi	t3,t3,1
    133c:	0200                	addi	s0,sp,256
    133e:	0304                	addi	s1,sp,384
    1340:	04090003          	lb	zero,64(s2)
    1344:	0100                	addi	s0,sp,128
    1346:	3705                	addiw	a4,a4,-31
    1348:	0200                	addi	s0,sp,256
    134a:	0304                	addi	s1,sp,384
    134c:	04090003          	lb	zero,64(s2)
    1350:	0100                	addi	s0,sp,128
    1352:	2305                	addiw	t1,t1,1
    1354:	0200                	addi	s0,sp,256
    1356:	0304                	addi	s1,sp,384
    1358:	02090003          	lb	zero,32(s2)
    135c:	0100                	addi	s0,sp,128
    135e:	3705                	addiw	a4,a4,-31
    1360:	0200                	addi	s0,sp,256
    1362:	0304                	addi	s1,sp,384
    1364:	02090003          	lb	zero,32(s2)
    1368:	0100                	addi	s0,sp,128
    136a:	3005                	.2byte	0x3005
    136c:	0200                	addi	s0,sp,256
    136e:	0304                	addi	s1,sp,384
    1370:	02090003          	lb	zero,32(s2)
    1374:	0100                	addi	s0,sp,128
    1376:	0e05                	addi	t3,t3,1
    1378:	0200                	addi	s0,sp,256
    137a:	0304                	addi	s1,sp,384
    137c:	08090003          	lb	zero,128(s2)
    1380:	0100                	addi	s0,sp,128
    1382:	1b05                	addi	s6,s6,-31
    1384:	0200                	addi	s0,sp,256
    1386:	0304                	addi	s1,sp,384
    1388:	02090003          	lb	zero,32(s2)
    138c:	0100                	addi	s0,sp,128
    138e:	3005                	.2byte	0x3005
    1390:	0200                	addi	s0,sp,256
    1392:	0304                	addi	s1,sp,384
    1394:	04090003          	lb	zero,64(s2)
    1398:	0100                	addi	s0,sp,128
    139a:	1905                	addi	s2,s2,-31
    139c:	0200                	addi	s0,sp,256
    139e:	0304                	addi	s1,sp,384
    13a0:	04097f03          	.4byte	0x4097f03
    13a4:	0100                	addi	s0,sp,128
    13a6:	1b05                	addi	s6,s6,-31
    13a8:	0200                	addi	s0,sp,256
    13aa:	0304                	addi	s1,sp,384
    13ac:	04090103          	lb	sp,64(s2)
    13b0:	0100                	addi	s0,sp,128
    13b2:	2405                	addiw	s0,s0,1
    13b4:	0200                	addi	s0,sp,256
    13b6:	0304                	addi	s1,sp,384
    13b8:	0306                	slli	t1,t1,0x1
    13ba:	097f                	.2byte	0x97f
    13bc:	0006                	c.slli	zero,0x1
    13be:	0501                	addi	a0,a0,0
    13c0:	0019                	c.nop	6
    13c2:	0402                	c.slli64	s0
    13c4:	09000303          	lb	t1,144(zero) # 90 <_prog_start-0x7fffff70>
    13c8:	0000                	unimp
    13ca:	0501                	addi	a0,a0,0
    13cc:	0021                	c.nop	8
    13ce:	0402                	c.slli64	s0
    13d0:	0302                	c.slli64	t1
    13d2:	097f                	.2byte	0x97f
    13d4:	0004                	.2byte	0x4
    13d6:	0501                	addi	a0,a0,0
    13d8:	04020017          	auipc	zero,0x4020
    13dc:	0302                	c.slli64	t1
    13de:	0900                	addi	s0,sp,144
    13e0:	0002                	c.slli64	zero
    13e2:	0501                	addi	a0,a0,0
    13e4:	001e                	c.slli	zero,0x7
    13e6:	0402                	c.slli64	s0
    13e8:	0302                	c.slli64	t1
    13ea:	097f                	.2byte	0x97f
    13ec:	0006                	c.slli	zero,0x1
    13ee:	0501                	addi	a0,a0,0
    13f0:	0016                	c.slli	zero,0x5
    13f2:	0402                	c.slli64	s0
    13f4:	0302                	c.slli64	t1
    13f6:	0900                	addi	s0,sp,144
    13f8:	0002                	c.slli64	zero
    13fa:	0501                	addi	a0,a0,0
    13fc:	0601                	addi	a2,a2,0
    13fe:	06090403          	lb	s0,96(s2)
    1402:	0100                	addi	s0,sp,128
    1404:	0e05                	addi	t3,t3,1
    1406:	0306                	slli	t1,t1,0x1
    1408:	0901                	addi	s2,s2,0
    140a:	000c                	.2byte	0xc
    140c:	0501                	addi	a0,a0,0
    140e:	09010303          	lb	t1,144(sp)
    1412:	0000                	unimp
    1414:	0501                	addi	a0,a0,0
    1416:	0308                	addi	a0,sp,384
    1418:	0900                	addi	s0,sp,144
    141a:	0000                	unimp
    141c:	0501                	addi	a0,a0,0
    141e:	0316                	slli	t1,t1,0x5
    1420:	0900                	addi	s0,sp,144
    1422:	0000                	unimp
    1424:	0501                	addi	a0,a0,0
    1426:	060e                	slli	a2,a2,0x3
    1428:	00097f03          	.4byte	0x97f03
    142c:	0100                	addi	s0,sp,128
    142e:	02090203          	lb	tp,32(s2)
    1432:	0100                	addi	s0,sp,128
    1434:	02097e03          	.4byte	0x2097e03
    1438:	0100                	addi	s0,sp,128
    143a:	08090203          	lb	tp,128(s2)
    143e:	0100                	addi	s0,sp,128
    1440:	0c05                	addi	s8,s8,1
    1442:	04097f03          	.4byte	0x4097f03
    1446:	0100                	addi	s0,sp,128
    1448:	1705                	addi	a4,a4,-31
    144a:	24090103          	lb	sp,576(s2)
    144e:	0100                	addi	s0,sp,128
    1450:	1605                	addi	a2,a2,-31
    1452:	04097f03          	.4byte	0x4097f03
    1456:	0100                	addi	s0,sp,128
    1458:	1705                	addi	a4,a4,-31
    145a:	0306                	slli	t1,t1,0x1
    145c:	0901                	addi	s2,s2,0
    145e:	0004                	.2byte	0x4
    1460:	0501                	addi	a0,a0,0
    1462:	060e                	slli	a2,a2,0x3
    1464:	0c090003          	lb	zero,192(s2)
    1468:	0100                	addi	s0,sp,128
    146a:	1905                	addi	s2,s2,-31
    146c:	0306                	slli	t1,t1,0x1
    146e:	0901                	addi	s2,s2,0
    1470:	0002                	c.slli64	zero
    1472:	0501                	addi	a0,a0,0
    1474:	0009                	c.nop	2
    1476:	0402                	c.slli64	s0
    1478:	09010303          	lb	t1,144(sp)
    147c:	0008                	.2byte	0x8
    147e:	0501                	addi	a0,a0,0
    1480:	04020037          	lui	zero,0x4020
    1484:	00030603          	lb	a2,0(t1)
    1488:	0009                	c.nop	2
    148a:	0100                	addi	s0,sp,128
    148c:	2305                	addiw	t1,t1,1
    148e:	0200                	addi	s0,sp,256
    1490:	0304                	addi	s1,sp,384
    1492:	04090003          	lb	zero,64(s2)
    1496:	0100                	addi	s0,sp,128
    1498:	0e05                	addi	t3,t3,1
    149a:	0200                	addi	s0,sp,256
    149c:	0304                	addi	s1,sp,384
    149e:	04090003          	lb	zero,64(s2)
    14a2:	0100                	addi	s0,sp,128
    14a4:	3705                	addiw	a4,a4,-31
    14a6:	0200                	addi	s0,sp,256
    14a8:	0304                	addi	s1,sp,384
    14aa:	04090003          	lb	zero,64(s2)
    14ae:	0100                	addi	s0,sp,128
    14b0:	2305                	addiw	t1,t1,1
    14b2:	0200                	addi	s0,sp,256
    14b4:	0304                	addi	s1,sp,384
    14b6:	02090003          	lb	zero,32(s2)
    14ba:	0100                	addi	s0,sp,128
    14bc:	3705                	addiw	a4,a4,-31
    14be:	0200                	addi	s0,sp,256
    14c0:	0304                	addi	s1,sp,384
    14c2:	02090003          	lb	zero,32(s2)
    14c6:	0100                	addi	s0,sp,128
    14c8:	3005                	.2byte	0x3005
    14ca:	0200                	addi	s0,sp,256
    14cc:	0304                	addi	s1,sp,384
    14ce:	02090003          	lb	zero,32(s2)
    14d2:	0100                	addi	s0,sp,128
    14d4:	0e05                	addi	t3,t3,1
    14d6:	0200                	addi	s0,sp,256
    14d8:	0304                	addi	s1,sp,384
    14da:	08090003          	lb	zero,128(s2)
    14de:	0100                	addi	s0,sp,128
    14e0:	1b05                	addi	s6,s6,-31
    14e2:	0200                	addi	s0,sp,256
    14e4:	0304                	addi	s1,sp,384
    14e6:	02090003          	lb	zero,32(s2)
    14ea:	0100                	addi	s0,sp,128
    14ec:	3005                	.2byte	0x3005
    14ee:	0200                	addi	s0,sp,256
    14f0:	0304                	addi	s1,sp,384
    14f2:	04090003          	lb	zero,64(s2)
    14f6:	0100                	addi	s0,sp,128
    14f8:	1905                	addi	s2,s2,-31
    14fa:	0200                	addi	s0,sp,256
    14fc:	0304                	addi	s1,sp,384
    14fe:	04097f03          	.4byte	0x4097f03
    1502:	0100                	addi	s0,sp,128
    1504:	1b05                	addi	s6,s6,-31
    1506:	0200                	addi	s0,sp,256
    1508:	0304                	addi	s1,sp,384
    150a:	04090103          	lb	sp,64(s2)
    150e:	0100                	addi	s0,sp,128
    1510:	2405                	addiw	s0,s0,1
    1512:	0200                	addi	s0,sp,256
    1514:	0304                	addi	s1,sp,384
    1516:	0306                	slli	t1,t1,0x1
    1518:	097f                	.2byte	0x97f
    151a:	0006                	c.slli	zero,0x1
    151c:	0501                	addi	a0,a0,0
    151e:	0019                	c.nop	6
    1520:	0402                	c.slli64	s0
    1522:	09000303          	lb	t1,144(zero) # 90 <_prog_start-0x7fffff70>
    1526:	0000                	unimp
    1528:	0501                	addi	a0,a0,0
    152a:	0021                	c.nop	8
    152c:	0402                	c.slli64	s0
    152e:	0302                	c.slli64	t1
    1530:	097f                	.2byte	0x97f
    1532:	0004                	.2byte	0x4
    1534:	0501                	addi	a0,a0,0
    1536:	04020017          	auipc	zero,0x4020
    153a:	0302                	c.slli64	t1
    153c:	0900                	addi	s0,sp,144
    153e:	0002                	c.slli64	zero
    1540:	0501                	addi	a0,a0,0
    1542:	001e                	c.slli	zero,0x7
    1544:	0402                	c.slli64	s0
    1546:	0302                	c.slli64	t1
    1548:	097f                	.2byte	0x97f
    154a:	0006                	c.slli	zero,0x1
    154c:	0501                	addi	a0,a0,0
    154e:	0016                	c.slli	zero,0x5
    1550:	0402                	c.slli64	s0
    1552:	0302                	c.slli64	t1
    1554:	0900                	addi	s0,sp,144
    1556:	0002                	c.slli64	zero
    1558:	0501                	addi	a0,a0,0
    155a:	0601                	addi	a2,a2,0
    155c:	06090403          	lb	s0,96(s2)
    1560:	0100                	addi	s0,sp,128
    1562:	0e05                	addi	t3,t3,1
    1564:	0306                	slli	t1,t1,0x1
    1566:	0902                	c.slli64	s2
    1568:	000c                	.2byte	0xc
    156a:	0501                	addi	a0,a0,0
    156c:	09010303          	lb	t1,144(sp)
    1570:	0000                	unimp
    1572:	0501                	addi	a0,a0,0
    1574:	0308                	addi	a0,sp,384
    1576:	0900                	addi	s0,sp,144
    1578:	0000                	unimp
    157a:	0501                	addi	a0,a0,0
    157c:	0316                	slli	t1,t1,0x5
    157e:	0900                	addi	s0,sp,144
    1580:	0000                	unimp
    1582:	0501                	addi	a0,a0,0
    1584:	060e                	slli	a2,a2,0x3
    1586:	00097f03          	.4byte	0x97f03
    158a:	0100                	addi	s0,sp,128
    158c:	02090203          	lb	tp,32(s2)
    1590:	0100                	addi	s0,sp,128
    1592:	02097e03          	.4byte	0x2097e03
    1596:	0100                	addi	s0,sp,128
    1598:	06090203          	lb	tp,96(s2)
    159c:	0100                	addi	s0,sp,128
    159e:	0c05                	addi	s8,s8,1
    15a0:	04097f03          	.4byte	0x4097f03
    15a4:	0100                	addi	s0,sp,128
    15a6:	1705                	addi	a4,a4,-31
    15a8:	24090103          	lb	sp,576(s2)
    15ac:	0100                	addi	s0,sp,128
    15ae:	0306                	slli	t1,t1,0x1
    15b0:	0900                	addi	s0,sp,144
    15b2:	0004                	.2byte	0x4
    15b4:	0501                	addi	a0,a0,0
    15b6:	060e                	slli	a2,a2,0x3
    15b8:	0c090003          	lb	zero,192(s2)
    15bc:	0100                	addi	s0,sp,128
    15be:	1905                	addi	s2,s2,-31
    15c0:	0306                	slli	t1,t1,0x1
    15c2:	0901                	addi	s2,s2,0
    15c4:	0002                	c.slli64	zero
    15c6:	0501                	addi	a0,a0,0
    15c8:	0009                	c.nop	2
    15ca:	0402                	c.slli64	s0
    15cc:	09010303          	lb	t1,144(sp)
    15d0:	0008                	.2byte	0x8
    15d2:	0501                	addi	a0,a0,0
    15d4:	04020037          	lui	zero,0x4020
    15d8:	00030603          	lb	a2,0(t1)
    15dc:	0009                	c.nop	2
    15de:	0100                	addi	s0,sp,128
    15e0:	2305                	addiw	t1,t1,1
    15e2:	0200                	addi	s0,sp,256
    15e4:	0304                	addi	s1,sp,384
    15e6:	04090003          	lb	zero,64(s2)
    15ea:	0100                	addi	s0,sp,128
    15ec:	0e05                	addi	t3,t3,1
    15ee:	0200                	addi	s0,sp,256
    15f0:	0304                	addi	s1,sp,384
    15f2:	04090003          	lb	zero,64(s2)
    15f6:	0100                	addi	s0,sp,128
    15f8:	3705                	addiw	a4,a4,-31
    15fa:	0200                	addi	s0,sp,256
    15fc:	0304                	addi	s1,sp,384
    15fe:	04090003          	lb	zero,64(s2)
    1602:	0100                	addi	s0,sp,128
    1604:	2305                	addiw	t1,t1,1
    1606:	0200                	addi	s0,sp,256
    1608:	0304                	addi	s1,sp,384
    160a:	02090003          	lb	zero,32(s2)
    160e:	0100                	addi	s0,sp,128
    1610:	3705                	addiw	a4,a4,-31
    1612:	0200                	addi	s0,sp,256
    1614:	0304                	addi	s1,sp,384
    1616:	02090003          	lb	zero,32(s2)
    161a:	0100                	addi	s0,sp,128
    161c:	3005                	.2byte	0x3005
    161e:	0200                	addi	s0,sp,256
    1620:	0304                	addi	s1,sp,384
    1622:	02090003          	lb	zero,32(s2)
    1626:	0100                	addi	s0,sp,128
    1628:	0e05                	addi	t3,t3,1
    162a:	0200                	addi	s0,sp,256
    162c:	0304                	addi	s1,sp,384
    162e:	08090003          	lb	zero,128(s2)
    1632:	0100                	addi	s0,sp,128
    1634:	1b05                	addi	s6,s6,-31
    1636:	0200                	addi	s0,sp,256
    1638:	0304                	addi	s1,sp,384
    163a:	02090003          	lb	zero,32(s2)
    163e:	0100                	addi	s0,sp,128
    1640:	3005                	.2byte	0x3005
    1642:	0200                	addi	s0,sp,256
    1644:	0304                	addi	s1,sp,384
    1646:	04090003          	lb	zero,64(s2)
    164a:	0100                	addi	s0,sp,128
    164c:	1905                	addi	s2,s2,-31
    164e:	0200                	addi	s0,sp,256
    1650:	0304                	addi	s1,sp,384
    1652:	04097f03          	.4byte	0x4097f03
    1656:	0100                	addi	s0,sp,128
    1658:	1b05                	addi	s6,s6,-31
    165a:	0200                	addi	s0,sp,256
    165c:	0304                	addi	s1,sp,384
    165e:	04090103          	lb	sp,64(s2)
    1662:	0100                	addi	s0,sp,128
    1664:	2405                	addiw	s0,s0,1
    1666:	0200                	addi	s0,sp,256
    1668:	0304                	addi	s1,sp,384
    166a:	0306                	slli	t1,t1,0x1
    166c:	097f                	.2byte	0x97f
    166e:	0006                	c.slli	zero,0x1
    1670:	0501                	addi	a0,a0,0
    1672:	0019                	c.nop	6
    1674:	0402                	c.slli64	s0
    1676:	09000303          	lb	t1,144(zero) # 90 <_prog_start-0x7fffff70>
    167a:	0000                	unimp
    167c:	0501                	addi	a0,a0,0
    167e:	0021                	c.nop	8
    1680:	0402                	c.slli64	s0
    1682:	0302                	c.slli64	t1
    1684:	097f                	.2byte	0x97f
    1686:	0004                	.2byte	0x4
    1688:	0501                	addi	a0,a0,0
    168a:	04020017          	auipc	zero,0x4020
    168e:	0302                	c.slli64	t1
    1690:	0900                	addi	s0,sp,144
    1692:	0002                	c.slli64	zero
    1694:	0501                	addi	a0,a0,0
    1696:	001e                	c.slli	zero,0x7
    1698:	0402                	c.slli64	s0
    169a:	0302                	c.slli64	t1
    169c:	097f                	.2byte	0x97f
    169e:	0006                	c.slli	zero,0x1
    16a0:	0501                	addi	a0,a0,0
    16a2:	0016                	c.slli	zero,0x5
    16a4:	0402                	c.slli64	s0
    16a6:	0302                	c.slli64	t1
    16a8:	0900                	addi	s0,sp,144
    16aa:	0002                	c.slli64	zero
    16ac:	0501                	addi	a0,a0,0
    16ae:	0601                	addi	a2,a2,0
    16b0:	06090403          	lb	s0,96(s2)
    16b4:	0100                	addi	s0,sp,128
    16b6:	0a09                	addi	s4,s4,2
    16b8:	0000                	unimp
    16ba:	0101                	addi	sp,sp,0
    16bc:	2005                	.2byte	0x2005
    16be:	0900                	addi	s0,sp,144
    16c0:	e402                	sd	zero,8(sp)
    16c2:	0009                	c.nop	2
    16c4:	0080                	addi	s0,sp,64
    16c6:	0000                	unimp
    16c8:	0300                	addi	s0,sp,384
    16ca:	0196                	slli	gp,gp,0x5
    16cc:	0501                	addi	a0,a0,0
    16ce:	09020303          	lb	t1,144(tp) # 90 <_prog_start-0x7fffff70>
    16d2:	0000                	unimp
    16d4:	0501                	addi	a0,a0,0
    16d6:	0620                	addi	s0,sp,776
    16d8:	00097e03          	.4byte	0x97e03
    16dc:	0100                	addi	s0,sp,128
    16de:	1c090203          	lb	tp,448(s2)
    16e2:	0100                	addi	s0,sp,128
    16e4:	0305                	addi	t1,t1,1
    16e6:	0306                	slli	t1,t1,0x1
    16e8:	0901                	addi	s2,s2,0
    16ea:	0008                	.2byte	0x8
    16ec:	0301                	addi	t1,t1,0
    16ee:	0901                	addi	s2,s2,0
    16f0:	0000                	unimp
    16f2:	0301                	addi	t1,t1,0
    16f4:	0902                	c.slli64	s2
    16f6:	0000                	unimp
    16f8:	0301                	addi	t1,t1,0
    16fa:	0901                	addi	s2,s2,0
    16fc:	0000                	unimp
    16fe:	0301                	addi	t1,t1,0
    1700:	0902                	c.slli64	s2
    1702:	0000                	unimp
    1704:	0301                	addi	t1,t1,0
    1706:	0902                	c.slli64	s2
    1708:	000c                	.2byte	0xc
    170a:	0501                	addi	a0,a0,0
    170c:	030d                	addi	t1,t1,3
    170e:	0900                	addi	s0,sp,144
    1710:	0000                	unimp
    1712:	0301                	addi	t1,t1,0
    1714:	0900                	addi	s0,sp,144
    1716:	0000                	unimp
    1718:	0301                	addi	t1,t1,0
    171a:	0900                	addi	s0,sp,144
    171c:	0004                	.2byte	0x4
    171e:	0501                	addi	a0,a0,0
    1720:	0003060b          	.4byte	0x3060b
    1724:	0009                	c.nop	2
    1726:	0100                	addi	s0,sp,128
    1728:	0305                	addi	t1,t1,1
    172a:	0306                	slli	t1,t1,0x1
    172c:	0901                	addi	s2,s2,0
    172e:	0004                	.2byte	0x4
    1730:	0501                	addi	a0,a0,0
    1732:	0308                	addi	a0,sp,384
    1734:	0900                	addi	s0,sp,144
    1736:	0000                	unimp
    1738:	0501                	addi	a0,a0,0
    173a:	0315                	addi	t1,t1,5
    173c:	0900                	addi	s0,sp,144
    173e:	0000                	unimp
    1740:	0501                	addi	a0,a0,0
    1742:	060c                	addi	a1,sp,768
    1744:	00090003          	lb	zero,0(s2)
    1748:	0100                	addi	s0,sp,128
    174a:	1705                	addi	a4,a4,-31
    174c:	22090103          	lb	sp,544(s2)
    1750:	0100                	addi	s0,sp,128
    1752:	0306                	slli	t1,t1,0x1
    1754:	0900                	addi	s0,sp,144
    1756:	0004                	.2byte	0x4
    1758:	0501                	addi	a0,a0,0
    175a:	060e                	slli	a2,a2,0x3
    175c:	0c090003          	lb	zero,192(s2)
    1760:	0100                	addi	s0,sp,128
    1762:	1905                	addi	s2,s2,-31
    1764:	0306                	slli	t1,t1,0x1
    1766:	0901                	addi	s2,s2,0
    1768:	0002                	c.slli64	zero
    176a:	0501                	addi	a0,a0,0
    176c:	0009                	c.nop	2
    176e:	0402                	c.slli64	s0
    1770:	09010303          	lb	t1,144(sp)
    1774:	0008                	.2byte	0x8
    1776:	0501                	addi	a0,a0,0
    1778:	04020037          	lui	zero,0x4020
    177c:	00030603          	lb	a2,0(t1)
    1780:	0009                	c.nop	2
    1782:	0100                	addi	s0,sp,128
    1784:	2305                	addiw	t1,t1,1
    1786:	0200                	addi	s0,sp,256
    1788:	0304                	addi	s1,sp,384
    178a:	04090003          	lb	zero,64(s2)
    178e:	0100                	addi	s0,sp,128
    1790:	0e05                	addi	t3,t3,1
    1792:	0200                	addi	s0,sp,256
    1794:	0304                	addi	s1,sp,384
    1796:	04090003          	lb	zero,64(s2)
    179a:	0100                	addi	s0,sp,128
    179c:	3705                	addiw	a4,a4,-31
    179e:	0200                	addi	s0,sp,256
    17a0:	0304                	addi	s1,sp,384
    17a2:	02090003          	lb	zero,32(s2)
    17a6:	0100                	addi	s0,sp,128
    17a8:	2305                	addiw	t1,t1,1
    17aa:	0200                	addi	s0,sp,256
    17ac:	0304                	addi	s1,sp,384
    17ae:	02090003          	lb	zero,32(s2)
    17b2:	0100                	addi	s0,sp,128
    17b4:	3705                	addiw	a4,a4,-31
    17b6:	0200                	addi	s0,sp,256
    17b8:	0304                	addi	s1,sp,384
    17ba:	02090003          	lb	zero,32(s2)
    17be:	0100                	addi	s0,sp,128
    17c0:	3005                	.2byte	0x3005
    17c2:	0200                	addi	s0,sp,256
    17c4:	0304                	addi	s1,sp,384
    17c6:	02090003          	lb	zero,32(s2)
    17ca:	0100                	addi	s0,sp,128
    17cc:	0e05                	addi	t3,t3,1
    17ce:	0200                	addi	s0,sp,256
    17d0:	0304                	addi	s1,sp,384
    17d2:	08090003          	lb	zero,128(s2)
    17d6:	0100                	addi	s0,sp,128
    17d8:	1b05                	addi	s6,s6,-31
    17da:	0200                	addi	s0,sp,256
    17dc:	0304                	addi	s1,sp,384
    17de:	02090003          	lb	zero,32(s2)
    17e2:	0100                	addi	s0,sp,128
    17e4:	3005                	.2byte	0x3005
    17e6:	0200                	addi	s0,sp,256
    17e8:	0304                	addi	s1,sp,384
    17ea:	04090003          	lb	zero,64(s2)
    17ee:	0100                	addi	s0,sp,128
    17f0:	1905                	addi	s2,s2,-31
    17f2:	0200                	addi	s0,sp,256
    17f4:	0304                	addi	s1,sp,384
    17f6:	04097f03          	.4byte	0x4097f03
    17fa:	0100                	addi	s0,sp,128
    17fc:	1b05                	addi	s6,s6,-31
    17fe:	0200                	addi	s0,sp,256
    1800:	0304                	addi	s1,sp,384
    1802:	04090103          	lb	sp,64(s2)
    1806:	0100                	addi	s0,sp,128
    1808:	2305                	addiw	t1,t1,1
    180a:	0200                	addi	s0,sp,256
    180c:	0304                	addi	s1,sp,384
    180e:	0306                	slli	t1,t1,0x1
    1810:	097f                	.2byte	0x97f
    1812:	0006                	c.slli	zero,0x1
    1814:	0501                	addi	a0,a0,0
    1816:	0019                	c.nop	6
    1818:	0402                	c.slli64	s0
    181a:	09000303          	lb	t1,144(zero) # 90 <_prog_start-0x7fffff70>
    181e:	0000                	unimp
    1820:	0501                	addi	a0,a0,0
    1822:	0021                	c.nop	8
    1824:	0402                	c.slli64	s0
    1826:	0302                	c.slli64	t1
    1828:	097f                	.2byte	0x97f
    182a:	0004                	.2byte	0x4
    182c:	0501                	addi	a0,a0,0
    182e:	04020017          	auipc	zero,0x4020
    1832:	0302                	c.slli64	t1
    1834:	0900                	addi	s0,sp,144
    1836:	0002                	c.slli64	zero
    1838:	0501                	addi	a0,a0,0
    183a:	001f 0402 0302      	.byte	0x1f, 0x00, 0x02, 0x04, 0x02, 0x03
    1840:	097f                	.2byte	0x97f
    1842:	0006                	c.slli	zero,0x1
    1844:	0501                	addi	a0,a0,0
    1846:	0015                	c.nop	5
    1848:	0402                	c.slli64	s0
    184a:	0302                	c.slli64	t1
    184c:	0900                	addi	s0,sp,144
    184e:	0002                	c.slli64	zero
    1850:	0501                	addi	a0,a0,0
    1852:	09040303          	lb	t1,144(s0)
    1856:	0006                	c.slli	zero,0x1
    1858:	0501                	addi	a0,a0,0
    185a:	0900030b          	.4byte	0x900030b
    185e:	0000                	unimp
    1860:	0301                	addi	t1,t1,0
    1862:	0900                	addi	s0,sp,144
    1864:	0000                	unimp
    1866:	0301                	addi	t1,t1,0
    1868:	0900                	addi	s0,sp,144
    186a:	0004                	.2byte	0x4
    186c:	0501                	addi	a0,a0,0
    186e:	09010303          	lb	t1,144(sp)
    1872:	0000                	unimp
    1874:	0301                	addi	t1,t1,0
    1876:	0902                	c.slli64	s2
    1878:	0000                	unimp
    187a:	0301                	addi	t1,t1,0
    187c:	0902                	c.slli64	s2
    187e:	0010                	.2byte	0x10
    1880:	0501                	addi	a0,a0,0
    1882:	0308                	addi	a0,sp,384
    1884:	0900                	addi	s0,sp,144
    1886:	0000                	unimp
    1888:	0501                	addi	a0,a0,0
    188a:	0315                	addi	t1,t1,5
    188c:	0900                	addi	s0,sp,144
    188e:	0000                	unimp
    1890:	0501                	addi	a0,a0,0
    1892:	7e030603          	lb	a2,2016(t1)
    1896:	0209                	addi	tp,tp,2 # 2 <_prog_start-0x7ffffffe>
    1898:	0100                	addi	s0,sp,128
    189a:	1505                	addi	a0,a0,-31
    189c:	0e090203          	lb	tp,224(s2)
    18a0:	0100                	addi	s0,sp,128
    18a2:	1705                	addi	a4,a4,-31
    18a4:	0306                	slli	t1,t1,0x1
    18a6:	0901                	addi	s2,s2,0
    18a8:	0004                	.2byte	0x4
    18aa:	0501                	addi	a0,a0,0
    18ac:	060c                	addi	a1,sp,768
    18ae:	00097603          	.4byte	0x97603
    18b2:	0100                	addi	s0,sp,128
    18b4:	0705                	addi	a4,a4,1
    18b6:	0200                	addi	s0,sp,256
    18b8:	0304                	addi	s1,sp,384
    18ba:	0306                	slli	t1,t1,0x1
    18bc:	0002090b          	.4byte	0x2090b
    18c0:	0501                	addi	a0,a0,0
    18c2:	0011                	c.nop	4
    18c4:	0402                	c.slli64	s0
    18c6:	00030603          	lb	a2,0(t1)
    18ca:	0009                	c.nop	2
    18cc:	0100                	addi	s0,sp,128
    18ce:	0705                	addi	a4,a4,1
    18d0:	0200                	addi	s0,sp,256
    18d2:	0304                	addi	s1,sp,384
    18d4:	02090003          	lb	zero,32(s2)
    18d8:	0100                	addi	s0,sp,128
    18da:	1105                	addi	sp,sp,-31
    18dc:	0200                	addi	s0,sp,256
    18de:	0304                	addi	s1,sp,384
    18e0:	02090003          	lb	zero,32(s2)
    18e4:	0100                	addi	s0,sp,128
    18e6:	1705                	addi	a4,a4,-31
    18e8:	0200                	addi	s0,sp,256
    18ea:	0304                	addi	s1,sp,384
    18ec:	06097f03          	.4byte	0x6097f03
    18f0:	0100                	addi	s0,sp,128
    18f2:	0a05                	addi	s4,s4,1
    18f4:	0200                	addi	s0,sp,256
    18f6:	0304                	addi	s1,sp,384
    18f8:	02090103          	lb	sp,32(s2)
    18fc:	0100                	addi	s0,sp,128
    18fe:	2105                	addiw	sp,sp,1
    1900:	0200                	addi	s0,sp,256
    1902:	0304                	addi	s1,sp,384
    1904:	0306                	slli	t1,t1,0x1
    1906:	097f                	.2byte	0x97f
    1908:	0004                	.2byte	0x4
    190a:	0501                	addi	a0,a0,0
    190c:	04020017          	auipc	zero,0x4020
    1910:	09000303          	lb	t1,144(zero) # 90 <_prog_start-0x7fffff70>
    1914:	0000                	unimp
    1916:	0501                	addi	a0,a0,0
    1918:	001f 0402 0302      	.byte	0x1f, 0x00, 0x02, 0x04, 0x02, 0x03
    191e:	097f                	.2byte	0x97f
    1920:	0004                	.2byte	0x4
    1922:	0501                	addi	a0,a0,0
    1924:	0015                	c.nop	5
    1926:	0402                	c.slli64	s0
    1928:	0302                	c.slli64	t1
    192a:	0900                	addi	s0,sp,144
    192c:	0000                	unimp
    192e:	0501                	addi	a0,a0,0
    1930:	09050303          	lb	t1,144(a0)
    1934:	000c                	.2byte	0xc
    1936:	0501                	addi	a0,a0,0
    1938:	030d                	addi	t1,t1,3
    193a:	0900                	addi	s0,sp,144
    193c:	0000                	unimp
    193e:	0301                	addi	t1,t1,0
    1940:	0900                	addi	s0,sp,144
    1942:	0000                	unimp
    1944:	0301                	addi	t1,t1,0
    1946:	0900                	addi	s0,sp,144
    1948:	0004                	.2byte	0x4
    194a:	0501                	addi	a0,a0,0
    194c:	09010303          	lb	t1,144(sp)
    1950:	0000                	unimp
    1952:	0501                	addi	a0,a0,0
    1954:	061d                	addi	a2,a2,7
    1956:	00090003          	lb	zero,0(s2)
    195a:	0100                	addi	s0,sp,128
    195c:	0305                	addi	t1,t1,1
    195e:	0306                	slli	t1,t1,0x1
    1960:	0901                	addi	s2,s2,0
    1962:	0008                	.2byte	0x8
    1964:	0501                	addi	a0,a0,0
    1966:	061d                	addi	a2,a2,7
    1968:	00090003          	lb	zero,0(s2)
    196c:	0100                	addi	s0,sp,128
    196e:	0305                	addi	t1,t1,1
    1970:	0306                	slli	t1,t1,0x1
    1972:	0901                	addi	s2,s2,0
    1974:	0002                	c.slli64	zero
    1976:	0501                	addi	a0,a0,0
    1978:	061d                	addi	a2,a2,7
    197a:	00090003          	lb	zero,0(s2)
    197e:	0100                	addi	s0,sp,128
    1980:	0305                	addi	t1,t1,1
    1982:	0306                	slli	t1,t1,0x1
    1984:	0901                	addi	s2,s2,0
    1986:	0002                	c.slli64	zero
    1988:	0301                	addi	t1,t1,0
    198a:	0901                	addi	s2,s2,0
    198c:	0004                	.2byte	0x4
    198e:	0501                	addi	a0,a0,0
    1990:	0900030b          	.4byte	0x900030b
    1994:	0000                	unimp
    1996:	0301                	addi	t1,t1,0
    1998:	0900                	addi	s0,sp,144
    199a:	0000                	unimp
    199c:	0301                	addi	t1,t1,0
    199e:	0900                	addi	s0,sp,144
    19a0:	0004                	.2byte	0x4
    19a2:	0501                	addi	a0,a0,0
    19a4:	09010303          	lb	t1,144(sp)
    19a8:	0000                	unimp
    19aa:	0301                	addi	t1,t1,0
    19ac:	0901                	addi	s2,s2,0
    19ae:	0000                	unimp
    19b0:	0301                	addi	t1,t1,0
    19b2:	0902                	c.slli64	s2
    19b4:	000e                	c.slli	zero,0x3
    19b6:	0301                	addi	t1,t1,0
    19b8:	0902                	c.slli64	s2
    19ba:	000c                	.2byte	0xc
    19bc:	0501                	addi	a0,a0,0
    19be:	030d                	addi	t1,t1,3
    19c0:	0900                	addi	s0,sp,144
    19c2:	0000                	unimp
    19c4:	0301                	addi	t1,t1,0
    19c6:	0900                	addi	s0,sp,144
    19c8:	0000                	unimp
    19ca:	0301                	addi	t1,t1,0
    19cc:	0900                	addi	s0,sp,144
    19ce:	0004                	.2byte	0x4
    19d0:	0501                	addi	a0,a0,0
    19d2:	01030603          	lb	a2,16(t1)
    19d6:	0009                	c.nop	2
    19d8:	0100                	addi	s0,sp,128
    19da:	04090103          	lb	sp,64(s2)
    19de:	0100                	addi	s0,sp,128
    19e0:	04090103          	lb	sp,64(s2)
    19e4:	0100                	addi	s0,sp,128
    19e6:	04090103          	lb	sp,64(s2)
    19ea:	0100                	addi	s0,sp,128
    19ec:	0b05                	addi	s6,s6,1
    19ee:	0c097c03          	.4byte	0xc097c03
    19f2:	0100                	addi	s0,sp,128
    19f4:	0305                	addi	t1,t1,1
    19f6:	0306                	slli	t1,t1,0x1
    19f8:	0901                	addi	s2,s2,0
    19fa:	0002                	c.slli64	zero
    19fc:	0301                	addi	t1,t1,0
    19fe:	0901                	addi	s2,s2,0
    1a00:	0000                	unimp
    1a02:	0301                	addi	t1,t1,0
    1a04:	0901                	addi	s2,s2,0
    1a06:	0000                	unimp
    1a08:	0301                	addi	t1,t1,0
    1a0a:	0901                	addi	s2,s2,0
    1a0c:	0000                	unimp
    1a0e:	0301                	addi	t1,t1,0
    1a10:	0901                	addi	s2,s2,0
    1a12:	0000                	unimp
    1a14:	0301                	addi	t1,t1,0
    1a16:	7f81                	lui	t6,0xfffe0
    1a18:	0009                	c.nop	2
    1a1a:	0100                	addi	s0,sp,128
    1a1c:	0805                	addi	a6,a6,1
    1a1e:	00090003          	lb	zero,0(s2)
    1a22:	0100                	addi	s0,sp,128
    1a24:	1505                	addi	a0,a0,-31
    1a26:	00090003          	lb	zero,0(s2)
    1a2a:	0100                	addi	s0,sp,128
    1a2c:	0305                	addi	t1,t1,1
    1a2e:	0306                	slli	t1,t1,0x1
    1a30:	00fe                	slli	ra,ra,0x1f
    1a32:	1009                	c.nop	-30
    1a34:	0100                	addi	s0,sp,128
    1a36:	1505                	addi	a0,a0,-31
    1a38:	097f8203          	lb	tp,151(t6) # fffffffffffe0097 <a+0xffffffff7ffdf0c7>
    1a3c:	0002                	c.slli64	zero
    1a3e:	0501                	addi	a0,a0,0
    1a40:	0609                	addi	a2,a2,2
    1a42:	04090103          	lb	sp,64(s2)
    1a46:	0100                	addi	s0,sp,128
    1a48:	1205                	addi	tp,tp,-31 # ffffffffffffffe1 <a+0xffffffff7ffff011>
    1a4a:	0306                	slli	t1,t1,0x1
    1a4c:	0900                	addi	s0,sp,144
    1a4e:	0000                	unimp
    1a50:	0501                	addi	a0,a0,0
    1a52:	031a                	slli	t1,t1,0x6
    1a54:	0900                	addi	s0,sp,144
    1a56:	0004                	.2byte	0x4
    1a58:	0501                	addi	a0,a0,0
    1a5a:	030e                	slli	t1,t1,0x3
    1a5c:	0900                	addi	s0,sp,144
    1a5e:	0004                	.2byte	0x4
    1a60:	0501                	addi	a0,a0,0
    1a62:	0312                	slli	t1,t1,0x4
    1a64:	0900                	addi	s0,sp,144
    1a66:	0004                	.2byte	0x4
    1a68:	0501                	addi	a0,a0,0
    1a6a:	031a                	slli	t1,t1,0x6
    1a6c:	0900                	addi	s0,sp,144
    1a6e:	0002                	c.slli64	zero
    1a70:	0501                	addi	a0,a0,0
    1a72:	0316                	slli	t1,t1,0x5
    1a74:	0900                	addi	s0,sp,144
    1a76:	0002                	c.slli64	zero
    1a78:	0501                	addi	a0,a0,0
    1a7a:	030e                	slli	t1,t1,0x3
    1a7c:	0900                	addi	s0,sp,144
    1a7e:	0008                	.2byte	0x8
    1a80:	0501                	addi	a0,a0,0
    1a82:	0315                	addi	t1,t1,5
    1a84:	097f                	.2byte	0x97f
    1a86:	0002                	c.slli64	zero
    1a88:	0501                	addi	a0,a0,0
    1a8a:	0316                	slli	t1,t1,0x5
    1a8c:	0901                	addi	s2,s2,0
    1a8e:	0002                	c.slli64	zero
    1a90:	0501                	addi	a0,a0,0
    1a92:	030e                	slli	t1,t1,0x3
    1a94:	0900                	addi	s0,sp,144
    1a96:	0002                	c.slli64	zero
    1a98:	0501                	addi	a0,a0,0
    1a9a:	0620                	addi	s0,sp,776
    1a9c:	04097f03          	.4byte	0x4097f03
    1aa0:	0100                	addi	s0,sp,128
    1aa2:	1505                	addi	a0,a0,-31
    1aa4:	00090003          	lb	zero,0(s2)
    1aa8:	0100                	addi	s0,sp,128
    1aaa:	0306                	slli	t1,t1,0x1
    1aac:	0905                	addi	s2,s2,1
    1aae:	001e                	c.slli	zero,0x7
    1ab0:	0501                	addi	a0,a0,0
    1ab2:	0609                	addi	a2,a2,2
    1ab4:	04090103          	lb	sp,64(s2)
    1ab8:	0100                	addi	s0,sp,128
    1aba:	1205                	addi	tp,tp,-31 # ffffffffffffffe1 <a+0xffffffff7ffff011>
    1abc:	0306                	slli	t1,t1,0x1
    1abe:	0900                	addi	s0,sp,144
    1ac0:	0000                	unimp
    1ac2:	0501                	addi	a0,a0,0
    1ac4:	031a                	slli	t1,t1,0x6
    1ac6:	0900                	addi	s0,sp,144
    1ac8:	0004                	.2byte	0x4
    1aca:	0501                	addi	a0,a0,0
    1acc:	030e                	slli	t1,t1,0x3
    1ace:	0900                	addi	s0,sp,144
    1ad0:	0002                	c.slli64	zero
    1ad2:	0501                	addi	a0,a0,0
    1ad4:	0312                	slli	t1,t1,0x4
    1ad6:	0900                	addi	s0,sp,144
    1ad8:	0002                	c.slli64	zero
    1ada:	0501                	addi	a0,a0,0
    1adc:	031a                	slli	t1,t1,0x6
    1ade:	0900                	addi	s0,sp,144
    1ae0:	0002                	c.slli64	zero
    1ae2:	0501                	addi	a0,a0,0
    1ae4:	0316                	slli	t1,t1,0x5
    1ae6:	0900                	addi	s0,sp,144
    1ae8:	0002                	c.slli64	zero
    1aea:	0501                	addi	a0,a0,0
    1aec:	030e                	slli	t1,t1,0x3
    1aee:	0900                	addi	s0,sp,144
    1af0:	0008                	.2byte	0x8
    1af2:	0501                	addi	a0,a0,0
    1af4:	0315                	addi	t1,t1,5
    1af6:	097f                	.2byte	0x97f
    1af8:	0002                	c.slli64	zero
    1afa:	0501                	addi	a0,a0,0
    1afc:	0316                	slli	t1,t1,0x5
    1afe:	0901                	addi	s2,s2,0
    1b00:	0002                	c.slli64	zero
    1b02:	0501                	addi	a0,a0,0
    1b04:	030e                	slli	t1,t1,0x3
    1b06:	0900                	addi	s0,sp,144
    1b08:	0002                	c.slli64	zero
    1b0a:	0501                	addi	a0,a0,0
    1b0c:	0620                	addi	s0,sp,776
    1b0e:	04097f03          	.4byte	0x4097f03
    1b12:	0100                	addi	s0,sp,128
    1b14:	1505                	addi	a0,a0,-31
    1b16:	00090003          	lb	zero,0(s2)
    1b1a:	0100                	addi	s0,sp,128
    1b1c:	0305                	addi	t1,t1,1
    1b1e:	0900fc03          	.4byte	0x900fc03
    1b22:	0004                	.2byte	0x4
    1b24:	0301                	addi	t1,t1,0
    1b26:	0901                	addi	s2,s2,0
    1b28:	0004                	.2byte	0x4
    1b2a:	0301                	addi	t1,t1,0
    1b2c:	0901                	addi	s2,s2,0
    1b2e:	0004                	.2byte	0x4
    1b30:	0301                	addi	t1,t1,0
    1b32:	0901                	addi	s2,s2,0
    1b34:	0004                	.2byte	0x4
    1b36:	0301                	addi	t1,t1,0
    1b38:	0901                	addi	s2,s2,0
    1b3a:	0004                	.2byte	0x4
    1b3c:	0501                	addi	a0,a0,0
    1b3e:	0315                	addi	t1,t1,5
    1b40:	00097fab          	.4byte	0x97fab
    1b44:	0100                	addi	s0,sp,128
    1b46:	0305                	addi	t1,t1,1
    1b48:	0306                	slli	t1,t1,0x1
    1b4a:	00d4                	addi	a3,sp,68
    1b4c:	0809                	addi	a6,a6,2
    1b4e:	0100                	addi	s0,sp,128
    1b50:	1505                	addi	a0,a0,-31
    1b52:	097fac03          	lw	s8,151(t6)
    1b56:	0002                	c.slli64	zero
    1b58:	0501                	addi	a0,a0,0
    1b5a:	0609                	addi	a2,a2,2
    1b5c:	04090103          	lb	sp,64(s2)
    1b60:	0100                	addi	s0,sp,128
    1b62:	1205                	addi	tp,tp,-31 # ffffffffffffffe1 <a+0xffffffff7ffff011>
    1b64:	0306                	slli	t1,t1,0x1
    1b66:	0900                	addi	s0,sp,144
    1b68:	0000                	unimp
    1b6a:	0501                	addi	a0,a0,0
    1b6c:	031a                	slli	t1,t1,0x6
    1b6e:	0900                	addi	s0,sp,144
    1b70:	0004                	.2byte	0x4
    1b72:	0501                	addi	a0,a0,0
    1b74:	030e                	slli	t1,t1,0x3
    1b76:	0900                	addi	s0,sp,144
    1b78:	0004                	.2byte	0x4
    1b7a:	0501                	addi	a0,a0,0
    1b7c:	0312                	slli	t1,t1,0x4
    1b7e:	0900                	addi	s0,sp,144
    1b80:	0004                	.2byte	0x4
    1b82:	0501                	addi	a0,a0,0
    1b84:	031a                	slli	t1,t1,0x6
    1b86:	0900                	addi	s0,sp,144
    1b88:	0002                	c.slli64	zero
    1b8a:	0501                	addi	a0,a0,0
    1b8c:	0316                	slli	t1,t1,0x5
    1b8e:	0900                	addi	s0,sp,144
    1b90:	0002                	c.slli64	zero
    1b92:	0501                	addi	a0,a0,0
    1b94:	030e                	slli	t1,t1,0x3
    1b96:	0900                	addi	s0,sp,144
    1b98:	0008                	.2byte	0x8
    1b9a:	0501                	addi	a0,a0,0
    1b9c:	0315                	addi	t1,t1,5
    1b9e:	097f                	.2byte	0x97f
    1ba0:	0002                	c.slli64	zero
    1ba2:	0501                	addi	a0,a0,0
    1ba4:	0316                	slli	t1,t1,0x5
    1ba6:	0901                	addi	s2,s2,0
    1ba8:	0002                	c.slli64	zero
    1baa:	0501                	addi	a0,a0,0
    1bac:	030e                	slli	t1,t1,0x3
    1bae:	0900                	addi	s0,sp,144
    1bb0:	0002                	c.slli64	zero
    1bb2:	0501                	addi	a0,a0,0
    1bb4:	0620                	addi	s0,sp,776
    1bb6:	04097f03          	.4byte	0x4097f03
    1bba:	0100                	addi	s0,sp,128
    1bbc:	1505                	addi	a0,a0,-31
    1bbe:	00090003          	lb	zero,0(s2)
    1bc2:	0100                	addi	s0,sp,128
    1bc4:	0306                	slli	t1,t1,0x1
    1bc6:	0905                	addi	s2,s2,1
    1bc8:	000e                	c.slli	zero,0x3
    1bca:	0501                	addi	a0,a0,0
    1bcc:	0609                	addi	a2,a2,2
    1bce:	04090103          	lb	sp,64(s2)
    1bd2:	0100                	addi	s0,sp,128
    1bd4:	1205                	addi	tp,tp,-31 # ffffffffffffffe1 <a+0xffffffff7ffff011>
    1bd6:	0306                	slli	t1,t1,0x1
    1bd8:	0900                	addi	s0,sp,144
    1bda:	0000                	unimp
    1bdc:	0501                	addi	a0,a0,0
    1bde:	031a                	slli	t1,t1,0x6
    1be0:	0900                	addi	s0,sp,144
    1be2:	0004                	.2byte	0x4
    1be4:	0501                	addi	a0,a0,0
    1be6:	030e                	slli	t1,t1,0x3
    1be8:	0900                	addi	s0,sp,144
    1bea:	0002                	c.slli64	zero
    1bec:	0501                	addi	a0,a0,0
    1bee:	0312                	slli	t1,t1,0x4
    1bf0:	0900                	addi	s0,sp,144
    1bf2:	0002                	c.slli64	zero
    1bf4:	0501                	addi	a0,a0,0
    1bf6:	031a                	slli	t1,t1,0x6
    1bf8:	0900                	addi	s0,sp,144
    1bfa:	0002                	c.slli64	zero
    1bfc:	0501                	addi	a0,a0,0
    1bfe:	0316                	slli	t1,t1,0x5
    1c00:	0900                	addi	s0,sp,144
    1c02:	0002                	c.slli64	zero
    1c04:	0501                	addi	a0,a0,0
    1c06:	030e                	slli	t1,t1,0x3
    1c08:	0900                	addi	s0,sp,144
    1c0a:	0008                	.2byte	0x8
    1c0c:	0501                	addi	a0,a0,0
    1c0e:	0315                	addi	t1,t1,5
    1c10:	097f                	.2byte	0x97f
    1c12:	0002                	c.slli64	zero
    1c14:	0501                	addi	a0,a0,0
    1c16:	0316                	slli	t1,t1,0x5
    1c18:	0901                	addi	s2,s2,0
    1c1a:	0002                	c.slli64	zero
    1c1c:	0501                	addi	a0,a0,0
    1c1e:	030e                	slli	t1,t1,0x3
    1c20:	0900                	addi	s0,sp,144
    1c22:	0002                	c.slli64	zero
    1c24:	0501                	addi	a0,a0,0
    1c26:	0620                	addi	s0,sp,776
    1c28:	04097f03          	.4byte	0x4097f03
    1c2c:	0100                	addi	s0,sp,128
    1c2e:	1505                	addi	a0,a0,-31
    1c30:	00090003          	lb	zero,0(s2)
    1c34:	0100                	addi	s0,sp,128
    1c36:	0305                	addi	t1,t1,1
    1c38:	0900d203          	lhu	tp,144(ra)
    1c3c:	0004                	.2byte	0x4
    1c3e:	0501                	addi	a0,a0,0
    1c40:	0900030b          	.4byte	0x900030b
    1c44:	0000                	unimp
    1c46:	0301                	addi	t1,t1,0
    1c48:	0900                	addi	s0,sp,144
    1c4a:	0000                	unimp
    1c4c:	0301                	addi	t1,t1,0
    1c4e:	0900                	addi	s0,sp,144
    1c50:	0004                	.2byte	0x4
    1c52:	0501                	addi	a0,a0,0
    1c54:	09010303          	lb	t1,144(sp)
    1c58:	0000                	unimp
    1c5a:	0301                	addi	t1,t1,0
    1c5c:	0901                	addi	s2,s2,0
    1c5e:	0000                	unimp
    1c60:	0501                	addi	a0,a0,0
    1c62:	0305                	addi	t1,t1,1
    1c64:	000e0903          	lb	s2,0(t3)
    1c68:	0501                	addi	a0,a0,0
    1c6a:	0900030f          	.4byte	0x900030f
    1c6e:	0000                	unimp
    1c70:	0301                	addi	t1,t1,0
    1c72:	0900                	addi	s0,sp,144
    1c74:	0000                	unimp
    1c76:	0301                	addi	t1,t1,0
    1c78:	0900                	addi	s0,sp,144
    1c7a:	0004                	.2byte	0x4
    1c7c:	0501                	addi	a0,a0,0
    1c7e:	061f 0303 0009      	.byte	0x1f, 0x06, 0x03, 0x03, 0x09, 0x00
    1c84:	0100                	addi	s0,sp,128
    1c86:	0a090103          	lb	sp,160(s2)
    1c8a:	0100                	addi	s0,sp,128
    1c8c:	04090103          	lb	sp,64(s2)
    1c90:	0100                	addi	s0,sp,128
    1c92:	0505                	addi	a0,a0,1
    1c94:	04090103          	lb	sp,64(s2)
    1c98:	0100                	addi	s0,sp,128
    1c9a:	0d05                	addi	s10,s10,1
    1c9c:	04097a03          	.4byte	0x4097a03
    1ca0:	0100                	addi	s0,sp,128
    1ca2:	0505                	addi	a0,a0,1
    1ca4:	0306                	slli	t1,t1,0x1
    1ca6:	0901                	addi	s2,s2,0
    1ca8:	0002                	c.slli64	zero
    1caa:	0301                	addi	t1,t1,0
    1cac:	0902                	c.slli64	s2
    1cae:	0000                	unimp
    1cb0:	0301                	addi	t1,t1,0
    1cb2:	0901                	addi	s2,s2,0
    1cb4:	0000                	unimp
    1cb6:	0301                	addi	t1,t1,0
    1cb8:	0901                	addi	s2,s2,0
    1cba:	0000                	unimp
    1cbc:	0301                	addi	t1,t1,0
    1cbe:	0901                	addi	s2,s2,0
    1cc0:	0000                	unimp
    1cc2:	0301                	addi	t1,t1,0
    1cc4:	0901                	addi	s2,s2,0
    1cc6:	0000                	unimp
    1cc8:	0501                	addi	a0,a0,0
    1cca:	030e                	slli	t1,t1,0x3
    1ccc:	0900                	addi	s0,sp,144
    1cce:	0000                	unimp
    1cd0:	0301                	addi	t1,t1,0
    1cd2:	0900                	addi	s0,sp,144
    1cd4:	0000                	unimp
    1cd6:	0301                	addi	t1,t1,0
    1cd8:	0900                	addi	s0,sp,144
    1cda:	0004                	.2byte	0x4
    1cdc:	0501                	addi	a0,a0,0
    1cde:	060c                	addi	a1,sp,768
    1ce0:	00090003          	lb	zero,0(s2)
    1ce4:	0100                	addi	s0,sp,128
    1ce6:	0505                	addi	a0,a0,1
    1ce8:	0306                	slli	t1,t1,0x1
    1cea:	00020903          	lb	s2,0(tp) # 0 <_prog_start-0x80000000>
    1cee:	0501                	addi	a0,a0,0
    1cf0:	0310                	addi	a2,sp,384
    1cf2:	0900                	addi	s0,sp,144
    1cf4:	0000                	unimp
    1cf6:	0301                	addi	t1,t1,0
    1cf8:	0900                	addi	s0,sp,144
    1cfa:	0000                	unimp
    1cfc:	0301                	addi	t1,t1,0
    1cfe:	0900                	addi	s0,sp,144
    1d00:	0004                	.2byte	0x4
    1d02:	0501                	addi	a0,a0,0
    1d04:	061f 0103 0009      	.byte	0x1f, 0x06, 0x03, 0x01, 0x09, 0x00
    1d0a:	0100                	addi	s0,sp,128
    1d0c:	0e05                	addi	t3,t3,1
    1d0e:	02097f03          	.4byte	0x2097f03
    1d12:	0100                	addi	s0,sp,128
    1d14:	0505                	addi	a0,a0,1
    1d16:	0306                	slli	t1,t1,0x1
    1d18:	0901                	addi	s2,s2,0
    1d1a:	0002                	c.slli64	zero
    1d1c:	0501                	addi	a0,a0,0
    1d1e:	061f 0003 0009      	.byte	0x1f, 0x06, 0x03, 0x00, 0x09, 0x00
    1d24:	0100                	addi	s0,sp,128
    1d26:	0505                	addi	a0,a0,1
    1d28:	0306                	slli	t1,t1,0x1
    1d2a:	0901                	addi	s2,s2,0
    1d2c:	0004                	.2byte	0x4
    1d2e:	0501                	addi	a0,a0,0
    1d30:	0315                	addi	t1,t1,5
    1d32:	7ee8                	ld	a0,248(a3)
    1d34:	0009                	c.nop	2
    1d36:	0100                	addi	s0,sp,128
    1d38:	0905                	addi	s2,s2,1
    1d3a:	04090103          	lb	sp,64(s2)
    1d3e:	0100                	addi	s0,sp,128
    1d40:	1205                	addi	tp,tp,-31 # ffffffffffffffe1 <a+0xffffffff7ffff011>
    1d42:	0306                	slli	t1,t1,0x1
    1d44:	0900                	addi	s0,sp,144
    1d46:	0000                	unimp
    1d48:	0501                	addi	a0,a0,0
    1d4a:	031a                	slli	t1,t1,0x6
    1d4c:	0900                	addi	s0,sp,144
    1d4e:	0004                	.2byte	0x4
    1d50:	0501                	addi	a0,a0,0
    1d52:	030e                	slli	t1,t1,0x3
    1d54:	0900                	addi	s0,sp,144
    1d56:	0004                	.2byte	0x4
    1d58:	0501                	addi	a0,a0,0
    1d5a:	0312                	slli	t1,t1,0x4
    1d5c:	0900                	addi	s0,sp,144
    1d5e:	0004                	.2byte	0x4
    1d60:	0501                	addi	a0,a0,0
    1d62:	031a                	slli	t1,t1,0x6
    1d64:	0900                	addi	s0,sp,144
    1d66:	0002                	c.slli64	zero
    1d68:	0501                	addi	a0,a0,0
    1d6a:	0316                	slli	t1,t1,0x5
    1d6c:	0900                	addi	s0,sp,144
    1d6e:	0002                	c.slli64	zero
    1d70:	0501                	addi	a0,a0,0
    1d72:	030e                	slli	t1,t1,0x3
    1d74:	0900                	addi	s0,sp,144
    1d76:	0008                	.2byte	0x8
    1d78:	0501                	addi	a0,a0,0
    1d7a:	0315                	addi	t1,t1,5
    1d7c:	097f                	.2byte	0x97f
    1d7e:	0002                	c.slli64	zero
    1d80:	0501                	addi	a0,a0,0
    1d82:	0316                	slli	t1,t1,0x5
    1d84:	0901                	addi	s2,s2,0
    1d86:	0002                	c.slli64	zero
    1d88:	0501                	addi	a0,a0,0
    1d8a:	030e                	slli	t1,t1,0x3
    1d8c:	0900                	addi	s0,sp,144
    1d8e:	0002                	c.slli64	zero
    1d90:	0501                	addi	a0,a0,0
    1d92:	0620                	addi	s0,sp,776
    1d94:	04097f03          	.4byte	0x4097f03
    1d98:	0100                	addi	s0,sp,128
    1d9a:	1505                	addi	a0,a0,-31
    1d9c:	00090003          	lb	zero,0(s2)
    1da0:	0100                	addi	s0,sp,128
    1da2:	0505                	addi	a0,a0,1
    1da4:	09019903          	lh	s2,144(gp)
    1da8:	0004                	.2byte	0x4
    1daa:	0501                	addi	a0,a0,0
    1dac:	030e                	slli	t1,t1,0x3
    1dae:	0900                	addi	s0,sp,144
    1db0:	0000                	unimp
    1db2:	0301                	addi	t1,t1,0
    1db4:	0900                	addi	s0,sp,144
    1db6:	0000                	unimp
    1db8:	0301                	addi	t1,t1,0
    1dba:	0900                	addi	s0,sp,144
    1dbc:	0004                	.2byte	0x4
    1dbe:	0501                	addi	a0,a0,0
    1dc0:	060c                	addi	a1,sp,768
    1dc2:	00090003          	lb	zero,0(s2)
    1dc6:	0100                	addi	s0,sp,128
    1dc8:	0505                	addi	a0,a0,1
    1dca:	0306                	slli	t1,t1,0x1
    1dcc:	00020903          	lb	s2,0(tp) # 0 <_prog_start-0x80000000>
    1dd0:	0501                	addi	a0,a0,0
    1dd2:	0310                	addi	a2,sp,384
    1dd4:	0900                	addi	s0,sp,144
    1dd6:	0000                	unimp
    1dd8:	0301                	addi	t1,t1,0
    1dda:	0900                	addi	s0,sp,144
    1ddc:	0000                	unimp
    1dde:	0301                	addi	t1,t1,0
    1de0:	0900                	addi	s0,sp,144
    1de2:	0004                	.2byte	0x4
    1de4:	0501                	addi	a0,a0,0
    1de6:	061f 0103 0009      	.byte	0x1f, 0x06, 0x03, 0x01, 0x09, 0x00
    1dec:	0100                	addi	s0,sp,128
    1dee:	0a090103          	lb	sp,160(s2)
    1df2:	0100                	addi	s0,sp,128
    1df4:	04090103          	lb	sp,64(s2)
    1df8:	0100                	addi	s0,sp,128
    1dfa:	0505                	addi	a0,a0,1
    1dfc:	04090103          	lb	sp,64(s2)
    1e00:	0100                	addi	s0,sp,128
    1e02:	0e05                	addi	t3,t3,1
    1e04:	04097c03          	.4byte	0x4097c03
    1e08:	0100                	addi	s0,sp,128
    1e0a:	0505                	addi	a0,a0,1
    1e0c:	0306                	slli	t1,t1,0x1
    1e0e:	0901                	addi	s2,s2,0
    1e10:	0002                	c.slli64	zero
    1e12:	0301                	addi	t1,t1,0
    1e14:	0901                	addi	s2,s2,0
    1e16:	0000                	unimp
    1e18:	0301                	addi	t1,t1,0
    1e1a:	0901                	addi	s2,s2,0
    1e1c:	0000                	unimp
    1e1e:	0301                	addi	t1,t1,0
    1e20:	0901                	addi	s2,s2,0
    1e22:	0000                	unimp
    1e24:	0301                	addi	t1,t1,0
    1e26:	0901                	addi	s2,s2,0
    1e28:	0000                	unimp
    1e2a:	0501                	addi	a0,a0,0
    1e2c:	030e                	slli	t1,t1,0x3
    1e2e:	0900                	addi	s0,sp,144
    1e30:	0000                	unimp
    1e32:	0301                	addi	t1,t1,0
    1e34:	0900                	addi	s0,sp,144
    1e36:	0000                	unimp
    1e38:	0301                	addi	t1,t1,0
    1e3a:	0900                	addi	s0,sp,144
    1e3c:	0004                	.2byte	0x4
    1e3e:	0501                	addi	a0,a0,0
    1e40:	060c                	addi	a1,sp,768
    1e42:	00090003          	lb	zero,0(s2)
    1e46:	0100                	addi	s0,sp,128
    1e48:	0505                	addi	a0,a0,1
    1e4a:	0306                	slli	t1,t1,0x1
    1e4c:	00020903          	lb	s2,0(tp) # 0 <_prog_start-0x80000000>
    1e50:	0501                	addi	a0,a0,0
    1e52:	0310                	addi	a2,sp,384
    1e54:	0900                	addi	s0,sp,144
    1e56:	0000                	unimp
    1e58:	0301                	addi	t1,t1,0
    1e5a:	0900                	addi	s0,sp,144
    1e5c:	0000                	unimp
    1e5e:	0301                	addi	t1,t1,0
    1e60:	0900                	addi	s0,sp,144
    1e62:	0004                	.2byte	0x4
    1e64:	0501                	addi	a0,a0,0
    1e66:	061f 0103 0009      	.byte	0x1f, 0x06, 0x03, 0x01, 0x09, 0x00
    1e6c:	0100                	addi	s0,sp,128
    1e6e:	0e05                	addi	t3,t3,1
    1e70:	02097f03          	.4byte	0x2097f03
    1e74:	0100                	addi	s0,sp,128
    1e76:	0505                	addi	a0,a0,1
    1e78:	0306                	slli	t1,t1,0x1
    1e7a:	0901                	addi	s2,s2,0
    1e7c:	0002                	c.slli64	zero
    1e7e:	0501                	addi	a0,a0,0
    1e80:	061f 0003 0009      	.byte	0x1f, 0x06, 0x03, 0x00, 0x09, 0x00
    1e86:	0100                	addi	s0,sp,128
    1e88:	0505                	addi	a0,a0,1
    1e8a:	0306                	slli	t1,t1,0x1
    1e8c:	0901                	addi	s2,s2,0
    1e8e:	0004                	.2byte	0x4
    1e90:	0501                	addi	a0,a0,0
    1e92:	0315                	addi	t1,t1,5
    1e94:	7f8a                	ld	t6,160(sp)
    1e96:	0009                	c.nop	2
    1e98:	0100                	addi	s0,sp,128
    1e9a:	0905                	addi	s2,s2,1
    1e9c:	04090103          	lb	sp,64(s2)
    1ea0:	0100                	addi	s0,sp,128
    1ea2:	1205                	addi	tp,tp,-31 # ffffffffffffffe1 <a+0xffffffff7ffff011>
    1ea4:	0306                	slli	t1,t1,0x1
    1ea6:	0900                	addi	s0,sp,144
    1ea8:	0000                	unimp
    1eaa:	0501                	addi	a0,a0,0
    1eac:	031a                	slli	t1,t1,0x6
    1eae:	0900                	addi	s0,sp,144
    1eb0:	0004                	.2byte	0x4
    1eb2:	0501                	addi	a0,a0,0
    1eb4:	030e                	slli	t1,t1,0x3
    1eb6:	0900                	addi	s0,sp,144
    1eb8:	0004                	.2byte	0x4
    1eba:	0501                	addi	a0,a0,0
    1ebc:	0312                	slli	t1,t1,0x4
    1ebe:	0900                	addi	s0,sp,144
    1ec0:	0004                	.2byte	0x4
    1ec2:	0501                	addi	a0,a0,0
    1ec4:	031a                	slli	t1,t1,0x6
    1ec6:	0900                	addi	s0,sp,144
    1ec8:	0002                	c.slli64	zero
    1eca:	0501                	addi	a0,a0,0
    1ecc:	0316                	slli	t1,t1,0x5
    1ece:	0900                	addi	s0,sp,144
    1ed0:	0002                	c.slli64	zero
    1ed2:	0501                	addi	a0,a0,0
    1ed4:	030e                	slli	t1,t1,0x3
    1ed6:	0900                	addi	s0,sp,144
    1ed8:	0008                	.2byte	0x8
    1eda:	0501                	addi	a0,a0,0
    1edc:	0315                	addi	t1,t1,5
    1ede:	097f                	.2byte	0x97f
    1ee0:	0002                	c.slli64	zero
    1ee2:	0501                	addi	a0,a0,0
    1ee4:	0316                	slli	t1,t1,0x5
    1ee6:	0901                	addi	s2,s2,0
    1ee8:	0002                	c.slli64	zero
    1eea:	0501                	addi	a0,a0,0
    1eec:	030e                	slli	t1,t1,0x3
    1eee:	0900                	addi	s0,sp,144
    1ef0:	0002                	c.slli64	zero
    1ef2:	0501                	addi	a0,a0,0
    1ef4:	0620                	addi	s0,sp,776
    1ef6:	04097f03          	.4byte	0x4097f03
    1efa:	0100                	addi	s0,sp,128
    1efc:	1505                	addi	a0,a0,-31
    1efe:	00090003          	lb	zero,0(s2)
    1f02:	0100                	addi	s0,sp,128
    1f04:	0505                	addi	a0,a0,1
    1f06:	0900f703          	.4byte	0x900f703
    1f0a:	0004                	.2byte	0x4
    1f0c:	0501                	addi	a0,a0,0
    1f0e:	030e                	slli	t1,t1,0x3
    1f10:	0900                	addi	s0,sp,144
    1f12:	0000                	unimp
    1f14:	0301                	addi	t1,t1,0
    1f16:	0900                	addi	s0,sp,144
    1f18:	0000                	unimp
    1f1a:	0301                	addi	t1,t1,0
    1f1c:	0900                	addi	s0,sp,144
    1f1e:	0004                	.2byte	0x4
    1f20:	0501                	addi	a0,a0,0
    1f22:	0305                	addi	t1,t1,1
    1f24:	0901                	addi	s2,s2,0
    1f26:	0000                	unimp
    1f28:	0501                	addi	a0,a0,0
    1f2a:	030d                	addi	t1,t1,3
    1f2c:	0900                	addi	s0,sp,144
    1f2e:	0000                	unimp
    1f30:	0301                	addi	t1,t1,0
    1f32:	0900                	addi	s0,sp,144
    1f34:	0000                	unimp
    1f36:	0301                	addi	t1,t1,0
    1f38:	0900                	addi	s0,sp,144
    1f3a:	0004                	.2byte	0x4
    1f3c:	0501                	addi	a0,a0,0
    1f3e:	0305                	addi	t1,t1,1
    1f40:	0901                	addi	s2,s2,0
    1f42:	0000                	unimp
    1f44:	0301                	addi	t1,t1,0
    1f46:	0902                	c.slli64	s2
    1f48:	0000                	unimp
    1f4a:	0301                	addi	t1,t1,0
    1f4c:	0901                	addi	s2,s2,0
    1f4e:	000e                	c.slli	zero,0x3
    1f50:	0301                	addi	t1,t1,0
    1f52:	0901                	addi	s2,s2,0
    1f54:	0010                	.2byte	0x10
    1f56:	0301                	addi	t1,t1,0
    1f58:	0901                	addi	s2,s2,0
    1f5a:	0010                	.2byte	0x10
    1f5c:	0301                	addi	t1,t1,0
    1f5e:	0901                	addi	s2,s2,0
    1f60:	0010                	.2byte	0x10
    1f62:	0501                	addi	a0,a0,0
    1f64:	09020303          	lb	t1,144(tp) # 90 <_prog_start-0x7fffff70>
    1f68:	0010                	.2byte	0x10
    1f6a:	0501                	addi	a0,a0,0
    1f6c:	0601                	addi	a2,a2,0
    1f6e:	00090103          	lb	sp,0(s2)
    1f72:	0100                	addi	s0,sp,128
    1f74:	2009                	.2byte	0x2009
    1f76:	0000                	unimp
    1f78:	0101                	addi	sp,sp,0
    1f7a:	000006f3          	.4byte	0x6f3
    1f7e:	0005                	c.nop	1
    1f80:	0008                	.2byte	0x8
    1f82:	004a                	c.slli	zero,0x12
    1f84:	0000                	unimp
    1f86:	0101                	addi	sp,sp,0
    1f88:	fb01                	bnez	a4,1e98 <_prog_start-0x7fffe168>
    1f8a:	0d0e                	slli	s10,s10,0x3
    1f8c:	0100                	addi	s0,sp,128
    1f8e:	0101                	addi	sp,sp,0
    1f90:	0001                	nop
    1f92:	0000                	unimp
    1f94:	0001                	nop
    1f96:	0100                	addi	s0,sp,128
    1f98:	0101                	addi	sp,sp,0
    1f9a:	041f 0000 0000      	.byte	0x1f, 0x04, 0x00, 0x00, 0x00, 0x00
    1fa0:	0000013f 0000004e 	.8byte	0x4e0000013f
    1fa8:	00b1                	addi	ra,ra,12
    1faa:	0000                	unimp
    1fac:	0102                	c.slli64	sp
    1fae:	021f 060f 0135      	.byte	0x1f, 0x02, 0x0f, 0x06, 0x35, 0x01
    1fb4:	0000                	unimp
    1fb6:	3500                	fld	fs0,40(a0)
    1fb8:	0001                	nop
    1fba:	0000                	unimp
    1fbc:	0000012b          	.4byte	0x12b
    1fc0:	a900                	fsd	fs0,16(a0)
    1fc2:	0001                	nop
    1fc4:	0100                	addi	s0,sp,128
    1fc6:	0110                	addi	a2,sp,128
    1fc8:	0000                	unimp
    1fca:	2102                	fld	ft2,0(sp)
    1fcc:	0001                	nop
    1fce:	0300                	addi	s0,sp,384
    1fd0:	0105                	addi	sp,sp,1
    1fd2:	0900                	addi	s0,sp,144
    1fd4:	6002                	.2byte	0x6002
    1fd6:	000d                	c.nop	3
    1fd8:	0080                	addi	s0,sp,64
    1fda:	0000                	unimp
    1fdc:	0300                	addi	s0,sp,384
    1fde:	0205010f          	.4byte	0x205010f
    1fe2:	00090103          	lb	sp,0(s2)
    1fe6:	0100                	addi	s0,sp,128
    1fe8:	00097903          	.4byte	0x97903
    1fec:	0100                	addi	s0,sp,128
    1fee:	00090103          	lb	sp,0(s2)
    1ff2:	0100                	addi	s0,sp,128
    1ff4:	1205                	addi	tp,tp,-31 # ffffffffffffffe1 <a+0xffffffff7ffff011>
    1ff6:	00090003          	lb	zero,0(s2)
    1ffa:	0100                	addi	s0,sp,128
    1ffc:	0c05                	addi	s8,s8,1
    1ffe:	0306                	slli	t1,t1,0x1
    2000:	0900                	addi	s0,sp,144
    2002:	0000                	unimp
    2004:	0501                	addi	a0,a0,0
    2006:	0312                	slli	t1,t1,0x4
    2008:	0900                	addi	s0,sp,144
    200a:	0004                	.2byte	0x4
    200c:	0401                	addi	s0,s0,0
    200e:	0502                	c.slli64	a0
    2010:	09100303          	lb	t1,145(zero) # 91 <_prog_start-0x7fffff6f>
    2014:	0002                	c.slli64	zero
    2016:	0501                	addi	a0,a0,0
    2018:	0602                	c.slli64	a2
    201a:	04097e03          	.4byte	0x4097e03
    201e:	0100                	addi	s0,sp,128
    2020:	00090103          	lb	sp,0(s2)
    2024:	0100                	addi	s0,sp,128
    2026:	0305                	addi	t1,t1,1
    2028:	00090103          	lb	sp,0(s2)
    202c:	0100                	addi	s0,sp,128
    202e:	0d05                	addi	s10,s10,1
    2030:	06090403          	lb	s0,96(s2)
    2034:	0100                	addi	s0,sp,128
    2036:	0104                	addi	s1,sp,128
    2038:	1c05                	addi	s8,s8,-31
    203a:	04096c03          	lwu	s8,64(s2)
    203e:	0100                	addi	s0,sp,128
    2040:	0c05                	addi	s8,s8,1
    2042:	0306                	slli	t1,t1,0x1
    2044:	0900                	addi	s0,sp,144
    2046:	0000                	unimp
    2048:	0501                	addi	a0,a0,0
    204a:	031c                	addi	a5,sp,384
    204c:	0900                	addi	s0,sp,144
    204e:	0004                	.2byte	0x4
    2050:	0501                	addi	a0,a0,0
    2052:	0612                	slli	a2,a2,0x4
    2054:	02090003          	lb	zero,32(s2)
    2058:	0100                	addi	s0,sp,128
    205a:	0204                	addi	s1,sp,256
    205c:	0305                	addi	t1,t1,1
    205e:	0306                	slli	t1,t1,0x1
    2060:	0910                	addi	a2,sp,144
    2062:	0002                	c.slli64	zero
    2064:	0501                	addi	a0,a0,0
    2066:	0602                	c.slli64	a2
    2068:	06097e03          	.4byte	0x6097e03
    206c:	0100                	addi	s0,sp,128
    206e:	00090103          	lb	sp,0(s2)
    2072:	0100                	addi	s0,sp,128
    2074:	0305                	addi	t1,t1,1
    2076:	00090103          	lb	sp,0(s2)
    207a:	0100                	addi	s0,sp,128
    207c:	0d05                	addi	s10,s10,1
    207e:	06090403          	lb	s0,96(s2)
    2082:	0100                	addi	s0,sp,128
    2084:	0305                	addi	t1,t1,1
    2086:	0306                	slli	t1,t1,0x1
    2088:	097c                	addi	a5,sp,156
    208a:	0004                	.2byte	0x4
    208c:	0501                	addi	a0,a0,0
    208e:	0602                	c.slli64	a2
    2090:	06097e03          	.4byte	0x6097e03
    2094:	0100                	addi	s0,sp,128
    2096:	00090103          	lb	sp,0(s2)
    209a:	0100                	addi	s0,sp,128
    209c:	0305                	addi	t1,t1,1
    209e:	00090103          	lb	sp,0(s2)
    20a2:	0100                	addi	s0,sp,128
    20a4:	0d05                	addi	s10,s10,1
    20a6:	06090403          	lb	s0,96(s2)
    20aa:	0100                	addi	s0,sp,128
    20ac:	0104                	addi	s1,sp,128
    20ae:	0105                	addi	sp,sp,1
    20b0:	0306                	slli	t1,t1,0x1
    20b2:	0975                	addi	s2,s2,29
    20b4:	0004                	.2byte	0x4
    20b6:	0601                	addi	a2,a2,0
    20b8:	02090303          	lb	t1,32(s2)
    20bc:	0100                	addi	s0,sp,128
    20be:	0205                	addi	tp,tp,1 # 1 <_prog_start-0x7fffffff>
    20c0:	00090103          	lb	sp,0(s2)
    20c4:	0100                	addi	s0,sp,128
    20c6:	00090103          	lb	sp,0(s2)
    20ca:	0100                	addi	s0,sp,128
    20cc:	00090103          	lb	sp,0(s2)
    20d0:	0100                	addi	s0,sp,128
    20d2:	00090203          	lb	tp,0(s2)
    20d6:	0100                	addi	s0,sp,128
    20d8:	0105                	addi	sp,sp,1
    20da:	0306                	slli	t1,t1,0x1
    20dc:	0000097b          	.4byte	0x97b
    20e0:	0501                	addi	a0,a0,0
    20e2:	030c                	addi	a1,sp,384
    20e4:	0909                	addi	s2,s2,2
    20e6:	0002                	c.slli64	zero
    20e8:	0501                	addi	a0,a0,0
    20ea:	0301                	addi	t1,t1,0
    20ec:	00040977          	.4byte	0x40977
    20f0:	0501                	addi	a0,a0,0
    20f2:	0302                	c.slli64	t1
    20f4:	0905                	addi	s2,s2,1
    20f6:	0002                	c.slli64	zero
    20f8:	0501                	addi	a0,a0,0
    20fa:	0301                	addi	t1,t1,0
    20fc:	0002097b          	.4byte	0x2097b
    2100:	0501                	addi	a0,a0,0
    2102:	0302                	c.slli64	t1
    2104:	0905                	addi	s2,s2,1
    2106:	000c                	.2byte	0xc
    2108:	0601                	addi	a2,a2,0
    210a:	02090103          	lb	sp,32(s2)
    210e:	0100                	addi	s0,sp,128
    2110:	00090103          	lb	sp,0(s2)
    2114:	0100                	addi	s0,sp,128
    2116:	00090103          	lb	sp,0(s2)
    211a:	0100                	addi	s0,sp,128
    211c:	00090103          	lb	sp,0(s2)
    2120:	0100                	addi	s0,sp,128
    2122:	1605                	addi	a2,a2,-31
    2124:	00090003          	lb	zero,0(s2)
    2128:	0100                	addi	s0,sp,128
    212a:	0d05                	addi	s10,s10,1
    212c:	0306                	slli	t1,t1,0x1
    212e:	0931                	addi	s2,s2,12
    2130:	000a                	c.slli	zero,0x2
    2132:	0401                	addi	s0,s0,0
    2134:	0502                	c.slli64	a0
    2136:	094a0303          	lb	t1,148(s4)
    213a:	0004                	.2byte	0x4
    213c:	0401                	addi	s0,s0,0
    213e:	0501                	addi	a0,a0,0
    2140:	0304                	addi	s1,sp,384
    2142:	00040907          	.4byte	0x40907
    2146:	0501                	addi	a0,a0,0
    2148:	7f030603          	lb	a2,2032(t1)
    214c:	0a09                	addi	s4,s4,2
    214e:	0100                	addi	s0,sp,128
    2150:	0605                	addi	a2,a2,1
    2152:	0306                	slli	t1,t1,0x1
    2154:	0900                	addi	s0,sp,144
    2156:	0000                	unimp
    2158:	0501                	addi	a0,a0,0
    215a:	0604                	addi	s1,sp,768
    215c:	02090103          	lb	sp,32(s2)
    2160:	0100                	addi	s0,sp,128
    2162:	0505                	addi	a0,a0,1
    2164:	18092903          	lw	s2,384(s2)
    2168:	0100                	addi	s0,sp,128
    216a:	0b05                	addi	s6,s6,1
    216c:	0306                	slli	t1,t1,0x1
    216e:	0900                	addi	s0,sp,144
    2170:	0000                	unimp
    2172:	0401                	addi	s0,s0,0
    2174:	0502                	c.slli64	a0
    2176:	09500303          	lb	t1,149(zero) # 95 <_prog_start-0x7fffff6b>
    217a:	0002                	c.slli64	zero
    217c:	0401                	addi	s0,s0,0
    217e:	0501                	addi	a0,a0,0
    2180:	0305                	addi	t1,t1,1
    2182:	0930                	addi	a2,sp,152
    2184:	0004                	.2byte	0x4
    2186:	0401                	addi	s0,s0,0
    2188:	0502                	c.slli64	a0
    218a:	0602                	c.slli64	a2
    218c:	04094c03          	lbu	s8,64(s2)
    2190:	0100                	addi	s0,sp,128
    2192:	0104                	addi	s1,sp,128
    2194:	0b05                	addi	s6,s6,1
    2196:	0306                	slli	t1,t1,0x1
    2198:	0934                	addi	a3,sp,152
    219a:	0000                	unimp
    219c:	0401                	addi	s0,s0,0
    219e:	0502                	c.slli64	a0
    21a0:	0602                	c.slli64	a2
    21a2:	04094e03          	lbu	t3,64(s2)
    21a6:	0100                	addi	s0,sp,128
    21a8:	00090103          	lb	sp,0(s2)
    21ac:	0100                	addi	s0,sp,128
    21ae:	0305                	addi	t1,t1,1
    21b0:	00090103          	lb	sp,0(s2)
    21b4:	0100                	addi	s0,sp,128
    21b6:	0d05                	addi	s10,s10,1
    21b8:	06090403          	lb	s0,96(s2)
    21bc:	0100                	addi	s0,sp,128
    21be:	0104                	addi	s1,sp,128
    21c0:	0c05                	addi	s8,s8,1
    21c2:	0306                	slli	t1,t1,0x1
    21c4:	0931                	addi	s2,s2,12
    21c6:	0004                	.2byte	0x4
    21c8:	0501                	addi	a0,a0,0
    21ca:	030e                	slli	t1,t1,0x3
    21cc:	097e                	slli	s2,s2,0x1f
    21ce:	0002                	c.slli64	zero
    21d0:	0501                	addi	a0,a0,0
    21d2:	0616                	slli	a2,a2,0x5
    21d4:	02095203          	lhu	tp,32(s2)
    21d8:	0100                	addi	s0,sp,128
    21da:	0c05                	addi	s8,s8,1
    21dc:	0306                	slli	t1,t1,0x1
    21de:	0900                	addi	s0,sp,144
    21e0:	0000                	unimp
    21e2:	0501                	addi	a0,a0,0
    21e4:	0312                	slli	t1,t1,0x4
    21e6:	0900                	addi	s0,sp,144
    21e8:	0004                	.2byte	0x4
    21ea:	0501                	addi	a0,a0,0
    21ec:	0316                	slli	t1,t1,0x5
    21ee:	0900                	addi	s0,sp,144
    21f0:	0002                	c.slli64	zero
    21f2:	0501                	addi	a0,a0,0
    21f4:	0301                	addi	t1,t1,0
    21f6:	0938                	addi	a4,sp,152
    21f8:	0004                	.2byte	0x4
    21fa:	0501                	addi	a0,a0,0
    21fc:	0605                	addi	a2,a2,1
    21fe:	04095f03          	lhu	t5,64(s2)
    2202:	0100                	addi	s0,sp,128
    2204:	00090103          	lb	sp,0(s2)
    2208:	0100                	addi	s0,sp,128
    220a:	00090103          	lb	sp,0(s2)
    220e:	0100                	addi	s0,sp,128
    2210:	0605                	addi	a2,a2,1
    2212:	00090403          	lb	s0,0(s2)
    2216:	0100                	addi	s0,sp,128
    2218:	0a05                	addi	s4,s4,1
    221a:	0306                	slli	t1,t1,0x1
    221c:	0900                	addi	s0,sp,144
    221e:	0000                	unimp
    2220:	0501                	addi	a0,a0,0
    2222:	0316                	slli	t1,t1,0x5
    2224:	0901                	addi	s2,s2,0
    2226:	0002                	c.slli64	zero
    2228:	0501                	addi	a0,a0,0
    222a:	030a                	slli	t1,t1,0x2
    222c:	097f                	.2byte	0x97f
    222e:	0002                	c.slli64	zero
    2230:	0501                	addi	a0,a0,0
    2232:	0308                	addi	a0,sp,384
    2234:	0900                	addi	s0,sp,144
    2236:	0006                	c.slli	zero,0x1
    2238:	0501                	addi	a0,a0,0
    223a:	0606                	slli	a2,a2,0x1
    223c:	04090103          	lb	sp,64(s2)
    2240:	0100                	addi	s0,sp,128
    2242:	1605                	addi	a2,a2,-31
    2244:	0306                	slli	t1,t1,0x1
    2246:	0900                	addi	s0,sp,144
    2248:	0000                	unimp
    224a:	0501                	addi	a0,a0,0
    224c:	0306                	slli	t1,t1,0x1
    224e:	0905                	addi	s2,s2,1
    2250:	0002                	c.slli64	zero
    2252:	0401                	addi	s0,s0,0
    2254:	0502                	c.slli64	a0
    2256:	09580303          	lb	t1,149(a6)
    225a:	0002                	c.slli64	zero
    225c:	0401                	addi	s0,s0,0
    225e:	0501                	addi	a0,a0,0
    2260:	030e                	slli	t1,t1,0x3
    2262:	0925                	addi	s2,s2,9
    2264:	0004                	.2byte	0x4
    2266:	0501                	addi	a0,a0,0
    2268:	0606                	slli	a2,a2,0x1
    226a:	02090103          	lb	sp,32(s2)
    226e:	0100                	addi	s0,sp,128
    2270:	00090103          	lb	sp,0(s2)
    2274:	0100                	addi	s0,sp,128
    2276:	0d05                	addi	s10,s10,1
    2278:	0306                	slli	t1,t1,0x1
    227a:	0900                	addi	s0,sp,144
    227c:	0000                	unimp
    227e:	0501                	addi	a0,a0,0
    2280:	0319                	addi	t1,t1,6
    2282:	0901                	addi	s2,s2,0
    2284:	0004                	.2byte	0x4
    2286:	0501                	addi	a0,a0,0
    2288:	0606                	slli	a2,a2,0x1
    228a:	04090003          	lb	zero,64(s2)
    228e:	0100                	addi	s0,sp,128
    2290:	0200                	addi	s0,sp,256
    2292:	0104                	addi	s1,sp,128
    2294:	0306                	slli	t1,t1,0x1
    2296:	0900                	addi	s0,sp,144
    2298:	0008                	.2byte	0x8
    229a:	0401                	addi	s0,s0,0
    229c:	0502                	c.slli64	a0
    229e:	0602                	c.slli64	a2
    22a0:	04095603          	lhu	a2,64(s2)
    22a4:	0100                	addi	s0,sp,128
    22a6:	00090103          	lb	sp,0(s2)
    22aa:	0100                	addi	s0,sp,128
    22ac:	0305                	addi	t1,t1,1
    22ae:	00090103          	lb	sp,0(s2)
    22b2:	0100                	addi	s0,sp,128
    22b4:	0d05                	addi	s10,s10,1
    22b6:	06090403          	lb	s0,96(s2)
    22ba:	0100                	addi	s0,sp,128
    22bc:	0104                	addi	s1,sp,128
    22be:	1605                	addi	a2,a2,-31
    22c0:	0200                	addi	s0,sp,256
    22c2:	0404                	addi	s1,sp,512
    22c4:	04092103          	lw	sp,64(s2)
    22c8:	0100                	addi	s0,sp,128
    22ca:	0e05                	addi	t3,t3,1
    22cc:	0200                	addi	s0,sp,256
    22ce:	0404                	addi	s1,sp,512
    22d0:	02090003          	lb	zero,32(s2)
    22d4:	0100                	addi	s0,sp,128
    22d6:	0505                	addi	a0,a0,1
    22d8:	06090803          	lb	a6,96(s2)
    22dc:	0100                	addi	s0,sp,128
    22de:	0205                	addi	tp,tp,1 # 1 <_prog_start-0x7fffffff>
    22e0:	04094203          	lbu	tp,64(s2)
    22e4:	0100                	addi	s0,sp,128
    22e6:	00090103          	lb	sp,0(s2)
    22ea:	0100                	addi	s0,sp,128
    22ec:	1205                	addi	tp,tp,-31 # ffffffffffffffe1 <a+0xffffffff7ffff011>
    22ee:	00090003          	lb	zero,0(s2)
    22f2:	0100                	addi	s0,sp,128
    22f4:	0505                	addi	a0,a0,1
    22f6:	0306                	slli	t1,t1,0x1
    22f8:	093d                	addi	s2,s2,15
    22fa:	0000                	unimp
    22fc:	0501                	addi	a0,a0,0
    22fe:	030c                	addi	a1,sp,384
    2300:	00040943          	fmadd.s	fs2,fs0,ft0,ft0,rne
    2304:	0501                	addi	a0,a0,0
    2306:	0312                	slli	t1,t1,0x4
    2308:	0900                	addi	s0,sp,144
    230a:	0004                	.2byte	0x4
    230c:	0401                	addi	s0,s0,0
    230e:	0502                	c.slli64	a0
    2310:	09100303          	lb	t1,145(zero) # 91 <_prog_start-0x7fffff6f>
    2314:	0002                	c.slli64	zero
    2316:	0501                	addi	a0,a0,0
    2318:	0602                	c.slli64	a2
    231a:	04097e03          	.4byte	0x4097e03
    231e:	0100                	addi	s0,sp,128
    2320:	00090103          	lb	sp,0(s2)
    2324:	0100                	addi	s0,sp,128
    2326:	0305                	addi	t1,t1,1
    2328:	00090103          	lb	sp,0(s2)
    232c:	0100                	addi	s0,sp,128
    232e:	0d05                	addi	s10,s10,1
    2330:	06090403          	lb	s0,96(s2)
    2334:	0100                	addi	s0,sp,128
    2336:	0104                	addi	s1,sp,128
    2338:	1c05                	addi	s8,s8,-31
    233a:	04096c03          	lwu	s8,64(s2)
    233e:	0100                	addi	s0,sp,128
    2340:	0c05                	addi	s8,s8,1
    2342:	0306                	slli	t1,t1,0x1
    2344:	0900                	addi	s0,sp,144
    2346:	0000                	unimp
    2348:	0501                	addi	a0,a0,0
    234a:	031c                	addi	a5,sp,384
    234c:	0900                	addi	s0,sp,144
    234e:	0004                	.2byte	0x4
    2350:	0501                	addi	a0,a0,0
    2352:	0612                	slli	a2,a2,0x4
    2354:	02090003          	lb	zero,32(s2)
    2358:	0100                	addi	s0,sp,128
    235a:	0505                	addi	a0,a0,1
    235c:	04091903          	lh	s2,64(s2)
    2360:	0100                	addi	s0,sp,128
    2362:	00090103          	lb	sp,0(s2)
    2366:	0100                	addi	s0,sp,128
    2368:	0705                	addi	a4,a4,1
    236a:	0306                	slli	t1,t1,0x1
    236c:	0900                	addi	s0,sp,144
    236e:	0000                	unimp
    2370:	0501                	addi	a0,a0,0
    2372:	0328                	addi	a0,sp,392
    2374:	0902                	c.slli64	s2
    2376:	0002                	c.slli64	zero
    2378:	0501                	addi	a0,a0,0
    237a:	097e0307          	.4byte	0x97e0307
    237e:	0004                	.2byte	0x4
    2380:	0501                	addi	a0,a0,0
    2382:	0605                	addi	a2,a2,1
    2384:	04090103          	lb	sp,64(s2)
    2388:	0100                	addi	s0,sp,128
    238a:	00090103          	lb	sp,0(s2)
    238e:	0100                	addi	s0,sp,128
    2390:	0a05                	addi	s4,s4,1
    2392:	00090003          	lb	zero,0(s2)
    2396:	0100                	addi	s0,sp,128
    2398:	1705                	addi	a4,a4,-31
    239a:	00090003          	lb	zero,0(s2)
    239e:	0100                	addi	s0,sp,128
    23a0:	2305                	addiw	t1,t1,1
    23a2:	00090003          	lb	zero,0(s2)
    23a6:	0100                	addi	s0,sp,128
    23a8:	1f05                	addi	t5,t5,-31
    23aa:	00090003          	lb	zero,0(s2)
    23ae:	0100                	addi	s0,sp,128
    23b0:	1705                	addi	a4,a4,-31
    23b2:	00090003          	lb	zero,0(s2)
    23b6:	0100                	addi	s0,sp,128
    23b8:	2305                	addiw	t1,t1,1
    23ba:	00090003          	lb	zero,0(s2)
    23be:	0100                	addi	s0,sp,128
    23c0:	1f05                	addi	t5,t5,-31
    23c2:	00090003          	lb	zero,0(s2)
    23c6:	0100                	addi	s0,sp,128
    23c8:	1705                	addi	a4,a4,-31
    23ca:	00090003          	lb	zero,0(s2)
    23ce:	0100                	addi	s0,sp,128
    23d0:	2305                	addiw	t1,t1,1
    23d2:	00090003          	lb	zero,0(s2)
    23d6:	0100                	addi	s0,sp,128
    23d8:	0705                	addi	a4,a4,1
    23da:	0306                	slli	t1,t1,0x1
    23dc:	097e                	slli	s2,s2,0x1f
    23de:	0000                	unimp
    23e0:	0501                	addi	a0,a0,0
    23e2:	0328                	addi	a0,sp,392
    23e4:	0902                	c.slli64	s2
    23e6:	0004                	.2byte	0x4
    23e8:	0501                	addi	a0,a0,0
    23ea:	061f 0003 0209      	.byte	0x1f, 0x06, 0x03, 0x00, 0x09, 0x02
    23f0:	0100                	addi	s0,sp,128
    23f2:	1705                	addi	a4,a4,-31
    23f4:	00090003          	lb	zero,0(s2)
    23f8:	0100                	addi	s0,sp,128
    23fa:	2305                	addiw	t1,t1,1
    23fc:	00090003          	lb	zero,0(s2)
    2400:	0100                	addi	s0,sp,128
    2402:	2805                	addiw	a6,a6,1
    2404:	0306                	slli	t1,t1,0x1
    2406:	0900                	addi	s0,sp,144
    2408:	0000                	unimp
    240a:	0501                	addi	a0,a0,0
    240c:	061f 0003 0209      	.byte	0x1f, 0x06, 0x03, 0x00, 0x09, 0x02
    2412:	0100                	addi	s0,sp,128
    2414:	1705                	addi	a4,a4,-31
    2416:	00090003          	lb	zero,0(s2)
    241a:	0100                	addi	s0,sp,128
    241c:	2305                	addiw	t1,t1,1
    241e:	00090003          	lb	zero,0(s2)
    2422:	0100                	addi	s0,sp,128
    2424:	2805                	addiw	a6,a6,1
    2426:	0306                	slli	t1,t1,0x1
    2428:	0900                	addi	s0,sp,144
    242a:	0000                	unimp
    242c:	0501                	addi	a0,a0,0
    242e:	061f 0003 0209      	.byte	0x1f, 0x06, 0x03, 0x00, 0x09, 0x02
    2434:	0100                	addi	s0,sp,128
    2436:	1705                	addi	a4,a4,-31
    2438:	00090003          	lb	zero,0(s2)
    243c:	0100                	addi	s0,sp,128
    243e:	2305                	addiw	t1,t1,1
    2440:	00090003          	lb	zero,0(s2)
    2444:	0100                	addi	s0,sp,128
    2446:	2805                	addiw	a6,a6,1
    2448:	0306                	slli	t1,t1,0x1
    244a:	0900                	addi	s0,sp,144
    244c:	0000                	unimp
    244e:	0501                	addi	a0,a0,0
    2450:	061f 0003 0209      	.byte	0x1f, 0x06, 0x03, 0x00, 0x09, 0x02
    2456:	0100                	addi	s0,sp,128
    2458:	1705                	addi	a4,a4,-31
    245a:	00090003          	lb	zero,0(s2)
    245e:	0100                	addi	s0,sp,128
    2460:	2305                	addiw	t1,t1,1
    2462:	00090003          	lb	zero,0(s2)
    2466:	0100                	addi	s0,sp,128
    2468:	2805                	addiw	a6,a6,1
    246a:	0306                	slli	t1,t1,0x1
    246c:	0900                	addi	s0,sp,144
    246e:	0000                	unimp
    2470:	0501                	addi	a0,a0,0
    2472:	061f 0003 0209      	.byte	0x1f, 0x06, 0x03, 0x00, 0x09, 0x02
    2478:	0100                	addi	s0,sp,128
    247a:	1705                	addi	a4,a4,-31
    247c:	00090003          	lb	zero,0(s2)
    2480:	0100                	addi	s0,sp,128
    2482:	2305                	addiw	t1,t1,1
    2484:	00090003          	lb	zero,0(s2)
    2488:	0100                	addi	s0,sp,128
    248a:	2805                	addiw	a6,a6,1
    248c:	0306                	slli	t1,t1,0x1
    248e:	0900                	addi	s0,sp,144
    2490:	0000                	unimp
    2492:	0501                	addi	a0,a0,0
    2494:	061f 0003 0209      	.byte	0x1f, 0x06, 0x03, 0x00, 0x09, 0x02
    249a:	0100                	addi	s0,sp,128
    249c:	1705                	addi	a4,a4,-31
    249e:	00090003          	lb	zero,0(s2)
    24a2:	0100                	addi	s0,sp,128
    24a4:	0505                	addi	a0,a0,1
    24a6:	00090103          	lb	sp,0(s2)
    24aa:	0100                	addi	s0,sp,128
    24ac:	0805                	addi	a6,a6,1
    24ae:	0306                	slli	t1,t1,0x1
    24b0:	0900                	addi	s0,sp,144
    24b2:	0000                	unimp
    24b4:	0401                	addi	s0,s0,0
    24b6:	0502                	c.slli64	a0
    24b8:	09730303          	lb	t1,151(t1)
    24bc:	0004                	.2byte	0x4
    24be:	0501                	addi	a0,a0,0
    24c0:	0602                	c.slli64	a2
    24c2:	08097e03          	.4byte	0x8097e03
    24c6:	0100                	addi	s0,sp,128
    24c8:	00090103          	lb	sp,0(s2)
    24cc:	0100                	addi	s0,sp,128
    24ce:	0305                	addi	t1,t1,1
    24d0:	00090103          	lb	sp,0(s2)
    24d4:	0100                	addi	s0,sp,128
    24d6:	0d05                	addi	s10,s10,1
    24d8:	06090403          	lb	s0,96(s2)
    24dc:	0100                	addi	s0,sp,128
    24de:	0104                	addi	s1,sp,128
    24e0:	0505                	addi	a0,a0,1
    24e2:	0200                	addi	s0,sp,256
    24e4:	0104                	addi	s1,sp,128
    24e6:	06091503          	lh	a0,96(s2)
    24ea:	0100                	addi	s0,sp,128
    24ec:	0200                	addi	s0,sp,256
    24ee:	0104                	addi	s1,sp,128
    24f0:	00090103          	lb	sp,0(s2)
    24f4:	0100                	addi	s0,sp,128
    24f6:	0d05                	addi	s10,s10,1
    24f8:	0200                	addi	s0,sp,256
    24fa:	0104                	addi	s1,sp,128
    24fc:	0306                	slli	t1,t1,0x1
    24fe:	097f                	.2byte	0x97f
    2500:	0000                	unimp
    2502:	0501                	addi	a0,a0,0
    2504:	060a                	slli	a2,a2,0x2
    2506:	04091d03          	lh	s10,64(s2)
    250a:	0100                	addi	s0,sp,128
    250c:	0d05                	addi	s10,s10,1
    250e:	0306                	slli	t1,t1,0x1
    2510:	0900                	addi	s0,sp,144
    2512:	0000                	unimp
    2514:	0501                	addi	a0,a0,0
    2516:	030e                	slli	t1,t1,0x3
    2518:	0901                	addi	s2,s2,0
    251a:	0004                	.2byte	0x4
    251c:	0401                	addi	s0,s0,0
    251e:	0502                	c.slli64	a0
    2520:	0602                	c.slli64	a2
    2522:	04094703          	lbu	a4,64(s2)
    2526:	0100                	addi	s0,sp,128
    2528:	00090103          	lb	sp,0(s2)
    252c:	0100                	addi	s0,sp,128
    252e:	0305                	addi	t1,t1,1
    2530:	00090103          	lb	sp,0(s2)
    2534:	0100                	addi	s0,sp,128
    2536:	0d05                	addi	s10,s10,1
    2538:	06090403          	lb	s0,96(s2)
    253c:	0100                	addi	s0,sp,128
    253e:	0205                	addi	tp,tp,1 # 1 <_prog_start-0x7fffffff>
    2540:	04097a03          	.4byte	0x4097a03
    2544:	0100                	addi	s0,sp,128
    2546:	00090103          	lb	sp,0(s2)
    254a:	0100                	addi	s0,sp,128
    254c:	0305                	addi	t1,t1,1
    254e:	00090103          	lb	sp,0(s2)
    2552:	0100                	addi	s0,sp,128
    2554:	0d05                	addi	s10,s10,1
    2556:	06090403          	lb	s0,96(s2)
    255a:	0100                	addi	s0,sp,128
    255c:	0104                	addi	s1,sp,128
    255e:	1505                	addi	a0,a0,-31
    2560:	0306                	slli	t1,t1,0x1
    2562:	0008090f          	.4byte	0x8090f
    2566:	0501                	addi	a0,a0,0
    2568:	030d                	addi	t1,t1,3
    256a:	097e                	slli	s2,s2,0x1f
    256c:	0002                	c.slli64	zero
    256e:	0501                	addi	a0,a0,0
    2570:	0619                	addi	a2,a2,6
    2572:	02090103          	lb	sp,32(s2)
    2576:	0100                	addi	s0,sp,128
    2578:	2305                	addiw	t1,t1,1
    257a:	0200                	addi	s0,sp,256
    257c:	0304                	addi	s1,sp,384
    257e:	04090003          	lb	zero,64(s2)
    2582:	0100                	addi	s0,sp,128
    2584:	2805                	addiw	a6,a6,1
    2586:	0200                	addi	s0,sp,256
    2588:	0304                	addi	s1,sp,384
    258a:	0306                	slli	t1,t1,0x1
    258c:	0900                	addi	s0,sp,144
    258e:	0000                	unimp
    2590:	0501                	addi	a0,a0,0
    2592:	0019                	c.nop	6
    2594:	0402                	c.slli64	s0
    2596:	09000303          	lb	t1,144(zero) # 90 <_prog_start-0x7fffff70>
    259a:	0006                	c.slli	zero,0x1
    259c:	0501                	addi	a0,a0,0
    259e:	0028                	addi	a0,sp,8
    25a0:	0402                	c.slli64	s0
    25a2:	09000303          	lb	t1,144(zero) # 90 <_prog_start-0x7fffff70>
    25a6:	0002                	c.slli64	zero
    25a8:	0501                	addi	a0,a0,0
    25aa:	001f 0402 0603      	.byte	0x1f, 0x00, 0x02, 0x04, 0x03, 0x06
    25b0:	04090003          	lb	zero,64(s2)
    25b4:	0100                	addi	s0,sp,128
    25b6:	1905                	addi	s2,s2,-31
    25b8:	0200                	addi	s0,sp,256
    25ba:	0304                	addi	s1,sp,384
    25bc:	00090003          	lb	zero,0(s2)
    25c0:	0100                	addi	s0,sp,128
    25c2:	0605                	addi	a2,a2,1
    25c4:	04090103          	lb	sp,64(s2)
    25c8:	0100                	addi	s0,sp,128
    25ca:	1505                	addi	a0,a0,-31
    25cc:	0306                	slli	t1,t1,0x1
    25ce:	0900                	addi	s0,sp,144
    25d0:	0000                	unimp
    25d2:	0501                	addi	a0,a0,0
    25d4:	0311                	addi	t1,t1,4
    25d6:	0900                	addi	s0,sp,144
    25d8:	0004                	.2byte	0x4
    25da:	0501                	addi	a0,a0,0
    25dc:	0900030b          	.4byte	0x900030b
    25e0:	0004                	.2byte	0x4
    25e2:	0501                	addi	a0,a0,0
    25e4:	0606                	slli	a2,a2,0x1
    25e6:	04090103          	lb	sp,64(s2)
    25ea:	0100                	addi	s0,sp,128
    25ec:	0805                	addi	a6,a6,1
    25ee:	0306                	slli	t1,t1,0x1
    25f0:	0900                	addi	s0,sp,144
    25f2:	0000                	unimp
    25f4:	0501                	addi	a0,a0,0
    25f6:	060d                	addi	a2,a2,3
    25f8:	04097d03          	.4byte	0x4097d03
    25fc:	0100                	addi	s0,sp,128
    25fe:	0805                	addi	a6,a6,1
    2600:	0306                	slli	t1,t1,0x1
    2602:	00040903          	lb	s2,0(s0)
    2606:	0501                	addi	a0,a0,0
    2608:	0316                	slli	t1,t1,0x5
    260a:	0004090f          	.4byte	0x4090f
    260e:	0401                	addi	s0,s0,0
    2610:	0502                	c.slli64	a0
    2612:	095d0303          	lb	t1,149(s10)
    2616:	0008                	.2byte	0x8
    2618:	0501                	addi	a0,a0,0
    261a:	0602                	c.slli64	a2
    261c:	04097e03          	.4byte	0x4097e03
    2620:	0100                	addi	s0,sp,128
    2622:	00090103          	lb	sp,0(s2)
    2626:	0100                	addi	s0,sp,128
    2628:	0305                	addi	t1,t1,1
    262a:	00090103          	lb	sp,0(s2)
    262e:	0100                	addi	s0,sp,128
    2630:	0d05                	addi	s10,s10,1
    2632:	06090403          	lb	s0,96(s2)
    2636:	0100                	addi	s0,sp,128
    2638:	0104                	addi	s1,sp,128
    263a:	2105                	addiw	sp,sp,1
    263c:	0200                	addi	s0,sp,256
    263e:	0304                	addi	s1,sp,384
    2640:	04091203          	lh	tp,64(s2)
    2644:	0100                	addi	s0,sp,128
    2646:	1a05                	addi	s4,s4,-31
    2648:	0200                	addi	s0,sp,256
    264a:	0304                	addi	s1,sp,384
    264c:	00090003          	lb	zero,0(s2)
    2650:	0100                	addi	s0,sp,128
    2652:	1605                	addi	a2,a2,-31
    2654:	0200                	addi	s0,sp,256
    2656:	0304                	addi	s1,sp,384
    2658:	0306                	slli	t1,t1,0x1
    265a:	0900                	addi	s0,sp,144
    265c:	0000                	unimp
    265e:	0501                	addi	a0,a0,0
    2660:	001a                	c.slli	zero,0x6
    2662:	0402                	c.slli64	s0
    2664:	09000303          	lb	t1,144(zero) # 90 <_prog_start-0x7fffff70>
    2668:	0004                	.2byte	0x4
    266a:	0901                	addi	s2,s2,0
    266c:	0006                	c.slli	zero,0x1
    266e:	0100                	addi	s0,sp,128
    2670:	01              	Address 0x0000000000002670 is out of bounds.


Disassembly of section .debug_line_str:

0000000000000000 <.debug_line_str>:
   0:	6d6f682f          	.4byte	0x6d6f682f
   4:	2f65                	addiw	t5,t5,25
   6:	6962                	ld	s2,24(sp)
   8:	686e                	ld	a6,216(sp)
   a:	7565696b          	.4byte	0x7565696b
   e:	6f64                	ld	s1,216(a4)
  10:	726f572f          	.4byte	0x726f572f
  14:	6170736b          	.4byte	0x6170736b
  18:	4e2f6563          	bltu	t5,sp,502 <_prog_start-0x7ffffafe>
  1c:	7765                	lui	a4,0xffff9
  1e:	7246                	ld	tp,112(sp)
  20:	6d61                	lui	s10,0x18
  22:	7765                	lui	a4,0xffff9
  24:	2f6b726f          	jal	tp,b731a <_prog_start-0x7ff48ce6>
  28:	7266                	ld	tp,120(sp)
  2a:	6d61                	lui	s10,0x18
  2c:	7765                	lui	a4,0xffff9
  2e:	2f6b726f          	jal	tp,b7324 <_prog_start-0x7ff48cdc>
  32:	6d2f7773          	csrrci	a4,0x6d2,30
  36:	7461                	lui	s0,0xffff8
  38:	6972                	ld	s2,280(sp)
  3a:	5f78                	lw	a4,124(a4)
  3c:	756d                	lui	a0,0xffffb
  3e:	006c                	addi	a1,sp,12
  40:	30747263          	bgeu	s0,t2,344 <_prog_start-0x7ffffcbc>
  44:	532e                	lw	t1,232(sp)
  46:	6d00                	ld	s0,24(a0)
  48:	6961                	lui	s2,0x18
  4a:	2e6e                	fld	ft8,216(sp)
  4c:	682f0063          	beq	t5,sp,6cc <_prog_start-0x7ffff934>
  50:	2f656d6f          	jal	s10,56346 <_prog_start-0x7ffa9cba>
  54:	6962                	ld	s2,24(sp)
  56:	686e                	ld	a6,216(sp)
  58:	7565696b          	.4byte	0x7565696b
  5c:	6f64                	ld	s1,216(a4)
  5e:	726f572f          	.4byte	0x726f572f
  62:	6170736b          	.4byte	0x6170736b
  66:	4e2f6563          	bltu	t5,sp,550 <_prog_start-0x7ffffab0>
  6a:	7765                	lui	a4,0xffff9
  6c:	7246                	ld	tp,112(sp)
  6e:	6d61                	lui	s10,0x18
  70:	7765                	lui	a4,0xffff9
  72:	2f6b726f          	jal	tp,b7368 <_prog_start-0x7ff48c98>
  76:	632e                	ld	t1,200(sp)
  78:	61646e6f          	jal	t3,4668e <_prog_start-0x7ffb9972>
  7c:	652d                	lui	a0,0xb
  7e:	766e                	ld	a2,248(sp)
  80:	7369722f          	.4byte	0x7369722f
  84:	742d7663          	bgeu	s10,sp,7d0 <_prog_start-0x7ffff830>
  88:	736c6f6f          	jal	t5,c67be <_prog_start-0x7ff39842>
  8c:	7369722f          	.4byte	0x7369722f
  90:	34367663          	bgeu	a2,gp,3dc <_prog_start-0x7ffffc24>
  94:	752d                	lui	a0,0xfffeb
  96:	6b6e                	ld	s6,216(sp)
  98:	6f6e                	ld	t5,216(sp)
  9a:	652d6e77          	.4byte	0x652d6e77
  9e:	666c                	ld	a1,200(a2)
  a0:	636e692f          	.4byte	0x636e692f
  a4:	756c                	ld	a1,232(a0)
  a6:	6564                	ld	s1,200(a0)
  a8:	63616d2f          	.4byte	0x63616d2f
  ac:	6968                	ld	a0,208(a0)
  ae:	656e                	ld	a0,216(sp)
  b0:	2f00                	fld	fs0,24(a4)
  b2:	6f68                	ld	a0,216(a4)
  b4:	656d                	lui	a0,0x1b
  b6:	6e69622f          	.4byte	0x6e69622f
  ba:	6b68                	ld	a0,208(a4)
  bc:	6569                	lui	a0,0x1a
  be:	6475                	lui	s0,0x1d
  c0:	6f572f6f          	jal	t5,72fb4 <_prog_start-0x7ff8d04c>
  c4:	6b72                	ld	s6,280(sp)
  c6:	63617073          	csrci	0x636,2
  ca:	2f65                	addiw	t5,t5,25
  cc:	654e                	ld	a0,208(sp)
  ce:	61724677          	.4byte	0x61724677
  d2:	656d                	lui	a0,0x1b
  d4:	6b726f77          	.4byte	0x6b726f77
  d8:	6f632e2f          	.4byte	0x6f632e2f
  dc:	646e                	ld	s0,216(sp)
  de:	2d61                	addiw	s10,s10,24 # 18018 <_prog_start-0x7ffe7fe8>
  e0:	6e65                	lui	t3,0x19
  e2:	2f76                	fld	ft10,344(sp)
  e4:	6972                	ld	s2,280(sp)
  e6:	2d766373          	csrrsi	t1,0x2d7,12
  ea:	6f74                	ld	a3,216(a4)
  ec:	2f736c6f          	jal	s8,36be2 <_prog_start-0x7ffc941e>
  f0:	6972                	ld	s2,280(sp)
  f2:	36766373          	csrrsi	t1,0x367,12
  f6:	2d34                	fld	fa3,88(a0)
  f8:	6e75                	lui	t3,0x1d
  fa:	776f6e6b          	.4byte	0x776f6e6b
  fe:	2d6e                	fld	fs10,216(sp)
 100:	6c65                	lui	s8,0x19
 102:	2f66                	fld	ft10,88(sp)
 104:	6e69                	lui	t3,0x1a
 106:	64756c63          	bltu	a0,t2,75e <_prog_start-0x7ffff8a2>
 10a:	2f65                	addiw	t5,t5,25
 10c:	00737973          	csrrci	s2,0x7,6
 110:	645f 6665 7561      	.byte	0x5f, 0x64, 0x65, 0x66, 0x61, 0x75
 116:	746c                	ld	a1,232(s0)
 118:	745f 7079 7365      	.byte	0x5f, 0x74, 0x79, 0x70, 0x65, 0x73
 11e:	682e                	ld	a6,200(sp)
 120:	5f00                	lw	s0,56(a4)
 122:	69647473          	csrrci	s0,0x696,8
 126:	746e                	ld	s0,248(sp)
 128:	682e                	ld	a6,200(sp)
 12a:	6b00                	ld	s0,16(a4)
 12c:	7270                	ld	a2,224(a2)
 12e:	6e69                	lui	t3,0x1a
 130:	6674                	ld	a3,200(a2)
 132:	682e                	ld	a6,200(sp)
 134:	6b00                	ld	s0,16(a4)
 136:	7270                	ld	a2,224(a2)
 138:	6e69                	lui	t3,0x1a
 13a:	6674                	ld	a3,200(a2)
 13c:	632e                	ld	t1,200(sp)
 13e:	2f00                	fld	fs0,24(a4)
 140:	6f68                	ld	a0,216(a4)
 142:	656d                	lui	a0,0x1b
 144:	6e69622f          	.4byte	0x6e69622f
 148:	6b68                	ld	a0,208(a4)
 14a:	6569                	lui	a0,0x1a
 14c:	6475                	lui	s0,0x1d
 14e:	6f572f6f          	jal	t5,73042 <_prog_start-0x7ff8cfbe>
 152:	6b72                	ld	s6,280(sp)
 154:	63617073          	csrci	0x636,2
 158:	2f65                	addiw	t5,t5,25
 15a:	654e                	ld	a0,208(sp)
 15c:	61724677          	.4byte	0x61724677
 160:	656d                	lui	a0,0x1b
 162:	6b726f77          	.4byte	0x6b726f77
 166:	6f632e2f          	.4byte	0x6f632e2f
 16a:	646e                	ld	s0,216(sp)
 16c:	2d61                	addiw	s10,s10,24
 16e:	6e65                	lui	t3,0x19
 170:	2f76                	fld	ft10,344(sp)
 172:	6972                	ld	s2,280(sp)
 174:	2d766373          	csrrsi	t1,0x2d7,12
 178:	6f74                	ld	a3,216(a4)
 17a:	2f736c6f          	jal	s8,36c70 <_prog_start-0x7ffc9390>
 17e:	696c                	ld	a1,208(a0)
 180:	2f62                	fld	ft10,24(sp)
 182:	2f636367          	.4byte	0x2f636367
 186:	6972                	ld	s2,280(sp)
 188:	36766373          	csrrsi	t1,0x367,12
 18c:	2d34                	fld	fa3,88(a0)
 18e:	6e75                	lui	t3,0x1d
 190:	776f6e6b          	.4byte	0x776f6e6b
 194:	2d6e                	fld	fs10,216(sp)
 196:	6c65                	lui	s8,0x19
 198:	2f66                	fld	ft10,88(sp)
 19a:	3231                	addiw	tp,tp,-20 # ffffffffffffffec <a+0xffffffff7ffff01c>
 19c:	322e                	fld	ft4,232(sp)
 19e:	302e                	fld	ft0,232(sp)
 1a0:	636e692f          	.4byte	0x636e692f
 1a4:	756c                	ld	a1,232(a0)
 1a6:	6564                	ld	s1,200(a0)
 1a8:	7300                	ld	s0,32(a4)
 1aa:	6474                	ld	a3,200(s0)
 1ac:	7261                	lui	tp,0xffff8
 1ae:	00682e67          	.4byte	0x682e67

Disassembly of section .debug_info:

0000000000000000 <.debug_info>:
       0:	0025                	c.nop	9
       2:	0000                	unimp
       4:	0005                	c.nop	1
       6:	0801                	addi	a6,a6,0
       8:	0000                	unimp
       a:	0000                	unimp
       c:	0001                	nop
       e:	0000                	unimp
      10:	0000                	unimp
      12:	0000                	unimp
      14:	0080                	addi	s0,sp,64
      16:	0000                	unimp
      18:	e000                	sd	s0,0(s0)
      1a:	0004                	.2byte	0x4
      1c:	0000                	unimp
      1e:	0700                	addi	s0,sp,896
      20:	0000                	unimp
      22:	4700                	lw	s0,8(a4)
      24:	0000                	unimp
      26:	0100                	addi	s0,sp,128
      28:	e880                	sd	s0,16(s1)
      2a:	000d                	c.nop	3
      2c:	0500                	addi	s0,sp,640
      2e:	0100                	addi	s0,sp,128
      30:	1408                	addi	a0,sp,544
      32:	0000                	unimp
      34:	1b00                	addi	s0,sp,432
      36:	000000b3          	add	ra,zero,zero
      3a:	471d                	li	a4,7
      3c:	0000                	unimp
      3e:	0000                	unimp
      40:	0000                	unimp
      42:	5d00                	lw	s0,56(a0)
      44:	00000007          	.4byte	0x7
      48:	0000                	unimp
      4a:	0000                	unimp
      4c:	0000                	unimp
      4e:	0200                	addi	s0,sp,256
      50:	0c000003          	lb	zero,192(zero) # c0 <_prog_start-0x7fffff40>
      54:	0601                	addi	a2,a2,0
      56:	015a                	slli	sp,sp,0x16
      58:	0000                	unimp
      5a:	0000a90f          	.4byte	0xa90f
      5e:	0200                	addi	s0,sp,256
      60:	003d182b          	.4byte	0x3d182b
      64:	0000                	unimp
      66:	010c                	addi	a1,sp,128
      68:	5808                	lw	a0,48(s0)
      6a:	0001                	nop
      6c:	0c00                	addi	s0,sp,528
      6e:	0502                	c.slli64	a0
      70:	00000053          	fadd.s	ft0,ft0,ft0,rne
      74:	020c                	addi	a1,sp,256
      76:	00017d07          	.4byte	0x17d07
      7a:	1c00                	addi	s0,sp,560
      7c:	0504                	addi	s1,sp,640
      7e:	6e69                	lui	t3,0x1a
      80:	0074                	addi	a3,sp,12
      82:	0000760f          	.4byte	0x760f
      86:	0200                	addi	s0,sp,256
      88:	0065194f          	fnmadd.s	fs2,fa0,ft6,ft0,rtz
      8c:	0000                	unimp
      8e:	040c                	addi	a1,sp,512
      90:	0001a707          	flw	fa4,0(gp)
      94:	0c00                	addi	s0,sp,528
      96:	0508                	addi	a0,sp,640
      98:	00a0                	addi	s0,sp,72
      9a:	0000                	unimp
      9c:	080c                	addi	a1,sp,16
      9e:	0001a207          	flw	ft4,0(gp)
      a2:	0f00                	addi	s0,sp,912
      a4:	000000ab          	.4byte	0xab
      a8:	31131803          	lh	a6,785(t1)
      ac:	0000                	unimp
      ae:	0f00                	addi	s0,sp,912
      b0:	0078                	addi	a4,sp,12
      b2:	0000                	unimp
      b4:	59143003          	ld	zero,1425(s0) # 1d591 <_prog_start-0x7ffe2a6f>
      b8:	0000                	unimp
      ba:	1d00                	addi	s0,sp,688
      bc:	0086                	slli	ra,ra,0x1
      be:	0000                	unimp
      c0:	00008117          	auipc	sp,0x8
      c4:	0400                	addi	s0,sp,512
      c6:	0000ab13          	slti	s6,ra,0
      ca:	0000                	unimp
      cc:	0000                	unimp
      ce:	0e64                	addi	s1,sp,796
      d0:	0092                	slli	ra,ra,0x4
      d2:	0000                	unimp
      d4:	a618                	fsd	fa4,8(a2)
      d6:	0000                	unimp
      d8:	1700                	addi	s0,sp,928
      da:	013a                	slli	sp,sp,0xe
      dc:	0000                	unimp
      de:	0701                	addi	a4,a4,0 # ffffffffffff9000 <a+0xffffffff7fff8030>
      e0:	000000ab          	.4byte	0xab
      e4:	0000                	unimp
      e6:	0200                	addi	s0,sp,256
      e8:	6106                	ld	sp,64(sp)
      ea:	1000                	addi	s0,sp,32
      ec:	00d1                	addi	ra,ra,20
      ee:	0000                	unimp
      f0:	0309                	addi	t1,t1,2
      f2:	0fd0                	addi	a2,sp,980
      f4:	8000                	.2byte	0x8000
      f6:	0000                	unimp
      f8:	0000                	unimp
      fa:	7a0e                	ld	s4,224(sp)
      fc:	0000                	unimp
      fe:	0600                	addi	s0,sp,768
     100:	0062                	c.slli	zero,0x18
     102:	d111                	beqz	a0,6 <_prog_start-0x7ffffffa>
     104:	0000                	unimp
     106:	0900                	addi	s0,sp,144
     108:	000fc803          	lbu	a6,0(t6)
     10c:	0080                	addi	s0,sp,64
     10e:	0000                	unimp
     110:	0600                	addi	s0,sp,768
     112:	d1120063          	beq	tp,a7,fffffffffffff612 <a+0xffffffff7fffe642>
     116:	0000                	unimp
     118:	0900                	addi	s0,sp,144
     11a:	000fc003          	lbu	zero,0(t6)
     11e:	0080                	addi	s0,sp,64
     120:	0000                	unimp
     122:	0600                	addi	s0,sp,768
     124:	0064                	addi	s1,sp,12
     126:	0000d113          	srli	sp,ra,0x0
     12a:	0900                	addi	s0,sp,144
     12c:	000fb803          	ld	a6,0(t6)
     130:	0080                	addi	s0,sp,64
     132:	0000                	unimp
     134:	0600                	addi	s0,sp,768
     136:	6561                	lui	a0,0x18
     138:	1500                	addi	s0,sp,672
     13a:	00d1                	addi	ra,ra,20
     13c:	0000                	unimp
     13e:	0309                	addi	t1,t1,2
     140:	0fb0                	addi	a2,sp,984
     142:	8000                	.2byte	0x8000
     144:	0000                	unimp
     146:	0000                	unimp
     148:	6206                	ld	tp,64(sp)
     14a:	d1160067          	jr	-751(a2)
     14e:	0000                	unimp
     150:	0900                	addi	s0,sp,144
     152:	000fa803          	lw	a6,0(t6)
     156:	0080                	addi	s0,sp,64
     158:	0000                	unimp
     15a:	0600                	addi	s0,sp,768
     15c:	17006563          	bltu	zero,a6,2c6 <_prog_start-0x7ffffd3a>
     160:	00d1                	addi	ra,ra,20
     162:	0000                	unimp
     164:	0309                	addi	t1,t1,2
     166:	0fa0                	addi	s0,sp,984
     168:	8000                	.2byte	0x8000
     16a:	0000                	unimp
     16c:	0000                	unimp
     16e:	6406                	ld	s0,64(sp)
     170:	d1180067          	jr	-751(a6)
     174:	0000                	unimp
     176:	0900                	addi	s0,sp,144
     178:	000f9803          	lh	a6,0(t6)
     17c:	0080                	addi	s0,sp,64
     17e:	0000                	unimp
     180:	0600                	addi	s0,sp,768
     182:	0065                	c.nop	25
     184:	d11a                	sw	t1,160(sp)
     186:	0000                	unimp
     188:	0900                	addi	s0,sp,144
     18a:	000f9003          	lh	zero,0(t6)
     18e:	0080                	addi	s0,sp,64
     190:	0000                	unimp
     192:	0600                	addi	s0,sp,768
     194:	0066                	c.slli	zero,0x19
     196:	0000d11b          	srliw	sp,ra,0x0
     19a:	0900                	addi	s0,sp,144
     19c:	000f8803          	lb	a6,0(t6)
     1a0:	0080                	addi	s0,sp,64
     1a2:	0000                	unimp
     1a4:	0600                	addi	s0,sp,768
     1a6:	d11c0067          	jr	-751(s8) # 18d11 <_prog_start-0x7ffe72ef>
     1aa:	0000                	unimp
     1ac:	0900                	addi	s0,sp,144
     1ae:	000f8003          	lb	zero,0(t6)
     1b2:	0080                	addi	s0,sp,64
     1b4:	0000                	unimp
     1b6:	0600                	addi	s0,sp,768
     1b8:	0068                	addi	a0,sp,12
     1ba:	d11d                	beqz	a0,e0 <_prog_start-0x7fffff20>
     1bc:	0000                	unimp
     1be:	0900                	addi	s0,sp,144
     1c0:	000f7803          	.4byte	0xf7803
     1c4:	0080                	addi	s0,sp,64
     1c6:	0000                	unimp
     1c8:	1500                	addi	s0,sp,672
     1ca:	0190                	addi	a2,sp,192
     1cc:	0000                	unimp
     1ce:	d11f 0000 0900      	.byte	0x1f, 0xd1, 0x00, 0x00, 0x00, 0x09
     1d4:	000f7003          	.4byte	0xf7003
     1d8:	0080                	addi	s0,sp,64
     1da:	0000                	unimp
     1dc:	1500                	addi	s0,sp,672
     1de:	0196                	slli	gp,gp,0x5
     1e0:	0000                	unimp
     1e2:	d120                	sw	s0,96(a0)
     1e4:	0000                	unimp
     1e6:	0900                	addi	s0,sp,144
     1e8:	000f6803          	lwu	a6,0(t5)
     1ec:	0080                	addi	s0,sp,64
     1ee:	0000                	unimp
     1f0:	1500                	addi	s0,sp,672
     1f2:	019c                	addi	a5,sp,192
     1f4:	0000                	unimp
     1f6:	d121                	beqz	a0,136 <_prog_start-0x7ffffeca>
     1f8:	0000                	unimp
     1fa:	0900                	addi	s0,sp,144
     1fc:	000f6003          	lwu	zero,0(t5)
     200:	0080                	addi	s0,sp,64
     202:	0000                	unimp
     204:	1e00                	addi	s0,sp,816
     206:	00000063          	beqz	zero,206 <_prog_start-0x7ffffdfa>
     20a:	2704                	fld	fs1,8(a4)
     20c:	ef0d                	bnez	a4,246 <_prog_start-0x7ffffdba>
     20e:	0001                	nop
     210:	1f00                	addi	s0,sp,944
     212:	000001ef          	jal	gp,212 <_prog_start-0x7ffffdee>
     216:	0020                	addi	s0,sp,8
     218:	fb0e                	sd	gp,432(sp)
     21a:	0001                	nop
     21c:	0c00                	addi	s0,sp,528
     21e:	0801                	addi	a6,a6,0
     220:	0161                	addi	sp,sp,24 # 80d8 <_prog_start-0x7fff7f28>
     222:	0000                	unimp
     224:	f418                	sd	a4,40(s0)
     226:	0001                	nop
     228:	2100                	fld	fs0,0(a0)
     22a:	0071                	c.nop	28
     22c:	0000                	unimp
     22e:	9701                	srai	a4,a4,0x20
     230:	5205                	li	tp,-31
     232:	0000                	unimp
     234:	e400                	sd	s0,8(s0)
     236:	0009                	c.nop	2
     238:	0080                	addi	s0,sp,64
     23a:	0000                	unimp
     23c:	7c00                	ld	s0,56(s0)
     23e:	00000003          	lb	zero,0(zero) # 0 <_prog_start-0x80000000>
     242:	0000                	unimp
     244:	0100                	addi	s0,sp,128
     246:	5d9c                	lw	a5,56(a1)
     248:	0008                	.2byte	0x8
     24a:	2200                	fld	fs0,0(a2)
     24c:	0178                	addi	a4,sp,140
     24e:	0000                	unimp
     250:	9701                	srai	a4,a4,0x20
     252:	520e                	lw	tp,224(sp)
     254:	0000                	unimp
     256:	0c00                	addi	s0,sp,528
     258:	0000                	unimp
     25a:	2300                	fld	fs0,0(a4)
     25c:	7261                	lui	tp,0xffff8
     25e:	0076                	c.slli	zero,0x1d
     260:	9701                	srai	a4,a4,0x20
     262:	00085d1b          	srliw	s10,a6,0x0
     266:	3600                	fld	fs0,40(a2)
     268:	0000                	unimp
     26a:	0300                	addi	s0,sp,384
     26c:	0098                	addi	a4,sp,64
     26e:	0000                	unimp
     270:	0c9a                	slli	s9,s9,0x6
     272:	0086                	slli	ra,ra,0x1
     274:	0000                	unimp
     276:	0060                	addi	s0,sp,12
     278:	0000                	unimp
     27a:	0001c003          	lbu	zero,0(gp)
     27e:	9a00                	.2byte	0x9a00
     280:	8615                	srai	a2,a2,0x5
     282:	0000                	unimp
     284:	ad00                	fsd	fs0,24(a0)
     286:	0000                	unimp
     288:	0300                	addi	s0,sp,384
     28a:	0092                	slli	ra,ra,0x4
     28c:	0000                	unimp
     28e:	08670c9b          	addiw	s9,a4,134
     292:	0000                	unimp
     294:	00fa                	slli	ra,ra,0x1e
     296:	0000                	unimp
     298:	00009a03          	lh	s4,0(ra)
     29c:	9d00                	.2byte	0x9d00
     29e:	670c                	ld	a1,8(a4)
     2a0:	0008                	.2byte	0x8
     2a2:	6f00                	ld	s0,24(a4)
     2a4:	0001                	nop
     2a6:	0100                	addi	s0,sp,128
     2a8:	6e65                	lui	t3,0x19
     2aa:	0064                	addi	s1,sp,12
     2ac:	0c9e                	slli	s9,s9,0x7
     2ae:	00000867          	jalr	a6,zero # 0 <_prog_start-0x80000000>
     2b2:	022c                	addi	a1,sp,264
     2b4:	0000                	unimp
     2b6:	1404                	addi	s1,sp,544
     2b8:	000a                	c.slli	zero,0x2
     2ba:	0080                	addi	s0,sp,64
     2bc:	0000                	unimp
     2be:	0400                	addi	s0,sp,512
     2c0:	0000                	unimp
     2c2:	0000                	unimp
     2c4:	0000                	unimp
     2c6:	b200                	fsd	fs0,32(a2)
     2c8:	0002                	c.slli64	zero
     2ca:	0300                	addi	s0,sp,384
     2cc:	005d                	c.nop	23
     2ce:	0000                	unimp
     2d0:	0da2                	slli	s11,s11,0x8
     2d2:	00000073          	ecall
     2d6:	000002eb          	.4byte	0x2eb
     2da:	1900                	addi	s0,sp,176
     2dc:	069d                	addi	a3,a3,7
     2de:	0000                	unimp
     2e0:	00000307          	.4byte	0x307
     2e4:	6901                	.2byte	0x6901
     2e6:	a300                	fsd	fs0,0(a4)
     2e8:	520c                	lw	a1,32(a2)
     2ea:	0000                	unimp
     2ec:	ff00                	sd	s0,56(a4)
     2ee:	0002                	c.slli64	zero
     2f0:	0900                	addi	s0,sp,144
     2f2:	0a3e                	slli	s4,s4,0xf
     2f4:	8000                	.2byte	0x8000
     2f6:	0000                	unimp
     2f8:	0000                	unimp
     2fa:	0052                	c.slli	zero,0x14
     2fc:	0000                	unimp
     2fe:	0000                	unimp
     300:	0000                	unimp
     302:	6a01                	.2byte	0x6a01
     304:	a400                	fsd	fs0,8(s0)
     306:	520e                	lw	tp,224(sp)
     308:	0000                	unimp
     30a:	2700                	fld	fs0,8(a4)
     30c:	09000003          	lb	zero,144(zero) # 90 <_prog_start-0x7fffff70>
     310:	0a50                	addi	a2,sp,276
     312:	8000                	.2byte	0x8000
     314:	0000                	unimp
     316:	0000                	unimp
     318:	0038                	addi	a4,sp,8
     31a:	0000                	unimp
     31c:	0000                	unimp
     31e:	0000                	unimp
     320:	6b01                	.2byte	0x6b01
     322:	a500                	fsd	fs0,8(a0)
     324:	5210                	lw	a2,32(a2)
     326:	0000                	unimp
     328:	4f00                	lw	s0,24(a4)
     32a:	00000003          	lb	zero,0(zero) # 0 <_prog_start-0x80000000>
     32e:	0000                	unimp
     330:	9804                	.2byte	0x9804
     332:	000a                	c.slli	zero,0x2
     334:	0080                	addi	s0,sp,64
     336:	0000                	unimp
     338:	0400                	addi	s0,sp,512
     33a:	0000                	unimp
     33c:	0000                	unimp
     33e:	0000                	unimp
     340:	2c00                	fld	fs0,24(s0)
     342:	03000003          	lb	zero,48(zero) # 30 <_prog_start-0x7fffffd0>
     346:	005d                	c.nop	23
     348:	0000                	unimp
     34a:	00730ba7          	.4byte	0x730ba7
     34e:	0000                	unimp
     350:	000003a7          	.4byte	0x3a7
     354:	1900                	addi	s0,sp,176
     356:	06c0                	addi	s0,sp,836
     358:	0000                	unimp
     35a:	0356                	slli	t1,t1,0x15
     35c:	0000                	unimp
     35e:	6901                	.2byte	0x6901
     360:	ac00                	fsd	fs0,24(s0)
     362:	520c                	lw	a1,32(a2)
     364:	0000                	unimp
     366:	bb00                	fsd	fs0,48(a4)
     368:	02000003          	lb	zero,32(zero) # 20 <_prog_start-0x7fffffe0>
     36c:	06f4                	addi	a3,sp,844
     36e:	0000                	unimp
     370:	6a01                	.2byte	0x6a01
     372:	ad00                	fsd	fs0,24(a0)
     374:	520e                	lw	tp,224(sp)
     376:	0000                	unimp
     378:	1a00                	addi	s0,sp,304
     37a:	0004                	.2byte	0x4
     37c:	0000                	unimp
     37e:	0400                	addi	s0,sp,512
     380:	0ae2                	slli	s5,s5,0x18
     382:	8000                	.2byte	0x8000
     384:	0000                	unimp
     386:	0000                	unimp
     388:	0004                	.2byte	0x4
     38a:	0000                	unimp
     38c:	0000                	unimp
     38e:	0000                	unimp
     390:	0000037b          	.4byte	0x37b
     394:	00005d03          	lhu	s10,0(zero) # 0 <_prog_start-0x80000000>
     398:	b100                	fsd	fs0,32(a0)
     39a:	730d                	lui	t1,0xfffe3
     39c:	0000                	unimp
     39e:	4700                	lw	s0,8(a4)
     3a0:	0004                	.2byte	0x4
     3a2:	0000                	unimp
     3a4:	f604                	sd	s1,40(a2)
     3a6:	000a                	c.slli	zero,0x2
     3a8:	0080                	addi	s0,sp,64
     3aa:	0000                	unimp
     3ac:	0400                	addi	s0,sp,512
     3ae:	0000                	unimp
     3b0:	0000                	unimp
     3b2:	0000                	unimp
     3b4:	a000                	fsd	fs0,0(s0)
     3b6:	03000003          	lb	zero,48(zero) # 30 <_prog_start-0x7fffffd0>
     3ba:	005d                	c.nop	23
     3bc:	0000                	unimp
     3be:	0bb6                	slli	s7,s7,0xd
     3c0:	00000073          	ecall
     3c4:	0000045b          	.4byte	0x45b
     3c8:	0400                	addi	s0,sp,512
     3ca:	0b14                	addi	a3,sp,400
     3cc:	8000                	.2byte	0x8000
     3ce:	0000                	unimp
     3d0:	0000                	unimp
     3d2:	0004                	.2byte	0x4
     3d4:	0000                	unimp
     3d6:	0000                	unimp
     3d8:	0000                	unimp
     3da:	03c5                	addi	t2,t2,17 # fffffffffffff011 <a+0xffffffff7fffe041>
     3dc:	0000                	unimp
     3de:	00005d03          	lhu	s10,0(zero) # 0 <_prog_start-0x80000000>
     3e2:	bc00                	fsd	fs0,56(s0)
     3e4:	730d                	lui	t1,0xfffe3
     3e6:	0000                	unimp
     3e8:	6f00                	ld	s0,24(a4)
     3ea:	0004                	.2byte	0x4
     3ec:	0000                	unimp
     3ee:	2204                	fld	fs1,0(a2)
     3f0:	000c                	.2byte	0xc
     3f2:	0080                	addi	s0,sp,64
     3f4:	0000                	unimp
     3f6:	0400                	addi	s0,sp,512
     3f8:	0000                	unimp
     3fa:	0000                	unimp
     3fc:	0000                	unimp
     3fe:	ea00                	sd	s0,16(a2)
     400:	03000003          	lb	zero,48(zero) # 30 <_prog_start-0x7fffffd0>
     404:	005d                	c.nop	23
     406:	0000                	unimp
     408:	0bc9                	addi	s7,s7,18
     40a:	00000073          	ecall
     40e:	00000483          	lb	s1,0(zero) # 0 <_prog_start-0x80000000>
     412:	0400                	addi	s0,sp,512
     414:	0c34                	addi	a3,sp,536
     416:	8000                	.2byte	0x8000
     418:	0000                	unimp
     41a:	0000                	unimp
     41c:	0004                	.2byte	0x4
     41e:	0000                	unimp
     420:	0000                	unimp
     422:	0000                	unimp
     424:	0000040f          	.4byte	0x40f
     428:	00005d03          	lhu	s10,0(zero) # 0 <_prog_start-0x80000000>
     42c:	ce00                	sw	s0,24(a2)
     42e:	0000730f          	.4byte	0x730f
     432:	9700                	.2byte	0x9700
     434:	0004                	.2byte	0x4
     436:	0000                	unimp
     438:	5004                	lw	s1,32(s0)
     43a:	000c                	.2byte	0xc
     43c:	0080                	addi	s0,sp,64
     43e:	0000                	unimp
     440:	0400                	addi	s0,sp,512
     442:	0000                	unimp
     444:	0000                	unimp
     446:	0000                	unimp
     448:	3400                	fld	fs0,40(s0)
     44a:	0004                	.2byte	0x4
     44c:	0300                	addi	s0,sp,384
     44e:	005d                	c.nop	23
     450:	0000                	unimp
     452:	0ed5                	addi	t4,t4,21
     454:	00000073          	ecall
     458:	000004ab          	.4byte	0x4ab
     45c:	0400                	addi	s0,sp,512
     45e:	0c56                	slli	s8,s8,0x15
     460:	8000                	.2byte	0x8000
     462:	0000                	unimp
     464:	0000                	unimp
     466:	0004                	.2byte	0x4
     468:	0000                	unimp
     46a:	0000                	unimp
     46c:	0000                	unimp
     46e:	0459                	addi	s0,s0,22
     470:	0000                	unimp
     472:	00005d03          	lhu	s10,0(zero) # 0 <_prog_start-0x80000000>
     476:	d800                	sw	s0,48(s0)
     478:	7310                	ld	a2,32(a4)
     47a:	0000                	unimp
     47c:	bf00                	fsd	fs0,56(a4)
     47e:	0004                	.2byte	0x4
     480:	0000                	unimp
     482:	8c04                	.2byte	0x8c04
     484:	000c                	.2byte	0xc
     486:	0080                	addi	s0,sp,64
     488:	0000                	unimp
     48a:	0400                	addi	s0,sp,512
     48c:	0000                	unimp
     48e:	0000                	unimp
     490:	0000                	unimp
     492:	7e00                	ld	s0,56(a2)
     494:	0004                	.2byte	0x4
     496:	0300                	addi	s0,sp,384
     498:	005d                	c.nop	23
     49a:	0000                	unimp
     49c:	00730edb          	.4byte	0x730edb
     4a0:	0000                	unimp
     4a2:	000004d3          	fadd.s	fs1,ft0,ft0,rne
     4a6:	0400                	addi	s0,sp,512
     4a8:	0c92                	slli	s9,s9,0x4
     4aa:	8000                	.2byte	0x8000
     4ac:	0000                	unimp
     4ae:	0000                	unimp
     4b0:	0004                	.2byte	0x4
     4b2:	0000                	unimp
     4b4:	0000                	unimp
     4b6:	0000                	unimp
     4b8:	000004a3          	sb	zero,9(zero) # 9 <_prog_start-0x7ffffff7>
     4bc:	00005d03          	lhu	s10,0(zero) # 0 <_prog_start-0x80000000>
     4c0:	de00                	sw	s0,56(a2)
     4c2:	7310                	ld	a2,32(a4)
     4c4:	0000                	unimp
     4c6:	e700                	sd	s0,8(a4)
     4c8:	0004                	.2byte	0x4
     4ca:	0000                	unimp
     4cc:	ae04                	fsd	fs1,24(a2)
     4ce:	000c                	.2byte	0xc
     4d0:	0080                	addi	s0,sp,64
     4d2:	0000                	unimp
     4d4:	0400                	addi	s0,sp,512
     4d6:	0000                	unimp
     4d8:	0000                	unimp
     4da:	0000                	unimp
     4dc:	c800                	sw	s0,16(s0)
     4de:	0004                	.2byte	0x4
     4e0:	0300                	addi	s0,sp,384
     4e2:	005d                	c.nop	23
     4e4:	0000                	unimp
     4e6:	00730ee3          	beq	t1,t2,d02 <_prog_start-0x7ffff2fe>
     4ea:	0000                	unimp
     4ec:	000004fb          	.4byte	0x4fb
     4f0:	0400                	addi	s0,sp,512
     4f2:	0cb4                	addi	a3,sp,600
     4f4:	8000                	.2byte	0x8000
     4f6:	0000                	unimp
     4f8:	0000                	unimp
     4fa:	0004                	.2byte	0x4
     4fc:	0000                	unimp
     4fe:	0000                	unimp
     500:	0000                	unimp
     502:	04ed                	addi	s1,s1,27
     504:	0000                	unimp
     506:	00005d03          	lhu	s10,0(zero) # 0 <_prog_start-0x80000000>
     50a:	e600                	sd	s0,8(a2)
     50c:	7310                	ld	a2,32(a4)
     50e:	0000                	unimp
     510:	0f00                	addi	s0,sp,912
     512:	0005                	c.nop	1
     514:	0000                	unimp
     516:	ea04                	sd	s1,16(a2)
     518:	000c                	.2byte	0xc
     51a:	0080                	addi	s0,sp,64
     51c:	0000                	unimp
     51e:	0400                	addi	s0,sp,512
     520:	0000                	unimp
     522:	0000                	unimp
     524:	0000                	unimp
     526:	1200                	addi	s0,sp,288
     528:	0005                	c.nop	1
     52a:	0300                	addi	s0,sp,384
     52c:	005d                	c.nop	23
     52e:	0000                	unimp
     530:	0ee9                	addi	t4,t4,26
     532:	00000073          	ecall
     536:	00000523          	sb	zero,10(zero) # a <_prog_start-0x7ffffff6>
     53a:	0400                	addi	s0,sp,512
     53c:	0cee                	slli	s9,s9,0x1b
     53e:	8000                	.2byte	0x8000
     540:	0000                	unimp
     542:	0000                	unimp
     544:	0004                	.2byte	0x4
     546:	0000                	unimp
     548:	0000                	unimp
     54a:	0000                	unimp
     54c:	00000537          	lui	a0,0x0
     550:	00005d03          	lhu	s10,0(zero) # 0 <_prog_start-0x80000000>
     554:	ea00                	sd	s0,16(a2)
     556:	730d                	lui	t1,0xfffe3
     558:	0000                	unimp
     55a:	3700                	fld	fs0,40(a4)
     55c:	0005                	c.nop	1
     55e:	0000                	unimp
     560:	c61a                	sw	t1,12(sp)
     562:	3200000b          	.4byte	0x3200000b
     566:	0080000b          	.4byte	0x80000b
     56a:	0000                	unimp
     56c:	1700                	addi	s0,sp,928
     56e:	c1000007          	.4byte	0xc1000007
     572:	0561                	addi	a0,a0,24 # 18 <_prog_start-0x7fffffe8>
     574:	0000                	unimp
     576:	d00d                	beqz	s0,498 <_prog_start-0x7ffffb68>
     578:	1700000b          	.4byte	0x1700000b
     57c:	0a000007          	.4byte	0xa000007
     580:	0bd1                	addi	s7,s7,20
     582:	0000                	unimp
     584:	0000054b          	fnmsub.s	fa0,ft0,ft0,ft0,rne
     588:	0000                	unimp
     58a:	b110                	fsd	fa2,32(a0)
     58c:	8800000b          	.4byte	0x8800000b
     590:	0080000b          	.4byte	0x80000b
     594:	0000                	unimp
     596:	2600                	fld	fs0,8(a2)
     598:	0000                	unimp
     59a:	0000                	unimp
     59c:	0000                	unimp
     59e:	c200                	sw	s0,0(a2)
     5a0:	00059c03          	lh	s8,0(a1) # 64000000 <_prog_start-0x1c000000>
     5a4:	1100                	addi	s0,sp,160
     5a6:	00000bbb          	addw	s7,zero,zero
     5aa:	0b88                	addi	a0,sp,464
     5ac:	8000                	.2byte	0x8000
     5ae:	0000                	unimp
     5b0:	0000                	unimp
     5b2:	0026                	c.slli	zero,0x9
     5b4:	0000                	unimp
     5b6:	0000                	unimp
     5b8:	0000                	unimp
     5ba:	bc0a                	fsd	ft2,56(sp)
     5bc:	7300000b          	.4byte	0x7300000b
     5c0:	0005                	c.nop	1
     5c2:	0000                	unimp
     5c4:	1a00                	addi	s0,sp,304
     5c6:	0a14                	addi	a3,sp,272
     5c8:	0000                	unimp
     5ca:	0bbe                	slli	s7,s7,0xf
     5cc:	8000                	.2byte	0x8000
     5ce:	0000                	unimp
     5d0:	0000                	unimp
     5d2:	073a                	slli	a4,a4,0xe
     5d4:	0000                	unimp
     5d6:	0005c6c7          	fmsub.s	fa3,fa1,ft0,ft0,rmm
     5da:	0d00                	addi	s0,sp,656
     5dc:	0a1e                	slli	s4,s4,0x7
     5de:	0000                	unimp
     5e0:	073a                	slli	a4,a4,0xe
     5e2:	0000                	unimp
     5e4:	1f0a                	slli	t5,t5,0x22
     5e6:	000a                	c.slli	zero,0x2
     5e8:	8700                	.2byte	0x8700
     5ea:	0005                	c.nop	1
     5ec:	0000                	unimp
     5ee:	1000                	addi	s0,sp,32
     5f0:	09ff                	.2byte	0x9ff
     5f2:	0000                	unimp
     5f4:	0bfc                	addi	a5,sp,476
     5f6:	8000                	.2byte	0x8000
     5f8:	0000                	unimp
     5fa:	0000                	unimp
     5fc:	0026                	c.slli	zero,0x9
     5fe:	0000                	unimp
     600:	0000                	unimp
     602:	0000                	unimp
     604:	03c8                	addi	a0,sp,452
     606:	0601                	addi	a2,a2,0
     608:	0000                	unimp
     60a:	0911                	addi	s2,s2,4 # 18004 <_prog_start-0x7ffe7ffc>
     60c:	000a                	c.slli	zero,0x2
     60e:	fc00                	sd	s0,56(s0)
     610:	0080000b          	.4byte	0x80000b
     614:	0000                	unimp
     616:	2600                	fld	fs0,8(a2)
     618:	0000                	unimp
     61a:	0000                	unimp
     61c:	0000                	unimp
     61e:	0a00                	addi	s0,sp,272
     620:	0a0a                	slli	s4,s4,0x2
     622:	0000                	unimp
     624:	000005af          	.4byte	0x5af
     628:	0000                	unimp
     62a:	c610                	sw	a2,8(a2)
     62c:	6200000b          	.4byte	0x6200000b
     630:	000c                	.2byte	0xc
     632:	0080                	addi	s0,sp,64
     634:	0000                	unimp
     636:	2a00                	fld	fs0,16(a2)
     638:	0000                	unimp
     63a:	0000                	unimp
     63c:	0000                	unimp
     63e:	da00                	sw	s0,48(a2)
     640:	3c05                	addiw	s8,s8,-31
     642:	0006                	c.slli	zero,0x1
     644:	1100                	addi	s0,sp,160
     646:	0bd0                	addi	a2,sp,468
     648:	0000                	unimp
     64a:	0c62                	slli	s8,s8,0x18
     64c:	8000                	.2byte	0x8000
     64e:	0000                	unimp
     650:	0000                	unimp
     652:	002a                	c.slli	zero,0xa
     654:	0000                	unimp
     656:	0000                	unimp
     658:	0000                	unimp
     65a:	d10a                	sw	sp,160(sp)
     65c:	c300000b          	.4byte	0xc300000b
     660:	0005                	c.nop	1
     662:	0000                	unimp
     664:	1000                	addi	s0,sp,32
     666:	0a14                	addi	a3,sp,272
     668:	0000                	unimp
     66a:	0cc0                	addi	s0,sp,596
     66c:	8000                	.2byte	0x8000
     66e:	0000                	unimp
     670:	0000                	unimp
     672:	002a                	c.slli	zero,0xa
     674:	0000                	unimp
     676:	0000                	unimp
     678:	0000                	unimp
     67a:	05e8                	addi	a0,sp,716
     67c:	00000677          	.4byte	0x677
     680:	1e11                	addi	t3,t3,-28 # 18fe4 <_prog_start-0x7ffe701c>
     682:	000a                	c.slli	zero,0x2
     684:	c000                	sw	s0,0(s0)
     686:	000c                	.2byte	0xc
     688:	0080                	addi	s0,sp,64
     68a:	0000                	unimp
     68c:	2a00                	fld	fs0,16(a2)
     68e:	0000                	unimp
     690:	0000                	unimp
     692:	0000                	unimp
     694:	0a00                	addi	s0,sp,272
     696:	0a1f 0000 05eb      	.byte	0x1f, 0x0a, 0x00, 0x00, 0xeb, 0x05
     69c:	0000                	unimp
     69e:	0000                	unimp
     6a0:	000a140b          	.4byte	0xa140b
     6a4:	0080                	addi	s0,sp,64
     6a6:	0000                	unimp
     6a8:	dc00                	sw	s0,56(s0)
     6aa:	0001                	nop
     6ac:	9600                	.2byte	0x9600
     6ae:	0006                	c.slli	zero,0x1
     6b0:	0500                	addi	s0,sp,640
     6b2:	5a01                	li	s4,-32
     6b4:	0309                	addi	t1,t1,2 # fffffffffffe3002 <a+0xffffffff7ffe2032>
     6b6:	0fd8                	addi	a4,sp,980
     6b8:	8000                	.2byte	0x8000
     6ba:	0000                	unimp
     6bc:	0000                	unimp
     6be:	0b00                	addi	s0,sp,400
     6c0:	0aac                	addi	a1,sp,344
     6c2:	8000                	.2byte	0x8000
     6c4:	0000                	unimp
     6c6:	0000                	unimp
     6c8:	01dc                	addi	a5,sp,196
     6ca:	0000                	unimp
     6cc:	06b5                	addi	a3,a3,13
     6ce:	0000                	unimp
     6d0:	0105                	addi	sp,sp,1
     6d2:	095a                	slli	s2,s2,0x16
     6d4:	00100803          	lb	a6,1(zero) # 1 <_prog_start-0x7fffffff>
     6d8:	0080                	addi	s0,sp,64
     6da:	0000                	unimp
     6dc:	0000                	unimp
     6de:	f608                	sd	a0,40(a2)
     6e0:	000a                	c.slli	zero,0x2
     6e2:	0080                	addi	s0,sp,64
     6e4:	0000                	unimp
     6e6:	9d00                	.2byte	0x9d00
     6e8:	0009                	c.nop	2
     6ea:	0b00                	addi	s0,sp,400
     6ec:	0b08                	addi	a0,sp,400
     6ee:	8000                	.2byte	0x8000
     6f0:	0000                	unimp
     6f2:	0000                	unimp
     6f4:	01dc                	addi	a5,sp,196
     6f6:	0000                	unimp
     6f8:	06e1                	addi	a3,a3,24
     6fa:	0000                	unimp
     6fc:	0105                	addi	sp,sp,1
     6fe:	095a                	slli	s2,s2,0x16
     700:	00103803          	ld	a6,1(zero) # 1 <_prog_start-0x7fffffff>
     704:	0080                	addi	s0,sp,64
     706:	0000                	unimp
     708:	0000                	unimp
     70a:	000b140b          	.4byte	0xb140b
     70e:	0080                	addi	s0,sp,64
     710:	0000                	unimp
     712:	dc00                	sw	s0,56(s0)
     714:	0001                	nop
     716:	0000                	unimp
     718:	05000007          	.4byte	0x5000007
     71c:	5a01                	li	s4,-32
     71e:	0309                	addi	t1,t1,2
     720:	1068                	addi	a0,sp,44
     722:	8000                	.2byte	0x8000
     724:	0000                	unimp
     726:	0000                	unimp
     728:	0800                	addi	s0,sp,16
     72a:	0b1c                	addi	a5,sp,400
     72c:	8000                	.2byte	0x8000
     72e:	0000                	unimp
     730:	0000                	unimp
     732:	0cdd                	addi	s9,s9,23
     734:	0000                	unimp
     736:	2008                	fld	fa0,0(s0)
     738:	0080000b          	.4byte	0x80000b
     73c:	0000                	unimp
     73e:	8700                	.2byte	0x8700
     740:	000c                	.2byte	0xc
     742:	0800                	addi	s0,sp,16
     744:	0b24                	addi	s1,sp,408
     746:	8000                	.2byte	0x8000
     748:	0000                	unimp
     74a:	0000                	unimp
     74c:	0c31                	addi	s8,s8,12
     74e:	0000                	unimp
     750:	2808                	fld	fa0,16(s0)
     752:	0080000b          	.4byte	0x80000b
     756:	0000                	unimp
     758:	db00                	sw	s0,48(a4)
     75a:	0800000b          	.4byte	0x800000b
     75e:	0bb2                	slli	s7,s7,0xc
     760:	8000                	.2byte	0x8000
     762:	0000                	unimp
     764:	0000                	unimp
     766:	00000b4f          	fnmadd.s	fs6,ft0,ft0,ft0,rne
     76a:	b608                	fsd	fa0,40(a2)
     76c:	0080000b          	.4byte	0x80000b
     770:	0000                	unimp
     772:	ed00                	sd	s0,24(a0)
     774:	000a                	c.slli	zero,0x2
     776:	0800                	addi	s0,sp,16
     778:	0bba                	slli	s7,s7,0xe
     77a:	8000                	.2byte	0x8000
     77c:	0000                	unimp
     77e:	0000                	unimp
     780:	00000a8b          	.4byte	0xa8b
     784:	be08                	fsd	fa0,56(a2)
     786:	0080000b          	.4byte	0x80000b
     78a:	0000                	unimp
     78c:	2900                	fld	fs0,16(a0)
     78e:	000a                	c.slli	zero,0x2
     790:	0b00                	addi	s0,sp,400
     792:	0c34                	addi	a3,sp,536
     794:	8000                	.2byte	0x8000
     796:	0000                	unimp
     798:	0000                	unimp
     79a:	01dc                	addi	a5,sp,196
     79c:	0000                	unimp
     79e:	00000787          	.4byte	0x787
     7a2:	0105                	addi	sp,sp,1
     7a4:	095a                	slli	s2,s2,0x16
     7a6:	00100803          	lb	a6,1(zero) # 1 <_prog_start-0x7fffffff>
     7aa:	0080                	addi	s0,sp,64
     7ac:	0000                	unimp
     7ae:	0000                	unimp
     7b0:	4e08                	lw	a0,24(a2)
     7b2:	000c                	.2byte	0xc
     7b4:	0080                	addi	s0,sp,64
     7b6:	0000                	unimp
     7b8:	dd00                	sw	s0,56(a0)
     7ba:	000c                	.2byte	0xc
     7bc:	0800                	addi	s0,sp,16
     7be:	0cac                	addi	a1,sp,600
     7c0:	8000                	.2byte	0x8000
     7c2:	0000                	unimp
     7c4:	0000                	unimp
     7c6:	00000b4f          	fnmadd.s	fs6,ft0,ft0,ft0,rne
     7ca:	000d000b          	.4byte	0xd000b
     7ce:	0080                	addi	s0,sp,64
     7d0:	0000                	unimp
     7d2:	dc00                	sw	s0,56(s0)
     7d4:	0001                	nop
     7d6:	c000                	sw	s0,0(s0)
     7d8:	05000007          	.4byte	0x5000007
     7dc:	5a01                	li	s4,-32
     7de:	0309                	addi	t1,t1,2
     7e0:	1038                	addi	a4,sp,40
     7e2:	8000                	.2byte	0x8000
     7e4:	0000                	unimp
     7e6:	0000                	unimp
     7e8:	0b00                	addi	s0,sp,400
     7ea:	0d10                	addi	a2,sp,656
     7ec:	8000                	.2byte	0x8000
     7ee:	0000                	unimp
     7f0:	0000                	unimp
     7f2:	01dc                	addi	a5,sp,196
     7f4:	0000                	unimp
     7f6:	07e8                	addi	a0,sp,972
     7f8:	0000                	unimp
     7fa:	0105                	addi	sp,sp,1
     7fc:	095a                	slli	s2,s2,0x16
     7fe:	00109803          	lh	a6,1(ra)
     802:	0080                	addi	s0,sp,64
     804:	0000                	unimp
     806:	0500                	addi	s0,sp,640
     808:	5b01                	li	s6,-32
     80a:	8705                	srai	a4,a4,0x1
     80c:	7800                	ld	s0,48(s0)
     80e:	1c00                	addi	s0,sp,560
     810:	0b00                	addi	s0,sp,400
     812:	0d20                	addi	s0,sp,664
     814:	8000                	.2byte	0x8000
     816:	0000                	unimp
     818:	0000                	unimp
     81a:	01dc                	addi	a5,sp,196
     81c:	0000                	unimp
     81e:	0810                	addi	a2,sp,16
     820:	0000                	unimp
     822:	0105                	addi	sp,sp,1
     824:	095a                	slli	s2,s2,0x16
     826:	0010b003          	ld	zero,1(ra)
     82a:	0080                	addi	s0,sp,64
     82c:	0000                	unimp
     82e:	0500                	addi	s0,sp,640
     830:	5b01                	li	s6,-32
     832:	8a05                	andi	a2,a2,1
     834:	8500                	.2byte	0x8500
     836:	1c00                	addi	s0,sp,560
     838:	0b00                	addi	s0,sp,400
     83a:	0d30                	addi	a2,sp,664
     83c:	8000                	.2byte	0x8000
     83e:	0000                	unimp
     840:	0000                	unimp
     842:	01dc                	addi	a5,sp,196
     844:	0000                	unimp
     846:	0838                	addi	a4,sp,24
     848:	0000                	unimp
     84a:	0105                	addi	sp,sp,1
     84c:	095a                	slli	s2,s2,0x16
     84e:	0010c803          	lbu	a6,1(ra)
     852:	0080                	addi	s0,sp,64
     854:	0000                	unimp
     856:	0500                	addi	s0,sp,640
     858:	5b01                	li	s6,-32
     85a:	8b05                	andi	a4,a4,1
     85c:	8900                	.2byte	0x8900
     85e:	1c00                	addi	s0,sp,560
     860:	2400                	fld	fs0,8(s0)
     862:	0d40                	addi	s0,sp,660
     864:	8000                	.2byte	0x8000
     866:	0000                	unimp
     868:	0000                	unimp
     86a:	01dc                	addi	a5,sp,196
     86c:	0000                	unimp
     86e:	0105                	addi	sp,sp,1
     870:	095a                	slli	s2,s2,0x16
     872:	0010e003          	lwu	zero,1(ra)
     876:	0080                	addi	s0,sp,64
     878:	0000                	unimp
     87a:	0500                	addi	s0,sp,640
     87c:	5b01                	li	s6,-32
     87e:	7905                	lui	s2,0xfffe1
     880:	8800                	.2byte	0x8800
     882:	1c00                	addi	s0,sp,560
     884:	0000                	unimp
     886:	620e                	ld	tp,192(sp)
     888:	0008                	.2byte	0x8
     88a:	0e00                	addi	s0,sp,784
     88c:	01f4                	addi	a3,sp,204
     88e:	0000                	unimp
     890:	8625                	srai	a2,a2,0x9
     892:	0000                	unimp
     894:	7700                	ld	s0,40(a4)
     896:	0008                	.2byte	0x8
     898:	2600                	fld	fs0,8(a2)
     89a:	00000073          	ecall
     89e:	72070003          	lb	zero,1824(a4)
     8a2:	0001                	nop
     8a4:	9000                	.2byte	0x9000
     8a6:	094c                	addi	a1,sp,148
     8a8:	8000                	.2byte	0x8000
     8aa:	0000                	unimp
     8ac:	0000                	unimp
     8ae:	0098                	addi	a4,sp,64
     8b0:	0000                	unimp
     8b2:	0000                	unimp
     8b4:	0000                	unimp
     8b6:	9c01                	subw	s0,s0,s0
     8b8:	08d9                	addi	a7,a7,22
     8ba:	0000                	unimp
     8bc:	3502                	fld	fa0,32(sp)
     8be:	0006                	c.slli	zero,0x1
     8c0:	0100                	addi	s0,sp,128
     8c2:	0069                	c.nop	26
     8c4:	0c91                	addi	s9,s9,4
     8c6:	0052                	c.slli	zero,0x14
     8c8:	0000                	unimp
     8ca:	00000613          	li	a2,0
     8ce:	6902                	ld	s2,0(sp)
     8d0:	0006                	c.slli	zero,0x1
     8d2:	0100                	addi	s0,sp,128
     8d4:	006a                	c.slli	zero,0x1a
     8d6:	0e92                	slli	t4,t4,0x4
     8d8:	0052                	c.slli	zero,0x14
     8da:	0000                	unimp
     8dc:	063c                	addi	a5,sp,776
     8de:	0000                	unimp
     8e0:	9009                	srli	s0,s0,0x22
     8e2:	0009                	c.nop	2
     8e4:	0080                	addi	s0,sp,64
     8e6:	0000                	unimp
     8e8:	3a00                	fld	fs0,48(a2)
     8ea:	0000                	unimp
     8ec:	0000                	unimp
     8ee:	0000                	unimp
     8f0:	0100                	addi	s0,sp,128
     8f2:	1093006b          	.4byte	0x1093006b
     8f6:	0052                	c.slli	zero,0x14
     8f8:	0000                	unimp
     8fa:	0664                	addi	s1,sp,780
     8fc:	0000                	unimp
     8fe:	0000                	unimp
     900:	0000                	unimp
     902:	00016c07          	.4byte	0x16c07
     906:	8900                	.2byte	0x8900
     908:	08ac                	addi	a1,sp,88
     90a:	8000                	.2byte	0x8000
     90c:	0000                	unimp
     90e:	0000                	unimp
     910:	00a0                	addi	s0,sp,72
     912:	0000                	unimp
     914:	0000                	unimp
     916:	0000                	unimp
     918:	9c01                	subw	s0,s0,s0
     91a:	0000093b          	addw	s2,zero,zero
     91e:	bc02                	fsd	ft0,56(sp)
     920:	0005                	c.nop	1
     922:	0100                	addi	s0,sp,128
     924:	0069                	c.nop	26
     926:	0c8a                	slli	s9,s9,0x2
     928:	0052                	c.slli	zero,0x14
     92a:	0000                	unimp
     92c:	06bc                	addi	a5,sp,840
     92e:	0000                	unimp
     930:	f002                	sd	zero,32(sp)
     932:	0005                	c.nop	1
     934:	0100                	addi	s0,sp,128
     936:	006a                	c.slli	zero,0x1a
     938:	00520e8b          	.4byte	0x520e8b
     93c:	0000                	unimp
     93e:	06e5                	addi	a3,a3,25
     940:	0000                	unimp
     942:	f609                	bnez	a2,84c <_prog_start-0x7ffff7b4>
     944:	0008                	.2byte	0x8
     946:	0080                	addi	s0,sp,64
     948:	0000                	unimp
     94a:	3a00                	fld	fs0,48(a2)
     94c:	0000                	unimp
     94e:	0000                	unimp
     950:	0000                	unimp
     952:	0100                	addi	s0,sp,128
     954:	108c006b          	.4byte	0x108c006b
     958:	0052                	c.slli	zero,0x14
     95a:	0000                	unimp
     95c:	070d                	addi	a4,a4,3
     95e:	0000                	unimp
     960:	0000                	unimp
     962:	0000                	unimp
     964:	00016607          	.4byte	0x16607
     968:	8300                	.2byte	0x8300
     96a:	0810                	addi	a2,sp,16
     96c:	8000                	.2byte	0x8000
     96e:	0000                	unimp
     970:	0000                	unimp
     972:	009c                	addi	a5,sp,64
     974:	0000                	unimp
     976:	0000                	unimp
     978:	0000                	unimp
     97a:	9c01                	subw	s0,s0,s0
     97c:	099d                	addi	s3,s3,7
     97e:	0000                	unimp
     980:	4302                	lw	t1,0(sp)
     982:	0005                	c.nop	1
     984:	0100                	addi	s0,sp,128
     986:	0069                	c.nop	26
     988:	0c84                	addi	s1,sp,592
     98a:	0052                	c.slli	zero,0x14
     98c:	0000                	unimp
     98e:	0765                	addi	a4,a4,25
     990:	0000                	unimp
     992:	7702                	ld	a4,32(sp)
     994:	0005                	c.nop	1
     996:	0100                	addi	s0,sp,128
     998:	006a                	c.slli	zero,0x1a
     99a:	0e85                	addi	t4,t4,1
     99c:	0052                	c.slli	zero,0x14
     99e:	0000                	unimp
     9a0:	078d                	addi	a5,a5,3
     9a2:	0000                	unimp
     9a4:	5609                	li	a2,-30
     9a6:	0008                	.2byte	0x8
     9a8:	0080                	addi	s0,sp,64
     9aa:	0000                	unimp
     9ac:	3a00                	fld	fs0,48(a2)
     9ae:	0000                	unimp
     9b0:	0000                	unimp
     9b2:	0000                	unimp
     9b4:	0100                	addi	s0,sp,128
     9b6:	1086006b          	.4byte	0x1086006b
     9ba:	0052                	c.slli	zero,0x14
     9bc:	0000                	unimp
     9be:	07b5                	addi	a5,a5,13
     9c0:	0000                	unimp
     9c2:	0000                	unimp
     9c4:	0000                	unimp
     9c6:	00006b07          	.4byte	0x6b07
     9ca:	7c00                	ld	s0,56(s0)
     9cc:	0778                	addi	a4,sp,908
     9ce:	8000                	.2byte	0x8000
     9d0:	0000                	unimp
     9d2:	0000                	unimp
     9d4:	0098                	addi	a4,sp,64
     9d6:	0000                	unimp
     9d8:	0000                	unimp
     9da:	0000                	unimp
     9dc:	9c01                	subw	s0,s0,s0
     9de:	09ff                	.2byte	0x9ff
     9e0:	0000                	unimp
     9e2:	ec02                	sd	zero,24(sp)
     9e4:	0004                	.2byte	0x4
     9e6:	0100                	addi	s0,sp,128
     9e8:	0069                	c.nop	26
     9ea:	0c7d                	addi	s8,s8,31
     9ec:	0052                	c.slli	zero,0x14
     9ee:	0000                	unimp
     9f0:	080d                	addi	a6,a6,3
     9f2:	0000                	unimp
     9f4:	0f02                	c.slli64	t5
     9f6:	0005                	c.nop	1
     9f8:	0100                	addi	s0,sp,128
     9fa:	006a                	c.slli	zero,0x1a
     9fc:	0e7e                	slli	t3,t3,0x1f
     9fe:	0052                	c.slli	zero,0x14
     a00:	0000                	unimp
     a02:	0835                	addi	a6,a6,13
     a04:	0000                	unimp
     a06:	ba09                	j	318 <_prog_start-0x7ffffce8>
     a08:	00800007          	.4byte	0x800007
     a0c:	0000                	unimp
     a0e:	3a00                	fld	fs0,48(a2)
     a10:	0000                	unimp
     a12:	0000                	unimp
     a14:	0000                	unimp
     a16:	0100                	addi	s0,sp,128
     a18:	107f006b          	.4byte	0x107f006b
     a1c:	0052                	c.slli	zero,0x14
     a1e:	0000                	unimp
     a20:	085d                	addi	a6,a6,23
     a22:	0000                	unimp
     a24:	0000                	unimp
     a26:	0000                	unimp
     a28:	ba12                	fsd	ft4,304(sp)
     a2a:	0001                	nop
     a2c:	7600                	ld	s0,40(a2)
     a2e:	0a14                	addi	a3,sp,272
     a30:	0000                	unimp
     a32:	00691413          	slli	s0,s2,0x6
     a36:	00005277          	.4byte	0x5277
     a3a:	0000                	unimp
     a3c:	1200                	addi	s0,sp,288
     a3e:	01b4                	addi	a3,sp,200
     a40:	0000                	unimp
     a42:	2971                	addiw	s2,s2,28 # fffffffffffe101c <a+0xffffffff7ffe004c>
     a44:	000a                	c.slli	zero,0x2
     a46:	1300                	addi	s0,sp,416
     a48:	6914                	ld	a3,16(a0)
     a4a:	7200                	ld	s0,32(a2)
     a4c:	0052                	c.slli	zero,0x14
     a4e:	0000                	unimp
     a50:	0000                	unimp
     a52:	00015207          	.4byte	0x15207
     a56:	6700                	ld	s0,8(a4)
     a58:	0662                	slli	a2,a2,0x18
     a5a:	8000                	.2byte	0x8000
     a5c:	0000                	unimp
     a5e:	0000                	unimp
     a60:	008e                	slli	ra,ra,0x3
     a62:	0000                	unimp
     a64:	0000                	unimp
     a66:	0000                	unimp
     a68:	9c01                	subw	s0,s0,s0
     a6a:	00000a8b          	.4byte	0xa8b
     a6e:	3e02                	fld	ft8,32(sp)
     a70:	0004                	.2byte	0x4
     a72:	0100                	addi	s0,sp,128
     a74:	0069                	c.nop	26
     a76:	0c68                	addi	a0,sp,540
     a78:	0052                	c.slli	zero,0x14
     a7a:	0000                	unimp
     a7c:	08b5                	addi	a7,a7,13
     a7e:	0000                	unimp
     a80:	7202                	ld	tp,32(sp)
     a82:	0004                	.2byte	0x4
     a84:	0100                	addi	s0,sp,128
     a86:	006a                	c.slli	zero,0x1a
     a88:	0e69                	addi	t3,t3,26
     a8a:	0052                	c.slli	zero,0x14
     a8c:	0000                	unimp
     a8e:	08f2                	slli	a7,a7,0x1c
     a90:	0000                	unimp
     a92:	a009                	j	a94 <_prog_start-0x7ffff56c>
     a94:	0006                	c.slli	zero,0x1
     a96:	0080                	addi	s0,sp,64
     a98:	0000                	unimp
     a9a:	3200                	fld	fs0,32(a2)
     a9c:	0000                	unimp
     a9e:	0000                	unimp
     aa0:	0000                	unimp
     aa2:	0100                	addi	s0,sp,128
     aa4:	106b006b          	.4byte	0x106b006b
     aa8:	0052                	c.slli	zero,0x14
     aaa:	0000                	unimp
     aac:	0939                	addi	s2,s2,14
     aae:	0000                	unimp
     ab0:	0000                	unimp
     ab2:	0000                	unimp
     ab4:	00014c07          	.4byte	0x14c07
     ab8:	5e00                	lw	s0,56(a2)
     aba:	05d4                	addi	a3,sp,708
     abc:	8000                	.2byte	0x8000
     abe:	0000                	unimp
     ac0:	0000                	unimp
     ac2:	008e                	slli	ra,ra,0x3
     ac4:	0000                	unimp
     ac6:	0000                	unimp
     ac8:	0000                	unimp
     aca:	9c01                	subw	s0,s0,s0
     acc:	0aed                	addi	s5,s5,27
     ace:	0000                	unimp
     ad0:	d602                	sw	zero,44(sp)
     ad2:	01000003          	lb	zero,16(zero) # 10 <_prog_start-0x7ffffff0>
     ad6:	0069                	c.nop	26
     ad8:	0c5f 0052 0000      	.byte	0x5f, 0x0c, 0x52, 0x00, 0x00, 0x00
     ade:	0952                	slli	s2,s2,0x14
     ae0:	0000                	unimp
     ae2:	0a02                	c.slli64	s4
     ae4:	0004                	.2byte	0x4
     ae6:	0100                	addi	s0,sp,128
     ae8:	006a                	c.slli	zero,0x1a
     aea:	0e60                	addi	s0,sp,796
     aec:	0052                	c.slli	zero,0x14
     aee:	0000                	unimp
     af0:	0000098f          	.4byte	0x98f
     af4:	1209                	addi	tp,tp,-30 # ffffffffffff7fe2 <a+0xffffffff7fff7012>
     af6:	0006                	c.slli	zero,0x1
     af8:	0080                	addi	s0,sp,64
     afa:	0000                	unimp
     afc:	3200                	fld	fs0,32(a2)
     afe:	0000                	unimp
     b00:	0000                	unimp
     b02:	0000                	unimp
     b04:	0100                	addi	s0,sp,128
     b06:	1062006b          	.4byte	0x1062006b
     b0a:	0052                	c.slli	zero,0x14
     b0c:	0000                	unimp
     b0e:	09d6                	slli	s3,s3,0x15
     b10:	0000                	unimp
     b12:	0000                	unimp
     b14:	0000                	unimp
     b16:	00014607          	.4byte	0x14607
     b1a:	5500                	lw	s0,40(a0)
     b1c:	0546                	slli	a0,a0,0x11
     b1e:	8000                	.2byte	0x8000
     b20:	0000                	unimp
     b22:	0000                	unimp
     b24:	008e                	slli	ra,ra,0x3
     b26:	0000                	unimp
     b28:	0000                	unimp
     b2a:	0000                	unimp
     b2c:	9c01                	subw	s0,s0,s0
     b2e:	00000b4f          	fnmadd.s	fs6,ft0,ft0,ft0,rne
     b32:	6e02                	ld	t3,0(sp)
     b34:	01000003          	lb	zero,16(zero) # 10 <_prog_start-0x7ffffff0>
     b38:	0069                	c.nop	26
     b3a:	0c56                	slli	s8,s8,0x15
     b3c:	0052                	c.slli	zero,0x14
     b3e:	0000                	unimp
     b40:	000009ef          	jal	s3,b40 <_prog_start-0x7ffff4c0>
     b44:	a202                	fsd	ft0,256(sp)
     b46:	01000003          	lb	zero,16(zero) # 10 <_prog_start-0x7ffffff0>
     b4a:	006a                	c.slli	zero,0x1a
     b4c:	00520e57          	.4byte	0x520e57
     b50:	0000                	unimp
     b52:	0a2c                	addi	a1,sp,280
     b54:	0000                	unimp
     b56:	8409                	srai	s0,s0,0x2
     b58:	0005                	c.nop	1
     b5a:	0080                	addi	s0,sp,64
     b5c:	0000                	unimp
     b5e:	3200                	fld	fs0,32(a2)
     b60:	0000                	unimp
     b62:	0000                	unimp
     b64:	0000                	unimp
     b66:	0100                	addi	s0,sp,128
     b68:	1059006b          	.4byte	0x1059006b
     b6c:	0052                	c.slli	zero,0x14
     b6e:	0000                	unimp
     b70:	00000a73          	.4byte	0xa73
     b74:	0000                	unimp
     b76:	0000                	unimp
     b78:	00014007          	.4byte	0x14007
     b7c:	4c00                	lw	s0,24(s0)
     b7e:	04b8                	addi	a4,sp,584
     b80:	8000                	.2byte	0x8000
     b82:	0000                	unimp
     b84:	0000                	unimp
     b86:	008e                	slli	ra,ra,0x3
     b88:	0000                	unimp
     b8a:	0000                	unimp
     b8c:	0000                	unimp
     b8e:	9c01                	subw	s0,s0,s0
     b90:	0bb1                	addi	s7,s7,12
     b92:	0000                	unimp
     b94:	0602                	c.slli64	a2
     b96:	01000003          	lb	zero,16(zero) # 10 <_prog_start-0x7ffffff0>
     b9a:	0069                	c.nop	26
     b9c:	0c4d                	addi	s8,s8,19
     b9e:	0052                	c.slli	zero,0x14
     ba0:	0000                	unimp
     ba2:	0a8c                	addi	a1,sp,336
     ba4:	0000                	unimp
     ba6:	3a02                	fld	fs4,32(sp)
     ba8:	01000003          	lb	zero,16(zero) # 10 <_prog_start-0x7ffffff0>
     bac:	006a                	c.slli	zero,0x1a
     bae:	0e4e                	slli	t3,t3,0x13
     bb0:	0052                	c.slli	zero,0x14
     bb2:	0000                	unimp
     bb4:	0ac9                	addi	s5,s5,18
     bb6:	0000                	unimp
     bb8:	f609                	bnez	a2,ac2 <_prog_start-0x7ffff53e>
     bba:	0004                	.2byte	0x4
     bbc:	0080                	addi	s0,sp,64
     bbe:	0000                	unimp
     bc0:	3200                	fld	fs0,32(a2)
     bc2:	0000                	unimp
     bc4:	0000                	unimp
     bc6:	0000                	unimp
     bc8:	0100                	addi	s0,sp,128
     bca:	1050006b          	.4byte	0x1050006b
     bce:	0052                	c.slli	zero,0x14
     bd0:	0000                	unimp
     bd2:	0b10                	addi	a2,sp,400
     bd4:	0000                	unimp
     bd6:	0000                	unimp
     bd8:	0000                	unimp
     bda:	8c12                	mv	s8,tp
     bdc:	0000                	unimp
     bde:	4600                	lw	s0,8(a2)
     be0:	0bc6                	slli	s7,s7,0x11
     be2:	0000                	unimp
     be4:	00691413          	slli	s0,s2,0x6
     be8:	00005247          	fmsub.s	ft4,ft0,ft0,ft0,unknown
     bec:	0000                	unimp
     bee:	1200                	addi	s0,sp,288
     bf0:	0086                	slli	ra,ra,0x1
     bf2:	0000                	unimp
     bf4:	db41                	beqz	a4,b84 <_prog_start-0x7ffff47c>
     bf6:	1300000b          	.4byte	0x1300000b
     bfa:	6914                	ld	a3,16(a0)
     bfc:	4200                	lw	s0,0(a2)
     bfe:	0052                	c.slli	zero,0x14
     c00:	0000                	unimp
     c02:	0000                	unimp
     c04:	0001d807          	.4byte	0x1d807
     c08:	3900                	fld	fs0,48(a0)
     c0a:	03ac                	addi	a1,sp,456
     c0c:	8000                	.2byte	0x8000
     c0e:	0000                	unimp
     c10:	0000                	unimp
     c12:	0084                	addi	s1,sp,64
     c14:	0000                	unimp
     c16:	0000                	unimp
     c18:	0000                	unimp
     c1a:	9c01                	subw	s0,s0,s0
     c1c:	0c31                	addi	s8,s8,12
     c1e:	0000                	unimp
     c20:	1302                	slli	t1,t1,0x20
     c22:	0002                	c.slli64	zero
     c24:	0100                	addi	s0,sp,128
     c26:	0069                	c.nop	26
     c28:	0c3a                	slli	s8,s8,0xe
     c2a:	0052                	c.slli	zero,0x14
     c2c:	0000                	unimp
     c2e:	0b29                	addi	s6,s6,10
     c30:	0000                	unimp
     c32:	5802                	lw	a6,32(sp)
     c34:	0002                	c.slli64	zero
     c36:	0100                	addi	s0,sp,128
     c38:	006a                	c.slli	zero,0x1a
     c3a:	00520e3b          	addw	t3,tp,t0
     c3e:	0000                	unimp
     c40:	0b66                	slli	s6,s6,0x19
     c42:	0000                	unimp
     c44:	9d02                	jalr	s10
     c46:	0002                	c.slli64	zero
     c48:	0100                	addi	s0,sp,128
     c4a:	103c006b          	.4byte	0x103c006b
     c4e:	0052                	c.slli	zero,0x14
     c50:	0000                	unimp
     c52:	0bad                	addi	s7,s7,11
     c54:	0000                	unimp
     c56:	0000                	unimp
     c58:	0000                	unimp
     c5a:	0001d207          	.4byte	0x1d207
     c5e:	3200                	fld	fs0,32(a2)
     c60:	0328                	addi	a0,sp,392
     c62:	8000                	.2byte	0x8000
     c64:	0000                	unimp
     c66:	0000                	unimp
     c68:	0084                	addi	s1,sp,64
     c6a:	0000                	unimp
     c6c:	0000                	unimp
     c6e:	0000                	unimp
     c70:	9c01                	subw	s0,s0,s0
     c72:	00000c87          	.4byte	0xc87
     c76:	6602                	ld	a2,0(sp)
     c78:	0001                	nop
     c7a:	0100                	addi	s0,sp,128
     c7c:	0069                	c.nop	26
     c7e:	00520c33          	add	s8,tp,t0
     c82:	0000                	unimp
     c84:	0bda                	slli	s7,s7,0x16
     c86:	0000                	unimp
     c88:	ab02                	fsd	ft0,400(sp)
     c8a:	0001                	nop
     c8c:	0100                	addi	s0,sp,128
     c8e:	006a                	c.slli	zero,0x1a
     c90:	0e34                	addi	a3,sp,792
     c92:	0052                	c.slli	zero,0x14
     c94:	0000                	unimp
     c96:	00000c17          	auipc	s8,0x0
     c9a:	f002                	sd	zero,32(sp)
     c9c:	0001                	nop
     c9e:	0100                	addi	s0,sp,128
     ca0:	1035006b          	.4byte	0x1035006b
     ca4:	0052                	c.slli	zero,0x14
     ca6:	0000                	unimp
     ca8:	0c5e                	slli	s8,s8,0x17
     caa:	0000                	unimp
     cac:	0000                	unimp
     cae:	0000                	unimp
     cb0:	0001cc07          	.4byte	0x1cc07
     cb4:	2b00                	fld	fs0,16(a4)
     cb6:	02a4                	addi	s1,sp,328
     cb8:	8000                	.2byte	0x8000
     cba:	0000                	unimp
     cbc:	0000                	unimp
     cbe:	0084                	addi	s1,sp,64
     cc0:	0000                	unimp
     cc2:	0000                	unimp
     cc4:	0000                	unimp
     cc6:	9c01                	subw	s0,s0,s0
     cc8:	0cdd                	addi	s9,s9,23
     cca:	0000                	unimp
     ccc:	b902                	fsd	ft0,176(sp)
     cce:	0000                	unimp
     cd0:	0100                	addi	s0,sp,128
     cd2:	0069                	c.nop	26
     cd4:	0c2c                	addi	a1,sp,536
     cd6:	0052                	c.slli	zero,0x14
     cd8:	0000                	unimp
     cda:	00000c8b          	.4byte	0xc8b
     cde:	fe02                	sd	zero,312(sp)
     ce0:	0000                	unimp
     ce2:	0100                	addi	s0,sp,128
     ce4:	006a                	c.slli	zero,0x1a
     ce6:	0e2d                	addi	t3,t3,11
     ce8:	0052                	c.slli	zero,0x14
     cea:	0000                	unimp
     cec:	0cc8                	addi	a0,sp,596
     cee:	0000                	unimp
     cf0:	4302                	lw	t1,0(sp)
     cf2:	0001                	nop
     cf4:	0100                	addi	s0,sp,128
     cf6:	102e006b          	.4byte	0x102e006b
     cfa:	0052                	c.slli	zero,0x14
     cfc:	0000                	unimp
     cfe:	00000d0f          	.4byte	0xd0f
     d02:	0000                	unimp
     d04:	0000                	unimp
     d06:	0001c607          	.4byte	0x1c607
     d0a:	2400                	fld	fs0,8(s0)
     d0c:	0230                	addi	a2,sp,264
     d0e:	8000                	.2byte	0x8000
     d10:	0000                	unimp
     d12:	0000                	unimp
     d14:	0074                	addi	a3,sp,12
     d16:	0000                	unimp
     d18:	0000                	unimp
     d1a:	0000                	unimp
     d1c:	9c01                	subw	s0,s0,s0
     d1e:	00000d33          	add	s10,zero,zero
     d22:	0c02                	c.slli64	s8
     d24:	0000                	unimp
     d26:	0100                	addi	s0,sp,128
     d28:	0069                	c.nop	26
     d2a:	0c25                	addi	s8,s8,9 # c9f <_prog_start-0x7ffff361>
     d2c:	0052                	c.slli	zero,0x14
     d2e:	0000                	unimp
     d30:	0d3c                	addi	a5,sp,664
     d32:	0000                	unimp
     d34:	5102                	lw	sp,32(sp)
     d36:	0000                	unimp
     d38:	0100                	addi	s0,sp,128
     d3a:	006a                	c.slli	zero,0x1a
     d3c:	0e26                	slli	t3,t3,0x9
     d3e:	0052                	c.slli	zero,0x14
     d40:	0000                	unimp
     d42:	0d79                	addi	s10,s10,30
     d44:	0000                	unimp
     d46:	9602                	jalr	a2
     d48:	0000                	unimp
     d4a:	0100                	addi	s0,sp,128
     d4c:	1027006b          	.4byte	0x1027006b
     d50:	0052                	c.slli	zero,0x14
     d52:	0000                	unimp
     d54:	0dc0                	addi	s0,sp,724
     d56:	0000                	unimp
     d58:	0000                	unimp
     d5a:	0000                	unimp
     d5c:	c616                	sw	t0,12(sp)
     d5e:	3000000b          	.4byte	0x3000000b
     d62:	0004                	.2byte	0x4
     d64:	0080                	addi	s0,sp,64
     d66:	0000                	unimp
     d68:	4400                	lw	s0,8(s0)
     d6a:	0000                	unimp
     d6c:	0000                	unimp
     d6e:	0000                	unimp
     d70:	0100                	addi	s0,sp,128
     d72:	629c                	ld	a5,0(a3)
     d74:	000d                	c.nop	3
     d76:	0d00                	addi	s0,sp,656
     d78:	0bd0                	addi	a2,sp,468
     d7a:	0000                	unimp
     d7c:	02c0                	addi	s0,sp,324
     d7e:	0000                	unimp
     d80:	d10a                	sw	sp,160(sp)
     d82:	ed00000b          	.4byte	0xed00000b
     d86:	000d                	c.nop	3
     d88:	0000                	unimp
     d8a:	1600                	addi	s0,sp,800
     d8c:	0bb1                	addi	s7,s7,12
     d8e:	0000                	unimp
     d90:	0474                	addi	a3,sp,524
     d92:	8000                	.2byte	0x8000
     d94:	0000                	unimp
     d96:	0000                	unimp
     d98:	0044                	addi	s1,sp,4
     d9a:	0000                	unimp
     d9c:	0000                	unimp
     d9e:	0000                	unimp
     da0:	9c01                	subw	s0,s0,s0
     da2:	0d91                	addi	s11,s11,4
     da4:	0000                	unimp
     da6:	bb0d                	j	ad8 <_prog_start-0x7ffff528>
     da8:	e300000b          	.4byte	0xe300000b
     dac:	0002                	c.slli64	zero
     dae:	0a00                	addi	s0,sp,272
     db0:	0bbc                	addi	a5,sp,472
     db2:	0000                	unimp
     db4:	0e15                	addi	t3,t3,5
     db6:	0000                	unimp
     db8:	0000                	unimp
     dba:	1416                	slli	s0,s0,0x25
     dbc:	000a                	c.slli	zero,0x2
     dbe:	f000                	sd	s0,32(s0)
     dc0:	0006                	c.slli	zero,0x1
     dc2:	0080                	addi	s0,sp,64
     dc4:	0000                	unimp
     dc6:	4400                	lw	s0,8(s0)
     dc8:	0000                	unimp
     dca:	0000                	unimp
     dcc:	0000                	unimp
     dce:	0100                	addi	s0,sp,128
     dd0:	c09c                	sw	a5,0(s1)
     dd2:	000d                	c.nop	3
     dd4:	0d00                	addi	s0,sp,656
     dd6:	0a1e                	slli	s4,s4,0x7
     dd8:	0000                	unimp
     dda:	04a6                	slli	s1,s1,0x9
     ddc:	0000                	unimp
     dde:	1f0a                	slli	t5,t5,0x22
     de0:	000a                	c.slli	zero,0x2
     de2:	3d00                	fld	fs0,56(a0)
     de4:	000e                	c.slli	zero,0x3
     de6:	0000                	unimp
     de8:	2700                	fld	fs0,8(a4)
     dea:	09ff                	.2byte	0x9ff
     dec:	0000                	unimp
     dee:	0734                	addi	a3,sp,904
     df0:	8000                	.2byte	0x8000
     df2:	0000                	unimp
     df4:	0000                	unimp
     df6:	0044                	addi	s1,sp,4
     df8:	0000                	unimp
     dfa:	0000                	unimp
     dfc:	0000                	unimp
     dfe:	9c01                	subw	s0,s0,s0
     e00:	090d                	addi	s2,s2,3
     e02:	000a                	c.slli	zero,0x2
     e04:	c900                	sw	s0,16(a0)
     e06:	0004                	.2byte	0x4
     e08:	0a00                	addi	s0,sp,272
     e0a:	0a0a                	slli	s4,s4,0x2
     e0c:	0000                	unimp
     e0e:	0e65                	addi	t3,t3,25
     e10:	0000                	unimp
     e12:	0000                	unimp
     e14:	8200                	.2byte	0x8200
     e16:	0004                	.2byte	0x4
     e18:	0500                	addi	s0,sp,640
     e1a:	0100                	addi	s0,sp,128
     e1c:	2e08                	fld	fa0,24(a2)
     e1e:	0002                	c.slli64	zero
     e20:	1700                	addi	s0,sp,928
     e22:	000000b3          	add	ra,zero,zero
     e26:	351d                	addiw	a0,a0,-25
     e28:	0001                	nop
     e2a:	0000                	unimp
     e2c:	0000                	unimp
     e2e:	6000                	ld	s0,0(s0)
     e30:	000d                	c.nop	3
     e32:	0080                	addi	s0,sp,64
     e34:	0000                	unimp
     e36:	c000                	sw	s0,0(s0)
     e38:	0001                	nop
     e3a:	0000                	unimp
     e3c:	0000                	unimp
     e3e:	7a00                	ld	s0,48(a2)
     e40:	001f 0200 0708      	.byte	0x1f, 0x00, 0x00, 0x02, 0x08, 0x07
     e46:	01a2                	slli	gp,gp,0x8
     e48:	0000                	unimp
     e4a:	0a06                	slli	s4,s4,0x1
     e4c:	0002                	c.slli64	zero
     e4e:	0300                	addi	s0,sp,384
     e50:	1b28                	addi	a0,sp,440
     e52:	0041                	c.nop	16
     e54:	0000                	unimp
     e56:	0818                	addi	a4,sp,16
     e58:	01e6                	slli	gp,gp,0x19
     e5a:	0000                	unimp
     e5c:	1106                	slli	sp,sp,0x21
     e5e:	0002                	c.slli64	zero
     e60:	0300                	addi	s0,sp,384
     e62:	00351863          	bne	a0,gp,e72 <_prog_start-0x7ffff18e>
     e66:	0000                	unimp
     e68:	0102                	c.slli64	sp
     e6a:	5a06                	lw	s4,96(sp)
     e6c:	0001                	nop
     e6e:	0200                	addi	s0,sp,256
     e70:	0801                	addi	a6,a6,0
     e72:	0158                	addi	a4,sp,132
     e74:	0000                	unimp
     e76:	0202                	c.slli64	tp
     e78:	5305                	li	t1,-31
     e7a:	0000                	unimp
     e7c:	0200                	addi	s0,sp,256
     e7e:	0702                	c.slli64	a4
     e80:	017d                	addi	sp,sp,31
     e82:	0000                	unimp
     e84:	f806                	sd	ra,48(sp)
     e86:	0001                	nop
     e88:	0400                	addi	s0,sp,512
     e8a:	184d                	addi	a6,a6,-13
     e8c:	0000007b          	.4byte	0x7b
     e90:	0419                	addi	s0,s0,6
     e92:	6905                	lui	s2,0x1
     e94:	746e                	ld	s0,248(sp)
     e96:	0600                	addi	s0,sp,768
     e98:	0076                	c.slli	zero,0x1d
     e9a:	0000                	unimp
     e9c:	4f04                	lw	s1,24(a4)
     e9e:	8e19                	sub	a2,a2,a4
     ea0:	0000                	unimp
     ea2:	0200                	addi	s0,sp,256
     ea4:	0704                	addi	s1,sp,896
     ea6:	000001a7          	.4byte	0x1a7
     eaa:	0802                	c.slli64	a6
     eac:	a005                	j	ecc <_prog_start-0x7ffff134>
     eae:	0000                	unimp
     eb0:	0600                	addi	s0,sp,768
     eb2:	01fa                	slli	gp,gp,0x1e
     eb4:	0000                	unimp
     eb6:	2c05                	addiw	s8,s8,1
     eb8:	00006f13          	ori	t5,zero,0
     ebc:	0600                	addi	s0,sp,768
     ebe:	0078                	addi	a4,sp,12
     ec0:	0000                	unimp
     ec2:	3005                	.2byte	0x3005
     ec4:	8214                	.2byte	0x8214
     ec6:	0000                	unimp
     ec8:	1a00                	addi	s0,sp,304
     eca:	00a8                	addi	a0,sp,72
     ecc:	0000                	unimp
     ece:	0000811b          	sext.w	sp,ra
     ed2:	0200                	addi	s0,sp,256
     ed4:	00ce2213          	slti	tp,t3,12
     ed8:	0000                	unimp
     eda:	0000                	unimp
     edc:	6400                	ld	s0,8(s0)
     ede:	b40c                	fsd	fa1,40(s0)
     ee0:	0000                	unimp
     ee2:	0d00                	addi	s0,sp,656
     ee4:	00c9                	addi	ra,ra,18
     ee6:	0000                	unimp
     ee8:	630e                	ld	t1,192(sp)
     eea:	0000                	unimp
     eec:	1600                	addi	s0,sp,800
     eee:	0d9e                	slli	s11,s11,0x7
     ef0:	8000                	.2byte	0x8000
     ef2:	0000                	unimp
     ef4:	0000                	unimp
     ef6:	0182                	c.slli64	gp
     ef8:	0000                	unimp
     efa:	0000                	unimp
     efc:	0000                	unimp
     efe:	9c01                	subw	s0,s0,s0
     f00:	0339                	addi	t1,t1,14
     f02:	0000                	unimp
     f04:	746d660f          	.4byte	0x746d660f
     f08:	1600                	addi	s0,sp,800
     f0a:	391a                	fld	fs2,416(sp)
     f0c:	99000003          	lb	zero,-1648(zero) # fffffffffffff990 <a+0xffffffff7fffe9c0>
     f10:	000e                	c.slli	zero,0x3
     f12:	1c00                	addi	s0,sp,560
     f14:	7610                	ld	a2,40(a2)
     f16:	006c                	addi	a1,sp,12
     f18:	4718                	lw	a4,8(a4)
     f1a:	0000                	unimp
     f1c:	0300                	addi	s0,sp,384
     f1e:	f891                	bnez	s1,e32 <_prog_start-0x7ffff1ce>
     f20:	117e                	slli	sp,sp,0x3f
     f22:	0219                	addi	tp,tp,6 # 6 <_prog_start-0x7ffffffa>
     f24:	0000                	unimp
     f26:	00034a07          	.4byte	0x34a07
     f2a:	e800                	sd	s0,16(s0)
     f2c:	000e                	c.slli	zero,0x3
     f2e:	1d00                	addi	s0,sp,688
     f30:	0202                	c.slli64	tp
     f32:	0000                	unimp
     f34:	1901                	addi	s2,s2,-32 # fe0 <_prog_start-0x7ffff020>
     f36:	4a12                	lw	s4,4(sp)
     f38:	00000003          	lb	zero,0(zero) # 0 <_prog_start-0x80000000>
     f3c:	de11                	beqz	a2,e58 <_prog_start-0x7ffff1a8>
     f3e:	0001                	nop
     f40:	1b00                	addi	s0,sp,432
     f42:	034a                	slli	t1,t1,0x12
     f44:	0000                	unimp
     f46:	0f96                	slli	t6,t6,0x5
     f48:	0000                	unimp
     f4a:	6305                	lui	t1,0x1
     f4c:	1a00                	addi	s0,sp,304
     f4e:	00033e07          	fld	ft8,0(t1) # 1000 <_prog_start-0x7ffff000>
     f52:	4400                	lw	s0,8(s0)
     f54:	0010                	.2byte	0x10
     f56:	0a00                	addi	s0,sp,272
     f58:	000007af          	.4byte	0x7af
     f5c:	0000030b          	.4byte	0x30b
     f60:	6e05                	lui	t3,0x1
     f62:	2400                	fld	fs0,8(s0)
     f64:	00002e13          	slti	t3,zero,0
     f68:	7e00                	ld	s0,56(a2)
     f6a:	0010                	.2byte	0x10
     f6c:	1000                	addi	s0,sp,32
     f6e:	51260063          	beq	a2,s2,146e <_prog_start-0x7fffeb92>
     f72:	03000003          	lb	zero,48(zero) # 30 <_prog_start-0x7fffffd0>
     f76:	8091                	srli	s1,s1,0x4
     f78:	0a7f                	.2byte	0xa7f
     f7a:	000008a3          	sb	zero,17(zero) # 11 <_prog_start-0x7fffffef>
     f7e:	0178                	addi	a4,sp,140
     f80:	0000                	unimp
     f82:	6909                	lui	s2,0x2
     f84:	0100                	addi	s0,sp,128
     f86:	007b0e27          	.4byte	0x7b0e27
     f8a:	0000                	unimp
     f8c:	1200                	addi	s0,sp,288
     f8e:	0ed4                	addi	a3,sp,852
     f90:	8000                	.2byte	0x8000
     f92:	0000                	unimp
     f94:	0000                	unimp
     f96:	0014                	.2byte	0x14
     f98:	0000                	unimp
     f9a:	0000                	unimp
     f9c:	0000                	unimp
     f9e:	0000019b          	sext.w	gp,zero
     fa2:	6905                	lui	s2,0x1
     fa4:	2d00                	fld	fs0,24(a0)
     fa6:	00007b0f          	.4byte	0x7b0f
     faa:	d600                	sw	s0,40(a2)
     fac:	0010                	.2byte	0x10
     fae:	0000                	unimp
     fb0:	0812                	slli	a6,a6,0x4
     fb2:	0080000f          	fence	unknown,i
     fb6:	0000                	unimp
     fb8:	1800                	addi	s0,sp,48
     fba:	0000                	unimp
     fbc:	0000                	unimp
     fbe:	0000                	unimp
     fc0:	e900                	sd	s0,16(a0)
     fc2:	0001                	nop
     fc4:	0500                	addi	s0,sp,640
     fc6:	0069                	c.nop	26
     fc8:	0e31                	addi	t3,t3,12 # 100c <_prog_start-0x7fffeff4>
     fca:	0000007b          	.4byte	0x7b
     fce:	00001107          	.4byte	0x1107
     fd2:	00045c07          	.4byte	0x45c07
     fd6:	0800                	addi	s0,sp,16
     fd8:	0080000f          	fence	unknown,i
     fdc:	0000                	unimp
     fde:	0e00                	addi	s0,sp,784
     fe0:	0000                	unimp
     fe2:	0000                	unimp
     fe4:	0000                	unimp
     fe6:	3100                	fld	fs0,32(a0)
     fe8:	0325                	addi	t1,t1,9
     fea:	0465                	addi	s0,s0,25
     fec:	0000                	unimp
     fee:	6f04                	ld	s1,24(a4)
     ff0:	0004                	.2byte	0x4
     ff2:	0100                	addi	s0,sp,128
     ff4:	047a                	slli	s0,s0,0x1e
     ff6:	0000                	unimp
     ff8:	00001123          	sh	zero,2(zero) # 2 <_prog_start-0x7ffffffe>
     ffc:	0000                	unimp
     ffe:	170a                	slli	a4,a4,0x22
    1000:	0008                	.2byte	0x8
    1002:	4d00                	lw	s0,24(a0)
    1004:	0002                	c.slli64	zero
    1006:	0500                	addi	s0,sp,640
    1008:	006e                	c.slli	zero,0x1b
    100a:	002e1337          	lui	t1,0x2e1
    100e:	0000                	unimp
    1010:	00001137          	lui	sp,0x1
    1014:	6905                	lui	s2,0x1
    1016:	3800                	fld	fs0,48(s0)
    1018:	950a                	add	a0,a0,sp
    101a:	0000                	unimp
    101c:	7100                	ld	s0,32(a0)
    101e:	0011                	c.nop	4
    1020:	0800                	addi	s0,sp,16
    1022:	083a                	slli	a6,a6,0xe
    1024:	0000                	unimp
    1026:	6405                	lui	s0,0x1
    1028:	4100                	lw	s0,0(a0)
    102a:	0000950b          	.4byte	0x950b
    102e:	8500                	.2byte	0x8500
    1030:	0011                	c.nop	4
    1032:	1300                	addi	s0,sp,416
    1034:	045c                	addi	a5,sp,516
    1036:	0000                	unimp
    1038:	0e28                	addi	a0,sp,792
    103a:	8000                	.2byte	0x8000
    103c:	0000                	unimp
    103e:	0000                	unimp
    1040:	085d                	addi	a6,a6,23
    1042:	0000                	unimp
    1044:	65030643          	.4byte	0x65030643
    1048:	0004                	.2byte	0x4
    104a:	0800                	addi	s0,sp,16
    104c:	085d                	addi	a6,a6,23
    104e:	0000                	unimp
    1050:	6f04                	ld	s1,24(a4)
    1052:	0004                	.2byte	0x4
    1054:	0100                	addi	s0,sp,128
    1056:	047a                	slli	s0,s0,0x1e
    1058:	0000                	unimp
    105a:	1199                	addi	gp,gp,-26
    105c:	0000                	unimp
    105e:	0000                	unimp
    1060:	0000                	unimp
    1062:	5c14                	lw	a3,56(s0)
    1064:	0004                	.2byte	0x4
    1066:	ee00                	sd	s0,24(a2)
    1068:	000d                	c.nop	3
    106a:	0080                	addi	s0,sp,64
    106c:	0000                	unimp
    106e:	e300                	sd	s0,0(a4)
    1070:	4b000007          	.4byte	0x4b000007
    1074:	0285                	addi	t0,t0,1
    1076:	0000                	unimp
    1078:	0004650b          	.4byte	0x4650b
    107c:	ad00                	fsd	fs0,24(a0)
    107e:	0011                	c.nop	4
    1080:	0800                	addi	s0,sp,16
    1082:	000007e3          	beqz	zero,1890 <_prog_start-0x7fffe770>
    1086:	6f01                	.2byte	0x6f01
    1088:	0004                	.2byte	0x4
    108a:	c100                	sw	s0,0(a0)
    108c:	0011                	c.nop	4
    108e:	0100                	addi	s0,sp,128
    1090:	047a                	slli	s0,s0,0x1e
    1092:	0000                	unimp
    1094:	11d8                	addi	a4,sp,228
    1096:	0000                	unimp
    1098:	0000                	unimp
    109a:	3a14                	fld	fa3,48(a2)
    109c:	0004                	.2byte	0x4
    109e:	5800                	lw	s0,48(s0)
    10a0:	000e                	c.slli	zero,0x3
    10a2:	0080                	addi	s0,sp,64
    10a4:	0000                	unimp
    10a6:	8000                	.2byte	0x8000
    10a8:	0008                	.2byte	0x8
    10aa:	4800                	lw	s0,16(s0)
    10ac:	02df 0000 470b      	.byte	0xdf, 0x02, 0x00, 0x00, 0x0b, 0x47
    10b2:	0004                	.2byte	0x4
    10b4:	ec00                	sd	s0,24(s0)
    10b6:	0011                	c.nop	4
    10b8:	0800                	addi	s0,sp,16
    10ba:	0880                	addi	s0,sp,80
    10bc:	0000                	unimp
    10be:	5101                	li	sp,-32
    10c0:	0004                	.2byte	0x4
    10c2:	0000                	unimp
    10c4:	0012                	c.slli	zero,0x4
    10c6:	0700                	addi	s0,sp,896
    10c8:	045c                	addi	a5,sp,516
    10ca:	0000                	unimp
    10cc:	0e62                	slli	t3,t3,0x18
    10ce:	8000                	.2byte	0x8000
    10d0:	0000                	unimp
    10d2:	0000                	unimp
    10d4:	000e                	c.slli	zero,0x3
    10d6:	0000                	unimp
    10d8:	0000                	unimp
    10da:	0000                	unimp
    10dc:	030c                	addi	a1,sp,384
    10de:	00046503          	lwu	a0,0(s0) # 1000 <_prog_start-0x7ffff000>
    10e2:	0400                	addi	s0,sp,512
    10e4:	0000046f          	jal	s0,10e4 <_prog_start-0x7fffef1c>
    10e8:	7a01                	lui	s4,0xfffe0
    10ea:	0004                	.2byte	0x4
    10ec:	2700                	fld	fs0,8(a4)
    10ee:	0012                	c.slli	zero,0x4
    10f0:	0000                	unimp
    10f2:	0000                	unimp
    10f4:	00045c07          	.4byte	0x45c07
    10f8:	9800                	.2byte	0x9800
    10fa:	000e                	c.slli	zero,0x3
    10fc:	0080                	addi	s0,sp,64
    10fe:	0000                	unimp
    1100:	1400                	addi	s0,sp,544
    1102:	0000                	unimp
    1104:	0000                	unimp
    1106:	0000                	unimp
    1108:	2900                	fld	fs0,16(a0)
    110a:	0306                	slli	t1,t1,0x1
    110c:	0465                	addi	s0,s0,25
    110e:	0000                	unimp
    1110:	6f04                	ld	s1,24(a4)
    1112:	0004                	.2byte	0x4
    1114:	0100                	addi	s0,sp,128
    1116:	047a                	slli	s0,s0,0x1e
    1118:	0000                	unimp
    111a:	0000123b          	sllw	tp,zero,zero
    111e:	0000                	unimp
    1120:	00045c13          	srli	s8,s0,0x0
    1124:	c400                	sw	s0,8(s0)
    1126:	000d                	c.nop	3
    1128:	0080                	addi	s0,sp,64
    112a:	0000                	unimp
    112c:	8c00                	.2byte	0x8c00
    112e:	54000007          	.4byte	0x54000007
    1132:	0304                	addi	s1,sp,384
    1134:	0465                	addi	s0,s0,25
    1136:	0000                	unimp
    1138:	8c08                	.2byte	0x8c08
    113a:	04000007          	.4byte	0x4000007
    113e:	0000046f          	jal	s0,113e <_prog_start-0x7fffeec2>
    1142:	7a01                	lui	s4,0xfffe0
    1144:	0004                	.2byte	0x4
    1146:	4f00                	lw	s0,24(a4)
    1148:	0012                	c.slli	zero,0x4
    114a:	0000                	unimp
    114c:	0000                	unimp
    114e:	450c                	lw	a1,8(a0)
    1150:	02000003          	lb	zero,32(zero) # 20 <_prog_start-0x7fffffe0>
    1154:	0801                	addi	a6,a6,0
    1156:	0161                	addi	sp,sp,24 # 1018 <_prog_start-0x7fffefe8>
    1158:	0000                	unimp
    115a:	3e0d                	addiw	t3,t3,-29
    115c:	02000003          	lb	zero,32(zero) # 20 <_prog_start-0x7fffffe0>
    1160:	0201                	addi	tp,tp,0 # 0 <_prog_start-0x80000000>
    1162:	0230                	addi	a2,sp,264
    1164:	0000                	unimp
    1166:	3e1e                	fld	ft8,480(sp)
    1168:	61000003          	lb	zero,1552(zero) # 610 <_prog_start-0x7ffff9f0>
    116c:	1f000003          	lb	zero,496(zero) # 1f0 <_prog_start-0x7ffffe10>
    1170:	002e                	c.slli	zero,0xb
    1172:	0000                	unimp
    1174:	240e003f 0f000002 	.8byte	0xf000002240e003f
    117c:	0d60                	addi	s0,sp,668
    117e:	8000                	.2byte	0x8000
    1180:	0000                	unimp
    1182:	0000                	unimp
    1184:	003e                	c.slli	zero,0xf
    1186:	0000                	unimp
    1188:	0000                	unimp
    118a:	0000                	unimp
    118c:	9c01                	subw	s0,s0,s0
    118e:	043a                	slli	s0,s0,0xe
    1190:	0000                	unimp
    1192:	0f00730f          	.4byte	0xf00730f
    1196:	3918                	fld	fa4,48(a0)
    1198:	76000003          	lb	zero,1888(zero) # 760 <_prog_start-0x7ffff8a0>
    119c:	0012                	c.slli	zero,0x4
    119e:	1500                	addi	s0,sp,672
    11a0:	043a                	slli	s0,s0,0xe
    11a2:	0000                	unimp
    11a4:	0d60                	addi	s0,sp,668
    11a6:	8000                	.2byte	0x8000
    11a8:	0000                	unimp
    11aa:	0000                	unimp
    11ac:	001c                	.2byte	0x1c
    11ae:	0000                	unimp
    11b0:	0000                	unimp
    11b2:	0000                	unimp
    11b4:	e211                	bnez	a2,11b8 <_prog_start-0x7fffee48>
    11b6:	0b000003          	lb	zero,176(zero) # b0 <_prog_start-0x7fffff50>
    11ba:	00000447          	fmsub.s	fs0,ft0,ft0,ft0,rne
    11be:	12a0                	addi	s0,sp,360
    11c0:	0000                	unimp
    11c2:	5101                	li	sp,-32
    11c4:	0004                	.2byte	0x4
    11c6:	b400                	fsd	fs0,40(s0)
    11c8:	0012                	c.slli	zero,0x4
    11ca:	0700                	addi	s0,sp,896
    11cc:	045c                	addi	a5,sp,516
    11ce:	0000                	unimp
    11d0:	0d66                	slli	s10,s10,0x19
    11d2:	8000                	.2byte	0x8000
    11d4:	0000                	unimp
    11d6:	0000                	unimp
    11d8:	000e                	c.slli	zero,0x3
    11da:	0000                	unimp
    11dc:	0000                	unimp
    11de:	0000                	unimp
    11e0:	030c                	addi	a1,sp,384
    11e2:	00046503          	lwu	a0,0(s0)
    11e6:	0400                	addi	s0,sp,512
    11e8:	0000046f          	jal	s0,11e8 <_prog_start-0x7fffee18>
    11ec:	7a01                	lui	s4,0xfffe0
    11ee:	0004                	.2byte	0x4
    11f0:	db00                	sw	s0,48(a4)
    11f2:	0012                	c.slli	zero,0x4
    11f4:	0000                	unimp
    11f6:	1500                	addi	s0,sp,672
    11f8:	045c                	addi	a5,sp,516
    11fa:	0000                	unimp
    11fc:	0d7c                	addi	a5,sp,668
    11fe:	8000                	.2byte	0x8000
    1200:	0000                	unimp
    1202:	0000                	unimp
    1204:	0010                	.2byte	0x10
    1206:	0000                	unimp
    1208:	0000                	unimp
    120a:	0000                	unimp
    120c:	1012                	c.slli	zero,0x24
    120e:	0004                	.2byte	0x4
    1210:	0300                	addi	s0,sp,384
    1212:	0465                	addi	s0,s0,25
    1214:	0000                	unimp
    1216:	6f04                	ld	s1,24(a4)
    1218:	0004                	.2byte	0x4
    121a:	0100                	addi	s0,sp,128
    121c:	047a                	slli	s0,s0,0x1e
    121e:	0000                	unimp
    1220:	000012ef          	jal	t0,2220 <_prog_start-0x7fffdde0>
    1224:	0700                	addi	s0,sp,896
    1226:	045c                	addi	a5,sp,516
    1228:	0000                	unimp
    122a:	0d8c                	addi	a1,sp,720
    122c:	8000                	.2byte	0x8000
    122e:	0000                	unimp
    1230:	0000                	unimp
    1232:	0010                	.2byte	0x10
    1234:	0000                	unimp
    1236:	0000                	unimp
    1238:	0000                	unimp
    123a:	65030213          	addi	tp,t1,1616 # 2e1650 <_prog_start-0x7fd1e9b0>
    123e:	0004                	.2byte	0x4
    1240:	0400                	addi	s0,sp,512
    1242:	0000046f          	jal	s0,1242 <_prog_start-0x7fffedbe>
    1246:	7a20                	ld	s0,112(a2)
    1248:	0004                	.2byte	0x4
    124a:	0100                	addi	s0,sp,128
    124c:	005f 2100 0223      	.byte	0x5f, 0x00, 0x00, 0x21, 0x23, 0x02
    1252:	0000                	unimp
    1254:	0801                	addi	a6,a6,0
    1256:	0314                	addi	a3,sp,384
    1258:	045c                	addi	a5,sp,516
    125a:	0000                	unimp
    125c:	7316                	ld	t1,352(sp)
    125e:	0100                	addi	s0,sp,128
    1260:	2708                	fld	fa0,8(a4)
    1262:	0339                	addi	t1,t1,14
    1264:	0000                	unimp
    1266:	6309                	lui	t1,0x2
    1268:	0100                	addi	s0,sp,128
    126a:	070a                	slli	a4,a4,0x2
    126c:	033e                	slli	t1,t1,0xf
    126e:	0000                	unimp
    1270:	2200                	fld	fs0,0(a2)
    1272:	022a                	slli	tp,tp,0xa
    1274:	0000                	unimp
    1276:	1502                	slli	a0,a0,0x20
    1278:	0314                	addi	a3,sp,384
    127a:	6316                	ld	t1,320(sp)
    127c:	0200                	addi	s0,sp,256
    127e:	1f15                	addi	t5,t5,-27
    1280:	033e                	slli	t1,t1,0xf
    1282:	0000                	unimp
    1284:	7409                	lui	s0,0xfffe2
    1286:	0078                	addi	a4,sp,12
    1288:	1702                	slli	a4,a4,0x20
    128a:	c915                	beqz	a0,12be <_prog_start-0x7fffed42>
    128c:	0000                	unimp
    128e:	0900                	addi	s0,sp,144
    1290:	0072                	c.slli	zero,0x1c
    1292:	1902                	slli	s2,s2,0x20
    1294:	9c0a                	add	s8,s8,sp
    1296:	0000                	unimp
    1298:	0000                	unimp
	...

Disassembly of section .debug_abbrev:

0000000000000000 <.debug_abbrev>:
   0:	1101                	addi	sp,sp,-32
   2:	1000                	addi	s0,sp,32
   4:	12011117          	auipc	sp,0x12011
   8:	1b0e030f          	.4byte	0x1b0e030f
   c:	250e                	fld	fa0,192(sp)
   e:	130e                	slli	t1,t1,0x23
  10:	0005                	c.nop	1
  12:	0000                	unimp
  14:	3401                	addiw	s0,s0,-32 # fffffffffffe1fe0 <a+0xffffffff7ffe1010>
  16:	0300                	addi	s0,sp,384
  18:	3a08                	fld	fa0,48(a2)
  1a:	0121                	addi	sp,sp,8 # 1201100c <_prog_start-0x6dfeeff4>
  1c:	0b390b3b          	.4byte	0xb390b3b
  20:	1349                	addi	t1,t1,-14 # 1ff2 <_prog_start-0x7fffe00e>
  22:	1702                	slli	a4,a4,0x20
  24:	0000                	unimp
  26:	0b02                	c.slli64	s6
  28:	5501                	li	a0,-32
  2a:	03000017          	auipc	zero,0x3000
  2e:	0034                	addi	a3,sp,8
  30:	213a0e03          	lb	t3,531(s4) # fffffffffffe0213 <a+0xffffffff7ffdf243>
  34:	3b01                	addiw	s6,s6,-32
  36:	490b390b          	.4byte	0x490b390b
  3a:	00170213          	addi	tp,a4,1
  3e:	0400                	addi	s0,sp,512
  40:	0111010b          	.4byte	0x111010b
  44:	0712                	slli	a4,a4,0x4
  46:	1301                	addi	t1,t1,-32
  48:	0000                	unimp
  4a:	4905                	li	s2,1
  4c:	0200                	addi	s0,sp,256
  4e:	7e18                	ld	a4,56(a2)
  50:	0018                	.2byte	0x18
  52:	0600                	addi	s0,sp,768
  54:	0034                	addi	a3,sp,8
  56:	213a0803          	lb	a6,531(s4)
  5a:	3b01                	addiw	s6,s6,-32
  5c:	0a21390b          	.4byte	0xa21390b
  60:	1349                	addi	t1,t1,-14
  62:	1802193f 2e070000 	.8byte	0x2e0700001802193f
  6a:	3f01                	addiw	t5,t5,-32
  6c:	0319                	addi	t1,t1,6
  6e:	3a0e                	fld	fs4,224(sp)
  70:	0121                	addi	sp,sp,8
  72:	21390b3b          	.4byte	0x21390b3b
  76:	1106                	slli	sp,sp,0x21
  78:	1201                	addi	tp,tp,-32 # ffffffffffffffe0 <a+0xffffffff7ffff010>
  7a:	7a184007          	.4byte	0x7a184007
  7e:	0119                	addi	sp,sp,6
  80:	08000013          	li	zero,128
  84:	0048                	addi	a0,sp,4
  86:	017d                	addi	sp,sp,31
  88:	137f                	.2byte	0x137f
  8a:	0000                	unimp
  8c:	0b09                	addi	s6,s6,2
  8e:	1101                	addi	sp,sp,-32
  90:	1201                	addi	tp,tp,-32 # ffffffffffffffe0 <a+0xffffffff7ffff010>
  92:	0a000007          	.4byte	0xa000007
  96:	0034                	addi	a3,sp,8
  98:	1331                	addi	t1,t1,-20
  9a:	1702                	slli	a4,a4,0x20
  9c:	0000                	unimp
  9e:	7d01480b          	.4byte	0x7d01480b
  a2:	7f01                	lui	t5,0xfffe0
  a4:	00130113          	addi	sp,t1,1
  a8:	0c00                	addi	s0,sp,528
  aa:	0024                	addi	s1,sp,8
  ac:	0b3e0b0b          	.4byte	0xb3e0b0b
  b0:	00000e03          	lb	t3,0(zero) # 0 <_prog_start-0x80000000>
  b4:	0b0d                	addi	s6,s6,3
  b6:	3101                	addiw	sp,sp,-32
  b8:	00175513          	srli	a0,a4,0x1
  bc:	0e00                	addi	s0,sp,784
  be:	210b000f          	.4byte	0x210b000f
  c2:	4908                	lw	a0,16(a0)
  c4:	0f000013          	li	zero,240
  c8:	0016                	c.slli	zero,0x5
  ca:	0b3a0e03          	lb	t3,179(s4)
  ce:	0b390b3b          	.4byte	0xb390b3b
  d2:	1349                	addi	t1,t1,-14
  d4:	0000                	unimp
  d6:	1d10                	addi	a2,sp,688
  d8:	3101                	addiw	sp,sp,-32
  da:	12011113          	.4byte	0x12011113
  de:	01215807          	.4byte	0x1215807
  e2:	0b59                	addi	s6,s6,22
  e4:	13010b57          	.4byte	0x13010b57
  e8:	0000                	unimp
  ea:	0b11                	addi	s6,s6,4
  ec:	3101                	addiw	sp,sp,-32
  ee:	12011113          	.4byte	0x12011113
  f2:	12000007          	.4byte	0x12000007
  f6:	012e                	slli	sp,sp,0xb
  f8:	0e03193f 3b01213a 	.8byte	0x3b01213a0e03193f
 100:	0621390b          	.4byte	0x621390b
 104:	2120                	fld	fs0,64(a0)
 106:	0101                	addi	sp,sp,0
 108:	13000013          	li	zero,304
 10c:	0000010b          	.4byte	0x10b
 110:	3414                	fld	fa3,40(s0)
 112:	0300                	addi	s0,sp,384
 114:	3a08                	fld	fa0,48(a2)
 116:	0121                	addi	sp,sp,8
 118:	21390b3b          	.4byte	0x21390b3b
 11c:	490c                	lw	a1,16(a0)
 11e:	15000013          	li	zero,336
 122:	0034                	addi	a3,sp,8
 124:	213a0e03          	lb	t3,531(s4)
 128:	3b01                	addiw	s6,s6,-32
 12a:	0a21390b          	.4byte	0xa21390b
 12e:	1349                	addi	t1,t1,-14
 130:	1802193f 2e160000 	.8byte	0x2e1600001802193f
 138:	3101                	addiw	sp,sp,-32
 13a:	12011113          	.4byte	0x12011113
 13e:	7a184007          	.4byte	0x7a184007
 142:	0119                	addi	sp,sp,6
 144:	17000013          	li	zero,368
 148:	0034                	addi	a3,sp,8
 14a:	0b3a0e03          	lb	t3,179(s4)
 14e:	21390b3b          	.4byte	0x21390b3b
 152:	4922                	lw	s2,8(sp)
 154:	00061c13          	slli	s8,a2,0x0
 158:	1800                	addi	s0,sp,48
 15a:	0026                	c.slli	zero,0x9
 15c:	1349                	addi	t1,t1,-14
 15e:	0000                	unimp
 160:	0b19                	addi	s6,s6,6
 162:	5501                	li	a0,-32
 164:	00130117          	auipc	sp,0x130
 168:	1a00                	addi	s0,sp,304
 16a:	011d                	addi	sp,sp,7 # 13016b <_prog_start-0x7fecfe95>
 16c:	1331                	addi	t1,t1,-20
 16e:	0152                	slli	sp,sp,0x14
 170:	1755                	addi	a4,a4,-11
 172:	2158                	fld	fa4,128(a0)
 174:	5901                	li	s2,-32
 176:	0321570b          	.4byte	0x321570b
 17a:	1301                	addi	t1,t1,-32
 17c:	0000                	unimp
 17e:	2501111b          	.4byte	0x2501111b
 182:	130e                	slli	t1,t1,0x23
 184:	1b1f030b          	.4byte	0x1b1f030b
 188:	551f 1117 1001      	.byte	0x1f, 0x55, 0x17, 0x11, 0x01, 0x10
 18e:	1c000017          	auipc	zero,0x1c000
 192:	0024                	addi	s1,sp,8
 194:	0b3e0b0b          	.4byte	0xb3e0b0b
 198:	00000803          	lb	a6,0(zero) # 0 <_prog_start-0x80000000>
 19c:	351d                	addiw	a0,a0,-25
 19e:	4900                	lw	s0,16(a0)
 1a0:	1e000013          	li	zero,480
 1a4:	012e                	slli	sp,sp,0xb
 1a6:	0e03193f 0b3b0b3a 	.8byte	0xb3b0b3a0e03193f
 1ae:	0b39                	addi	s6,s6,14
 1b0:	193c1927          	.4byte	0x193c1927
 1b4:	1301                	addi	t1,t1,-32
 1b6:	0000                	unimp
 1b8:	051f 4900 0013      	.byte	0x1f, 0x05, 0x00, 0x49, 0x13, 0x00
 1be:	2000                	fld	fs0,0(s0)
 1c0:	0018                	.2byte	0x18
 1c2:	0000                	unimp
 1c4:	2e21                	addiw	t3,t3,8
 1c6:	3f01                	addiw	t5,t5,-32 # fffffffffffdffe0 <a+0xffffffff7ffdf010>
 1c8:	0319                	addi	t1,t1,6
 1ca:	3a0e                	fld	fs4,224(sp)
 1cc:	390b3b0b          	.4byte	0x390b3b0b
 1d0:	4919270b          	.4byte	0x4919270b
 1d4:	12011113          	.4byte	0x12011113
 1d8:	7a184007          	.4byte	0x7a184007
 1dc:	0119                	addi	sp,sp,6
 1de:	22000013          	li	zero,544
 1e2:	0005                	c.nop	1
 1e4:	0b3a0e03          	lb	t3,179(s4)
 1e8:	0b390b3b          	.4byte	0xb390b3b
 1ec:	1349                	addi	t1,t1,-14
 1ee:	1702                	slli	a4,a4,0x20
 1f0:	0000                	unimp
 1f2:	03000523          	sb	a6,42(zero) # 2a <_prog_start-0x7fffffd6>
 1f6:	3a08                	fld	fa0,48(a2)
 1f8:	390b3b0b          	.4byte	0x390b3b0b
 1fc:	0213490b          	.4byte	0x213490b
 200:	24000017          	auipc	zero,0x24000
 204:	0148                	addi	a0,sp,132
 206:	017d                	addi	sp,sp,31
 208:	137f                	.2byte	0x137f
 20a:	0000                	unimp
 20c:	0125                	addi	sp,sp,9
 20e:	4901                	li	s2,0
 210:	00130113          	addi	sp,t1,1
 214:	2600                	fld	fs0,8(a2)
 216:	0021                	c.nop	8
 218:	1349                	addi	t1,t1,-14
 21a:	00000b2f          	.4byte	0xb2f
 21e:	31012e27          	fsw	fa6,796(sp)
 222:	12011113          	.4byte	0x12011113
 226:	7a184007          	.4byte	0x7a184007
 22a:	0019                	c.nop	6
 22c:	0000                	unimp
 22e:	3401                	addiw	s0,s0,-32
 230:	3100                	fld	fs0,32(a0)
 232:	00170213          	addi	tp,a4,1
 236:	0200                	addi	s0,sp,256
 238:	0024                	addi	s1,sp,8
 23a:	0b3e0b0b          	.4byte	0xb3e0b0b
 23e:	00000e03          	lb	t3,0(zero) # 0 <_prog_start-0x80000000>
 242:	31000503          	lb	a0,784(zero) # 310 <_prog_start-0x7ffffcf0>
 246:	04000013          	li	zero,64
 24a:	0034                	addi	a3,sp,8
 24c:	1331                	addi	t1,t1,-20
 24e:	0000                	unimp
 250:	3405                	addiw	s0,s0,-31
 252:	0300                	addi	s0,sp,384
 254:	3a08                	fld	fa0,48(a2)
 256:	0121                	addi	sp,sp,8
 258:	0b390b3b          	.4byte	0xb390b3b
 25c:	1349                	addi	t1,t1,-14
 25e:	1702                	slli	a4,a4,0x20
 260:	0000                	unimp
 262:	1606                	slli	a2,a2,0x21
 264:	0300                	addi	s0,sp,384
 266:	3a0e                	fld	fs4,224(sp)
 268:	390b3b0b          	.4byte	0x390b3b0b
 26c:	0013490b          	.4byte	0x13490b
 270:	0700                	addi	s0,sp,896
 272:	011d                	addi	sp,sp,7
 274:	1331                	addi	t1,t1,-20
 276:	0111                	addi	sp,sp,4
 278:	0712                	slli	a4,a4,0x4
 27a:	2158                	fld	fa4,128(a0)
 27c:	5901                	li	s2,-32
 27e:	000b570b          	.4byte	0xb570b
 282:	0800                	addi	s0,sp,16
 284:	1755010b          	.4byte	0x1755010b
 288:	0000                	unimp
 28a:	3409                	addiw	s0,s0,-30
 28c:	0300                	addi	s0,sp,384
 28e:	3a08                	fld	fa0,48(a2)
 290:	390b3b0b          	.4byte	0x390b3b0b
 294:	0013490b          	.4byte	0x13490b
 298:	0a00                	addi	s0,sp,272
 29a:	1755010b          	.4byte	0x1755010b
 29e:	1301                	addi	t1,t1,-32
 2a0:	0000                	unimp
 2a2:	3100050b          	.4byte	0x3100050b
 2a6:	00170213          	addi	tp,a4,1
 2aa:	0c00                	addi	s0,sp,528
 2ac:	210b000f          	.4byte	0x210b000f
 2b0:	4908                	lw	a0,16(a0)
 2b2:	0d000013          	li	zero,208
 2b6:	0026                	c.slli	zero,0x9
 2b8:	1349                	addi	t1,t1,-14
 2ba:	0000                	unimp
 2bc:	2e0e                	fld	ft8,192(sp)
 2be:	3f01                	addiw	t5,t5,-32
 2c0:	0319                	addi	t1,t1,6
 2c2:	3a0e                	fld	fs4,224(sp)
 2c4:	0121                	addi	sp,sp,8
 2c6:	21390b3b          	.4byte	0x21390b3b
 2ca:	2706                	fld	fa4,64(sp)
 2cc:	1119                	addi	sp,sp,-26
 2ce:	1201                	addi	tp,tp,-32 # ffffffffffffffe0 <a+0xffffffff7ffff010>
 2d0:	7a184007          	.4byte	0x7a184007
 2d4:	0119                	addi	sp,sp,6
 2d6:	0f000013          	li	zero,240
 2da:	0005                	c.nop	1
 2dc:	213a0803          	lb	a6,531(s4)
 2e0:	3b01                	addiw	s6,s6,-32
 2e2:	490b390b          	.4byte	0x490b390b
 2e6:	00170213          	addi	tp,a4,1
 2ea:	1000                	addi	s0,sp,32
 2ec:	0034                	addi	a3,sp,8
 2ee:	213a0803          	lb	a6,531(s4)
 2f2:	3b01                	addiw	s6,s6,-32
 2f4:	0a21390b          	.4byte	0xa21390b
 2f8:	1349                	addi	t1,t1,-14
 2fa:	1802                	slli	a6,a6,0x20
 2fc:	0000                	unimp
 2fe:	3411                	addiw	s0,s0,-28
 300:	0300                	addi	s0,sp,384
 302:	3a0e                	fld	fs4,224(sp)
 304:	0121                	addi	sp,sp,8
 306:	3919213b          	.4byte	0x3919213b
 30a:	0213490b          	.4byte	0x213490b
 30e:	12000017          	auipc	zero,0x12000
 312:	0111010b          	.4byte	0x111010b
 316:	0712                	slli	a4,a4,0x4
 318:	1301                	addi	t1,t1,-32
 31a:	0000                	unimp
 31c:	31011d13          	.4byte	0x31011d13
 320:	55015213          	.4byte	0x55015213
 324:	01215817          	auipc	a6,0x1215
 328:	0b59                	addi	s6,s6,22
 32a:	00000b57          	.4byte	0xb57
 32e:	1d14                	addi	a3,sp,688
 330:	3101                	addiw	sp,sp,-32
 332:	55015213          	.4byte	0x55015213
 336:	01215817          	auipc	a6,0x1215
 33a:	0b59                	addi	s6,s6,22
 33c:	01052157          	.4byte	0x1052157
 340:	15000013          	li	zero,336
 344:	011d                	addi	sp,sp,7
 346:	1331                	addi	t1,t1,-20
 348:	0111                	addi	sp,sp,4
 34a:	0712                	slli	a4,a4,0x4
 34c:	2158                	fld	fa4,128(a0)
 34e:	5901                	li	s2,-32
 350:	0221570b          	.4byte	0x221570b
 354:	1301                	addi	t1,t1,-32
 356:	0000                	unimp
 358:	0516                	slli	a0,a0,0x5
 35a:	0300                	addi	s0,sp,384
 35c:	3a08                	fld	fa0,48(a2)
 35e:	390b3b0b          	.4byte	0x390b3b0b
 362:	0013490b          	.4byte	0x13490b
 366:	1700                	addi	s0,sp,928
 368:	0111                	addi	sp,sp,4
 36a:	0e25                	addi	t3,t3,9
 36c:	1f030b13          	addi	s6,t1,496
 370:	01111f1b          	slliw	t5,sp,0x11
 374:	0712                	slli	a4,a4,0x4
 376:	1710                	addi	a2,sp,928
 378:	0000                	unimp
 37a:	0f18                	addi	a4,sp,912
 37c:	0b00                	addi	s0,sp,400
 37e:	000e030b          	.4byte	0xe030b
 382:	1900                	addi	s0,sp,176
 384:	0024                	addi	s1,sp,8
 386:	0b3e0b0b          	.4byte	0xb3e0b0b
 38a:	00000803          	lb	a6,0(zero) # 0 <_prog_start-0x80000000>
 38e:	351a                	fld	fa0,416(sp)
 390:	4900                	lw	s0,16(a0)
 392:	1b000013          	li	zero,432
 396:	0034                	addi	a3,sp,8
 398:	0b3a0e03          	lb	t3,179(s4)
 39c:	0b390b3b          	.4byte	0xb390b3b
 3a0:	1349                	addi	t1,t1,-14
 3a2:	061c                	addi	a5,sp,768
 3a4:	0000                	unimp
 3a6:	181c                	addi	a5,sp,48
 3a8:	0000                	unimp
 3aa:	1d00                	addi	s0,sp,688
 3ac:	0034                	addi	a3,sp,8
 3ae:	0b3a0e03          	lb	t3,179(s4)
 3b2:	0b390b3b          	.4byte	0xb390b3b
 3b6:	1349                	addi	t1,t1,-14
 3b8:	0b1c                	addi	a5,sp,400
 3ba:	0000                	unimp
 3bc:	011e                	slli	sp,sp,0x7
 3be:	4901                	li	s2,0
 3c0:	00130113          	addi	sp,t1,1
 3c4:	1f00                	addi	s0,sp,944
 3c6:	0021                	c.nop	8
 3c8:	1349                	addi	t1,t1,-14
 3ca:	00000b2f          	.4byte	0xb2f
 3ce:	3420                	fld	fs0,104(s0)
 3d0:	3100                	fld	fs0,32(a0)
 3d2:	00180213          	addi	tp,a6,1 # 1215337 <_prog_start-0x7edeacc9>
 3d6:	2100                	fld	fs0,0(a0)
 3d8:	012e                	slli	sp,sp,0xb
 3da:	0b3a0e03          	lb	t3,179(s4)
 3de:	0b390b3b          	.4byte	0xb390b3b
 3e2:	0b201927          	.4byte	0xb201927
 3e6:	1301                	addi	t1,t1,-32
 3e8:	0000                	unimp
 3ea:	2e22                	fld	ft8,8(sp)
 3ec:	0301                	addi	t1,t1,0
 3ee:	3a0e                	fld	fs4,224(sp)
 3f0:	390b3b0b          	.4byte	0x390b3b0b
 3f4:	2019270b          	.4byte	0x2019270b
 3f8:	0000000b          	.4byte	0xb

Disassembly of section .debug_aranges:

0000000000000000 <.debug_aranges>:
   0:	002c                	addi	a1,sp,8
   2:	0000                	unimp
   4:	0002                	c.slli64	zero
   6:	0000                	unimp
   8:	0000                	unimp
   a:	0008                	.2byte	0x8
   c:	0000                	unimp
   e:	0000                	unimp
  10:	0000                	unimp
  12:	8000                	.2byte	0x8000
  14:	0000                	unimp
  16:	0000                	unimp
  18:	0230                	addi	a2,sp,264
	...
  2e:	0000                	unimp
  30:	003c                	addi	a5,sp,8
  32:	0000                	unimp
  34:	0002                	c.slli64	zero
  36:	0029                	c.nop	10
  38:	0000                	unimp
  3a:	0008                	.2byte	0x8
  3c:	0000                	unimp
  3e:	0000                	unimp
  40:	0230                	addi	a2,sp,264
  42:	8000                	.2byte	0x8000
  44:	0000                	unimp
  46:	0000                	unimp
  48:	07b4                	addi	a3,sp,968
  4a:	0000                	unimp
  4c:	0000                	unimp
  4e:	0000                	unimp
  50:	09e4                	addi	s1,sp,220
  52:	8000                	.2byte	0x8000
  54:	0000                	unimp
  56:	0000                	unimp
  58:	037c                	addi	a5,sp,396
	...
  6e:	0000                	unimp
  70:	002c                	addi	a1,sp,8
  72:	0000                	unimp
  74:	0002                	c.slli64	zero
  76:	0e15                	addi	t3,t3,5
  78:	0000                	unimp
  7a:	0008                	.2byte	0x8
  7c:	0000                	unimp
  7e:	0000                	unimp
  80:	0d60                	addi	s0,sp,668
  82:	8000                	.2byte	0x8000
  84:	0000                	unimp
  86:	0000                	unimp
  88:	01c0                	addi	s0,sp,196
	...

Disassembly of section .debug_str:

0000000000000000 <.debug_str>:
   0:	30747263          	bgeu	s0,t2,304 <_prog_start-0x7ffffcfc>
   4:	532e                	lw	t1,232(sp)
   6:	2f00                	fld	fs0,24(a4)
   8:	6f68                	ld	a0,216(a4)
   a:	656d                	lui	a0,0x1b
   c:	6e69622f          	.4byte	0x6e69622f
  10:	6b68                	ld	a0,208(a4)
  12:	6569                	lui	a0,0x1a
  14:	6475                	lui	s0,0x1d
  16:	6f572f6f          	jal	t5,72f0a <_prog_start-0x7ff8d0f6>
  1a:	6b72                	ld	s6,280(sp)
  1c:	63617073          	csrci	0x636,2
  20:	2f65                	addiw	t5,t5,25
  22:	654e                	ld	a0,208(sp)
  24:	61724677          	.4byte	0x61724677
  28:	656d                	lui	a0,0x1b
  2a:	6b726f77          	.4byte	0x6b726f77
  2e:	6172662f          	.4byte	0x6172662f
  32:	656d                	lui	a0,0x1b
  34:	6b726f77          	.4byte	0x6b726f77
  38:	2f77732f          	.4byte	0x2f77732f
  3c:	616d                	addi	sp,sp,240
  3e:	7274                	ld	a3,224(a2)
  40:	7869                	lui	a6,0xffffa
  42:	6d5f 6c75 4700      	.byte	0x5f, 0x6d, 0x75, 0x6c, 0x00, 0x47
  48:	554e                	lw	a0,240(sp)
  4a:	4120                	lw	s0,64(a0)
  4c:	2e322053          	.4byte	0x2e322053
  50:	73003933          	.4byte	0x73003933
  54:	6f68                	ld	a0,216(a4)
  56:	7472                	ld	s0,312(sp)
  58:	6920                	ld	s0,80(a0)
  5a:	746e                	ld	s0,248(sp)
  5c:	5f00                	lw	s0,56(a4)
  5e:	745f 706d 6b00      	.byte	0x5f, 0x74, 0x6d, 0x70, 0x00, 0x6b
  64:	7270                	ld	a2,224(a2)
  66:	6e69                	lui	t3,0x1a
  68:	6674                	ld	a3,200(a2)
  6a:	6300                	ld	s0,0(a4)
  6c:	3065726f          	jal	tp,57372 <_prog_start-0x7ffa8c8e>
  70:	6d00                	ld	s0,24(a0)
  72:	6961                	lui	s2,0x18
  74:	006e                	c.slli	zero,0x1b
  76:	5f5f 6975 746e      	.byte	0x5f, 0x5f, 0x75, 0x69, 0x6e, 0x74
  7c:	745f3233          	.4byte	0x745f3233
  80:	7500                	ld	s0,40(a0)
  82:	7261                	lui	tp,0xffff8
  84:	0074                	addi	a3,sp,12
  86:	635f3173          	csrrc	sp,0x635,t5
  8a:	0030                	addi	a2,sp,8
  8c:	635f3173          	csrrc	sp,0x635,t5
  90:	0032                	c.slli	zero,0xc
  92:	5f74                	lw	a3,124(a4)
  94:	00706167          	.4byte	0x706167
  98:	5f74                	lw	a3,124(a4)
  9a:	72617473          	csrrci	s0,mhpmevent6h,2
  9e:	0074                	addi	a3,sp,12
  a0:	6f6c                	ld	a1,216(a4)
  a2:	676e                	ld	a4,216(sp)
  a4:	6920                	ld	s0,80(a0)
  a6:	746e                	ld	s0,248(sp)
  a8:	5f00                	lw	s0,56(a4)
  aa:	755f 6e69 3874      	.byte	0x5f, 0x75, 0x69, 0x6e, 0x74, 0x38
  b0:	745f 4700 554e      	.byte	0x5f, 0x74, 0x00, 0x47, 0x4e, 0x55
  b6:	4320                	lw	s0,64(a4)
  b8:	3131                	addiw	sp,sp,-20
  ba:	3120                	fld	fs0,96(a0)
  bc:	2e32                	fld	ft8,264(sp)
  be:	2e32                	fld	ft8,264(sp)
  c0:	2030                	fld	fa2,64(s0)
  c2:	6d2d                	lui	s10,0xb
  c4:	646f6d63          	bltu	t5,t1,71e <_prog_start-0x7ffff8e2>
  c8:	6c65                	lui	s8,0x19
  ca:	6d3d                	lui	s10,0xf
  cc:	6465                	lui	s0,0x19
  ce:	6e61                	lui	t3,0x18
  d0:	2079                	.2byte	0x2079
  d2:	6d2d                	lui	s10,0xb
  d4:	6261                	lui	tp,0x18
  d6:	3d69                	addiw	s10,s10,-6 # affa <_prog_start-0x7fff5006>
  d8:	706c                	ld	a1,224(s0)
  da:	3436                	fld	fs0,360(sp)
  dc:	2d20                	fld	fs0,88(a0)
  de:	746d                	lui	s0,0xffffb
  e0:	6e75                	lui	t3,0x1d
  e2:	3d65                	addiw	s10,s10,-7
  e4:	6f72                	ld	t5,280(sp)
  e6:	74656b63          	bltu	a0,t1,83c <_prog_start-0x7ffff7c4>
  ea:	2d20                	fld	fs0,88(a0)
  ec:	696d                	lui	s2,0x1b
  ee:	732d6173          	csrrsi	sp,mhpmevent18h,26
  f2:	6570                	ld	a2,200(a0)
  f4:	2e323d63          	.4byte	0x2e323d63
  f8:	2032                	fld	ft0,264(sp)
  fa:	6d2d                	lui	s10,0xb
  fc:	7261                	lui	tp,0xffff8
  fe:	723d6863          	bltu	s10,gp,82e <_prog_start-0x7ffff7d2>
 102:	3676                	fld	fa2,376(sp)
 104:	6934                	ld	a3,80(a0)
 106:	616d                	addi	sp,sp,240
 108:	6466                	ld	s0,88(sp)
 10a:	672d2063          	.4byte	0x672d2063
 10e:	2d20                	fld	fs0,88(a0)
 110:	7361664f          	fnmadd.d	fa2,ft2,fs6,fa4,unknown
 114:	2074                	fld	fa3,192(s0)
 116:	732d                	lui	t1,0xfffeb
 118:	6474                	ld	a3,200(s0)
 11a:	673d                	lui	a4,0xf
 11c:	756e                	ld	a0,248(sp)
 11e:	3131                	addiw	sp,sp,-20
 120:	2d20                	fld	fs0,88(a0)
 122:	6e66                	ld	t3,88(sp)
 124:	6f632d6f          	jal	s10,3281a <_prog_start-0x7ffcd7e6>
 128:	6d6d                	lui	s10,0x1b
 12a:	2d206e6f          	jal	t3,63fc <_prog_start-0x7fff9c04>
 12e:	6e66                	ld	t3,88(sp)
 130:	75622d6f          	jal	s10,22886 <_prog_start-0x7ffdd77a>
 134:	6c69                	lui	s8,0x1a
 136:	6974                	ld	a3,208(a0)
 138:	006e                	c.slli	zero,0x1b
 13a:	6e696c63          	bltu	s2,t1,832 <_prog_start-0x7ffff7ce>
 13e:	0074                	addi	a3,sp,12
 140:	635f3273          	csrrc	tp,0x635,t5
 144:	0030                	addi	a2,sp,8
 146:	635f3273          	csrrc	tp,0x635,t5
 14a:	0031                	c.nop	12
 14c:	635f3273          	csrrc	tp,0x635,t5
 150:	0032                	c.slli	zero,0xc
 152:	635f3273          	csrrc	tp,0x635,t5
 156:	6e750033          	.4byte	0x6e750033
 15a:	6e676973          	csrrsi	s2,0x6e6,14
 15e:	6465                	lui	s0,0x19
 160:	6320                	ld	s0,64(a4)
 162:	6168                	ld	a0,192(a0)
 164:	0072                	c.slli	zero,0x1c
 166:	65726f63          	bltu	tp,s7,7c4 <_prog_start-0x7ffff83c>
 16a:	0031                	c.nop	12
 16c:	65726f63          	bltu	tp,s7,7ca <_prog_start-0x7ffff836>
 170:	0032                	c.slli	zero,0xc
 172:	65726f63          	bltu	tp,s7,7d0 <_prog_start-0x7ffff830>
 176:	72610033          	.4byte	0x72610033
 17a:	73006367          	.4byte	0x73006367
 17e:	6f68                	ld	a0,216(a4)
 180:	7472                	ld	s0,312(sp)
 182:	7520                	ld	s0,104(a0)
 184:	736e                	ld	t1,248(sp)
 186:	6769                	lui	a4,0x1a
 188:	656e                	ld	a0,216(sp)
 18a:	2064                	fld	fs1,192(s0)
 18c:	6e69                	lui	t3,0x1a
 18e:	0074                	addi	a3,sp,12
 190:	616d                	addi	sp,sp,240
 192:	5f74                	lw	a3,124(a4)
 194:	0061                	c.nop	24
 196:	616d                	addi	sp,sp,240
 198:	5f74                	lw	a3,124(a4)
 19a:	0062                	c.slli	zero,0x18
 19c:	616d                	addi	sp,sp,240
 19e:	5f74                	lw	a3,124(a4)
 1a0:	6f6c0063          	beq	s8,s6,880 <_prog_start-0x7ffff780>
 1a4:	676e                	ld	a4,216(sp)
 1a6:	7520                	ld	s0,104(a0)
 1a8:	736e                	ld	t1,248(sp)
 1aa:	6769                	lui	a4,0x1a
 1ac:	656e                	ld	a0,216(sp)
 1ae:	2064                	fld	fs1,192(s0)
 1b0:	6e69                	lui	t3,0x1a
 1b2:	0074                	addi	a3,sp,12
 1b4:	635f3373          	csrrc	t1,0x635,t5
 1b8:	0030                	addi	a2,sp,8
 1ba:	635f3373          	csrrc	t1,0x635,t5
 1be:	0032                	c.slli	zero,0xc
 1c0:	5f74                	lw	a3,124(a4)
 1c2:	6e65                	lui	t3,0x19
 1c4:	0064                	addi	s1,sp,12
 1c6:	635f3073          	csrc	0x635,t5
 1ca:	0030                	addi	a2,sp,8
 1cc:	635f3073          	csrc	0x635,t5
 1d0:	0031                	c.nop	12
 1d2:	635f3073          	csrc	0x635,t5
 1d6:	0032                	c.slli	zero,0xc
 1d8:	635f3073          	csrc	0x635,t5
 1dc:	73690033          	.4byte	0x73690033
 1e0:	635f 6168 0072      	.byte	0x5f, 0x63, 0x68, 0x61, 0x72, 0x00
 1e6:	5f5f 7562 6c69      	.byte	0x5f, 0x5f, 0x62, 0x75, 0x69, 0x6c
 1ec:	6974                	ld	a3,208(a0)
 1ee:	5f6e                	lw	t5,248(sp)
 1f0:	6176                	ld	sp,344(sp)
 1f2:	6c5f 7369 0074      	.byte	0x5f, 0x6c, 0x69, 0x73, 0x74, 0x00
 1f8:	5f5f 6e69 3374      	.byte	0x5f, 0x5f, 0x69, 0x6e, 0x74, 0x33
 1fe:	5f32                	lw	t5,44(sp)
 200:	0074                	addi	a3,sp,12
 202:	7369                	lui	t1,0xffffa
 204:	6c5f 6e6f 0067      	.byte	0x5f, 0x6c, 0x6f, 0x6e, 0x67, 0x00
 20a:	5f5f 6e67 6375      	.byte	0x5f, 0x5f, 0x67, 0x6e, 0x75, 0x63
 210:	765f 5f61 696c      	.byte	0x5f, 0x76, 0x61, 0x5f, 0x6c, 0x69
 216:	69007473          	csrrci	s0,0x690,0
 21a:	6f665f73          	csrrwi	t5,0x6f6,12
 21e:	6d72                	ld	s10,280(sp)
 220:	7461                	lui	s0,0xffff8
 222:	5f00                	lw	s0,56(a4)
 224:	7475706b          	.4byte	0x7475706b
 228:	706b0073          	.4byte	0x706b0073
 22c:	7475                	lui	s0,0xffffd
 22e:	425f0063          	beq	t5,t0,64e <_prog_start-0x7ffff9b2>
 232:	006c6f6f          	jal	t5,c6238 <_prog_start-0x7ff39dc8>

Disassembly of section .debug_loclists:

0000000000000000 <.debug_loclists>:
       0:	0e89                	addi	t4,t4,2
       2:	0000                	unimp
       4:	0005                	c.nop	1
       6:	0008                	.2byte	0x8
       8:	0000                	unimp
       a:	0000                	unimp
       c:	0009e407          	.4byte	0x9e407
      10:	0080                	addi	s0,sp,64
      12:	0000                	unimp
      14:	1000                	addi	s0,sp,32
      16:	000a                	c.slli	zero,0x2
      18:	0080                	addi	s0,sp,64
      1a:	0000                	unimp
      1c:	0100                	addi	s0,sp,128
      1e:	075a                	slli	a4,a4,0x16
      20:	0a10                	addi	a2,sp,272
      22:	8000                	.2byte	0x8000
      24:	0000                	unimp
      26:	0000                	unimp
      28:	0d60                	addi	s0,sp,668
      2a:	8000                	.2byte	0x8000
      2c:	0000                	unimp
      2e:	0000                	unimp
      30:	a304                	fsd	fs1,0(a4)
      32:	5a01                	li	s4,-32
      34:	009f e407 0009      	.byte	0x9f, 0x00, 0x07, 0xe4, 0x09, 0x00
      3a:	0080                	addi	s0,sp,64
      3c:	0000                	unimp
      3e:	1300                	addi	s0,sp,416
      40:	000a                	c.slli	zero,0x2
      42:	0080                	addi	s0,sp,64
      44:	0000                	unimp
      46:	0100                	addi	s0,sp,128
      48:	0a13075b          	.4byte	0xa13075b
      4c:	8000                	.2byte	0x8000
      4e:	0000                	unimp
      50:	0000                	unimp
      52:	0d60                	addi	s0,sp,668
      54:	8000                	.2byte	0x8000
      56:	0000                	unimp
      58:	0000                	unimp
      5a:	a304                	fsd	fs1,0(a4)
      5c:	5b01                	li	s6,-32
      5e:	009f 1c07 000a      	.byte	0x9f, 0x00, 0x07, 0x1c, 0x0a, 0x00
      64:	0080                	addi	s0,sp,64
      66:	0000                	unimp
      68:	a800                	fsd	fs0,16(s0)
      6a:	000a                	c.slli	zero,0x2
      6c:	0080                	addi	s0,sp,64
      6e:	0000                	unimp
      70:	0100                	addi	s0,sp,128
      72:	0ae6075b          	.4byte	0xae6075b
      76:	8000                	.2byte	0x8000
      78:	0000                	unimp
      7a:	0000                	unimp
      7c:	0b18                	addi	a4,sp,400
      7e:	8000                	.2byte	0x8000
      80:	0000                	unimp
      82:	0000                	unimp
      84:	5801                	li	a6,-32
      86:	000b3207          	fld	ft4,0(s6)
      8a:	0080                	addi	s0,sp,64
      8c:	0000                	unimp
      8e:	3800                	fld	fs0,48(s0)
      90:	000c                	.2byte	0xc
      92:	0080                	addi	s0,sp,64
      94:	0000                	unimp
      96:	0100                	addi	s0,sp,128
      98:	0758                	addi	a4,sp,900
      9a:	0c50                	addi	a2,sp,532
      9c:	8000                	.2byte	0x8000
      9e:	0000                	unimp
      a0:	0000                	unimp
      a2:	0d44                	addi	s1,sp,660
      a4:	8000                	.2byte	0x8000
      a6:	0000                	unimp
      a8:	0000                	unimp
      aa:	5801                	li	a6,-32
      ac:	0700                	addi	s0,sp,896
      ae:	0a9c                	addi	a5,sp,336
      b0:	8000                	.2byte	0x8000
      b2:	0000                	unimp
      b4:	0000                	unimp
      b6:	80000aab          	.4byte	0x80000aab
      ba:	0000                	unimp
      bc:	0000                	unimp
      be:	5f01                	li	t5,-32
      c0:	000afa07          	.4byte	0xafa07
      c4:	0080                	addi	s0,sp,64
      c6:	0000                	unimp
      c8:	0400                	addi	s0,sp,512
      ca:	0080000b          	.4byte	0x80000b
      ce:	0000                	unimp
      d0:	0100                	addi	s0,sp,128
      d2:	0c26075b          	.4byte	0xc26075b
      d6:	8000                	.2byte	0x8000
      d8:	0000                	unimp
      da:	0000                	unimp
      dc:	0c30                	addi	a2,sp,536
      de:	8000                	.2byte	0x8000
      e0:	0000                	unimp
      e2:	0000                	unimp
      e4:	5b01                	li	s6,-32
      e6:	000cf207          	.4byte	0xcf207
      ea:	0080                	addi	s0,sp,64
      ec:	0000                	unimp
      ee:	fc00                	sd	s0,56(s0)
      f0:	000c                	.2byte	0xc
      f2:	0080                	addi	s0,sp,64
      f4:	0000                	unimp
      f6:	0100                	addi	s0,sp,128
      f8:	9c07005b          	.4byte	0x9c07005b
      fc:	000a                	c.slli	zero,0x2
      fe:	0080                	addi	s0,sp,64
     100:	0000                	unimp
     102:	a800                	fsd	fs0,16(s0)
     104:	000a                	c.slli	zero,0x2
     106:	0080                	addi	s0,sp,64
     108:	0000                	unimp
     10a:	0a00                	addi	s0,sp,272
     10c:	007f                	.2byte	0x7f
     10e:	9f1c007b          	.4byte	0x9f1c007b
     112:	0c930493          	addi	s1,t1,201 # ffffffffffffa0c9 <a+0xffffffff7fff90f9>
     116:	000afa07          	.4byte	0xafa07
     11a:	0080                	addi	s0,sp,64
     11c:	0000                	unimp
     11e:	0400                	addi	s0,sp,512
     120:	0080000b          	.4byte	0x80000b
     124:	0000                	unimp
     126:	0c00                	addi	s0,sp,528
     128:	007b0493          	addi	s1,s6,7
     12c:	0078                	addi	a4,sp,12
     12e:	9f1c                	.2byte	0x9f1c
     130:	08930493          	addi	s1,t1,137
     134:	000c2607          	flw	fa2,0(s8) # 1a000 <_prog_start-0x7ffe6000>
     138:	0080                	addi	s0,sp,64
     13a:	0000                	unimp
     13c:	3000                	fld	fs0,32(s0)
     13e:	000c                	.2byte	0xc
     140:	0080                	addi	s0,sp,64
     142:	0000                	unimp
     144:	0c00                	addi	s0,sp,528
     146:	007b0893          	addi	a7,s6,7
     14a:	0078                	addi	a4,sp,12
     14c:	9f1c                	.2byte	0x9f1c
     14e:	04930493          	addi	s1,t1,73
     152:	000cf207          	.4byte	0xcf207
     156:	0080                	addi	s0,sp,64
     158:	0000                	unimp
     15a:	fc00                	sd	s0,56(s0)
     15c:	000c                	.2byte	0xc
     15e:	0080                	addi	s0,sp,64
     160:	0000                	unimp
     162:	0a00                	addi	s0,sp,272
     164:	007b0c93          	addi	s9,s6,7
     168:	0078                	addi	a4,sp,12
     16a:	9f1c                	.2byte	0x9f1c
     16c:	07000493          	li	s1,112
     170:	0c50                	addi	a2,sp,532
     172:	8000                	.2byte	0x8000
     174:	0000                	unimp
     176:	0000                	unimp
     178:	0c5e                	slli	s8,s8,0x17
     17a:	8000                	.2byte	0x8000
     17c:	0000                	unimp
     17e:	0000                	unimp
     180:	5805                	li	a6,-31
     182:	0c930493          	addi	s1,t1,201
     186:	000c5e07          	.4byte	0xc5e07
     18a:	0080                	addi	s0,sp,64
     18c:	0000                	unimp
     18e:	ae00                	fsd	fs0,24(a2)
     190:	000c                	.2byte	0xc
     192:	0080                	addi	s0,sp,64
     194:	0000                	unimp
     196:	0800                	addi	s0,sp,16
     198:	9358                	.2byte	0x9358
     19a:	6504                	ld	s1,8(a0)
     19c:	08930493          	addi	s1,t1,137
     1a0:	000cae07          	flw	ft8,0(s9)
     1a4:	0080                	addi	s0,sp,64
     1a6:	0000                	unimp
     1a8:	bc00                	fsd	fs0,56(s0)
     1aa:	000c                	.2byte	0xc
     1ac:	0080                	addi	s0,sp,64
     1ae:	0000                	unimp
     1b0:	0b00                	addi	s0,sp,400
     1b2:	9358                	.2byte	0x9358
     1b4:	6504                	ld	s1,8(a0)
     1b6:	93690493          	addi	s1,s2,-1738 # 1a936 <_prog_start-0x7ffe56ca>
     1ba:	9304                	.2byte	0x9304
     1bc:	0704                	addi	s1,sp,896
     1be:	0cbc                	addi	a5,sp,600
     1c0:	8000                	.2byte	0x8000
     1c2:	0000                	unimp
     1c4:	0000                	unimp
     1c6:	0d44                	addi	s1,sp,660
     1c8:	8000                	.2byte	0x8000
     1ca:	0000                	unimp
     1cc:	0000                	unimp
     1ce:	580c                	lw	a1,48(s0)
     1d0:	93650493          	addi	s1,a0,-1738 # 1a936 <_prog_start-0x7ffe56ca>
     1d4:	6904                	ld	s1,16(a0)
     1d6:	93680493          	addi	s1,a6,-1738 # ffffffffffff9936 <a+0xffffffff7fff8966>
     1da:	0704                	addi	s1,sp,896
     1dc:	0d44                	addi	s1,sp,660
     1de:	8000                	.2byte	0x8000
     1e0:	0000                	unimp
     1e2:	0000                	unimp
     1e4:	0d4e                	slli	s10,s10,0x13
     1e6:	8000                	.2byte	0x8000
     1e8:	0000                	unimp
     1ea:	0000                	unimp
     1ec:	6504930b          	.4byte	0x6504930b
     1f0:	93690493          	addi	s1,s2,-1738
     1f4:	6804                	ld	s1,16(s0)
     1f6:	4e070493          	addi	s1,a4,1248 # 1a4e0 <_prog_start-0x7ffe5b20>
     1fa:	000d                	c.nop	3
     1fc:	0080                	addi	s0,sp,64
     1fe:	0000                	unimp
     200:	5400                	lw	s0,40(s0)
     202:	000d                	c.nop	3
     204:	0080                	addi	s0,sp,64
     206:	0000                	unimp
     208:	0800                	addi	s0,sp,16
     20a:	93690893          	addi	a7,s2,-1738
     20e:	6804                	ld	s1,16(s0)
     210:	54070493          	addi	s1,a4,1344
     214:	000d                	c.nop	3
     216:	0080                	addi	s0,sp,64
     218:	0000                	unimp
     21a:	5600                	lw	s0,40(a2)
     21c:	000d                	c.nop	3
     21e:	0080                	addi	s0,sp,64
     220:	0000                	unimp
     222:	0700                	addi	s0,sp,896
     224:	93690893          	addi	a7,s2,-1738
     228:	9304                	.2byte	0x9304
     22a:	0004                	.2byte	0x4
     22c:	000c5607          	.4byte	0xc5607
     230:	0080                	addi	s0,sp,64
     232:	0000                	unimp
     234:	9200                	.2byte	0x9200
     236:	000c                	.2byte	0xc
     238:	0080                	addi	s0,sp,64
     23a:	0000                	unimp
     23c:	0500                	addi	s0,sp,640
     23e:	93049367          	.4byte	0x93049367
     242:	070c                	addi	a1,sp,896
     244:	0c92                	slli	s9,s9,0x4
     246:	8000                	.2byte	0x8000
     248:	0000                	unimp
     24a:	0000                	unimp
     24c:	0cb4                	addi	a3,sp,600
     24e:	8000                	.2byte	0x8000
     250:	0000                	unimp
     252:	0000                	unimp
     254:	6708                	ld	a0,8(a4)
     256:	936a0493          	addi	s1,s4,-1738
     25a:	9304                	.2byte	0x9304
     25c:	0708                	addi	a0,sp,896
     25e:	0cb4                	addi	a3,sp,600
     260:	8000                	.2byte	0x8000
     262:	0000                	unimp
     264:	0000                	unimp
     266:	0cee                	slli	s9,s9,0x1b
     268:	8000                	.2byte	0x8000
     26a:	0000                	unimp
     26c:	0000                	unimp
     26e:	0493670b          	.4byte	0x493670b
     272:	936a                	add	t1,t1,s10
     274:	6b04                	ld	s1,16(a4)
     276:	04930493          	addi	s1,t1,73
     27a:	000cee07          	.4byte	0xcee07
     27e:	0080                	addi	s0,sp,64
     280:	0000                	unimp
     282:	4600                	lw	s0,8(a2)
     284:	000d                	c.nop	3
     286:	0080                	addi	s0,sp,64
     288:	0000                	unimp
     28a:	0c00                	addi	s0,sp,528
     28c:	6a049367          	.4byte	0x6a049367
     290:	936b0493          	addi	s1,s6,-1738
     294:	5904                	lw	s1,48(a0)
     296:	46070493          	addi	s1,a4,1120
     29a:	000d                	c.nop	3
     29c:	0080                	addi	s0,sp,64
     29e:	0000                	unimp
     2a0:	5200                	lw	s0,32(a2)
     2a2:	000d                	c.nop	3
     2a4:	0080                	addi	s0,sp,64
     2a6:	0000                	unimp
     2a8:	0b00                	addi	s0,sp,400
     2aa:	6a049367          	.4byte	0x6a049367
     2ae:	936b0493          	addi	s1,s6,-1738
     2b2:	9304                	.2byte	0x9304
     2b4:	0704                	addi	s1,sp,896
     2b6:	0d52                	slli	s10,s10,0x14
     2b8:	8000                	.2byte	0x8000
     2ba:	0000                	unimp
     2bc:	0000                	unimp
     2be:	0d58                	addi	a4,sp,660
     2c0:	8000                	.2byte	0x8000
     2c2:	0000                	unimp
     2c4:	0000                	unimp
     2c6:	930a                	add	t1,t1,sp
     2c8:	6a04                	ld	s1,16(a2)
     2ca:	936b0493          	addi	s1,s6,-1738
     2ce:	9304                	.2byte	0x9304
     2d0:	0704                	addi	s1,sp,896
     2d2:	0d58                	addi	a4,sp,660
     2d4:	8000                	.2byte	0x8000
     2d6:	0000                	unimp
     2d8:	0000                	unimp
     2da:	0d5a                	slli	s10,s10,0x16
     2dc:	8000                	.2byte	0x8000
     2de:	0000                	unimp
     2e0:	0000                	unimp
     2e2:	6b089307          	.4byte	0x6b089307
     2e6:	04930493          	addi	s1,t1,73
     2ea:	0700                	addi	s0,sp,896
     2ec:	0a18                	addi	a4,sp,272
     2ee:	8000                	.2byte	0x8000
     2f0:	0000                	unimp
     2f2:	0000                	unimp
     2f4:	0a1c                	addi	a5,sp,272
     2f6:	8000                	.2byte	0x8000
     2f8:	0000                	unimp
     2fa:	0000                	unimp
     2fc:	5b01                	li	s6,-32
     2fe:	0700                	addi	s0,sp,896
     300:	0a1c                	addi	a5,sp,272
     302:	8000                	.2byte	0x8000
     304:	0000                	unimp
     306:	0000                	unimp
     308:	0a42                	slli	s4,s4,0x10
     30a:	8000                	.2byte	0x8000
     30c:	0000                	unimp
     30e:	0000                	unimp
     310:	3002                	fld	ft0,32(sp)
     312:	079f 0a42 8000      	.byte	0x9f, 0x07, 0x42, 0x0a, 0x00, 0x80
     318:	0000                	unimp
     31a:	0000                	unimp
     31c:	0a92                	slli	s5,s5,0x4
     31e:	8000                	.2byte	0x8000
     320:	0000                	unimp
     322:	0000                	unimp
     324:	5101                	li	sp,-32
     326:	0700                	addi	s0,sp,896
     328:	0a42                	slli	s4,s4,0x10
     32a:	8000                	.2byte	0x8000
     32c:	0000                	unimp
     32e:	0000                	unimp
     330:	0a50                	addi	a2,sp,276
     332:	8000                	.2byte	0x8000
     334:	0000                	unimp
     336:	0000                	unimp
     338:	3002                	fld	ft0,32(sp)
     33a:	079f 0a50 8000      	.byte	0x9f, 0x07, 0x50, 0x0a, 0x00, 0x80
     340:	0000                	unimp
     342:	0000                	unimp
     344:	0a8a                	slli	s5,s5,0x2
     346:	8000                	.2byte	0x8000
     348:	0000                	unimp
     34a:	0000                	unimp
     34c:	6e01                	.2byte	0x6e01
     34e:	0700                	addi	s0,sp,896
     350:	0a50                	addi	a2,sp,276
     352:	8000                	.2byte	0x8000
     354:	0000                	unimp
     356:	0000                	unimp
     358:	0a58                	addi	a4,sp,276
     35a:	8000                	.2byte	0x8000
     35c:	0000                	unimp
     35e:	0000                	unimp
     360:	3002                	fld	ft0,32(sp)
     362:	079f 0a58 8000      	.byte	0x9f, 0x07, 0x58, 0x0a, 0x00, 0x80
     368:	0000                	unimp
     36a:	0000                	unimp
     36c:	0a7e                	slli	s4,s4,0x1f
     36e:	8000                	.2byte	0x8000
     370:	0000                	unimp
     372:	0000                	unimp
     374:	7e0e                	ld	t3,224(sp)
     376:	7100                	ld	s0,32(a0)
     378:	0800                	addi	s0,sp,16
     37a:	2420                	fld	fs0,72(s0)
     37c:	2008                	fld	fa0,0(s0)
     37e:	1c26                	slli	s8,s8,0x29
     380:	2536                	fld	fa0,328(sp)
     382:	079f 0a7e 8000      	.byte	0x9f, 0x07, 0x7e, 0x0a, 0x00, 0x80
     388:	0000                	unimp
     38a:	0000                	unimp
     38c:	0a84                	addi	s1,sp,336
     38e:	8000                	.2byte	0x8000
     390:	0000                	unimp
     392:	0000                	unimp
     394:	7e11                	lui	t3,0xfffe4
     396:	7100                	ld	s0,32(a0)
     398:	0800                	addi	s0,sp,16
     39a:	2420                	fld	fs0,72(s0)
     39c:	2008                	fld	fa0,0(s0)
     39e:	1c26                	slli	s8,s8,0x29
     3a0:	4008                	lw	a0,0(s0)
     3a2:	361c                	fld	fa5,40(a2)
     3a4:	9f25                	addw	a4,a4,s1
     3a6:	0700                	addi	s0,sp,896
     3a8:	0a9c                	addi	a5,sp,336
     3aa:	8000                	.2byte	0x8000
     3ac:	0000                	unimp
     3ae:	0000                	unimp
     3b0:	80000aab          	.4byte	0x80000aab
     3b4:	0000                	unimp
     3b6:	0000                	unimp
     3b8:	5f01                	li	t5,-32
     3ba:	0700                	addi	s0,sp,896
     3bc:	0aac                	addi	a1,sp,344
     3be:	8000                	.2byte	0x8000
     3c0:	0000                	unimp
     3c2:	0000                	unimp
     3c4:	0ac0                	addi	s0,sp,340
     3c6:	8000                	.2byte	0x8000
     3c8:	0000                	unimp
     3ca:	0000                	unimp
     3cc:	3002                	fld	ft0,32(sp)
     3ce:	079f 0ac0 8000      	.byte	0x9f, 0x07, 0xc0, 0x0a, 0x00, 0x80
     3d4:	0000                	unimp
     3d6:	0000                	unimp
     3d8:	0ad6                	slli	s5,s5,0x15
     3da:	8000                	.2byte	0x8000
     3dc:	0000                	unimp
     3de:	0000                	unimp
     3e0:	7c05                	lui	s8,0xfffe1
     3e2:	3640                	fld	fs0,168(a2)
     3e4:	9f25                	addw	a4,a4,s1
     3e6:	000ad607          	.4byte	0xad607
     3ea:	0080                	addi	s0,sp,64
     3ec:	0000                	unimp
     3ee:	da00                	sw	s0,48(a2)
     3f0:	000a                	c.slli	zero,0x2
     3f2:	0080                	addi	s0,sp,64
     3f4:	0000                	unimp
     3f6:	0700                	addi	s0,sp,896
     3f8:	407c                	lw	a5,68(s0)
     3fa:	2536                	fld	fa0,328(sp)
     3fc:	079f0123          	sb	s9,98(t5)
     400:	0ada                	slli	s5,s5,0x16
     402:	8000                	.2byte	0x8000
     404:	0000                	unimp
     406:	0000                	unimp
     408:	0af5                	addi	s5,s5,29
     40a:	8000                	.2byte	0x8000
     40c:	0000                	unimp
     40e:	0000                	unimp
     410:	7c08                	ld	a0,56(s0)
     412:	7f80                	ld	s0,56(a5)
     414:	2536                	fld	fa0,328(sp)
     416:	009f0123          	sb	s1,2(t5)
     41a:	000ac007          	.4byte	0xac007
     41e:	0080                	addi	s0,sp,64
     420:	0000                	unimp
     422:	c200                	sw	s0,0(a2)
     424:	000a                	c.slli	zero,0x2
     426:	0080                	addi	s0,sp,64
     428:	0000                	unimp
     42a:	0200                	addi	s0,sp,256
     42c:	9f30                	.2byte	0x9f30
     42e:	000ac207          	.4byte	0xac207
     432:	0080                	addi	s0,sp,64
     434:	0000                	unimp
     436:	ce00                	sw	s0,24(a2)
     438:	000a                	c.slli	zero,0x2
     43a:	0080                	addi	s0,sp,64
     43c:	0000                	unimp
     43e:	0600                	addi	s0,sp,768
     440:	007f                	.2byte	0x7f
     442:	0080                	addi	s0,sp,64
     444:	9f1c                	.2byte	0x9f1c
     446:	0700                	addi	s0,sp,896
     448:	0ae6                	slli	s5,s5,0x19
     44a:	8000                	.2byte	0x8000
     44c:	0000                	unimp
     44e:	0000                	unimp
     450:	0b18                	addi	a4,sp,400
     452:	8000                	.2byte	0x8000
     454:	0000                	unimp
     456:	0000                	unimp
     458:	5801                	li	a6,-32
     45a:	0700                	addi	s0,sp,896
     45c:	0afa                	slli	s5,s5,0x1e
     45e:	8000                	.2byte	0x8000
     460:	0000                	unimp
     462:	0000                	unimp
     464:	0b04                	addi	s1,sp,400
     466:	8000                	.2byte	0x8000
     468:	0000                	unimp
     46a:	0000                	unimp
     46c:	5b01                	li	s6,-32
     46e:	0700                	addi	s0,sp,896
     470:	0b18                	addi	a4,sp,400
     472:	8000                	.2byte	0x8000
     474:	0000                	unimp
     476:	0000                	unimp
     478:	0b32                	slli	s6,s6,0xc
     47a:	8000                	.2byte	0x8000
     47c:	0000                	unimp
     47e:	0000                	unimp
     480:	5801                	li	a6,-32
     482:	0700                	addi	s0,sp,896
     484:	0c26                	slli	s8,s8,0x9
     486:	8000                	.2byte	0x8000
     488:	0000                	unimp
     48a:	0000                	unimp
     48c:	0c30                	addi	a2,sp,536
     48e:	8000                	.2byte	0x8000
     490:	0000                	unimp
     492:	0000                	unimp
     494:	5b01                	li	s6,-32
     496:	0700                	addi	s0,sp,896
     498:	0c38                	addi	a4,sp,536
     49a:	8000                	.2byte	0x8000
     49c:	0000                	unimp
     49e:	0000                	unimp
     4a0:	0c50                	addi	a2,sp,532
     4a2:	8000                	.2byte	0x8000
     4a4:	0000                	unimp
     4a6:	0000                	unimp
     4a8:	5801                	li	a6,-32
     4aa:	0700                	addi	s0,sp,896
     4ac:	0c54                	addi	a3,sp,532
     4ae:	8000                	.2byte	0x8000
     4b0:	0000                	unimp
     4b2:	0000                	unimp
     4b4:	0c56                	slli	s8,s8,0x15
     4b6:	8000                	.2byte	0x8000
     4b8:	0000                	unimp
     4ba:	0000                	unimp
     4bc:	6701                	.2byte	0x6701
     4be:	0700                	addi	s0,sp,896
     4c0:	0c5a                	slli	s8,s8,0x16
     4c2:	8000                	.2byte	0x8000
     4c4:	0000                	unimp
     4c6:	0000                	unimp
     4c8:	0c5e                	slli	s8,s8,0x17
     4ca:	8000                	.2byte	0x8000
     4cc:	0000                	unimp
     4ce:	0000                	unimp
     4d0:	6501                	.2byte	0x6501
     4d2:	0700                	addi	s0,sp,896
     4d4:	0c90                	addi	a2,sp,592
     4d6:	8000                	.2byte	0x8000
     4d8:	0000                	unimp
     4da:	0000                	unimp
     4dc:	0c92                	slli	s9,s9,0x4
     4de:	8000                	.2byte	0x8000
     4e0:	0000                	unimp
     4e2:	0000                	unimp
     4e4:	6a01                	.2byte	0x6a01
     4e6:	0700                	addi	s0,sp,896
     4e8:	0c96                	slli	s9,s9,0x5
     4ea:	8000                	.2byte	0x8000
     4ec:	0000                	unimp
     4ee:	0000                	unimp
     4f0:	0cae                	slli	s9,s9,0xb
     4f2:	8000                	.2byte	0x8000
     4f4:	0000                	unimp
     4f6:	0000                	unimp
     4f8:	6901                	.2byte	0x6901
     4fa:	0700                	addi	s0,sp,896
     4fc:	0cb2                	slli	s9,s9,0xc
     4fe:	8000                	.2byte	0x8000
     500:	0000                	unimp
     502:	0000                	unimp
     504:	0cb4                	addi	a3,sp,600
     506:	8000                	.2byte	0x8000
     508:	0000                	unimp
     50a:	0000                	unimp
     50c:	6b01                	.2byte	0x6b01
     50e:	0700                	addi	s0,sp,896
     510:	0cb8                	addi	a4,sp,600
     512:	8000                	.2byte	0x8000
     514:	0000                	unimp
     516:	0000                	unimp
     518:	0cbc                	addi	a5,sp,600
     51a:	8000                	.2byte	0x8000
     51c:	0000                	unimp
     51e:	0000                	unimp
     520:	6801                	.2byte	0x6801
     522:	0700                	addi	s0,sp,896
     524:	0cee                	slli	s9,s9,0x1b
     526:	8000                	.2byte	0x8000
     528:	0000                	unimp
     52a:	0000                	unimp
     52c:	0d46                	slli	s10,s10,0x11
     52e:	8000                	.2byte	0x8000
     530:	0000                	unimp
     532:	0000                	unimp
     534:	5901                	li	s2,-32
     536:	0700                	addi	s0,sp,896
     538:	0cf2                	slli	s9,s9,0x1c
     53a:	8000                	.2byte	0x8000
     53c:	0000                	unimp
     53e:	0000                	unimp
     540:	0cfc                	addi	a5,sp,604
     542:	8000                	.2byte	0x8000
     544:	0000                	unimp
     546:	0000                	unimp
     548:	5b01                	li	s6,-32
     54a:	0700                	addi	s0,sp,896
     54c:	0b32                	slli	s6,s6,0xc
     54e:	8000                	.2byte	0x8000
     550:	0000                	unimp
     552:	0000                	unimp
     554:	0b48                	addi	a0,sp,404
     556:	8000                	.2byte	0x8000
     558:	0000                	unimp
     55a:	0000                	unimp
     55c:	3002                	fld	ft0,32(sp)
     55e:	079f 0b48 8000      	.byte	0x9f, 0x07, 0x48, 0x0b, 0x00, 0x80
     564:	0000                	unimp
     566:	0000                	unimp
     568:	0b64                	addi	s1,sp,412
     56a:	8000                	.2byte	0x8000
     56c:	0000                	unimp
     56e:	0000                	unimp
     570:	5f01                	li	t5,-32
     572:	0700                	addi	s0,sp,896
     574:	0b8c                	addi	a1,sp,464
     576:	8000                	.2byte	0x8000
     578:	0000                	unimp
     57a:	0000                	unimp
     57c:	0ba4                	addi	s1,sp,472
     57e:	8000                	.2byte	0x8000
     580:	0000                	unimp
     582:	0000                	unimp
     584:	5f01                	li	t5,-32
     586:	0700                	addi	s0,sp,896
     588:	0bbe                	slli	s7,s7,0xf
     58a:	8000                	.2byte	0x8000
     58c:	0000                	unimp
     58e:	0000                	unimp
     590:	0bcc                	addi	a1,sp,468
     592:	8000                	.2byte	0x8000
     594:	0000                	unimp
     596:	0000                	unimp
     598:	3002                	fld	ft0,32(sp)
     59a:	079f 0bcc 8000      	.byte	0x9f, 0x07, 0xcc, 0x0b, 0x00, 0x80
     5a0:	0000                	unimp
     5a2:	0000                	unimp
     5a4:	0be8                	addi	a0,sp,476
     5a6:	8000                	.2byte	0x8000
     5a8:	0000                	unimp
     5aa:	0000                	unimp
     5ac:	5f01                	li	t5,-32
     5ae:	0700                	addi	s0,sp,896
     5b0:	0c00                	addi	s0,sp,528
     5b2:	8000                	.2byte	0x8000
     5b4:	0000                	unimp
     5b6:	0000                	unimp
     5b8:	0c18                	addi	a4,sp,528
     5ba:	8000                	.2byte	0x8000
     5bc:	0000                	unimp
     5be:	0000                	unimp
     5c0:	5f01                	li	t5,-32
     5c2:	0700                	addi	s0,sp,896
     5c4:	0c62                	slli	s8,s8,0x18
     5c6:	8000                	.2byte	0x8000
     5c8:	0000                	unimp
     5ca:	0000                	unimp
     5cc:	0c66                	slli	s8,s8,0x19
     5ce:	8000                	.2byte	0x8000
     5d0:	0000                	unimp
     5d2:	0000                	unimp
     5d4:	3002                	fld	ft0,32(sp)
     5d6:	079f 0c66 8000      	.byte	0x9f, 0x07, 0x66, 0x0c, 0x00, 0x80
     5dc:	0000                	unimp
     5de:	0000                	unimp
     5e0:	0c82                	c.slli64	s9
     5e2:	8000                	.2byte	0x8000
     5e4:	0000                	unimp
     5e6:	0000                	unimp
     5e8:	5f01                	li	t5,-32
     5ea:	0700                	addi	s0,sp,896
     5ec:	0cc0                	addi	s0,sp,596
     5ee:	8000                	.2byte	0x8000
     5f0:	0000                	unimp
     5f2:	0000                	unimp
     5f4:	0cc4                	addi	s1,sp,596
     5f6:	8000                	.2byte	0x8000
     5f8:	0000                	unimp
     5fa:	0000                	unimp
     5fc:	3002                	fld	ft0,32(sp)
     5fe:	079f 0cc4 8000      	.byte	0x9f, 0x07, 0xc4, 0x0c, 0x00, 0x80
     604:	0000                	unimp
     606:	0000                	unimp
     608:	0ce0                	addi	s0,sp,604
     60a:	8000                	.2byte	0x8000
     60c:	0000                	unimp
     60e:	0000                	unimp
     610:	5f01                	li	t5,-32
     612:	0700                	addi	s0,sp,896
     614:	094c                	addi	a1,sp,148
     616:	8000                	.2byte	0x8000
     618:	0000                	unimp
     61a:	0000                	unimp
     61c:	0982                	c.slli64	s3
     61e:	8000                	.2byte	0x8000
     620:	0000                	unimp
     622:	0000                	unimp
     624:	9f300803          	lb	a6,-1549(zero) # fffffffffffff9f3 <a+0xffffffff7fffea23>
     628:	00098207          	.4byte	0x98207
     62c:	0080                	addi	s0,sp,64
     62e:	0000                	unimp
     630:	d400                	sw	s0,40(s0)
     632:	0009                	c.nop	2
     634:	0080                	addi	s0,sp,64
     636:	0000                	unimp
     638:	0100                	addi	s0,sp,128
     63a:	0058                	addi	a4,sp,4
     63c:	00098207          	.4byte	0x98207
     640:	0080                	addi	s0,sp,64
     642:	0000                	unimp
     644:	9000                	.2byte	0x9000
     646:	0009                	c.nop	2
     648:	0080                	addi	s0,sp,64
     64a:	0000                	unimp
     64c:	0200                	addi	s0,sp,256
     64e:	9f30                	.2byte	0x9f30
     650:	00099007          	.4byte	0x99007
     654:	0080                	addi	s0,sp,64
     656:	0000                	unimp
     658:	cc00                	sw	s0,24(s0)
     65a:	0009                	c.nop	2
     65c:	0080                	addi	s0,sp,64
     65e:	0000                	unimp
     660:	0100                	addi	s0,sp,128
     662:	006e                	c.slli	zero,0x1b
     664:	00099007          	.4byte	0x99007
     668:	0080                	addi	s0,sp,64
     66a:	0000                	unimp
     66c:	9800                	.2byte	0x9800
     66e:	0009                	c.nop	2
     670:	0080                	addi	s0,sp,64
     672:	0000                	unimp
     674:	0200                	addi	s0,sp,256
     676:	9f30                	.2byte	0x9f30
     678:	00099807          	.4byte	0x99807
     67c:	0080                	addi	s0,sp,64
     67e:	0000                	unimp
     680:	c000                	sw	s0,0(s0)
     682:	0009                	c.nop	2
     684:	0080                	addi	s0,sp,64
     686:	0000                	unimp
     688:	0e00                	addi	s0,sp,784
     68a:	007e                	c.slli	zero,0x1f
     68c:	0078                	addi	a4,sp,12
     68e:	2008                	fld	fa0,0(s0)
     690:	0824                	addi	s1,sp,24
     692:	2620                	fld	fs0,72(a2)
     694:	361c                	fld	fa5,40(a2)
     696:	9f25                	addw	a4,a4,s1
     698:	0009c007          	.4byte	0x9c007
     69c:	0080                	addi	s0,sp,64
     69e:	0000                	unimp
     6a0:	c600                	sw	s0,8(a2)
     6a2:	0009                	c.nop	2
     6a4:	0080                	addi	s0,sp,64
     6a6:	0000                	unimp
     6a8:	1100                	addi	s0,sp,160
     6aa:	007e                	c.slli	zero,0x1f
     6ac:	0078                	addi	a4,sp,12
     6ae:	2008                	fld	fa0,0(s0)
     6b0:	0824                	addi	s1,sp,24
     6b2:	2620                	fld	fs0,72(a2)
     6b4:	081c                	addi	a5,sp,16
     6b6:	1c40                	addi	s0,sp,564
     6b8:	2536                	fld	fa0,328(sp)
     6ba:	009f ac07 0008      	.byte	0x9f, 0x00, 0x07, 0xac, 0x08, 0x00
     6c0:	0080                	addi	s0,sp,64
     6c2:	0000                	unimp
     6c4:	e800                	sd	s0,16(s0)
     6c6:	0008                	.2byte	0x8
     6c8:	0080                	addi	s0,sp,64
     6ca:	0000                	unimp
     6cc:	0300                	addi	s0,sp,384
     6ce:	2008                	fld	fa0,0(s0)
     6d0:	079f 08e8 8000      	.byte	0x9f, 0x07, 0xe8, 0x08, 0x00, 0x80
     6d6:	0000                	unimp
     6d8:	0000                	unimp
     6da:	093a                	slli	s2,s2,0xe
     6dc:	8000                	.2byte	0x8000
     6de:	0000                	unimp
     6e0:	0000                	unimp
     6e2:	5801                	li	a6,-32
     6e4:	0700                	addi	s0,sp,896
     6e6:	08e8                	addi	a0,sp,92
     6e8:	8000                	.2byte	0x8000
     6ea:	0000                	unimp
     6ec:	0000                	unimp
     6ee:	08f6                	slli	a7,a7,0x1d
     6f0:	8000                	.2byte	0x8000
     6f2:	0000                	unimp
     6f4:	0000                	unimp
     6f6:	3002                	fld	ft0,32(sp)
     6f8:	079f 08f6 8000      	.byte	0x9f, 0x07, 0xf6, 0x08, 0x00, 0x80
     6fe:	0000                	unimp
     700:	0000                	unimp
     702:	0932                	slli	s2,s2,0xc
     704:	8000                	.2byte	0x8000
     706:	0000                	unimp
     708:	0000                	unimp
     70a:	6e01                	.2byte	0x6e01
     70c:	0700                	addi	s0,sp,896
     70e:	08f6                	slli	a7,a7,0x1d
     710:	8000                	.2byte	0x8000
     712:	0000                	unimp
     714:	0000                	unimp
     716:	08fe                	slli	a7,a7,0x1f
     718:	8000                	.2byte	0x8000
     71a:	0000                	unimp
     71c:	0000                	unimp
     71e:	3002                	fld	ft0,32(sp)
     720:	079f 08fe 8000      	.byte	0x9f, 0x07, 0xfe, 0x08, 0x00, 0x80
     726:	0000                	unimp
     728:	0000                	unimp
     72a:	0926                	slli	s2,s2,0x9
     72c:	8000                	.2byte	0x8000
     72e:	0000                	unimp
     730:	0000                	unimp
     732:	7e0e                	ld	t3,224(sp)
     734:	7800                	ld	s0,48(s0)
     736:	0800                	addi	s0,sp,16
     738:	2420                	fld	fs0,72(s0)
     73a:	2008                	fld	fa0,0(s0)
     73c:	1c26                	slli	s8,s8,0x29
     73e:	2536                	fld	fa0,328(sp)
     740:	079f 0926 8000      	.byte	0x9f, 0x07, 0x26, 0x09, 0x00, 0x80
     746:	0000                	unimp
     748:	0000                	unimp
     74a:	092c                	addi	a1,sp,152
     74c:	8000                	.2byte	0x8000
     74e:	0000                	unimp
     750:	0000                	unimp
     752:	7e11                	lui	t3,0xfffe4
     754:	7800                	ld	s0,48(s0)
     756:	0800                	addi	s0,sp,16
     758:	2420                	fld	fs0,72(s0)
     75a:	2008                	fld	fa0,0(s0)
     75c:	1c26                	slli	s8,s8,0x29
     75e:	4008                	lw	a0,0(s0)
     760:	361c                	fld	fa5,40(a2)
     762:	9f25                	addw	a4,a4,s1
     764:	0700                	addi	s0,sp,896
     766:	0810                	addi	a2,sp,16
     768:	8000                	.2byte	0x8000
     76a:	0000                	unimp
     76c:	0000                	unimp
     76e:	0848                	addi	a0,sp,20
     770:	8000                	.2byte	0x8000
     772:	0000                	unimp
     774:	0000                	unimp
     776:	4002                	.2byte	0x4002
     778:	079f 0848 8000      	.byte	0x9f, 0x07, 0x48, 0x08, 0x00, 0x80
     77e:	0000                	unimp
     780:	0000                	unimp
     782:	089a                	slli	a7,a7,0x6
     784:	8000                	.2byte	0x8000
     786:	0000                	unimp
     788:	0000                	unimp
     78a:	5801                	li	a6,-32
     78c:	0700                	addi	s0,sp,896
     78e:	0848                	addi	a0,sp,20
     790:	8000                	.2byte	0x8000
     792:	0000                	unimp
     794:	0000                	unimp
     796:	0856                	slli	a6,a6,0x15
     798:	8000                	.2byte	0x8000
     79a:	0000                	unimp
     79c:	0000                	unimp
     79e:	3002                	fld	ft0,32(sp)
     7a0:	079f 0856 8000      	.byte	0x9f, 0x07, 0x56, 0x08, 0x00, 0x80
     7a6:	0000                	unimp
     7a8:	0000                	unimp
     7aa:	0892                	slli	a7,a7,0x4
     7ac:	8000                	.2byte	0x8000
     7ae:	0000                	unimp
     7b0:	0000                	unimp
     7b2:	6e01                	.2byte	0x6e01
     7b4:	0700                	addi	s0,sp,896
     7b6:	0856                	slli	a6,a6,0x15
     7b8:	8000                	.2byte	0x8000
     7ba:	0000                	unimp
     7bc:	0000                	unimp
     7be:	085e                	slli	a6,a6,0x17
     7c0:	8000                	.2byte	0x8000
     7c2:	0000                	unimp
     7c4:	0000                	unimp
     7c6:	3002                	fld	ft0,32(sp)
     7c8:	079f 085e 8000      	.byte	0x9f, 0x07, 0x5e, 0x08, 0x00, 0x80
     7ce:	0000                	unimp
     7d0:	0000                	unimp
     7d2:	0886                	slli	a7,a7,0x1
     7d4:	8000                	.2byte	0x8000
     7d6:	0000                	unimp
     7d8:	0000                	unimp
     7da:	7e0e                	ld	t3,224(sp)
     7dc:	7800                	ld	s0,48(s0)
     7de:	0800                	addi	s0,sp,16
     7e0:	2420                	fld	fs0,72(s0)
     7e2:	2008                	fld	fa0,0(s0)
     7e4:	1c26                	slli	s8,s8,0x29
     7e6:	2536                	fld	fa0,328(sp)
     7e8:	079f 0886 8000      	.byte	0x9f, 0x07, 0x86, 0x08, 0x00, 0x80
     7ee:	0000                	unimp
     7f0:	0000                	unimp
     7f2:	088c                	addi	a1,sp,80
     7f4:	8000                	.2byte	0x8000
     7f6:	0000                	unimp
     7f8:	0000                	unimp
     7fa:	7e11                	lui	t3,0xfffe4
     7fc:	7800                	ld	s0,48(s0)
     7fe:	0800                	addi	s0,sp,16
     800:	2420                	fld	fs0,72(s0)
     802:	2008                	fld	fa0,0(s0)
     804:	1c26                	slli	s8,s8,0x29
     806:	4008                	lw	a0,0(s0)
     808:	361c                	fld	fa5,40(a2)
     80a:	9f25                	addw	a4,a4,s1
     80c:	0700                	addi	s0,sp,896
     80e:	0778                	addi	a4,sp,908
     810:	8000                	.2byte	0x8000
     812:	0000                	unimp
     814:	0000                	unimp
     816:	07ac                	addi	a1,sp,968
     818:	8000                	.2byte	0x8000
     81a:	0000                	unimp
     81c:	0000                	unimp
     81e:	3002                	fld	ft0,32(sp)
     820:	079f 07ac 8000      	.byte	0x9f, 0x07, 0xac, 0x07, 0x00, 0x80
     826:	0000                	unimp
     828:	0000                	unimp
     82a:	07fe                	slli	a5,a5,0x1f
     82c:	8000                	.2byte	0x8000
     82e:	0000                	unimp
     830:	0000                	unimp
     832:	5801                	li	a6,-32
     834:	0700                	addi	s0,sp,896
     836:	07ac                	addi	a1,sp,968
     838:	8000                	.2byte	0x8000
     83a:	0000                	unimp
     83c:	0000                	unimp
     83e:	07ba                	slli	a5,a5,0xe
     840:	8000                	.2byte	0x8000
     842:	0000                	unimp
     844:	0000                	unimp
     846:	3002                	fld	ft0,32(sp)
     848:	079f 07ba 8000      	.byte	0x9f, 0x07, 0xba, 0x07, 0x00, 0x80
     84e:	0000                	unimp
     850:	0000                	unimp
     852:	07f6                	slli	a5,a5,0x1d
     854:	8000                	.2byte	0x8000
     856:	0000                	unimp
     858:	0000                	unimp
     85a:	6e01                	.2byte	0x6e01
     85c:	0700                	addi	s0,sp,896
     85e:	07ba                	slli	a5,a5,0xe
     860:	8000                	.2byte	0x8000
     862:	0000                	unimp
     864:	0000                	unimp
     866:	07c2                	slli	a5,a5,0x10
     868:	8000                	.2byte	0x8000
     86a:	0000                	unimp
     86c:	0000                	unimp
     86e:	3002                	fld	ft0,32(sp)
     870:	079f 07c2 8000      	.byte	0x9f, 0x07, 0xc2, 0x07, 0x00, 0x80
     876:	0000                	unimp
     878:	0000                	unimp
     87a:	07ea                	slli	a5,a5,0x1a
     87c:	8000                	.2byte	0x8000
     87e:	0000                	unimp
     880:	0000                	unimp
     882:	7e0e                	ld	t3,224(sp)
     884:	7800                	ld	s0,48(s0)
     886:	0800                	addi	s0,sp,16
     888:	2420                	fld	fs0,72(s0)
     88a:	2008                	fld	fa0,0(s0)
     88c:	1c26                	slli	s8,s8,0x29
     88e:	2536                	fld	fa0,328(sp)
     890:	079f 07ea 8000      	.byte	0x9f, 0x07, 0xea, 0x07, 0x00, 0x80
     896:	0000                	unimp
     898:	0000                	unimp
     89a:	07f0                	addi	a2,sp,972
     89c:	8000                	.2byte	0x8000
     89e:	0000                	unimp
     8a0:	0000                	unimp
     8a2:	7e11                	lui	t3,0xfffe4
     8a4:	7800                	ld	s0,48(s0)
     8a6:	0800                	addi	s0,sp,16
     8a8:	2420                	fld	fs0,72(s0)
     8aa:	2008                	fld	fa0,0(s0)
     8ac:	1c26                	slli	s8,s8,0x29
     8ae:	4008                	lw	a0,0(s0)
     8b0:	361c                	fld	fa5,40(a2)
     8b2:	9f25                	addw	a4,a4,s1
     8b4:	0700                	addi	s0,sp,896
     8b6:	0662                	slli	a2,a2,0x18
     8b8:	8000                	.2byte	0x8000
     8ba:	0000                	unimp
     8bc:	0000                	unimp
     8be:	068a                	slli	a3,a3,0x2
     8c0:	8000                	.2byte	0x8000
     8c2:	0000                	unimp
     8c4:	0000                	unimp
     8c6:	3002                	fld	ft0,32(sp)
     8c8:	079f 068a 8000      	.byte	0x9f, 0x07, 0x8a, 0x06, 0x00, 0x80
     8ce:	0000                	unimp
     8d0:	0000                	unimp
     8d2:	06e0                	addi	s0,sp,844
     8d4:	8000                	.2byte	0x8000
     8d6:	0000                	unimp
     8d8:	0000                	unimp
     8da:	6f01                	.2byte	0x6f01
     8dc:	0006e007          	.4byte	0x6e007
     8e0:	0080                	addi	s0,sp,64
     8e2:	0000                	unimp
     8e4:	e200                	sd	s0,0(a2)
     8e6:	0006                	c.slli	zero,0x1
     8e8:	0080                	addi	s0,sp,64
     8ea:	0000                	unimp
     8ec:	0300                	addi	s0,sp,384
     8ee:	009f018f          	.4byte	0x9f018f
     8f2:	00068a07          	.4byte	0x68a07
     8f6:	0080                	addi	s0,sp,64
     8f8:	0000                	unimp
     8fa:	9200                	.2byte	0x9200
     8fc:	0006                	c.slli	zero,0x1
     8fe:	0080                	addi	s0,sp,64
     900:	0000                	unimp
     902:	0200                	addi	s0,sp,256
     904:	9f30                	.2byte	0x9f30
     906:	00069207          	.4byte	0x69207
     90a:	0080                	addi	s0,sp,64
     90c:	0000                	unimp
     90e:	d200                	sw	s0,32(a2)
     910:	0006                	c.slli	zero,0x1
     912:	0080                	addi	s0,sp,64
     914:	0000                	unimp
     916:	0600                	addi	s0,sp,768
     918:	0081                	addi	ra,ra,0
     91a:	9f1c0077          	.4byte	0x9f1c0077
     91e:	0006d207          	.4byte	0x6d207
     922:	0080                	addi	s0,sp,64
     924:	0000                	unimp
     926:	d800                	sw	s0,48(s0)
     928:	0006                	c.slli	zero,0x1
     92a:	0080                	addi	s0,sp,64
     92c:	0000                	unimp
     92e:	0800                	addi	s0,sp,16
     930:	0081                	addi	ra,ra,0
     932:	231c0077          	.4byte	0x231c0077
     936:	9f01                	subw	a4,a4,s0
     938:	0700                	addi	s0,sp,896
     93a:	06a0                	addi	s0,sp,840
     93c:	8000                	.2byte	0x8000
     93e:	0000                	unimp
     940:	0000                	unimp
     942:	06c4                	addi	s1,sp,836
     944:	8000                	.2byte	0x8000
     946:	0000                	unimp
     948:	0000                	unimp
     94a:	7d06                	ld	s10,96(sp)
     94c:	8e00                	.2byte	0x8e00
     94e:	1c00                	addi	s0,sp,560
     950:	009f d407 0005      	.byte	0x9f, 0x00, 0x07, 0xd4, 0x05, 0x00
     956:	0080                	addi	s0,sp,64
     958:	0000                	unimp
     95a:	fc00                	sd	s0,56(s0)
     95c:	0005                	c.nop	1
     95e:	0080                	addi	s0,sp,64
     960:	0000                	unimp
     962:	0200                	addi	s0,sp,256
     964:	9f30                	.2byte	0x9f30
     966:	0005fc07          	.4byte	0x5fc07
     96a:	0080                	addi	s0,sp,64
     96c:	0000                	unimp
     96e:	5200                	lw	s0,32(a2)
     970:	0006                	c.slli	zero,0x1
     972:	0080                	addi	s0,sp,64
     974:	0000                	unimp
     976:	0100                	addi	s0,sp,128
     978:	0652076f          	jal	a4,211dc <_prog_start-0x7ffdee24>
     97c:	8000                	.2byte	0x8000
     97e:	0000                	unimp
     980:	0000                	unimp
     982:	0654                	addi	a3,sp,772
     984:	8000                	.2byte	0x8000
     986:	0000                	unimp
     988:	0000                	unimp
     98a:	9f018f03          	lb	t5,-1552(gp)
     98e:	0700                	addi	s0,sp,896
     990:	05fc                	addi	a5,sp,716
     992:	8000                	.2byte	0x8000
     994:	0000                	unimp
     996:	0000                	unimp
     998:	0604                	addi	s1,sp,768
     99a:	8000                	.2byte	0x8000
     99c:	0000                	unimp
     99e:	0000                	unimp
     9a0:	3002                	fld	ft0,32(sp)
     9a2:	079f 0604 8000      	.byte	0x9f, 0x07, 0x04, 0x06, 0x00, 0x80
     9a8:	0000                	unimp
     9aa:	0000                	unimp
     9ac:	0644                	addi	s1,sp,772
     9ae:	8000                	.2byte	0x8000
     9b0:	0000                	unimp
     9b2:	0000                	unimp
     9b4:	8106                	mv	sp,ra
     9b6:	7700                	ld	s0,40(a4)
     9b8:	1c00                	addi	s0,sp,560
     9ba:	079f 0644 8000      	.byte	0x9f, 0x07, 0x44, 0x06, 0x00, 0x80
     9c0:	0000                	unimp
     9c2:	0000                	unimp
     9c4:	064a                	slli	a2,a2,0x12
     9c6:	8000                	.2byte	0x8000
     9c8:	0000                	unimp
     9ca:	0000                	unimp
     9cc:	8108                	.2byte	0x8108
     9ce:	7700                	ld	s0,40(a4)
     9d0:	1c00                	addi	s0,sp,560
     9d2:	009f0123          	sb	s1,2(t5)
     9d6:	00061207          	.4byte	0x61207
     9da:	0080                	addi	s0,sp,64
     9dc:	0000                	unimp
     9de:	3600                	fld	fs0,40(a2)
     9e0:	0006                	c.slli	zero,0x1
     9e2:	0080                	addi	s0,sp,64
     9e4:	0000                	unimp
     9e6:	0600                	addi	s0,sp,768
     9e8:	007d                	c.nop	31
     9ea:	008e                	slli	ra,ra,0x3
     9ec:	9f1c                	.2byte	0x9f1c
     9ee:	0700                	addi	s0,sp,896
     9f0:	0546                	slli	a0,a0,0x11
     9f2:	8000                	.2byte	0x8000
     9f4:	0000                	unimp
     9f6:	0000                	unimp
     9f8:	056e                	slli	a0,a0,0x1b
     9fa:	8000                	.2byte	0x8000
     9fc:	0000                	unimp
     9fe:	0000                	unimp
     a00:	3002                	fld	ft0,32(sp)
     a02:	079f 056e 8000      	.byte	0x9f, 0x07, 0x6e, 0x05, 0x00, 0x80
     a08:	0000                	unimp
     a0a:	0000                	unimp
     a0c:	05c4                	addi	s1,sp,708
     a0e:	8000                	.2byte	0x8000
     a10:	0000                	unimp
     a12:	0000                	unimp
     a14:	6f01                	.2byte	0x6f01
     a16:	0005c407          	.4byte	0x5c407
     a1a:	0080                	addi	s0,sp,64
     a1c:	0000                	unimp
     a1e:	c600                	sw	s0,8(a2)
     a20:	0005                	c.nop	1
     a22:	0080                	addi	s0,sp,64
     a24:	0000                	unimp
     a26:	0300                	addi	s0,sp,384
     a28:	009f018f          	.4byte	0x9f018f
     a2c:	00056e07          	.4byte	0x56e07
     a30:	0080                	addi	s0,sp,64
     a32:	0000                	unimp
     a34:	7600                	ld	s0,40(a2)
     a36:	0005                	c.nop	1
     a38:	0080                	addi	s0,sp,64
     a3a:	0000                	unimp
     a3c:	0200                	addi	s0,sp,256
     a3e:	9f30                	.2byte	0x9f30
     a40:	00057607          	.4byte	0x57607
     a44:	0080                	addi	s0,sp,64
     a46:	0000                	unimp
     a48:	b600                	fsd	fs0,40(a2)
     a4a:	0005                	c.nop	1
     a4c:	0080                	addi	s0,sp,64
     a4e:	0000                	unimp
     a50:	0600                	addi	s0,sp,768
     a52:	0081                	addi	ra,ra,0
     a54:	9f1c0077          	.4byte	0x9f1c0077
     a58:	0005b607          	fld	fa2,0(a1)
     a5c:	0080                	addi	s0,sp,64
     a5e:	0000                	unimp
     a60:	bc00                	fsd	fs0,56(s0)
     a62:	0005                	c.nop	1
     a64:	0080                	addi	s0,sp,64
     a66:	0000                	unimp
     a68:	0800                	addi	s0,sp,16
     a6a:	0081                	addi	ra,ra,0
     a6c:	231c0077          	.4byte	0x231c0077
     a70:	9f01                	subw	a4,a4,s0
     a72:	0700                	addi	s0,sp,896
     a74:	0584                	addi	s1,sp,704
     a76:	8000                	.2byte	0x8000
     a78:	0000                	unimp
     a7a:	0000                	unimp
     a7c:	05a8                	addi	a0,sp,712
     a7e:	8000                	.2byte	0x8000
     a80:	0000                	unimp
     a82:	0000                	unimp
     a84:	7d06                	ld	s10,96(sp)
     a86:	8e00                	.2byte	0x8e00
     a88:	1c00                	addi	s0,sp,560
     a8a:	009f b807 0004      	.byte	0x9f, 0x00, 0x07, 0xb8, 0x04, 0x00
     a90:	0080                	addi	s0,sp,64
     a92:	0000                	unimp
     a94:	e000                	sd	s0,0(s0)
     a96:	0004                	.2byte	0x4
     a98:	0080                	addi	s0,sp,64
     a9a:	0000                	unimp
     a9c:	0200                	addi	s0,sp,256
     a9e:	9f30                	.2byte	0x9f30
     aa0:	0004e007          	.4byte	0x4e007
     aa4:	0080                	addi	s0,sp,64
     aa6:	0000                	unimp
     aa8:	3600                	fld	fs0,40(a2)
     aaa:	0005                	c.nop	1
     aac:	0080                	addi	s0,sp,64
     aae:	0000                	unimp
     ab0:	0100                	addi	s0,sp,128
     ab2:	0536076f          	jal	a4,61304 <_prog_start-0x7ff9ecfc>
     ab6:	8000                	.2byte	0x8000
     ab8:	0000                	unimp
     aba:	0000                	unimp
     abc:	0538                	addi	a4,sp,648
     abe:	8000                	.2byte	0x8000
     ac0:	0000                	unimp
     ac2:	0000                	unimp
     ac4:	9f018f03          	lb	t5,-1552(gp)
     ac8:	0700                	addi	s0,sp,896
     aca:	04e0                	addi	s0,sp,588
     acc:	8000                	.2byte	0x8000
     ace:	0000                	unimp
     ad0:	0000                	unimp
     ad2:	04e8                	addi	a0,sp,588
     ad4:	8000                	.2byte	0x8000
     ad6:	0000                	unimp
     ad8:	0000                	unimp
     ada:	3002                	fld	ft0,32(sp)
     adc:	079f 04e8 8000      	.byte	0x9f, 0x07, 0xe8, 0x04, 0x00, 0x80
     ae2:	0000                	unimp
     ae4:	0000                	unimp
     ae6:	0528                	addi	a0,sp,648
     ae8:	8000                	.2byte	0x8000
     aea:	0000                	unimp
     aec:	0000                	unimp
     aee:	8106                	mv	sp,ra
     af0:	7700                	ld	s0,40(a4)
     af2:	1c00                	addi	s0,sp,560
     af4:	079f 0528 8000      	.byte	0x9f, 0x07, 0x28, 0x05, 0x00, 0x80
     afa:	0000                	unimp
     afc:	0000                	unimp
     afe:	052e                	slli	a0,a0,0xb
     b00:	8000                	.2byte	0x8000
     b02:	0000                	unimp
     b04:	0000                	unimp
     b06:	8108                	.2byte	0x8108
     b08:	7700                	ld	s0,40(a4)
     b0a:	1c00                	addi	s0,sp,560
     b0c:	009f0123          	sb	s1,2(t5)
     b10:	0004f607          	.4byte	0x4f607
     b14:	0080                	addi	s0,sp,64
     b16:	0000                	unimp
     b18:	1a00                	addi	s0,sp,304
     b1a:	0005                	c.nop	1
     b1c:	0080                	addi	s0,sp,64
     b1e:	0000                	unimp
     b20:	0600                	addi	s0,sp,768
     b22:	007d                	c.nop	31
     b24:	008e                	slli	ra,ra,0x3
     b26:	9f1c                	.2byte	0x9f1c
     b28:	0700                	addi	s0,sp,896
     b2a:	03ac                	addi	a1,sp,456
     b2c:	8000                	.2byte	0x8000
     b2e:	0000                	unimp
     b30:	0000                	unimp
     b32:	03d4                	addi	a3,sp,452
     b34:	8000                	.2byte	0x8000
     b36:	0000                	unimp
     b38:	0000                	unimp
     b3a:	3002                	fld	ft0,32(sp)
     b3c:	079f 03d4 8000      	.byte	0x9f, 0x07, 0xd4, 0x03, 0x00, 0x80
     b42:	0000                	unimp
     b44:	0000                	unimp
     b46:	0420                	addi	s0,sp,520
     b48:	8000                	.2byte	0x8000
     b4a:	0000                	unimp
     b4c:	0000                	unimp
     b4e:	6f01                	.2byte	0x6f01
     b50:	00042007          	flw	ft0,0(s0) # ffffffffffffd000 <a+0xffffffff7fffc030>
     b54:	0080                	addi	s0,sp,64
     b56:	0000                	unimp
     b58:	2200                	fld	fs0,0(a2)
     b5a:	0004                	.2byte	0x4
     b5c:	0080                	addi	s0,sp,64
     b5e:	0000                	unimp
     b60:	0300                	addi	s0,sp,384
     b62:	009f018f          	.4byte	0x9f018f
     b66:	0003d407          	.4byte	0x3d407
     b6a:	0080                	addi	s0,sp,64
     b6c:	0000                	unimp
     b6e:	dc00                	sw	s0,56(s0)
     b70:	00800003          	lb	zero,8(zero) # 8 <_prog_start-0x7ffffff8>
     b74:	0000                	unimp
     b76:	0200                	addi	s0,sp,256
     b78:	9f30                	.2byte	0x9f30
     b7a:	0003dc07          	.4byte	0x3dc07
     b7e:	0080                	addi	s0,sp,64
     b80:	0000                	unimp
     b82:	1200                	addi	s0,sp,288
     b84:	0004                	.2byte	0x4
     b86:	0080                	addi	s0,sp,64
     b88:	0000                	unimp
     b8a:	0600                	addi	s0,sp,768
     b8c:	0081                	addi	ra,ra,0
     b8e:	9f1c0077          	.4byte	0x9f1c0077
     b92:	00041207          	.4byte	0x41207
     b96:	0080                	addi	s0,sp,64
     b98:	0000                	unimp
     b9a:	1c00                	addi	s0,sp,560
     b9c:	0004                	.2byte	0x4
     b9e:	0080                	addi	s0,sp,64
     ba0:	0000                	unimp
     ba2:	0800                	addi	s0,sp,16
     ba4:	0081                	addi	ra,ra,0
     ba6:	231c0077          	.4byte	0x231c0077
     baa:	9f01                	subw	a4,a4,s0
     bac:	0700                	addi	s0,sp,896
     bae:	03dc                	addi	a5,sp,452
     bb0:	8000                	.2byte	0x8000
     bb2:	0000                	unimp
     bb4:	0000                	unimp
     bb6:	03e0                	addi	s0,sp,460
     bb8:	8000                	.2byte	0x8000
     bba:	0000                	unimp
     bbc:	0000                	unimp
     bbe:	3002                	fld	ft0,32(sp)
     bc0:	079f 03e0 8000      	.byte	0x9f, 0x07, 0xe0, 0x03, 0x00, 0x80
     bc6:	0000                	unimp
     bc8:	0000                	unimp
     bca:	0404                	addi	s1,sp,512
     bcc:	8000                	.2byte	0x8000
     bce:	0000                	unimp
     bd0:	0000                	unimp
     bd2:	7d06                	ld	s10,96(sp)
     bd4:	8e00                	.2byte	0x8e00
     bd6:	1c00                	addi	s0,sp,560
     bd8:	009f 2807 0003      	.byte	0x9f, 0x00, 0x07, 0x28, 0x03, 0x00
     bde:	0080                	addi	s0,sp,64
     be0:	0000                	unimp
     be2:	5000                	lw	s0,32(s0)
     be4:	00800003          	lb	zero,8(zero) # 8 <_prog_start-0x7ffffff8>
     be8:	0000                	unimp
     bea:	0200                	addi	s0,sp,256
     bec:	9f30                	.2byte	0x9f30
     bee:	00035007          	.4byte	0x35007
     bf2:	0080                	addi	s0,sp,64
     bf4:	0000                	unimp
     bf6:	9c00                	.2byte	0x9c00
     bf8:	00800003          	lb	zero,8(zero) # 8 <_prog_start-0x7ffffff8>
     bfc:	0000                	unimp
     bfe:	0100                	addi	s0,sp,128
     c00:	039c076f          	jal	a4,c1438 <_prog_start-0x7ff3ebc8>
     c04:	8000                	.2byte	0x8000
     c06:	0000                	unimp
     c08:	0000                	unimp
     c0a:	039e                	slli	t2,t2,0x7
     c0c:	8000                	.2byte	0x8000
     c0e:	0000                	unimp
     c10:	0000                	unimp
     c12:	9f018f03          	lb	t5,-1552(gp)
     c16:	0700                	addi	s0,sp,896
     c18:	0350                	addi	a2,sp,388
     c1a:	8000                	.2byte	0x8000
     c1c:	0000                	unimp
     c1e:	0000                	unimp
     c20:	0358                	addi	a4,sp,388
     c22:	8000                	.2byte	0x8000
     c24:	0000                	unimp
     c26:	0000                	unimp
     c28:	3002                	fld	ft0,32(sp)
     c2a:	079f 0358 8000      	.byte	0x9f, 0x07, 0x58, 0x03, 0x00, 0x80
     c30:	0000                	unimp
     c32:	0000                	unimp
     c34:	038e                	slli	t2,t2,0x3
     c36:	8000                	.2byte	0x8000
     c38:	0000                	unimp
     c3a:	0000                	unimp
     c3c:	8106                	mv	sp,ra
     c3e:	7700                	ld	s0,40(a4)
     c40:	1c00                	addi	s0,sp,560
     c42:	079f 038e 8000      	.byte	0x9f, 0x07, 0x8e, 0x03, 0x00, 0x80
     c48:	0000                	unimp
     c4a:	0000                	unimp
     c4c:	0398                	addi	a4,sp,448
     c4e:	8000                	.2byte	0x8000
     c50:	0000                	unimp
     c52:	0000                	unimp
     c54:	8108                	.2byte	0x8108
     c56:	7700                	ld	s0,40(a4)
     c58:	1c00                	addi	s0,sp,560
     c5a:	009f0123          	sb	s1,2(t5)
     c5e:	00035807          	.4byte	0x35807
     c62:	0080                	addi	s0,sp,64
     c64:	0000                	unimp
     c66:	5c00                	lw	s0,56(s0)
     c68:	00800003          	lb	zero,8(zero) # 8 <_prog_start-0x7ffffff8>
     c6c:	0000                	unimp
     c6e:	0200                	addi	s0,sp,256
     c70:	9f30                	.2byte	0x9f30
     c72:	00035c07          	.4byte	0x35c07
     c76:	0080                	addi	s0,sp,64
     c78:	0000                	unimp
     c7a:	8000                	.2byte	0x8000
     c7c:	00800003          	lb	zero,8(zero) # 8 <_prog_start-0x7ffffff8>
     c80:	0000                	unimp
     c82:	0600                	addi	s0,sp,768
     c84:	007d                	c.nop	31
     c86:	008e                	slli	ra,ra,0x3
     c88:	9f1c                	.2byte	0x9f1c
     c8a:	0700                	addi	s0,sp,896
     c8c:	02a4                	addi	s1,sp,328
     c8e:	8000                	.2byte	0x8000
     c90:	0000                	unimp
     c92:	0000                	unimp
     c94:	02cc                	addi	a1,sp,324
     c96:	8000                	.2byte	0x8000
     c98:	0000                	unimp
     c9a:	0000                	unimp
     c9c:	3002                	fld	ft0,32(sp)
     c9e:	079f 02cc 8000      	.byte	0x9f, 0x07, 0xcc, 0x02, 0x00, 0x80
     ca4:	0000                	unimp
     ca6:	0000                	unimp
     ca8:	0318                	addi	a4,sp,384
     caa:	8000                	.2byte	0x8000
     cac:	0000                	unimp
     cae:	0000                	unimp
     cb0:	6f01                	.2byte	0x6f01
     cb2:	00031807          	.4byte	0x31807
     cb6:	0080                	addi	s0,sp,64
     cb8:	0000                	unimp
     cba:	1a00                	addi	s0,sp,304
     cbc:	00800003          	lb	zero,8(zero) # 8 <_prog_start-0x7ffffff8>
     cc0:	0000                	unimp
     cc2:	0300                	addi	s0,sp,384
     cc4:	009f018f          	.4byte	0x9f018f
     cc8:	0002cc07          	.4byte	0x2cc07
     ccc:	0080                	addi	s0,sp,64
     cce:	0000                	unimp
     cd0:	d400                	sw	s0,40(s0)
     cd2:	0002                	c.slli64	zero
     cd4:	0080                	addi	s0,sp,64
     cd6:	0000                	unimp
     cd8:	0200                	addi	s0,sp,256
     cda:	9f30                	.2byte	0x9f30
     cdc:	0002d407          	.4byte	0x2d407
     ce0:	0080                	addi	s0,sp,64
     ce2:	0000                	unimp
     ce4:	0a00                	addi	s0,sp,272
     ce6:	00800003          	lb	zero,8(zero) # 8 <_prog_start-0x7ffffff8>
     cea:	0000                	unimp
     cec:	0600                	addi	s0,sp,768
     cee:	0081                	addi	ra,ra,0
     cf0:	9f1c0077          	.4byte	0x9f1c0077
     cf4:	00030a07          	.4byte	0x30a07
     cf8:	0080                	addi	s0,sp,64
     cfa:	0000                	unimp
     cfc:	1400                	addi	s0,sp,544
     cfe:	00800003          	lb	zero,8(zero) # 8 <_prog_start-0x7ffffff8>
     d02:	0000                	unimp
     d04:	0800                	addi	s0,sp,16
     d06:	0081                	addi	ra,ra,0
     d08:	231c0077          	.4byte	0x231c0077
     d0c:	9f01                	subw	a4,a4,s0
     d0e:	0700                	addi	s0,sp,896
     d10:	02d4                	addi	a3,sp,324
     d12:	8000                	.2byte	0x8000
     d14:	0000                	unimp
     d16:	0000                	unimp
     d18:	02d8                	addi	a4,sp,324
     d1a:	8000                	.2byte	0x8000
     d1c:	0000                	unimp
     d1e:	0000                	unimp
     d20:	3002                	fld	ft0,32(sp)
     d22:	079f 02d8 8000      	.byte	0x9f, 0x07, 0xd8, 0x02, 0x00, 0x80
     d28:	0000                	unimp
     d2a:	0000                	unimp
     d2c:	02fc                	addi	a5,sp,332
     d2e:	8000                	.2byte	0x8000
     d30:	0000                	unimp
     d32:	0000                	unimp
     d34:	7d06                	ld	s10,96(sp)
     d36:	8e00                	.2byte	0x8e00
     d38:	1c00                	addi	s0,sp,560
     d3a:	009f 3007 0002      	.byte	0x9f, 0x00, 0x07, 0x30, 0x02, 0x00
     d40:	0080                	addi	s0,sp,64
     d42:	0000                	unimp
     d44:	5400                	lw	s0,40(s0)
     d46:	0002                	c.slli64	zero
     d48:	0080                	addi	s0,sp,64
     d4a:	0000                	unimp
     d4c:	0200                	addi	s0,sp,256
     d4e:	9f30                	.2byte	0x9f30
     d50:	00025407          	.4byte	0x25407
     d54:	0080                	addi	s0,sp,64
     d56:	0000                	unimp
     d58:	9800                	.2byte	0x9800
     d5a:	0002                	c.slli64	zero
     d5c:	0080                	addi	s0,sp,64
     d5e:	0000                	unimp
     d60:	0100                	addi	s0,sp,128
     d62:	076e                	slli	a4,a4,0x1b
     d64:	0298                	addi	a4,sp,320
     d66:	8000                	.2byte	0x8000
     d68:	0000                	unimp
     d6a:	0000                	unimp
     d6c:	029a                	slli	t0,t0,0x6
     d6e:	8000                	.2byte	0x8000
     d70:	0000                	unimp
     d72:	0000                	unimp
     d74:	9f018e03          	lb	t3,-1552(gp)
     d78:	0700                	addi	s0,sp,896
     d7a:	0254                	addi	a3,sp,260
     d7c:	8000                	.2byte	0x8000
     d7e:	0000                	unimp
     d80:	0000                	unimp
     d82:	025c                	addi	a5,sp,260
     d84:	8000                	.2byte	0x8000
     d86:	0000                	unimp
     d88:	0000                	unimp
     d8a:	3002                	fld	ft0,32(sp)
     d8c:	079f 025c 8000      	.byte	0x9f, 0x07, 0x5c, 0x02, 0x00, 0x80
     d92:	0000                	unimp
     d94:	0000                	unimp
     d96:	028a                	slli	t0,t0,0x2
     d98:	8000                	.2byte	0x8000
     d9a:	0000                	unimp
     d9c:	0000                	unimp
     d9e:	8006                	c.mv	zero,ra
     da0:	7500                	ld	s0,40(a0)
     da2:	1c00                	addi	s0,sp,560
     da4:	079f 028a 8000      	.byte	0x9f, 0x07, 0x8a, 0x02, 0x00, 0x80
     daa:	0000                	unimp
     dac:	0000                	unimp
     dae:	0294                	addi	a3,sp,320
     db0:	8000                	.2byte	0x8000
     db2:	0000                	unimp
     db4:	0000                	unimp
     db6:	8008                	.2byte	0x8008
     db8:	7500                	ld	s0,40(a0)
     dba:	1c00                	addi	s0,sp,560
     dbc:	009f0123          	sb	s1,2(t5)
     dc0:	00025c07          	.4byte	0x25c07
     dc4:	0080                	addi	s0,sp,64
     dc6:	0000                	unimp
     dc8:	6000                	ld	s0,0(s0)
     dca:	0002                	c.slli64	zero
     dcc:	0080                	addi	s0,sp,64
     dce:	0000                	unimp
     dd0:	0200                	addi	s0,sp,256
     dd2:	9f30                	.2byte	0x9f30
     dd4:	00026007          	.4byte	0x26007
     dd8:	0080                	addi	s0,sp,64
     dda:	0000                	unimp
     ddc:	7c00                	ld	s0,56(s0)
     dde:	0002                	c.slli64	zero
     de0:	0080                	addi	s0,sp,64
     de2:	0000                	unimp
     de4:	0600                	addi	s0,sp,768
     de6:	007f                	.2byte	0x7f
     de8:	008d                	addi	ra,ra,3
     dea:	9f1c                	.2byte	0x9f1c
     dec:	0700                	addi	s0,sp,896
     dee:	0430                	addi	a2,sp,520
     df0:	8000                	.2byte	0x8000
     df2:	0000                	unimp
     df4:	0000                	unimp
     df6:	044e                	slli	s0,s0,0x13
     df8:	8000                	.2byte	0x8000
     dfa:	0000                	unimp
     dfc:	0000                	unimp
     dfe:	3002                	fld	ft0,32(sp)
     e00:	079f 044e 8000      	.byte	0x9f, 0x07, 0x4e, 0x04, 0x00, 0x80
     e06:	0000                	unimp
     e08:	0000                	unimp
     e0a:	0468                	addi	a0,sp,524
     e0c:	8000                	.2byte	0x8000
     e0e:	0000                	unimp
     e10:	0000                	unimp
     e12:	5f01                	li	t5,-32
     e14:	0700                	addi	s0,sp,896
     e16:	0474                	addi	a3,sp,524
     e18:	8000                	.2byte	0x8000
     e1a:	0000                	unimp
     e1c:	0000                	unimp
     e1e:	0492                	slli	s1,s1,0x4
     e20:	8000                	.2byte	0x8000
     e22:	0000                	unimp
     e24:	0000                	unimp
     e26:	3002                	fld	ft0,32(sp)
     e28:	079f 0492 8000      	.byte	0x9f, 0x07, 0x92, 0x04, 0x00, 0x80
     e2e:	0000                	unimp
     e30:	0000                	unimp
     e32:	04ac                	addi	a1,sp,584
     e34:	8000                	.2byte	0x8000
     e36:	0000                	unimp
     e38:	0000                	unimp
     e3a:	5f01                	li	t5,-32
     e3c:	0700                	addi	s0,sp,896
     e3e:	06f0                	addi	a2,sp,844
     e40:	8000                	.2byte	0x8000
     e42:	0000                	unimp
     e44:	0000                	unimp
     e46:	070e                	slli	a4,a4,0x3
     e48:	8000                	.2byte	0x8000
     e4a:	0000                	unimp
     e4c:	0000                	unimp
     e4e:	3002                	fld	ft0,32(sp)
     e50:	079f 070e 8000      	.byte	0x9f, 0x07, 0x0e, 0x07, 0x00, 0x80
     e56:	0000                	unimp
     e58:	0000                	unimp
     e5a:	0728                	addi	a0,sp,904
     e5c:	8000                	.2byte	0x8000
     e5e:	0000                	unimp
     e60:	0000                	unimp
     e62:	5f01                	li	t5,-32
     e64:	0700                	addi	s0,sp,896
     e66:	0734                	addi	a3,sp,904
     e68:	8000                	.2byte	0x8000
     e6a:	0000                	unimp
     e6c:	0000                	unimp
     e6e:	0752                	slli	a4,a4,0x14
     e70:	8000                	.2byte	0x8000
     e72:	0000                	unimp
     e74:	0000                	unimp
     e76:	3002                	fld	ft0,32(sp)
     e78:	079f 0752 8000      	.byte	0x9f, 0x07, 0x52, 0x07, 0x00, 0x80
     e7e:	0000                	unimp
     e80:	0000                	unimp
     e82:	076c                	addi	a1,sp,908
     e84:	8000                	.2byte	0x8000
     e86:	0000                	unimp
     e88:	0000                	unimp
     e8a:	5f01                	li	t5,-32
     e8c:	7200                	ld	s0,32(a2)
     e8e:	0004                	.2byte	0x4
     e90:	0500                	addi	s0,sp,640
     e92:	0800                	addi	s0,sp,16
     e94:	0000                	unimp
     e96:	0000                	unimp
     e98:	0700                	addi	s0,sp,896
     e9a:	0d9e                	slli	s11,s11,0x7
     e9c:	8000                	.2byte	0x8000
     e9e:	0000                	unimp
     ea0:	0000                	unimp
     ea2:	0db6                	slli	s11,s11,0xd
     ea4:	8000                	.2byte	0x8000
     ea6:	0000                	unimp
     ea8:	0000                	unimp
     eaa:	5a01                	li	s4,-32
     eac:	000db607          	fld	fa2,0(s11)
     eb0:	0080                	addi	s0,sp,64
     eb2:	0000                	unimp
     eb4:	bc00                	fsd	fs0,56(s0)
     eb6:	000d                	c.nop	3
     eb8:	0080                	addi	s0,sp,64
     eba:	0000                	unimp
     ebc:	0300                	addi	s0,sp,384
     ebe:	017a                	slli	sp,sp,0x1e
     ec0:	079f 0dbc 8000      	.byte	0x9f, 0x07, 0xbc, 0x0d, 0x00, 0x80
     ec6:	0000                	unimp
     ec8:	0000                	unimp
     eca:	0e12                	slli	t3,t3,0x4
     ecc:	8000                	.2byte	0x8000
     ece:	0000                	unimp
     ed0:	0000                	unimp
     ed2:	5a01                	li	s4,-32
     ed4:	000e1607          	.4byte	0xe1607
     ed8:	0080                	addi	s0,sp,64
     eda:	0000                	unimp
     edc:	2000                	fld	fs0,0(s0)
     ede:	0080000f          	fence	unknown,i
     ee2:	0000                	unimp
     ee4:	0100                	addi	s0,sp,128
     ee6:	005a                	c.slli	zero,0x16
     ee8:	000db607          	fld	fa2,0(s11)
     eec:	0080                	addi	s0,sp,64
     eee:	0000                	unimp
     ef0:	d200                	sw	s0,32(a2)
     ef2:	000d                	c.nop	3
     ef4:	0080                	addi	s0,sp,64
     ef6:	0000                	unimp
     ef8:	0200                	addi	s0,sp,256
     efa:	9f30                	.2byte	0x9f30
     efc:	000dd207          	.4byte	0xdd207
     f00:	0080                	addi	s0,sp,64
     f02:	0000                	unimp
     f04:	f200                	sd	s0,32(a2)
     f06:	000d                	c.nop	3
     f08:	0080                	addi	s0,sp,64
     f0a:	0000                	unimp
     f0c:	0100                	addi	s0,sp,128
     f0e:	075e                	slli	a4,a4,0x17
     f10:	0e08                	addi	a0,sp,784
     f12:	8000                	.2byte	0x8000
     f14:	0000                	unimp
     f16:	0000                	unimp
     f18:	0e12                	slli	t3,t3,0x4
     f1a:	8000                	.2byte	0x8000
     f1c:	0000                	unimp
     f1e:	0000                	unimp
     f20:	5e01                	li	t3,-32
     f22:	000e1607          	.4byte	0xe1607
     f26:	0080                	addi	s0,sp,64
     f28:	0000                	unimp
     f2a:	1e00                	addi	s0,sp,816
     f2c:	000e                	c.slli	zero,0x3
     f2e:	0080                	addi	s0,sp,64
     f30:	0000                	unimp
     f32:	0100                	addi	s0,sp,128
     f34:	075e                	slli	a4,a4,0x17
     f36:	0e54                	addi	a3,sp,788
     f38:	8000                	.2byte	0x8000
     f3a:	0000                	unimp
     f3c:	0000                	unimp
     f3e:	0e66                	slli	t3,t3,0x19
     f40:	8000                	.2byte	0x8000
     f42:	0000                	unimp
     f44:	0000                	unimp
     f46:	5e01                	li	t3,-32
     f48:	000e7a07          	.4byte	0xe7a07
     f4c:	0080                	addi	s0,sp,64
     f4e:	0000                	unimp
     f50:	9c00                	.2byte	0x9c00
     f52:	000e                	c.slli	zero,0x3
     f54:	0080                	addi	s0,sp,64
     f56:	0000                	unimp
     f58:	0100                	addi	s0,sp,128
     f5a:	075e                	slli	a4,a4,0x17
     f5c:	0eac                	addi	a1,sp,856
     f5e:	8000                	.2byte	0x8000
     f60:	0000                	unimp
     f62:	0000                	unimp
     f64:	0eb0                	addi	a2,sp,856
     f66:	8000                	.2byte	0x8000
     f68:	0000                	unimp
     f6a:	0000                	unimp
     f6c:	5e01                	li	t3,-32
     f6e:	000eb007          	fld	ft0,0(t4)
     f72:	0080                	addi	s0,sp,64
     f74:	0000                	unimp
     f76:	ce00                	sw	s0,24(a2)
     f78:	000e                	c.slli	zero,0x3
     f7a:	0080                	addi	s0,sp,64
     f7c:	0000                	unimp
     f7e:	0200                	addi	s0,sp,256
     f80:	9f30                	.2byte	0x9f30
     f82:	000ece07          	.4byte	0xece07
     f86:	0080                	addi	s0,sp,64
     f88:	0000                	unimp
     f8a:	d400                	sw	s0,40(s0)
     f8c:	000e                	c.slli	zero,0x3
     f8e:	0080                	addi	s0,sp,64
     f90:	0000                	unimp
     f92:	0100                	addi	s0,sp,128
     f94:	005e                	c.slli	zero,0x17
     f96:	000db607          	fld	fa2,0(s11)
     f9a:	0080                	addi	s0,sp,64
     f9c:	0000                	unimp
     f9e:	d200                	sw	s0,32(a2)
     fa0:	000d                	c.nop	3
     fa2:	0080                	addi	s0,sp,64
     fa4:	0000                	unimp
     fa6:	0200                	addi	s0,sp,256
     fa8:	9f30                	.2byte	0x9f30
     faa:	000dd207          	.4byte	0xdd207
     fae:	0080                	addi	s0,sp,64
     fb0:	0000                	unimp
     fb2:	f600                	sd	s0,40(a2)
     fb4:	000d                	c.nop	3
     fb6:	0080                	addi	s0,sp,64
     fb8:	0000                	unimp
     fba:	0100                	addi	s0,sp,128
     fbc:	075d                	addi	a4,a4,23
     fbe:	0e08                	addi	a0,sp,784
     fc0:	8000                	.2byte	0x8000
     fc2:	0000                	unimp
     fc4:	0000                	unimp
     fc6:	0e12                	slli	t3,t3,0x4
     fc8:	8000                	.2byte	0x8000
     fca:	0000                	unimp
     fcc:	0000                	unimp
     fce:	5d01                	li	s10,-32
     fd0:	000e1607          	.4byte	0xe1607
     fd4:	0080                	addi	s0,sp,64
     fd6:	0000                	unimp
     fd8:	2e00                	fld	fs0,24(a2)
     fda:	000e                	c.slli	zero,0x3
     fdc:	0080                	addi	s0,sp,64
     fde:	0000                	unimp
     fe0:	0100                	addi	s0,sp,128
     fe2:	075d                	addi	a4,a4,23
     fe4:	0e54                	addi	a3,sp,788
     fe6:	8000                	.2byte	0x8000
     fe8:	0000                	unimp
     fea:	0000                	unimp
     fec:	0e60                	addi	s0,sp,796
     fee:	8000                	.2byte	0x8000
     ff0:	0000                	unimp
     ff2:	0000                	unimp
     ff4:	5d01                	li	s10,-32
     ff6:	000e7a07          	.4byte	0xe7a07
     ffa:	0080                	addi	s0,sp,64
     ffc:	0000                	unimp
     ffe:	a000                	fsd	fs0,0(s0)
    1000:	000e                	c.slli	zero,0x3
    1002:	0080                	addi	s0,sp,64
    1004:	0000                	unimp
    1006:	0100                	addi	s0,sp,128
    1008:	075d                	addi	a4,a4,23
    100a:	0eac                	addi	a1,sp,856
    100c:	8000                	.2byte	0x8000
    100e:	0000                	unimp
    1010:	0000                	unimp
    1012:	0eb0                	addi	a2,sp,856
    1014:	8000                	.2byte	0x8000
    1016:	0000                	unimp
    1018:	0000                	unimp
    101a:	3102                	fld	ft2,32(sp)
    101c:	079f 0eb0 8000      	.byte	0x9f, 0x07, 0xb0, 0x0e, 0x00, 0x80
    1022:	0000                	unimp
    1024:	0000                	unimp
    1026:	0ed4                	addi	a3,sp,852
    1028:	8000                	.2byte	0x8000
    102a:	0000                	unimp
    102c:	0000                	unimp
    102e:	5d01                	li	s10,-32
    1030:	000f0007          	.4byte	0xf0007
    1034:	0080                	addi	s0,sp,64
    1036:	0000                	unimp
    1038:	0400                	addi	s0,sp,512
    103a:	0080000f          	fence	unknown,i
    103e:	0000                	unimp
    1040:	0100                	addi	s0,sp,128
    1042:	005d                	c.nop	23
    1044:	000db607          	fld	fa2,0(s11)
    1048:	0080                	addi	s0,sp,64
    104a:	0000                	unimp
    104c:	d800                	sw	s0,48(s0)
    104e:	000d                	c.nop	3
    1050:	0080                	addi	s0,sp,64
    1052:	0000                	unimp
    1054:	0100                	addi	s0,sp,128
    1056:	0756                	slli	a4,a4,0x15
    1058:	0e0e                	slli	t3,t3,0x3
    105a:	8000                	.2byte	0x8000
    105c:	0000                	unimp
    105e:	0000                	unimp
    1060:	0e16                	slli	t3,t3,0x5
    1062:	8000                	.2byte	0x8000
    1064:	0000                	unimp
    1066:	0000                	unimp
    1068:	5601                	li	a2,-32
    106a:	000eb007          	fld	ft0,0(t4)
    106e:	0080                	addi	s0,sp,64
    1070:	0000                	unimp
    1072:	ce00                	sw	s0,24(a2)
    1074:	000e                	c.slli	zero,0x3
    1076:	0080                	addi	s0,sp,64
    1078:	0000                	unimp
    107a:	0100                	addi	s0,sp,128
    107c:	0056                	c.slli	zero,0x15
    107e:	000ed407          	.4byte	0xed407
    1082:	0080                	addi	s0,sp,64
    1084:	0000                	unimp
    1086:	f800                	sd	s0,48(s0)
    1088:	000e                	c.slli	zero,0x3
    108a:	0080                	addi	s0,sp,64
    108c:	0000                	unimp
    108e:	0100                	addi	s0,sp,128
    1090:	0756                	slli	a4,a4,0x15
    1092:	0ef8                	addi	a4,sp,860
    1094:	8000                	.2byte	0x8000
    1096:	0000                	unimp
    1098:	0000                	unimp
    109a:	0f00                	addi	s0,sp,912
    109c:	8000                	.2byte	0x8000
    109e:	0000                	unimp
    10a0:	0000                	unimp
    10a2:	5f01                	li	t5,-32
    10a4:	000f0407          	.4byte	0xf0407
    10a8:	0080                	addi	s0,sp,64
    10aa:	0000                	unimp
    10ac:	0c00                	addi	s0,sp,528
    10ae:	0080000f          	fence	unknown,i
    10b2:	0000                	unimp
    10b4:	0100                	addi	s0,sp,128
    10b6:	075f 0f0c 8000      	.byte	0x5f, 0x07, 0x0c, 0x0f, 0x00, 0x80
    10bc:	0000                	unimp
    10be:	0000                	unimp
    10c0:	0f20                	addi	s0,sp,920
    10c2:	8000                	.2byte	0x8000
    10c4:	0000                	unimp
    10c6:	0000                	unimp
    10c8:	760c                	ld	a1,40(a2)
    10ca:	a800                	fsd	fs0,16(s0)
    10cc:	8d2e                	mv	s10,a1
    10ce:	a800                	fsd	fs0,16(s0)
    10d0:	1b2e                	slli	s6,s6,0x2b
    10d2:	00a8                	addi	a0,sp,72
    10d4:	009f d407 000e      	.byte	0x9f, 0x00, 0x07, 0xd4, 0x0e, 0x00
    10da:	0080                	addi	s0,sp,64
    10dc:	0000                	unimp
    10de:	d800                	sw	s0,48(s0)
    10e0:	000e                	c.slli	zero,0x3
    10e2:	0080                	addi	s0,sp,64
    10e4:	0000                	unimp
    10e6:	0300                	addi	s0,sp,384
    10e8:	3f08                	fld	fa0,56(a4)
    10ea:	079f 0ed8 8000      	.byte	0x9f, 0x07, 0xd8, 0x0e, 0x00, 0x80
    10f0:	0000                	unimp
    10f2:	0000                	unimp
    10f4:	0ee0                	addi	s0,sp,860
    10f6:	8000                	.2byte	0x8000
    10f8:	0000                	unimp
    10fa:	0000                	unimp
    10fc:	7f09                	lui	t5,0xfffe2
    10fe:	9100                	.2byte	0x9100
    1100:	7fbe                	ld	t6,488(sp)
    1102:	231c                	fld	fa5,0(a4)
    1104:	07009f3f 80000f16 	.8byte	0x80000f1607009f3f
    110c:	0000                	unimp
    110e:	0000                	unimp
    1110:	0f1c                	addi	a5,sp,912
    1112:	8000                	.2byte	0x8000
    1114:	0000                	unimp
    1116:	0000                	unimp
    1118:	7c09                	lui	s8,0xfffe2
    111a:	9100                	.2byte	0x9100
    111c:	7f81                	lui	t6,0xfffe0
    111e:	231c                	fld	fa5,0(a4)
    1120:	9f01                	subw	a4,a4,s0
    1122:	0700                	addi	s0,sp,896
    1124:	0f12                	slli	t5,t5,0x4
    1126:	8000                	.2byte	0x8000
    1128:	0000                	unimp
    112a:	0000                	unimp
    112c:	0f16                	slli	t5,t5,0x5
    112e:	8000                	.2byte	0x8000
    1130:	0000                	unimp
    1132:	0000                	unimp
    1134:	5f01                	li	t5,-32
    1136:	0700                	addi	s0,sp,896
    1138:	0e24                	addi	s1,sp,792
    113a:	8000                	.2byte	0x8000
    113c:	0000                	unimp
    113e:	0000                	unimp
    1140:	0e26                	slli	t3,t3,0x9
    1142:	8000                	.2byte	0x8000
    1144:	0000                	unimp
    1146:	0000                	unimp
    1148:	6f01                	.2byte	0x6f01
    114a:	000e2e07          	flw	ft8,0(t3) # fffffffffffe4000 <a+0xffffffff7ffe3030>
    114e:	0080                	addi	s0,sp,64
    1150:	0000                	unimp
    1152:	5400                	lw	s0,40(s0)
    1154:	000e                	c.slli	zero,0x3
    1156:	0080                	addi	s0,sp,64
    1158:	0000                	unimp
    115a:	0100                	addi	s0,sp,128
    115c:	0f00076f          	jal	a4,124c <_prog_start-0x7fffedb4>
    1160:	8000                	.2byte	0x8000
    1162:	0000                	unimp
    1164:	0000                	unimp
    1166:	0f04                	addi	s1,sp,912
    1168:	8000                	.2byte	0x8000
    116a:	0000                	unimp
    116c:	0000                	unimp
    116e:	6f01                	.2byte	0x6f01
    1170:	0700                	addi	s0,sp,896
    1172:	0e2e                	slli	t3,t3,0xb
    1174:	8000                	.2byte	0x8000
    1176:	0000                	unimp
    1178:	0000                	unimp
    117a:	0e54                	addi	a3,sp,788
    117c:	8000                	.2byte	0x8000
    117e:	0000                	unimp
    1180:	0000                	unimp
    1182:	5c01                	li	s8,-32
    1184:	0700                	addi	s0,sp,896
    1186:	0e36                	slli	t3,t3,0xd
    1188:	8000                	.2byte	0x8000
    118a:	0000                	unimp
    118c:	0000                	unimp
    118e:	0e54                	addi	a3,sp,788
    1190:	8000                	.2byte	0x8000
    1192:	0000                	unimp
    1194:	0000                	unimp
    1196:	5601                	li	a2,-32
    1198:	0700                	addi	s0,sp,896
    119a:	0e48                	addi	a0,sp,788
    119c:	8000                	.2byte	0x8000
    119e:	0000                	unimp
    11a0:	0000                	unimp
    11a2:	0e4c                	addi	a1,sp,788
    11a4:	8000                	.2byte	0x8000
    11a6:	0000                	unimp
    11a8:	0000                	unimp
    11aa:	5f01                	li	t5,-32
    11ac:	0700                	addi	s0,sp,896
    11ae:	0df6                	slli	s11,s11,0x1d
    11b0:	8000                	.2byte	0x8000
    11b2:	0000                	unimp
    11b4:	0000                	unimp
    11b6:	0e04                	addi	s1,sp,784
    11b8:	8000                	.2byte	0x8000
    11ba:	0000                	unimp
    11bc:	0000                	unimp
    11be:	5d01                	li	s10,-32
    11c0:	0700                	addi	s0,sp,896
    11c2:	0df6                	slli	s11,s11,0x1d
    11c4:	8000                	.2byte	0x8000
    11c6:	0000                	unimp
    11c8:	0000                	unimp
    11ca:	0e04                	addi	s1,sp,784
    11cc:	8000                	.2byte	0x8000
    11ce:	0000                	unimp
    11d0:	0000                	unimp
    11d2:	4904                	lw	s1,16(a0)
    11d4:	244a                	fld	fs0,144(sp)
    11d6:	009f 0007 000e      	.byte	0x9f, 0x00, 0x07, 0x00, 0x0e, 0x00
    11dc:	0080                	addi	s0,sp,64
    11de:	0000                	unimp
    11e0:	0400                	addi	s0,sp,512
    11e2:	000e                	c.slli	zero,0x3
    11e4:	0080                	addi	s0,sp,64
    11e6:	0000                	unimp
    11e8:	0100                	addi	s0,sp,128
    11ea:	005f 5807 000e      	.byte	0x5f, 0x00, 0x07, 0x58, 0x0e, 0x00
    11f0:	0080                	addi	s0,sp,64
    11f2:	0000                	unimp
    11f4:	7a00                	ld	s0,48(a2)
    11f6:	000e                	c.slli	zero,0x3
    11f8:	0080                	addi	s0,sp,64
    11fa:	0000                	unimp
    11fc:	0100                	addi	s0,sp,128
    11fe:	005c                	addi	a5,sp,4
    1200:	000e6007          	.4byte	0xe6007
    1204:	0080                	addi	s0,sp,64
    1206:	0000                	unimp
    1208:	7400                	ld	s0,40(s0)
    120a:	000e                	c.slli	zero,0x3
    120c:	0080                	addi	s0,sp,64
    120e:	0000                	unimp
    1210:	0100                	addi	s0,sp,128
    1212:	075d                	addi	a4,a4,23
    1214:	0e76                	slli	t3,t3,0x1d
    1216:	8000                	.2byte	0x8000
    1218:	0000                	unimp
    121a:	0000                	unimp
    121c:	0e7a                	slli	t3,t3,0x1e
    121e:	8000                	.2byte	0x8000
    1220:	0000                	unimp
    1222:	0000                	unimp
    1224:	5d01                	li	s10,-32
    1226:	0700                	addi	s0,sp,896
    1228:	0e6c                	addi	a1,sp,796
    122a:	8000                	.2byte	0x8000
    122c:	0000                	unimp
    122e:	0000                	unimp
    1230:	0e70                	addi	a2,sp,796
    1232:	8000                	.2byte	0x8000
    1234:	0000                	unimp
    1236:	0000                	unimp
    1238:	5f01                	li	t5,-32
    123a:	0700                	addi	s0,sp,896
    123c:	0ea6                	slli	t4,t4,0x9
    123e:	8000                	.2byte	0x8000
    1240:	0000                	unimp
    1242:	0000                	unimp
    1244:	0eac                	addi	a1,sp,856
    1246:	8000                	.2byte	0x8000
    1248:	0000                	unimp
    124a:	0000                	unimp
    124c:	5f01                	li	t5,-32
    124e:	0700                	addi	s0,sp,896
    1250:	0ebe                	slli	t4,t4,0xf
    1252:	8000                	.2byte	0x8000
    1254:	0000                	unimp
    1256:	0000                	unimp
    1258:	0ec6                	slli	t4,t4,0x11
    125a:	8000                	.2byte	0x8000
    125c:	0000                	unimp
    125e:	0000                	unimp
    1260:	5f01                	li	t5,-32
    1262:	000ec807          	.4byte	0xec807
    1266:	0080                	addi	s0,sp,64
    1268:	0000                	unimp
    126a:	ce00                	sw	s0,24(a2)
    126c:	000e                	c.slli	zero,0x3
    126e:	0080                	addi	s0,sp,64
    1270:	0000                	unimp
    1272:	0100                	addi	s0,sp,128
    1274:	005f 6007 000d      	.byte	0x5f, 0x00, 0x07, 0x60, 0x0d, 0x00
    127a:	0080                	addi	s0,sp,64
    127c:	0000                	unimp
    127e:	6a00                	ld	s0,16(a2)
    1280:	000d                	c.nop	3
    1282:	0080                	addi	s0,sp,64
    1284:	0000                	unimp
    1286:	0100                	addi	s0,sp,128
    1288:	075a                	slli	a4,a4,0x16
    128a:	0d6a                	slli	s10,s10,0x1a
    128c:	8000                	.2byte	0x8000
    128e:	0000                	unimp
    1290:	0000                	unimp
    1292:	0d9e                	slli	s11,s11,0x7
    1294:	8000                	.2byte	0x8000
    1296:	0000                	unimp
    1298:	0000                	unimp
    129a:	a304                	fsd	fs1,0(a4)
    129c:	5a01                	li	s4,-32
    129e:	009f 6007 000d      	.byte	0x9f, 0x00, 0x07, 0x60, 0x0d, 0x00
    12a4:	0080                	addi	s0,sp,64
    12a6:	0000                	unimp
    12a8:	8200                	.2byte	0x8200
    12aa:	000d                	c.nop	3
    12ac:	0080                	addi	s0,sp,64
    12ae:	0000                	unimp
    12b0:	0100                	addi	s0,sp,128
    12b2:	005a                	c.slli	zero,0x16
    12b4:	000d6407          	.4byte	0xd6407
    12b8:	0080                	addi	s0,sp,64
    12ba:	0000                	unimp
    12bc:	7800                	ld	s0,48(s0)
    12be:	000d                	c.nop	3
    12c0:	0080                	addi	s0,sp,64
    12c2:	0000                	unimp
    12c4:	0100                	addi	s0,sp,128
    12c6:	075d                	addi	a4,a4,23
    12c8:	0d7a                	slli	s10,s10,0x1e
    12ca:	8000                	.2byte	0x8000
    12cc:	0000                	unimp
    12ce:	0000                	unimp
    12d0:	0d82                	c.slli64	s11
    12d2:	8000                	.2byte	0x8000
    12d4:	0000                	unimp
    12d6:	0000                	unimp
    12d8:	5d01                	li	s10,-32
    12da:	0700                	addi	s0,sp,896
    12dc:	0d70                	addi	a2,sp,668
    12de:	8000                	.2byte	0x8000
    12e0:	0000                	unimp
    12e2:	0000                	unimp
    12e4:	0d74                	addi	a3,sp,668
    12e6:	8000                	.2byte	0x8000
    12e8:	0000                	unimp
    12ea:	0000                	unimp
    12ec:	5f01                	li	t5,-32
    12ee:	0700                	addi	s0,sp,896
    12f0:	0d88                	addi	a0,sp,720
    12f2:	8000                	.2byte	0x8000
    12f4:	0000                	unimp
    12f6:	0000                	unimp
    12f8:	0d92                	slli	s11,s11,0x4
    12fa:	8000                	.2byte	0x8000
    12fc:	0000                	unimp
    12fe:	0000                	unimp
    1300:	5f01                	li	t5,-32
	...

Disassembly of section .debug_rnglists:

0000000000000000 <.debug_rnglists>:
   0:	077c                	addi	a5,sp,908
   2:	0000                	unimp
   4:	0005                	c.nop	1
   6:	0008                	.2byte	0x8
   8:	0000                	unimp
   a:	0000                	unimp
   c:	3006                	fld	ft0,96(sp)
   e:	0002                	c.slli64	zero
  10:	0080                	addi	s0,sp,64
  12:	0000                	unimp
  14:	3000                	fld	fs0,32(s0)
  16:	0002                	c.slli64	zero
  18:	0080                	addi	s0,sp,64
  1a:	0000                	unimp
  1c:	0600                	addi	s0,sp,768
  1e:	024c                	addi	a1,sp,260
  20:	8000                	.2byte	0x8000
  22:	0000                	unimp
  24:	0000                	unimp
  26:	0254                	addi	a3,sp,260
  28:	8000                	.2byte	0x8000
  2a:	0000                	unimp
  2c:	0000                	unimp
  2e:	5c06                	lw	s8,96(sp)
  30:	0002                	c.slli64	zero
  32:	0080                	addi	s0,sp,64
  34:	0000                	unimp
  36:	5c00                	lw	s0,56(s0)
  38:	0002                	c.slli64	zero
  3a:	0080                	addi	s0,sp,64
  3c:	0000                	unimp
  3e:	0600                	addi	s0,sp,768
  40:	0260                	addi	s0,sp,268
  42:	8000                	.2byte	0x8000
  44:	0000                	unimp
  46:	0000                	unimp
  48:	02a2                	slli	t0,t0,0x8
  4a:	8000                	.2byte	0x8000
  4c:	0000                	unimp
  4e:	0000                	unimp
  50:	0600                	addi	s0,sp,768
  52:	024c                	addi	a1,sp,260
  54:	8000                	.2byte	0x8000
  56:	0000                	unimp
  58:	0000                	unimp
  5a:	0250                	addi	a2,sp,260
  5c:	8000                	.2byte	0x8000
  5e:	0000                	unimp
  60:	0000                	unimp
  62:	5406                	lw	s0,96(sp)
  64:	0002                	c.slli64	zero
  66:	0080                	addi	s0,sp,64
  68:	0000                	unimp
  6a:	5400                	lw	s0,40(s0)
  6c:	0002                	c.slli64	zero
  6e:	0080                	addi	s0,sp,64
  70:	0000                	unimp
  72:	0600                	addi	s0,sp,768
  74:	025c                	addi	a5,sp,260
  76:	8000                	.2byte	0x8000
  78:	0000                	unimp
  7a:	0000                	unimp
  7c:	025c                	addi	a5,sp,260
  7e:	8000                	.2byte	0x8000
  80:	0000                	unimp
  82:	0000                	unimp
  84:	6006                	.2byte	0x6006
  86:	0002                	c.slli64	zero
  88:	0080                	addi	s0,sp,64
  8a:	0000                	unimp
  8c:	9800                	.2byte	0x9800
  8e:	0002                	c.slli64	zero
  90:	0080                	addi	s0,sp,64
  92:	0000                	unimp
  94:	0000                	unimp
  96:	5c06                	lw	s8,96(sp)
  98:	0002                	c.slli64	zero
  9a:	0080                	addi	s0,sp,64
  9c:	0000                	unimp
  9e:	5c00                	lw	s0,56(s0)
  a0:	0002                	c.slli64	zero
  a2:	0080                	addi	s0,sp,64
  a4:	0000                	unimp
  a6:	0600                	addi	s0,sp,768
  a8:	0260                	addi	s0,sp,268
  aa:	8000                	.2byte	0x8000
  ac:	0000                	unimp
  ae:	0000                	unimp
  b0:	028a                	slli	t0,t0,0x2
  b2:	8000                	.2byte	0x8000
  b4:	0000                	unimp
  b6:	0000                	unimp
  b8:	0600                	addi	s0,sp,768
  ba:	02a4                	addi	s1,sp,328
  bc:	8000                	.2byte	0x8000
  be:	0000                	unimp
  c0:	0000                	unimp
  c2:	02a4                	addi	s1,sp,328
  c4:	8000                	.2byte	0x8000
  c6:	0000                	unimp
  c8:	0000                	unimp
  ca:	c406                	sw	ra,8(sp)
  cc:	0002                	c.slli64	zero
  ce:	0080                	addi	s0,sp,64
  d0:	0000                	unimp
  d2:	cc00                	sw	s0,24(s0)
  d4:	0002                	c.slli64	zero
  d6:	0080                	addi	s0,sp,64
  d8:	0000                	unimp
  da:	0600                	addi	s0,sp,768
  dc:	02d4                	addi	a3,sp,324
  de:	8000                	.2byte	0x8000
  e0:	0000                	unimp
  e2:	0000                	unimp
  e4:	02d4                	addi	a3,sp,324
  e6:	8000                	.2byte	0x8000
  e8:	0000                	unimp
  ea:	0000                	unimp
  ec:	d806                	sw	ra,48(sp)
  ee:	0002                	c.slli64	zero
  f0:	0080                	addi	s0,sp,64
  f2:	0000                	unimp
  f4:	2200                	fld	fs0,0(a2)
  f6:	00800003          	lb	zero,8(zero) # 8 <_prog_start-0x7ffffff8>
  fa:	0000                	unimp
  fc:	0000                	unimp
  fe:	c406                	sw	ra,8(sp)
 100:	0002                	c.slli64	zero
 102:	0080                	addi	s0,sp,64
 104:	0000                	unimp
 106:	c800                	sw	s0,16(s0)
 108:	0002                	c.slli64	zero
 10a:	0080                	addi	s0,sp,64
 10c:	0000                	unimp
 10e:	0600                	addi	s0,sp,768
 110:	02cc                	addi	a1,sp,324
 112:	8000                	.2byte	0x8000
 114:	0000                	unimp
 116:	0000                	unimp
 118:	02cc                	addi	a1,sp,324
 11a:	8000                	.2byte	0x8000
 11c:	0000                	unimp
 11e:	0000                	unimp
 120:	d406                	sw	ra,40(sp)
 122:	0002                	c.slli64	zero
 124:	0080                	addi	s0,sp,64
 126:	0000                	unimp
 128:	d400                	sw	s0,40(s0)
 12a:	0002                	c.slli64	zero
 12c:	0080                	addi	s0,sp,64
 12e:	0000                	unimp
 130:	0600                	addi	s0,sp,768
 132:	02d8                	addi	a4,sp,324
 134:	8000                	.2byte	0x8000
 136:	0000                	unimp
 138:	0000                	unimp
 13a:	0318                	addi	a4,sp,384
 13c:	8000                	.2byte	0x8000
 13e:	0000                	unimp
 140:	0000                	unimp
 142:	0600                	addi	s0,sp,768
 144:	02d4                	addi	a3,sp,324
 146:	8000                	.2byte	0x8000
 148:	0000                	unimp
 14a:	0000                	unimp
 14c:	02d4                	addi	a3,sp,324
 14e:	8000                	.2byte	0x8000
 150:	0000                	unimp
 152:	0000                	unimp
 154:	d806                	sw	ra,48(sp)
 156:	0002                	c.slli64	zero
 158:	0080                	addi	s0,sp,64
 15a:	0000                	unimp
 15c:	0a00                	addi	s0,sp,272
 15e:	00800003          	lb	zero,8(zero) # 8 <_prog_start-0x7ffffff8>
 162:	0000                	unimp
 164:	0000                	unimp
 166:	2806                	fld	fa6,64(sp)
 168:	00800003          	lb	zero,8(zero) # 8 <_prog_start-0x7ffffff8>
 16c:	0000                	unimp
 16e:	2800                	fld	fs0,16(s0)
 170:	00800003          	lb	zero,8(zero) # 8 <_prog_start-0x7ffffff8>
 174:	0000                	unimp
 176:	0600                	addi	s0,sp,768
 178:	0348                	addi	a0,sp,388
 17a:	8000                	.2byte	0x8000
 17c:	0000                	unimp
 17e:	0000                	unimp
 180:	0350                	addi	a2,sp,388
 182:	8000                	.2byte	0x8000
 184:	0000                	unimp
 186:	0000                	unimp
 188:	5806                	lw	a6,96(sp)
 18a:	00800003          	lb	zero,8(zero) # 8 <_prog_start-0x7ffffff8>
 18e:	0000                	unimp
 190:	5800                	lw	s0,48(s0)
 192:	00800003          	lb	zero,8(zero) # 8 <_prog_start-0x7ffffff8>
 196:	0000                	unimp
 198:	0600                	addi	s0,sp,768
 19a:	035c                	addi	a5,sp,388
 19c:	8000                	.2byte	0x8000
 19e:	0000                	unimp
 1a0:	0000                	unimp
 1a2:	03a6                	slli	t2,t2,0x9
 1a4:	8000                	.2byte	0x8000
 1a6:	0000                	unimp
 1a8:	0000                	unimp
 1aa:	0600                	addi	s0,sp,768
 1ac:	0348                	addi	a0,sp,388
 1ae:	8000                	.2byte	0x8000
 1b0:	0000                	unimp
 1b2:	0000                	unimp
 1b4:	034c                	addi	a1,sp,388
 1b6:	8000                	.2byte	0x8000
 1b8:	0000                	unimp
 1ba:	0000                	unimp
 1bc:	5006                	.2byte	0x5006
 1be:	00800003          	lb	zero,8(zero) # 8 <_prog_start-0x7ffffff8>
 1c2:	0000                	unimp
 1c4:	5000                	lw	s0,32(s0)
 1c6:	00800003          	lb	zero,8(zero) # 8 <_prog_start-0x7ffffff8>
 1ca:	0000                	unimp
 1cc:	0600                	addi	s0,sp,768
 1ce:	0358                	addi	a4,sp,388
 1d0:	8000                	.2byte	0x8000
 1d2:	0000                	unimp
 1d4:	0000                	unimp
 1d6:	0358                	addi	a4,sp,388
 1d8:	8000                	.2byte	0x8000
 1da:	0000                	unimp
 1dc:	0000                	unimp
 1de:	5c06                	lw	s8,96(sp)
 1e0:	00800003          	lb	zero,8(zero) # 8 <_prog_start-0x7ffffff8>
 1e4:	0000                	unimp
 1e6:	9c00                	.2byte	0x9c00
 1e8:	00800003          	lb	zero,8(zero) # 8 <_prog_start-0x7ffffff8>
 1ec:	0000                	unimp
 1ee:	0000                	unimp
 1f0:	5806                	lw	a6,96(sp)
 1f2:	00800003          	lb	zero,8(zero) # 8 <_prog_start-0x7ffffff8>
 1f6:	0000                	unimp
 1f8:	5800                	lw	s0,48(s0)
 1fa:	00800003          	lb	zero,8(zero) # 8 <_prog_start-0x7ffffff8>
 1fe:	0000                	unimp
 200:	0600                	addi	s0,sp,768
 202:	035c                	addi	a5,sp,388
 204:	8000                	.2byte	0x8000
 206:	0000                	unimp
 208:	0000                	unimp
 20a:	038e                	slli	t2,t2,0x3
 20c:	8000                	.2byte	0x8000
 20e:	0000                	unimp
 210:	0000                	unimp
 212:	0600                	addi	s0,sp,768
 214:	03ac                	addi	a1,sp,456
 216:	8000                	.2byte	0x8000
 218:	0000                	unimp
 21a:	0000                	unimp
 21c:	03ac                	addi	a1,sp,456
 21e:	8000                	.2byte	0x8000
 220:	0000                	unimp
 222:	0000                	unimp
 224:	cc06                	sw	ra,24(sp)
 226:	00800003          	lb	zero,8(zero) # 8 <_prog_start-0x7ffffff8>
 22a:	0000                	unimp
 22c:	d400                	sw	s0,40(s0)
 22e:	00800003          	lb	zero,8(zero) # 8 <_prog_start-0x7ffffff8>
 232:	0000                	unimp
 234:	0600                	addi	s0,sp,768
 236:	03dc                	addi	a5,sp,452
 238:	8000                	.2byte	0x8000
 23a:	0000                	unimp
 23c:	0000                	unimp
 23e:	03dc                	addi	a5,sp,452
 240:	8000                	.2byte	0x8000
 242:	0000                	unimp
 244:	0000                	unimp
 246:	e006                	sd	ra,0(sp)
 248:	00800003          	lb	zero,8(zero) # 8 <_prog_start-0x7ffffff8>
 24c:	0000                	unimp
 24e:	2a00                	fld	fs0,16(a2)
 250:	0004                	.2byte	0x4
 252:	0080                	addi	s0,sp,64
 254:	0000                	unimp
 256:	0000                	unimp
 258:	cc06                	sw	ra,24(sp)
 25a:	00800003          	lb	zero,8(zero) # 8 <_prog_start-0x7ffffff8>
 25e:	0000                	unimp
 260:	d000                	sw	s0,32(s0)
 262:	00800003          	lb	zero,8(zero) # 8 <_prog_start-0x7ffffff8>
 266:	0000                	unimp
 268:	0600                	addi	s0,sp,768
 26a:	03d4                	addi	a3,sp,452
 26c:	8000                	.2byte	0x8000
 26e:	0000                	unimp
 270:	0000                	unimp
 272:	03d4                	addi	a3,sp,452
 274:	8000                	.2byte	0x8000
 276:	0000                	unimp
 278:	0000                	unimp
 27a:	dc06                	sw	ra,56(sp)
 27c:	00800003          	lb	zero,8(zero) # 8 <_prog_start-0x7ffffff8>
 280:	0000                	unimp
 282:	dc00                	sw	s0,56(s0)
 284:	00800003          	lb	zero,8(zero) # 8 <_prog_start-0x7ffffff8>
 288:	0000                	unimp
 28a:	0600                	addi	s0,sp,768
 28c:	03e0                	addi	s0,sp,460
 28e:	8000                	.2byte	0x8000
 290:	0000                	unimp
 292:	0000                	unimp
 294:	0420                	addi	s0,sp,520
 296:	8000                	.2byte	0x8000
 298:	0000                	unimp
 29a:	0000                	unimp
 29c:	0600                	addi	s0,sp,768
 29e:	03dc                	addi	a5,sp,452
 2a0:	8000                	.2byte	0x8000
 2a2:	0000                	unimp
 2a4:	0000                	unimp
 2a6:	03dc                	addi	a5,sp,452
 2a8:	8000                	.2byte	0x8000
 2aa:	0000                	unimp
 2ac:	0000                	unimp
 2ae:	e006                	sd	ra,0(sp)
 2b0:	00800003          	lb	zero,8(zero) # 8 <_prog_start-0x7ffffff8>
 2b4:	0000                	unimp
 2b6:	1200                	addi	s0,sp,288
 2b8:	0004                	.2byte	0x4
 2ba:	0080                	addi	s0,sp,64
 2bc:	0000                	unimp
 2be:	0000                	unimp
 2c0:	3006                	fld	ft0,96(sp)
 2c2:	0004                	.2byte	0x4
 2c4:	0080                	addi	s0,sp,64
 2c6:	0000                	unimp
 2c8:	3000                	fld	fs0,32(s0)
 2ca:	0004                	.2byte	0x4
 2cc:	0080                	addi	s0,sp,64
 2ce:	0000                	unimp
 2d0:	0600                	addi	s0,sp,768
 2d2:	044a                	slli	s0,s0,0x12
 2d4:	8000                	.2byte	0x8000
 2d6:	0000                	unimp
 2d8:	0000                	unimp
 2da:	0472                	slli	s0,s0,0x1c
 2dc:	8000                	.2byte	0x8000
 2de:	0000                	unimp
 2e0:	0000                	unimp
 2e2:	0600                	addi	s0,sp,768
 2e4:	0474                	addi	a3,sp,524
 2e6:	8000                	.2byte	0x8000
 2e8:	0000                	unimp
 2ea:	0000                	unimp
 2ec:	0474                	addi	a3,sp,524
 2ee:	8000                	.2byte	0x8000
 2f0:	0000                	unimp
 2f2:	0000                	unimp
 2f4:	8e06                	mv	t3,ra
 2f6:	0004                	.2byte	0x4
 2f8:	0080                	addi	s0,sp,64
 2fa:	0000                	unimp
 2fc:	b600                	fsd	fs0,40(a2)
 2fe:	0004                	.2byte	0x4
 300:	0080                	addi	s0,sp,64
 302:	0000                	unimp
 304:	0000                	unimp
 306:	b806                	fsd	ft1,48(sp)
 308:	0004                	.2byte	0x4
 30a:	0080                	addi	s0,sp,64
 30c:	0000                	unimp
 30e:	b800                	fsd	fs0,48(s0)
 310:	0004                	.2byte	0x4
 312:	0080                	addi	s0,sp,64
 314:	0000                	unimp
 316:	0600                	addi	s0,sp,768
 318:	04bc                	addi	a5,sp,584
 31a:	8000                	.2byte	0x8000
 31c:	0000                	unimp
 31e:	0000                	unimp
 320:	04e0                	addi	s0,sp,588
 322:	8000                	.2byte	0x8000
 324:	0000                	unimp
 326:	0000                	unimp
 328:	e806                	sd	ra,16(sp)
 32a:	0004                	.2byte	0x4
 32c:	0080                	addi	s0,sp,64
 32e:	0000                	unimp
 330:	4000                	lw	s0,0(s0)
 332:	0005                	c.nop	1
 334:	0080                	addi	s0,sp,64
 336:	0000                	unimp
 338:	0000                	unimp
 33a:	bc06                	fsd	ft1,56(sp)
 33c:	0004                	.2byte	0x4
 33e:	0080                	addi	s0,sp,64
 340:	0000                	unimp
 342:	dc00                	sw	s0,56(s0)
 344:	0004                	.2byte	0x4
 346:	0080                	addi	s0,sp,64
 348:	0000                	unimp
 34a:	0600                	addi	s0,sp,768
 34c:	04e0                	addi	s0,sp,588
 34e:	8000                	.2byte	0x8000
 350:	0000                	unimp
 352:	0000                	unimp
 354:	04e0                	addi	s0,sp,588
 356:	8000                	.2byte	0x8000
 358:	0000                	unimp
 35a:	0000                	unimp
 35c:	e806                	sd	ra,16(sp)
 35e:	0004                	.2byte	0x4
 360:	0080                	addi	s0,sp,64
 362:	0000                	unimp
 364:	3600                	fld	fs0,40(a2)
 366:	0005                	c.nop	1
 368:	0080                	addi	s0,sp,64
 36a:	0000                	unimp
 36c:	0000                	unimp
 36e:	4606                	lw	a2,64(sp)
 370:	0005                	c.nop	1
 372:	0080                	addi	s0,sp,64
 374:	0000                	unimp
 376:	4600                	lw	s0,8(a2)
 378:	0005                	c.nop	1
 37a:	0080                	addi	s0,sp,64
 37c:	0000                	unimp
 37e:	0600                	addi	s0,sp,768
 380:	054a                	slli	a0,a0,0x12
 382:	8000                	.2byte	0x8000
 384:	0000                	unimp
 386:	0000                	unimp
 388:	056e                	slli	a0,a0,0x1b
 38a:	8000                	.2byte	0x8000
 38c:	0000                	unimp
 38e:	0000                	unimp
 390:	7606                	ld	a2,96(sp)
 392:	0005                	c.nop	1
 394:	0080                	addi	s0,sp,64
 396:	0000                	unimp
 398:	ce00                	sw	s0,24(a2)
 39a:	0005                	c.nop	1
 39c:	0080                	addi	s0,sp,64
 39e:	0000                	unimp
 3a0:	0000                	unimp
 3a2:	4a06                	lw	s4,64(sp)
 3a4:	0005                	c.nop	1
 3a6:	0080                	addi	s0,sp,64
 3a8:	0000                	unimp
 3aa:	6a00                	ld	s0,16(a2)
 3ac:	0005                	c.nop	1
 3ae:	0080                	addi	s0,sp,64
 3b0:	0000                	unimp
 3b2:	0600                	addi	s0,sp,768
 3b4:	056e                	slli	a0,a0,0x1b
 3b6:	8000                	.2byte	0x8000
 3b8:	0000                	unimp
 3ba:	0000                	unimp
 3bc:	056e                	slli	a0,a0,0x1b
 3be:	8000                	.2byte	0x8000
 3c0:	0000                	unimp
 3c2:	0000                	unimp
 3c4:	7606                	ld	a2,96(sp)
 3c6:	0005                	c.nop	1
 3c8:	0080                	addi	s0,sp,64
 3ca:	0000                	unimp
 3cc:	c400                	sw	s0,8(s0)
 3ce:	0005                	c.nop	1
 3d0:	0080                	addi	s0,sp,64
 3d2:	0000                	unimp
 3d4:	0000                	unimp
 3d6:	d406                	sw	ra,40(sp)
 3d8:	0005                	c.nop	1
 3da:	0080                	addi	s0,sp,64
 3dc:	0000                	unimp
 3de:	d400                	sw	s0,40(s0)
 3e0:	0005                	c.nop	1
 3e2:	0080                	addi	s0,sp,64
 3e4:	0000                	unimp
 3e6:	0600                	addi	s0,sp,768
 3e8:	05d8                	addi	a4,sp,708
 3ea:	8000                	.2byte	0x8000
 3ec:	0000                	unimp
 3ee:	0000                	unimp
 3f0:	05fc                	addi	a5,sp,716
 3f2:	8000                	.2byte	0x8000
 3f4:	0000                	unimp
 3f6:	0000                	unimp
 3f8:	0406                	slli	s0,s0,0x1
 3fa:	0006                	c.slli	zero,0x1
 3fc:	0080                	addi	s0,sp,64
 3fe:	0000                	unimp
 400:	5c00                	lw	s0,56(s0)
 402:	0006                	c.slli	zero,0x1
 404:	0080                	addi	s0,sp,64
 406:	0000                	unimp
 408:	0000                	unimp
 40a:	d806                	sw	ra,48(sp)
 40c:	0005                	c.nop	1
 40e:	0080                	addi	s0,sp,64
 410:	0000                	unimp
 412:	f800                	sd	s0,48(s0)
 414:	0005                	c.nop	1
 416:	0080                	addi	s0,sp,64
 418:	0000                	unimp
 41a:	0600                	addi	s0,sp,768
 41c:	05fc                	addi	a5,sp,716
 41e:	8000                	.2byte	0x8000
 420:	0000                	unimp
 422:	0000                	unimp
 424:	05fc                	addi	a5,sp,716
 426:	8000                	.2byte	0x8000
 428:	0000                	unimp
 42a:	0000                	unimp
 42c:	0406                	slli	s0,s0,0x1
 42e:	0006                	c.slli	zero,0x1
 430:	0080                	addi	s0,sp,64
 432:	0000                	unimp
 434:	5200                	lw	s0,32(a2)
 436:	0006                	c.slli	zero,0x1
 438:	0080                	addi	s0,sp,64
 43a:	0000                	unimp
 43c:	0000                	unimp
 43e:	6206                	ld	tp,64(sp)
 440:	0006                	c.slli	zero,0x1
 442:	0080                	addi	s0,sp,64
 444:	0000                	unimp
 446:	6200                	ld	s0,0(a2)
 448:	0006                	c.slli	zero,0x1
 44a:	0080                	addi	s0,sp,64
 44c:	0000                	unimp
 44e:	0600                	addi	s0,sp,768
 450:	0666                	slli	a2,a2,0x19
 452:	8000                	.2byte	0x8000
 454:	0000                	unimp
 456:	0000                	unimp
 458:	068a                	slli	a3,a3,0x2
 45a:	8000                	.2byte	0x8000
 45c:	0000                	unimp
 45e:	0000                	unimp
 460:	9206                	add	tp,tp,ra
 462:	0006                	c.slli	zero,0x1
 464:	0080                	addi	s0,sp,64
 466:	0000                	unimp
 468:	ea00                	sd	s0,16(a2)
 46a:	0006                	c.slli	zero,0x1
 46c:	0080                	addi	s0,sp,64
 46e:	0000                	unimp
 470:	0000                	unimp
 472:	6606                	ld	a2,64(sp)
 474:	0006                	c.slli	zero,0x1
 476:	0080                	addi	s0,sp,64
 478:	0000                	unimp
 47a:	8600                	.2byte	0x8600
 47c:	0006                	c.slli	zero,0x1
 47e:	0080                	addi	s0,sp,64
 480:	0000                	unimp
 482:	0600                	addi	s0,sp,768
 484:	068a                	slli	a3,a3,0x2
 486:	8000                	.2byte	0x8000
 488:	0000                	unimp
 48a:	0000                	unimp
 48c:	068a                	slli	a3,a3,0x2
 48e:	8000                	.2byte	0x8000
 490:	0000                	unimp
 492:	0000                	unimp
 494:	9206                	add	tp,tp,ra
 496:	0006                	c.slli	zero,0x1
 498:	0080                	addi	s0,sp,64
 49a:	0000                	unimp
 49c:	e000                	sd	s0,0(s0)
 49e:	0006                	c.slli	zero,0x1
 4a0:	0080                	addi	s0,sp,64
 4a2:	0000                	unimp
 4a4:	0000                	unimp
 4a6:	f006                	sd	ra,32(sp)
 4a8:	0006                	c.slli	zero,0x1
 4aa:	0080                	addi	s0,sp,64
 4ac:	0000                	unimp
 4ae:	f000                	sd	s0,32(s0)
 4b0:	0006                	c.slli	zero,0x1
 4b2:	0080                	addi	s0,sp,64
 4b4:	0000                	unimp
 4b6:	0600                	addi	s0,sp,768
 4b8:	070a                	slli	a4,a4,0x2
 4ba:	8000                	.2byte	0x8000
 4bc:	0000                	unimp
 4be:	0000                	unimp
 4c0:	0732                	slli	a4,a4,0xc
 4c2:	8000                	.2byte	0x8000
 4c4:	0000                	unimp
 4c6:	0000                	unimp
 4c8:	0600                	addi	s0,sp,768
 4ca:	0734                	addi	a3,sp,904
 4cc:	8000                	.2byte	0x8000
 4ce:	0000                	unimp
 4d0:	0000                	unimp
 4d2:	0734                	addi	a3,sp,904
 4d4:	8000                	.2byte	0x8000
 4d6:	0000                	unimp
 4d8:	0000                	unimp
 4da:	4e06                	lw	t3,64(sp)
 4dc:	00800007          	.4byte	0x800007
 4e0:	0000                	unimp
 4e2:	7600                	ld	s0,40(a2)
 4e4:	00800007          	.4byte	0x800007
 4e8:	0000                	unimp
 4ea:	0000                	unimp
 4ec:	7806                	ld	a6,96(sp)
 4ee:	00800007          	.4byte	0x800007
 4f2:	0000                	unimp
 4f4:	7800                	ld	s0,48(s0)
 4f6:	00800007          	.4byte	0x800007
 4fa:	0000                	unimp
 4fc:	0600                	addi	s0,sp,768
 4fe:	0782                	c.slli64	a5
 500:	8000                	.2byte	0x8000
 502:	0000                	unimp
 504:	0000                	unimp
 506:	0804                	addi	s1,sp,16
 508:	8000                	.2byte	0x8000
 50a:	0000                	unimp
 50c:	0000                	unimp
 50e:	0600                	addi	s0,sp,768
 510:	0782                	c.slli64	a5
 512:	8000                	.2byte	0x8000
 514:	0000                	unimp
 516:	0000                	unimp
 518:	0784                	addi	s1,sp,960
 51a:	8000                	.2byte	0x8000
 51c:	0000                	unimp
 51e:	0000                	unimp
 520:	a606                	fsd	ft1,264(sp)
 522:	00800007          	.4byte	0x800007
 526:	0000                	unimp
 528:	aa00                	fsd	fs0,16(a2)
 52a:	00800007          	.4byte	0x800007
 52e:	0000                	unimp
 530:	0600                	addi	s0,sp,768
 532:	07ac                	addi	a1,sp,968
 534:	8000                	.2byte	0x8000
 536:	0000                	unimp
 538:	0000                	unimp
 53a:	07fc                	addi	a5,sp,972
 53c:	8000                	.2byte	0x8000
 53e:	0000                	unimp
 540:	0000                	unimp
 542:	0600                	addi	s0,sp,768
 544:	0810                	addi	a2,sp,16
 546:	8000                	.2byte	0x8000
 548:	0000                	unimp
 54a:	0000                	unimp
 54c:	0810                	addi	a2,sp,16
 54e:	8000                	.2byte	0x8000
 550:	0000                	unimp
 552:	0000                	unimp
 554:	1206                	slli	tp,tp,0x21
 556:	0008                	.2byte	0x8
 558:	0080                	addi	s0,sp,64
 55a:	0000                	unimp
 55c:	1400                	addi	s0,sp,544
 55e:	0008                	.2byte	0x8
 560:	0080                	addi	s0,sp,64
 562:	0000                	unimp
 564:	0600                	addi	s0,sp,768
 566:	081c                	addi	a5,sp,16
 568:	8000                	.2byte	0x8000
 56a:	0000                	unimp
 56c:	0000                	unimp
 56e:	08a0                	addi	s0,sp,88
 570:	8000                	.2byte	0x8000
 572:	0000                	unimp
 574:	0000                	unimp
 576:	0600                	addi	s0,sp,768
 578:	0812                	slli	a6,a6,0x4
 57a:	8000                	.2byte	0x8000
 57c:	0000                	unimp
 57e:	0000                	unimp
 580:	0814                	addi	a3,sp,16
 582:	8000                	.2byte	0x8000
 584:	0000                	unimp
 586:	0000                	unimp
 588:	1c06                	slli	s8,s8,0x21
 58a:	0008                	.2byte	0x8
 58c:	0080                	addi	s0,sp,64
 58e:	0000                	unimp
 590:	1e00                	addi	s0,sp,816
 592:	0008                	.2byte	0x8
 594:	0080                	addi	s0,sp,64
 596:	0000                	unimp
 598:	0600                	addi	s0,sp,768
 59a:	0840                	addi	s0,sp,20
 59c:	8000                	.2byte	0x8000
 59e:	0000                	unimp
 5a0:	0000                	unimp
 5a2:	0844                	addi	s1,sp,20
 5a4:	8000                	.2byte	0x8000
 5a6:	0000                	unimp
 5a8:	0000                	unimp
 5aa:	4806                	lw	a6,64(sp)
 5ac:	0008                	.2byte	0x8
 5ae:	0080                	addi	s0,sp,64
 5b0:	0000                	unimp
 5b2:	9800                	.2byte	0x9800
 5b4:	0008                	.2byte	0x8
 5b6:	0080                	addi	s0,sp,64
 5b8:	0000                	unimp
 5ba:	0000                	unimp
 5bc:	ac06                	fsd	ft1,24(sp)
 5be:	0008                	.2byte	0x8
 5c0:	0080                	addi	s0,sp,64
 5c2:	0000                	unimp
 5c4:	ac00                	fsd	fs0,24(s0)
 5c6:	0008                	.2byte	0x8
 5c8:	0080                	addi	s0,sp,64
 5ca:	0000                	unimp
 5cc:	0600                	addi	s0,sp,768
 5ce:	08ae                	slli	a7,a7,0xb
 5d0:	8000                	.2byte	0x8000
 5d2:	0000                	unimp
 5d4:	0000                	unimp
 5d6:	08b0                	addi	a2,sp,88
 5d8:	8000                	.2byte	0x8000
 5da:	0000                	unimp
 5dc:	0000                	unimp
 5de:	b806                	fsd	ft1,48(sp)
 5e0:	0008                	.2byte	0x8
 5e2:	0080                	addi	s0,sp,64
 5e4:	0000                	unimp
 5e6:	4000                	lw	s0,0(s0)
 5e8:	0009                	c.nop	2
 5ea:	0080                	addi	s0,sp,64
 5ec:	0000                	unimp
 5ee:	0000                	unimp
 5f0:	ae06                	fsd	ft1,280(sp)
 5f2:	0008                	.2byte	0x8
 5f4:	0080                	addi	s0,sp,64
 5f6:	0000                	unimp
 5f8:	b000                	fsd	fs0,32(s0)
 5fa:	0008                	.2byte	0x8
 5fc:	0080                	addi	s0,sp,64
 5fe:	0000                	unimp
 600:	0600                	addi	s0,sp,768
 602:	08b8                	addi	a4,sp,88
 604:	8000                	.2byte	0x8000
 606:	0000                	unimp
 608:	0000                	unimp
 60a:	08bc                	addi	a5,sp,88
 60c:	8000                	.2byte	0x8000
 60e:	0000                	unimp
 610:	0000                	unimp
 612:	e006                	sd	ra,0(sp)
 614:	0008                	.2byte	0x8
 616:	0080                	addi	s0,sp,64
 618:	0000                	unimp
 61a:	e400                	sd	s0,8(s0)
 61c:	0008                	.2byte	0x8
 61e:	0080                	addi	s0,sp,64
 620:	0000                	unimp
 622:	0600                	addi	s0,sp,768
 624:	08e8                	addi	a0,sp,92
 626:	8000                	.2byte	0x8000
 628:	0000                	unimp
 62a:	0000                	unimp
 62c:	0938                	addi	a4,sp,152
 62e:	8000                	.2byte	0x8000
 630:	0000                	unimp
 632:	0000                	unimp
 634:	0600                	addi	s0,sp,768
 636:	094c                	addi	a1,sp,148
 638:	8000                	.2byte	0x8000
 63a:	0000                	unimp
 63c:	0000                	unimp
 63e:	094c                	addi	a1,sp,148
 640:	8000                	.2byte	0x8000
 642:	0000                	unimp
 644:	0000                	unimp
 646:	4e06                	lw	t3,64(sp)
 648:	0009                	c.nop	2
 64a:	0080                	addi	s0,sp,64
 64c:	0000                	unimp
 64e:	5000                	lw	s0,32(s0)
 650:	0009                	c.nop	2
 652:	0080                	addi	s0,sp,64
 654:	0000                	unimp
 656:	0600                	addi	s0,sp,768
 658:	0956                	slli	s2,s2,0x15
 65a:	8000                	.2byte	0x8000
 65c:	0000                	unimp
 65e:	0000                	unimp
 660:	09da                	slli	s3,s3,0x16
 662:	8000                	.2byte	0x8000
 664:	0000                	unimp
 666:	0000                	unimp
 668:	0600                	addi	s0,sp,768
 66a:	094e                	slli	s2,s2,0x13
 66c:	8000                	.2byte	0x8000
 66e:	0000                	unimp
 670:	0000                	unimp
 672:	0950                	addi	a2,sp,148
 674:	8000                	.2byte	0x8000
 676:	0000                	unimp
 678:	0000                	unimp
 67a:	5606                	lw	a2,96(sp)
 67c:	0009                	c.nop	2
 67e:	0080                	addi	s0,sp,64
 680:	0000                	unimp
 682:	5a00                	lw	s0,48(a2)
 684:	0009                	c.nop	2
 686:	0080                	addi	s0,sp,64
 688:	0000                	unimp
 68a:	0600                	addi	s0,sp,768
 68c:	097e                	slli	s2,s2,0x1f
 68e:	8000                	.2byte	0x8000
 690:	0000                	unimp
 692:	0000                	unimp
 694:	09d2                	slli	s3,s3,0x14
 696:	8000                	.2byte	0x8000
 698:	0000                	unimp
 69a:	0000                	unimp
 69c:	0600                	addi	s0,sp,768
 69e:	0a1c                	addi	a5,sp,272
 6a0:	8000                	.2byte	0x8000
 6a2:	0000                	unimp
 6a4:	0000                	unimp
 6a6:	0a98                	addi	a4,sp,336
 6a8:	8000                	.2byte	0x8000
 6aa:	0000                	unimp
 6ac:	0000                	unimp
 6ae:	c006                	sw	ra,0(sp)
 6b0:	000a                	c.slli	zero,0x2
 6b2:	0080                	addi	s0,sp,64
 6b4:	0000                	unimp
 6b6:	c200                	sw	s0,0(a2)
 6b8:	000a                	c.slli	zero,0x2
 6ba:	0080                	addi	s0,sp,64
 6bc:	0000                	unimp
 6be:	0000                	unimp
 6c0:	ac06                	fsd	ft1,24(sp)
 6c2:	000a                	c.slli	zero,0x2
 6c4:	0080                	addi	s0,sp,64
 6c6:	0000                	unimp
 6c8:	ae00                	fsd	fs0,24(a2)
 6ca:	000a                	c.slli	zero,0x2
 6cc:	0080                	addi	s0,sp,64
 6ce:	0000                	unimp
 6d0:	0600                	addi	s0,sp,768
 6d2:	0abc                	addi	a5,sp,344
 6d4:	8000                	.2byte	0x8000
 6d6:	0000                	unimp
 6d8:	0000                	unimp
 6da:	0ac0                	addi	s0,sp,340
 6dc:	8000                	.2byte	0x8000
 6de:	0000                	unimp
 6e0:	0000                	unimp
 6e2:	c206                	sw	ra,4(sp)
 6e4:	000a                	c.slli	zero,0x2
 6e6:	0080                	addi	s0,sp,64
 6e8:	0000                	unimp
 6ea:	e200                	sd	s0,0(a2)
 6ec:	000a                	c.slli	zero,0x2
 6ee:	0080                	addi	s0,sp,64
 6f0:	0000                	unimp
 6f2:	0000                	unimp
 6f4:	c006                	sw	ra,0(sp)
 6f6:	000a                	c.slli	zero,0x2
 6f8:	0080                	addi	s0,sp,64
 6fa:	0000                	unimp
 6fc:	c000                	sw	s0,0(s0)
 6fe:	000a                	c.slli	zero,0x2
 700:	0080                	addi	s0,sp,64
 702:	0000                	unimp
 704:	0600                	addi	s0,sp,768
 706:	0ac2                	slli	s5,s5,0x10
 708:	8000                	.2byte	0x8000
 70a:	0000                	unimp
 70c:	0000                	unimp
 70e:	0ad6                	slli	s5,s5,0x15
 710:	8000                	.2byte	0x8000
 712:	0000                	unimp
 714:	0000                	unimp
 716:	0600                	addi	s0,sp,768
 718:	0b32                	slli	s6,s6,0xc
 71a:	8000                	.2byte	0x8000
 71c:	0000                	unimp
 71e:	0000                	unimp
 720:	0b42                	slli	s6,s6,0x10
 722:	8000                	.2byte	0x8000
 724:	0000                	unimp
 726:	0000                	unimp
 728:	4406                	lw	s0,64(sp)
 72a:	0080000b          	.4byte	0x80000b
 72e:	0000                	unimp
 730:	8800                	.2byte	0x8800
 732:	0080000b          	.4byte	0x80000b
 736:	0000                	unimp
 738:	0000                	unimp
 73a:	be06                	fsd	ft1,312(sp)
 73c:	0080000b          	.4byte	0x80000b
 740:	0000                	unimp
 742:	c600                	sw	s0,8(a2)
 744:	0080000b          	.4byte	0x80000b
 748:	0000                	unimp
 74a:	0600                	addi	s0,sp,768
 74c:	0bc8                	addi	a0,sp,468
 74e:	8000                	.2byte	0x8000
 750:	0000                	unimp
 752:	0000                	unimp
 754:	0bfc                	addi	a5,sp,476
 756:	8000                	.2byte	0x8000
 758:	0000                	unimp
 75a:	0000                	unimp
 75c:	0600                	addi	s0,sp,768
 75e:	0230                	addi	a2,sp,264
 760:	8000                	.2byte	0x8000
 762:	0000                	unimp
 764:	0000                	unimp
 766:	09e4                	addi	s1,sp,220
 768:	8000                	.2byte	0x8000
 76a:	0000                	unimp
 76c:	0000                	unimp
 76e:	e406                	sd	ra,8(sp)
 770:	0009                	c.nop	2
 772:	0080                	addi	s0,sp,64
 774:	0000                	unimp
 776:	6000                	ld	s0,0(s0)
 778:	000d                	c.nop	3
 77a:	0080                	addi	s0,sp,64
 77c:	0000                	unimp
 77e:	0000                	unimp
 780:	00000153          	fadd.s	ft2,ft0,ft0,rne
 784:	0005                	c.nop	1
 786:	0008                	.2byte	0x8
 788:	0000                	unimp
 78a:	0000                	unimp
 78c:	c406                	sw	ra,8(sp)
 78e:	000d                	c.nop	3
 790:	0080                	addi	s0,sp,64
 792:	0000                	unimp
 794:	c800                	sw	s0,16(s0)
 796:	000d                	c.nop	3
 798:	0080                	addi	s0,sp,64
 79a:	0000                	unimp
 79c:	0600                	addi	s0,sp,768
 79e:	0eb8                	addi	a4,sp,856
 7a0:	8000                	.2byte	0x8000
 7a2:	0000                	unimp
 7a4:	0000                	unimp
 7a6:	0ed0                	addi	a2,sp,852
 7a8:	8000                	.2byte	0x8000
 7aa:	0000                	unimp
 7ac:	0000                	unimp
 7ae:	0600                	addi	s0,sp,768
 7b0:	0dec                	addi	a1,sp,732
 7b2:	8000                	.2byte	0x8000
 7b4:	0000                	unimp
 7b6:	0000                	unimp
 7b8:	0e04                	addi	s1,sp,784
 7ba:	8000                	.2byte	0x8000
 7bc:	0000                	unimp
 7be:	0000                	unimp
 7c0:	1606                	slli	a2,a2,0x21
 7c2:	000e                	c.slli	zero,0x3
 7c4:	0080                	addi	s0,sp,64
 7c6:	0000                	unimp
 7c8:	b000                	fsd	fs0,32(s0)
 7ca:	000e                	c.slli	zero,0x3
 7cc:	0080                	addi	s0,sp,64
 7ce:	0000                	unimp
 7d0:	0600                	addi	s0,sp,768
 7d2:	0ed0                	addi	a2,sp,852
 7d4:	8000                	.2byte	0x8000
 7d6:	0000                	unimp
 7d8:	0000                	unimp
 7da:	0f20                	addi	s0,sp,920
 7dc:	8000                	.2byte	0x8000
 7de:	0000                	unimp
 7e0:	0000                	unimp
 7e2:	0600                	addi	s0,sp,768
 7e4:	0dee                	slli	s11,s11,0x1b
 7e6:	8000                	.2byte	0x8000
 7e8:	0000                	unimp
 7ea:	0000                	unimp
 7ec:	0df2                	slli	s11,s11,0x1c
 7ee:	8000                	.2byte	0x8000
 7f0:	0000                	unimp
 7f2:	0000                	unimp
 7f4:	f606                	sd	ra,296(sp)
 7f6:	000d                	c.nop	3
 7f8:	0080                	addi	s0,sp,64
 7fa:	0000                	unimp
 7fc:	f600                	sd	s0,40(a2)
 7fe:	000d                	c.nop	3
 800:	0080                	addi	s0,sp,64
 802:	0000                	unimp
 804:	0600                	addi	s0,sp,768
 806:	0dfa                	slli	s11,s11,0x1e
 808:	8000                	.2byte	0x8000
 80a:	0000                	unimp
 80c:	0000                	unimp
 80e:	0e04                	addi	s1,sp,784
 810:	8000                	.2byte	0x8000
 812:	0000                	unimp
 814:	0000                	unimp
 816:	0600                	addi	s0,sp,768
 818:	0e16                	slli	t3,t3,0x5
 81a:	8000                	.2byte	0x8000
 81c:	0000                	unimp
 81e:	0000                	unimp
 820:	0e54                	addi	a3,sp,788
 822:	8000                	.2byte	0x8000
 824:	0000                	unimp
 826:	0000                	unimp
 828:	0006                	c.slli	zero,0x1
 82a:	0080000f          	fence	unknown,i
 82e:	0000                	unimp
 830:	0800                	addi	s0,sp,16
 832:	0080000f          	fence	unknown,i
 836:	0000                	unimp
 838:	0000                	unimp
 83a:	2606                	fld	fa2,64(sp)
 83c:	000e                	c.slli	zero,0x3
 83e:	0080                	addi	s0,sp,64
 840:	0000                	unimp
 842:	2c00                	fld	fs0,24(s0)
 844:	000e                	c.slli	zero,0x3
 846:	0080                	addi	s0,sp,64
 848:	0000                	unimp
 84a:	0600                	addi	s0,sp,768
 84c:	0e2e                	slli	t3,t3,0xb
 84e:	8000                	.2byte	0x8000
 850:	0000                	unimp
 852:	0000                	unimp
 854:	0e4c                	addi	a1,sp,788
 856:	8000                	.2byte	0x8000
 858:	0000                	unimp
 85a:	0000                	unimp
 85c:	0600                	addi	s0,sp,768
 85e:	0e28                	addi	a0,sp,792
 860:	8000                	.2byte	0x8000
 862:	0000                	unimp
 864:	0000                	unimp
 866:	0e2c                	addi	a1,sp,792
 868:	8000                	.2byte	0x8000
 86a:	0000                	unimp
 86c:	0000                	unimp
 86e:	4206                	lw	tp,64(sp)
 870:	000e                	c.slli	zero,0x3
 872:	0080                	addi	s0,sp,64
 874:	0000                	unimp
 876:	4c00                	lw	s0,24(s0)
 878:	000e                	c.slli	zero,0x3
 87a:	0080                	addi	s0,sp,64
 87c:	0000                	unimp
 87e:	0000                	unimp
 880:	5806                	lw	a6,96(sp)
 882:	000e                	c.slli	zero,0x3
 884:	0080                	addi	s0,sp,64
 886:	0000                	unimp
 888:	5800                	lw	s0,48(s0)
 88a:	000e                	c.slli	zero,0x3
 88c:	0080                	addi	s0,sp,64
 88e:	0000                	unimp
 890:	0600                	addi	s0,sp,768
 892:	0e5c                	addi	a5,sp,788
 894:	8000                	.2byte	0x8000
 896:	0000                	unimp
 898:	0000                	unimp
 89a:	0e7a                	slli	t3,t3,0x1e
 89c:	8000                	.2byte	0x8000
 89e:	0000                	unimp
 8a0:	0000                	unimp
 8a2:	0600                	addi	s0,sp,768
 8a4:	0e7c                	addi	a5,sp,796
 8a6:	8000                	.2byte	0x8000
 8a8:	0000                	unimp
 8aa:	0000                	unimp
 8ac:	0e80                	addi	s0,sp,848
 8ae:	8000                	.2byte	0x8000
 8b0:	0000                	unimp
 8b2:	0000                	unimp
 8b4:	8406                	mv	s0,ra
 8b6:	000e                	c.slli	zero,0x3
 8b8:	0080                	addi	s0,sp,64
 8ba:	0000                	unimp
 8bc:	8400                	.2byte	0x8400
 8be:	000e                	c.slli	zero,0x3
 8c0:	0080                	addi	s0,sp,64
 8c2:	0000                	unimp
 8c4:	0600                	addi	s0,sp,768
 8c6:	0e88                	addi	a0,sp,848
 8c8:	8000                	.2byte	0x8000
 8ca:	0000                	unimp
 8cc:	0000                	unimp
 8ce:	0e94                	addi	a3,sp,848
 8d0:	8000                	.2byte	0x8000
 8d2:	0000                	unimp
 8d4:	0000                	unimp
	...

Disassembly of section .debug_frame:

0000000000000000 <.debug_frame>:
   0:	000c                	.2byte	0xc
   2:	0000                	unimp
   4:	ffff                	.2byte	0xffff
   6:	ffff                	.2byte	0xffff
   8:	7c010003          	lb	zero,1984(sp)
   c:	0d01                	addi	s10,s10,0 # 1b000 <_prog_start-0x7ffe5000>
   e:	0002                	c.slli64	zero
  10:	0014                	.2byte	0x14
  12:	0000                	unimp
  14:	0000                	unimp
  16:	0000                	unimp
  18:	0230                	addi	a2,sp,264
  1a:	8000                	.2byte	0x8000
  1c:	0000                	unimp
  1e:	0000                	unimp
  20:	0074                	addi	a3,sp,12
  22:	0000                	unimp
  24:	0000                	unimp
  26:	0000                	unimp
  28:	0024                	addi	s1,sp,8
  2a:	0000                	unimp
  2c:	0000                	unimp
  2e:	0000                	unimp
  30:	02a4                	addi	s1,sp,328
  32:	8000                	.2byte	0x8000
  34:	0000                	unimp
  36:	0000                	unimp
  38:	0084                	addi	s1,sp,64
  3a:	0000                	unimp
  3c:	0000                	unimp
  3e:	0000                	unimp
  40:	0e42                	slli	t3,t3,0x10
  42:	4210                	lw	a2,0(a2)
  44:	0288                	addi	a0,sp,320
  46:	7c02                	ld	s8,32(sp)
  48:	42c8                	lw	a0,4(a3)
  4a:	000e                	c.slli	zero,0x3
  4c:	0000                	unimp
  4e:	0000                	unimp
  50:	0024                	addi	s1,sp,8
  52:	0000                	unimp
  54:	0000                	unimp
  56:	0000                	unimp
  58:	0328                	addi	a0,sp,392
  5a:	8000                	.2byte	0x8000
  5c:	0000                	unimp
  5e:	0000                	unimp
  60:	0084                	addi	s1,sp,64
  62:	0000                	unimp
  64:	0000                	unimp
  66:	0000                	unimp
  68:	0e42                	slli	t3,t3,0x10
  6a:	4210                	lw	a2,0(a2)
  6c:	0288                	addi	a0,sp,320
  6e:	7c02                	ld	s8,32(sp)
  70:	42c8                	lw	a0,4(a3)
  72:	000e                	c.slli	zero,0x3
  74:	0000                	unimp
  76:	0000                	unimp
  78:	0024                	addi	s1,sp,8
  7a:	0000                	unimp
  7c:	0000                	unimp
  7e:	0000                	unimp
  80:	03ac                	addi	a1,sp,456
  82:	8000                	.2byte	0x8000
  84:	0000                	unimp
  86:	0000                	unimp
  88:	0084                	addi	s1,sp,64
  8a:	0000                	unimp
  8c:	0000                	unimp
  8e:	0000                	unimp
  90:	0e42                	slli	t3,t3,0x10
  92:	4210                	lw	a2,0(a2)
  94:	0288                	addi	a0,sp,320
  96:	7c02                	ld	s8,32(sp)
  98:	42c8                	lw	a0,4(a3)
  9a:	000e                	c.slli	zero,0x3
  9c:	0000                	unimp
  9e:	0000                	unimp
  a0:	0014                	.2byte	0x14
  a2:	0000                	unimp
  a4:	0000                	unimp
  a6:	0000                	unimp
  a8:	0430                	addi	a2,sp,520
  aa:	8000                	.2byte	0x8000
  ac:	0000                	unimp
  ae:	0000                	unimp
  b0:	0044                	addi	s1,sp,4
  b2:	0000                	unimp
  b4:	0000                	unimp
  b6:	0000                	unimp
  b8:	0014                	.2byte	0x14
  ba:	0000                	unimp
  bc:	0000                	unimp
  be:	0000                	unimp
  c0:	0474                	addi	a3,sp,524
  c2:	8000                	.2byte	0x8000
  c4:	0000                	unimp
  c6:	0000                	unimp
  c8:	0044                	addi	s1,sp,4
  ca:	0000                	unimp
  cc:	0000                	unimp
  ce:	0000                	unimp
  d0:	0024                	addi	s1,sp,8
  d2:	0000                	unimp
  d4:	0000                	unimp
  d6:	0000                	unimp
  d8:	04b8                	addi	a4,sp,584
  da:	8000                	.2byte	0x8000
  dc:	0000                	unimp
  de:	0000                	unimp
  e0:	008e                	slli	ra,ra,0x3
  e2:	0000                	unimp
  e4:	0000                	unimp
  e6:	0000                	unimp
  e8:	0e42                	slli	t3,t3,0x10
  ea:	4210                	lw	a2,0(a2)
  ec:	0288                	addi	a0,sp,320
  ee:	8602                	jr	a2
  f0:	42c8                	lw	a0,4(a3)
  f2:	000e                	c.slli	zero,0x3
  f4:	0000                	unimp
  f6:	0000                	unimp
  f8:	0024                	addi	s1,sp,8
  fa:	0000                	unimp
  fc:	0000                	unimp
  fe:	0000                	unimp
 100:	0546                	slli	a0,a0,0x11
 102:	8000                	.2byte	0x8000
 104:	0000                	unimp
 106:	0000                	unimp
 108:	008e                	slli	ra,ra,0x3
 10a:	0000                	unimp
 10c:	0000                	unimp
 10e:	0000                	unimp
 110:	0e42                	slli	t3,t3,0x10
 112:	4210                	lw	a2,0(a2)
 114:	0288                	addi	a0,sp,320
 116:	8602                	jr	a2
 118:	42c8                	lw	a0,4(a3)
 11a:	000e                	c.slli	zero,0x3
 11c:	0000                	unimp
 11e:	0000                	unimp
 120:	0024                	addi	s1,sp,8
 122:	0000                	unimp
 124:	0000                	unimp
 126:	0000                	unimp
 128:	05d4                	addi	a3,sp,708
 12a:	8000                	.2byte	0x8000
 12c:	0000                	unimp
 12e:	0000                	unimp
 130:	008e                	slli	ra,ra,0x3
 132:	0000                	unimp
 134:	0000                	unimp
 136:	0000                	unimp
 138:	0e42                	slli	t3,t3,0x10
 13a:	4210                	lw	a2,0(a2)
 13c:	0288                	addi	a0,sp,320
 13e:	8602                	jr	a2
 140:	42c8                	lw	a0,4(a3)
 142:	000e                	c.slli	zero,0x3
 144:	0000                	unimp
 146:	0000                	unimp
 148:	0024                	addi	s1,sp,8
 14a:	0000                	unimp
 14c:	0000                	unimp
 14e:	0000                	unimp
 150:	0662                	slli	a2,a2,0x18
 152:	8000                	.2byte	0x8000
 154:	0000                	unimp
 156:	0000                	unimp
 158:	008e                	slli	ra,ra,0x3
 15a:	0000                	unimp
 15c:	0000                	unimp
 15e:	0000                	unimp
 160:	0e42                	slli	t3,t3,0x10
 162:	4210                	lw	a2,0(a2)
 164:	0288                	addi	a0,sp,320
 166:	8602                	jr	a2
 168:	42c8                	lw	a0,4(a3)
 16a:	000e                	c.slli	zero,0x3
 16c:	0000                	unimp
 16e:	0000                	unimp
 170:	0014                	.2byte	0x14
 172:	0000                	unimp
 174:	0000                	unimp
 176:	0000                	unimp
 178:	06f0                	addi	a2,sp,844
 17a:	8000                	.2byte	0x8000
 17c:	0000                	unimp
 17e:	0000                	unimp
 180:	0044                	addi	s1,sp,4
 182:	0000                	unimp
 184:	0000                	unimp
 186:	0000                	unimp
 188:	0014                	.2byte	0x14
 18a:	0000                	unimp
 18c:	0000                	unimp
 18e:	0000                	unimp
 190:	0734                	addi	a3,sp,904
 192:	8000                	.2byte	0x8000
 194:	0000                	unimp
 196:	0000                	unimp
 198:	0044                	addi	s1,sp,4
 19a:	0000                	unimp
 19c:	0000                	unimp
 19e:	0000                	unimp
 1a0:	002c                	addi	a1,sp,8
 1a2:	0000                	unimp
 1a4:	0000                	unimp
 1a6:	0000                	unimp
 1a8:	0778                	addi	a4,sp,908
 1aa:	8000                	.2byte	0x8000
 1ac:	0000                	unimp
 1ae:	0000                	unimp
 1b0:	0098                	addi	a4,sp,64
 1b2:	0000                	unimp
 1b4:	0000                	unimp
 1b6:	0000                	unimp
 1b8:	0e42                	slli	t3,t3,0x10
 1ba:	4820                	lw	s0,80(s0)
 1bc:	0288                	addi	a0,sp,320
 1be:	0489                	addi	s1,s1,2
 1c0:	0692                	slli	a3,a3,0x4
 1c2:	84020893          	addi	a7,tp,-1984 # ffffffffffff7840 <a+0xffffffff7fff6870>
 1c6:	42c8                	lw	a0,4(a3)
 1c8:	42c9                	li	t0,18
 1ca:	42d2                	lw	t0,20(sp)
 1cc:	000e42d3          	fadd.s	ft5,ft8,ft0,rmm
 1d0:	002c                	addi	a1,sp,8
 1d2:	0000                	unimp
 1d4:	0000                	unimp
 1d6:	0000                	unimp
 1d8:	0810                	addi	a2,sp,16
 1da:	8000                	.2byte	0x8000
 1dc:	0000                	unimp
 1de:	0000                	unimp
 1e0:	009c                	addi	a5,sp,64
 1e2:	0000                	unimp
 1e4:	0000                	unimp
 1e6:	0000                	unimp
 1e8:	0e42                	slli	t3,t3,0x10
 1ea:	4a20                	lw	s0,80(a2)
 1ec:	0288                	addi	a0,sp,320
 1ee:	0489                	addi	s1,s1,2
 1f0:	0692                	slli	a3,a3,0x4
 1f2:	86020893          	addi	a7,tp,-1952 # fffffffffffff860 <a+0xffffffff7fffe890>
 1f6:	42c8                	lw	a0,4(a3)
 1f8:	42c9                	li	t0,18
 1fa:	42d2                	lw	t0,20(sp)
 1fc:	000e42d3          	fadd.s	ft5,ft8,ft0,rmm
 200:	002c                	addi	a1,sp,8
 202:	0000                	unimp
 204:	0000                	unimp
 206:	0000                	unimp
 208:	08ac                	addi	a1,sp,88
 20a:	8000                	.2byte	0x8000
 20c:	0000                	unimp
 20e:	0000                	unimp
 210:	00a0                	addi	s0,sp,72
 212:	0000                	unimp
 214:	0000                	unimp
 216:	0000                	unimp
 218:	0e42                	slli	t3,t3,0x10
 21a:	4a20                	lw	s0,80(a2)
 21c:	0288                	addi	a0,sp,320
 21e:	0489                	addi	s1,s1,2
 220:	0692                	slli	a3,a3,0x4
 222:	8a020893          	addi	a7,tp,-1888 # fffffffffffff8a0 <a+0xffffffff7fffe8d0>
 226:	42c8                	lw	a0,4(a3)
 228:	42c9                	li	t0,18
 22a:	42d2                	lw	t0,20(sp)
 22c:	000e42d3          	fadd.s	ft5,ft8,ft0,rmm
 230:	002c                	addi	a1,sp,8
 232:	0000                	unimp
 234:	0000                	unimp
 236:	0000                	unimp
 238:	094c                	addi	a1,sp,148
 23a:	8000                	.2byte	0x8000
 23c:	0000                	unimp
 23e:	0000                	unimp
 240:	0098                	addi	a4,sp,64
 242:	0000                	unimp
 244:	0000                	unimp
 246:	0000                	unimp
 248:	0e42                	slli	t3,t3,0x10
 24a:	4820                	lw	s0,80(s0)
 24c:	0288                	addi	a0,sp,320
 24e:	0489                	addi	s1,s1,2
 250:	0692                	slli	a3,a3,0x4
 252:	8602                	jr	a2
 254:	42c8                	lw	a0,4(a3)
 256:	42c9                	li	t0,18
 258:	42d2                	lw	t0,20(sp)
 25a:	000e                	c.slli	zero,0x3
 25c:	0000                	unimp
 25e:	0000                	unimp
 260:	0054                	addi	a3,sp,4
 262:	0000                	unimp
 264:	0000                	unimp
 266:	0000                	unimp
 268:	09e4                	addi	s1,sp,220
 26a:	8000                	.2byte	0x8000
 26c:	0000                	unimp
 26e:	0000                	unimp
 270:	037c                	addi	a5,sp,396
 272:	0000                	unimp
 274:	0000                	unimp
 276:	0000                	unimp
 278:	0e42                	slli	t3,t3,0x10
 27a:	5a70                	lw	a2,116(a2)
 27c:	0281                	addi	t0,t0,0
 27e:	0488                	addi	a0,sp,576
 280:	0689                	addi	a3,a3,2
 282:	0892                	slli	a7,a7,0x4
 284:	0c940a93          	addi	s5,s0,201
 288:	0e95                	addi	t4,t4,5
 28a:	1096                	slli	ra,ra,0x25
 28c:	14981297          	auipc	t0,0x14981
 290:	1699                	addi	a3,a3,-26
 292:	189a                	slli	a7,a7,0x26
 294:	42031a9b          	.4byte	0x42031a9b
 298:	c842c103          	lbu	sp,-892(t0) # 14980f10 <_prog_start-0x6b67f0f0>
 29c:	c942                	sw	a6,144(sp)
 29e:	d242                	sw	a6,36(sp)
 2a0:	d342                	sw	a6,164(sp)
 2a2:	d442                	sw	a6,40(sp)
 2a4:	d542                	sw	a6,168(sp)
 2a6:	d642                	sw	a6,44(sp)
 2a8:	d742                	sw	a6,172(sp)
 2aa:	d842                	sw	a6,48(sp)
 2ac:	d942                	sw	a6,176(sp)
 2ae:	da42                	sw	a6,52(sp)
 2b0:	db42                	sw	a6,180(sp)
 2b2:	0e44                	addi	s1,sp,788
 2b4:	0000                	unimp
 2b6:	0000                	unimp
 2b8:	000c                	.2byte	0xc
 2ba:	0000                	unimp
 2bc:	ffff                	.2byte	0xffff
 2be:	ffff                	.2byte	0xffff
 2c0:	7c010003          	lb	zero,1984(sp)
 2c4:	0d01                	addi	s10,s10,0
 2c6:	0002                	c.slli64	zero
 2c8:	0014                	.2byte	0x14
 2ca:	0000                	unimp
 2cc:	02b8                	addi	a4,sp,328
 2ce:	0000                	unimp
 2d0:	0d60                	addi	s0,sp,668
 2d2:	8000                	.2byte	0x8000
 2d4:	0000                	unimp
 2d6:	0000                	unimp
 2d8:	003e                	c.slli	zero,0xf
 2da:	0000                	unimp
 2dc:	0000                	unimp
 2de:	0000                	unimp
 2e0:	0024                	addi	s1,sp,8
 2e2:	0000                	unimp
 2e4:	02b8                	addi	a4,sp,328
 2e6:	0000                	unimp
 2e8:	0d9e                	slli	s11,s11,0x7
 2ea:	8000                	.2byte	0x8000
 2ec:	0000                	unimp
 2ee:	0000                	unimp
 2f0:	0182                	c.slli64	gp
 2f2:	0000                	unimp
 2f4:	0000                	unimp
 2f6:	0000                	unimp
 2f8:	0e42                	slli	t3,t3,0x10
 2fa:	0190                	addi	a2,sp,192
 2fc:	7402                	ld	s0,32(sp)
 2fe:	0e0a                	slli	t3,t3,0x2
 300:	4200                	lw	s0,0(a2)
 302:	0000000b          	.4byte	0xb
	...
