
/home/binhkieudo/Workspace/RISC-V/NewFramework/framework/sw/matrix_mul/build/main.elf:     file format elf32-littleriscv


Disassembly of section .text:

80000000 <_prog_start>:
  .option norvc
  .globl _prog_start
_prog_start:
    # li s0, MEMORY_MEM_ADDR
    # jr s0
  csrw mie, zero
80000000:	30401073          	csrw	mie,zero
  csrr a0, mhartid
80000004:	f1402573          	csrr	a0,mhartid
  beq a0, zero, _hart0
80000008:	02050063          	beqz	a0,80000028 <_hart0>
  li t0, 1
8000000c:	00100293          	li	t0,1
  beq a0, t0, _hart1
80000010:	02550563          	beq	a0,t0,8000003a <_hart1>
  li t0, 2
80000014:	00200293          	li	t0,2
  beq a0, t0, _hart2
80000018:	06550d63          	beq	a0,t0,80000092 <_hart2>
  li t0, 3
8000001c:	00300293          	li	t0,3
  beq a0, t0, _hart3
80000020:	10550f63          	beq	a0,t0,8000013e <_hart3>
  j _loopback
80000024:	1720006f          	j	80000196 <_loopback>

80000028 <_hart0>:
_hart0:
  csrrw t0, mcycle, zero
80000028:	b00012f3          	csrrw	t0,mcycle,zero
  # csrw  instret, zero
  li sp, (MEMORY_MEM_ADDR + 0xfff0)
8000002c:	80010137          	lui	sp,0x80010
80000030:	ff010113          	addi	sp,sp,-16 # 8000fff0 <a+0xf604>
  call main
80000034:	2399                	jal	8000057a <main>
  wfi
80000036:	10500073          	wfi

8000003a <_hart1>:
_hart1:
  wfi
8000003a:	10500073          	wfi
  // Stage 0
  csrw mie, zero
8000003e:	30401073          	csrw	mie,zero
  li s1, 0
80000042:	00000493          	li	s1,0
  li t0, (CLINT_CTRL_ADDR + CLINT_MSIP1)
80000046:	020002b7          	lui	t0,0x2000
8000004a:	00428293          	addi	t0,t0,4 # 2000004 <_prog_start-0x7dfffffc>
  amoswap.w t1, s1, (t0)
8000004e:	0892a32f          	amoswap.w	t1,s1,(t0)
  li sp, 0x40001ff0
80000052:	40002137          	lui	sp,0x40002
80000056:	ff010113          	addi	sp,sp,-16 # 40001ff0 <_prog_start-0x3fffe010>
  call s0_c1
8000005a:	2a69                	jal	800001f4 <s0_c1>
  li s1, 1
8000005c:	00100493          	li	s1,1
  csrw mie, s1
80000060:	30449073          	csrw	mie,s1
  wfi
80000064:	10500073          	wfi
  // Stage 2
  csrw mie, zero
80000068:	30401073          	csrw	mie,zero
  li s1, 0
8000006c:	00000493          	li	s1,0
  li t0, (CLINT_CTRL_ADDR + CLINT_MSIP1)
80000070:	020002b7          	lui	t0,0x2000
80000074:	00428293          	addi	t0,t0,4 # 2000004 <_prog_start-0x7dfffffc>
  amoswap.w t1, s1, (t0)
80000078:	0892a32f          	amoswap.w	t1,s1,(t0)
  li sp, 0x40001ff0
8000007c:	40002137          	lui	sp,0x40002
80000080:	ff010113          	addi	sp,sp,-16 # 40001ff0 <_prog_start-0x3fffe010>
  call s2_c1
80000084:	2685                	jal	800003e4 <s2_c1>
  li s1, 1
80000086:	00100493          	li	s1,1
  csrw mie, s1
8000008a:	30449073          	csrw	mie,s1
  wfi
8000008e:	10500073          	wfi

80000092 <_hart2>:
_hart2:
  wfi
80000092:	10500073          	wfi
  // Stage 0
  csrw mie, zero
80000096:	30401073          	csrw	mie,zero
  li s1, 0
8000009a:	00000493          	li	s1,0
  li t0, (CLINT_CTRL_ADDR + CLINT_MSIP2)
8000009e:	020002b7          	lui	t0,0x2000
800000a2:	00828293          	addi	t0,t0,8 # 2000008 <_prog_start-0x7dfffff8>
  amoswap.w t1, s1, (t0)
800000a6:	0892a32f          	amoswap.w	t1,s1,(t0)
  li sp, 0x40002ff0
800000aa:	40003137          	lui	sp,0x40003
800000ae:	ff010113          	addi	sp,sp,-16 # 40002ff0 <_prog_start-0x3fffd010>
  call s0_c2
800000b2:	2a71                	jal	8000024e <s0_c2>
  li s1, 1
800000b4:	00100493          	li	s1,1
  csrw mie, s1
800000b8:	30449073          	csrw	mie,s1
  wfi
800000bc:	10500073          	wfi
  // Stage 1
  csrw mie, zero
800000c0:	30401073          	csrw	mie,zero
  li s1, 0
800000c4:	00000493          	li	s1,0
  li t0, (CLINT_CTRL_ADDR + CLINT_MSIP2)
800000c8:	020002b7          	lui	t0,0x2000
800000cc:	00828293          	addi	t0,t0,8 # 2000008 <_prog_start-0x7dfffff8>
  amoswap.w t1, s1, (t0)
800000d0:	0892a32f          	amoswap.w	t1,s1,(t0)
  li sp, 0x40002ff0
800000d4:	40003137          	lui	sp,0x40003
800000d8:	ff010113          	addi	sp,sp,-16 # 40002ff0 <_prog_start-0x3fffd010>
  call s1_c2
800000dc:	24ad                	jal	80000346 <s1_c2>
  li s1, 1
800000de:	00100493          	li	s1,1
  csrw mie, s1
800000e2:	30449073          	csrw	mie,s1
  wfi
800000e6:	10500073          	wfi
  // Stage 2
  csrw mie, zero
800000ea:	30401073          	csrw	mie,zero
  li s1, 0
800000ee:	00000493          	li	s1,0
  li t0, (CLINT_CTRL_ADDR + CLINT_MSIP2)
800000f2:	020002b7          	lui	t0,0x2000
800000f6:	00828293          	addi	t0,t0,8 # 2000008 <_prog_start-0x7dfffff8>
  amoswap.w t1, s1, (t0)
800000fa:	0892a32f          	amoswap.w	t1,s1,(t0)
  li sp, 0x40002ff0
800000fe:	40003137          	lui	sp,0x40003
80000102:	ff010113          	addi	sp,sp,-16 # 40002ff0 <_prog_start-0x3fffd010>
  call s2_c2
80000106:	2e25                	jal	8000043e <s2_c2>
  li s1, 1
80000108:	00100493          	li	s1,1
  csrw mie, s1
8000010c:	30449073          	csrw	mie,s1
  wfi
80000110:	10500073          	wfi
  // Stage 3
  csrw mie, zero
80000114:	30401073          	csrw	mie,zero
  li s1, 0
80000118:	00000493          	li	s1,0
  li t0, (CLINT_CTRL_ADDR + CLINT_MSIP2)
8000011c:	020002b7          	lui	t0,0x2000
80000120:	00828293          	addi	t0,t0,8 # 2000008 <_prog_start-0x7dfffff8>
  amoswap.w t1, s1, (t0)
80000124:	0892a32f          	amoswap.w	t1,s1,(t0)
  li sp, 0x40002ff0
80000128:	40003137          	lui	sp,0x40003
8000012c:	ff010113          	addi	sp,sp,-16 # 40002ff0 <_prog_start-0x3fffd010>
  call s3_c2
80000130:	2119                	jal	80000536 <s3_c2>
  li s1, 1
80000132:	00100493          	li	s1,1
  csrw mie, s1
80000136:	30449073          	csrw	mie,s1
  wfi
8000013a:	10500073          	wfi

8000013e <_hart3>:
_hart3:
  wfi
8000013e:	10500073          	wfi
  // Stage 0
  csrw mie, zero
80000142:	30401073          	csrw	mie,zero
  li s1, 0
80000146:	00000493          	li	s1,0
  li t0, (CLINT_CTRL_ADDR + CLINT_MSIP3)
8000014a:	020002b7          	lui	t0,0x2000
8000014e:	00c28293          	addi	t0,t0,12 # 200000c <_prog_start-0x7dfffff4>
  amoswap.w t1, s1, (t0)
80000152:	0892a32f          	amoswap.w	t1,s1,(t0)
  li sp, 0x40003ff0
80000156:	40004137          	lui	sp,0x40004
8000015a:	ff010113          	addi	sp,sp,-16 # 40003ff0 <_prog_start-0x3fffc010>
  call s0_c3
8000015e:	22a9                	jal	800002a8 <s0_c3>
  li s1, 1
80000160:	00100493          	li	s1,1
  csrw mie, s1 
80000164:	30449073          	csrw	mie,s1
  wfi
80000168:	10500073          	wfi
  // Stage 2
  csrw mie, zero
8000016c:	30401073          	csrw	mie,zero
  li s1, 0
80000170:	00000493          	li	s1,0
  li t0, (CLINT_CTRL_ADDR + CLINT_MSIP3)
80000174:	020002b7          	lui	t0,0x2000
80000178:	00c28293          	addi	t0,t0,12 # 200000c <_prog_start-0x7dfffff4>
  amoswap.w t1, s1, (t0)
8000017c:	0892a32f          	amoswap.w	t1,s1,(t0)
  li sp, 0x40003ff0
80000180:	40004137          	lui	sp,0x40004
80000184:	ff010113          	addi	sp,sp,-16 # 40003ff0 <_prog_start-0x3fffc010>
  call s2_c3
80000188:	2e01                	jal	80000498 <s2_c3>
  li s1, 1
8000018a:	00100493          	li	s1,1
  csrw mie, s1 
8000018e:	30449073          	csrw	mie,s1
  wfi
80000192:	10500073          	wfi

80000196 <_loopback>:
_loopback:
  j _loopback
80000196:	0000006f          	j	80000196 <_loopback>

8000019a <s0_c0>:
void s0_c0() {
  // for (int i = 0; i < HALF; i++)
  //   for (int j = 0; j < HALF; j++)
  //     for (int k = 0; k < HALF; k++)
  //       ae[i*HALF + j] = a[i + k*HALF] + ae[k + j*HALF];
  for (int i = 0; i < LENGTH; i ++)
8000019a:	4501                	li	a0,0
8000019c:	00001e17          	auipc	t3,0x1
800001a0:	840e0e13          	addi	t3,t3,-1984 # 800009dc <ae>
800001a4:	00001317          	auipc	t1,0x1
800001a8:	84830313          	addi	t1,t1,-1976 # 800009ec <a>
800001ac:	00001897          	auipc	a7,0x1
800001b0:	82088893          	addi	a7,a7,-2016 # 800009cc <e>
    for (int j = 0; j < HALF; j++)
800001b4:	02000813          	li	a6,32
  for (int i = 0; i < LENGTH; i ++)
800001b8:	40000e93          	li	t4,1024
    for (int j = 0; j < HALF; j++)
800001bc:	4701                	li	a4,0
      ae[i] += a[j] * e[j];
800001be:	00032783          	lw	a5,0(t1)
800001c2:	0008a603          	lw	a2,0(a7)
800001c6:	000e2683          	lw	a3,0(t3)
800001ca:	97ba                	add	a5,a5,a4
800001cc:	963a                	add	a2,a2,a4
800001ce:	00064583          	lbu	a1,0(a2)
800001d2:	0007c783          	lbu	a5,0(a5)
800001d6:	96aa                	add	a3,a3,a0
800001d8:	0006c603          	lbu	a2,0(a3)
800001dc:	02b787b3          	mul	a5,a5,a1
    for (int j = 0; j < HALF; j++)
800001e0:	0705                	addi	a4,a4,1
      ae[i] += a[j] * e[j];
800001e2:	97b2                	add	a5,a5,a2
800001e4:	00f68023          	sb	a5,0(a3)
    for (int j = 0; j < HALF; j++)
800001e8:	fd071be3          	bne	a4,a6,800001be <s0_c0+0x24>
  for (int i = 0; i < LENGTH; i ++)
800001ec:	0505                	addi	a0,a0,1
800001ee:	fdd517e3          	bne	a0,t4,800001bc <s0_c0+0x22>
}
800001f2:	8082                	ret

800001f4 <s0_c1>:
void s0_c1() {
  // for (int i = 0; i < HALF; i++)
  //   for (int j = 0; j < HALF; j++)
  //     for (int k = 0; k < HALF; k++)
  //       bg[i*HALF + j] += b[i + k*HALF] * g[k + j*HALF];
  for (int i = 0; i < LENGTH; i ++)
800001f4:	4501                	li	a0,0
800001f6:	00000e17          	auipc	t3,0x0
800001fa:	7e2e0e13          	addi	t3,t3,2018 # 800009d8 <bg>
800001fe:	00000317          	auipc	t1,0x0
80000202:	7ea30313          	addi	t1,t1,2026 # 800009e8 <b>
80000206:	00000897          	auipc	a7,0x0
8000020a:	7be88893          	addi	a7,a7,1982 # 800009c4 <g>
    for (int j = 0; j < HALF; j++)
8000020e:	02000813          	li	a6,32
  for (int i = 0; i < LENGTH; i ++)
80000212:	40000e93          	li	t4,1024
    for (int j = 0; j < HALF; j++)
80000216:	4701                	li	a4,0
      bg[i] += b[j] * g[j];
80000218:	00032783          	lw	a5,0(t1)
8000021c:	0008a603          	lw	a2,0(a7)
80000220:	000e2683          	lw	a3,0(t3)
80000224:	97ba                	add	a5,a5,a4
80000226:	963a                	add	a2,a2,a4
80000228:	00064583          	lbu	a1,0(a2)
8000022c:	0007c783          	lbu	a5,0(a5)
80000230:	96aa                	add	a3,a3,a0
80000232:	0006c603          	lbu	a2,0(a3)
80000236:	02b787b3          	mul	a5,a5,a1
    for (int j = 0; j < HALF; j++)
8000023a:	0705                	addi	a4,a4,1
      bg[i] += b[j] * g[j];
8000023c:	97b2                	add	a5,a5,a2
8000023e:	00f68023          	sb	a5,0(a3)
    for (int j = 0; j < HALF; j++)
80000242:	fd071be3          	bne	a4,a6,80000218 <s0_c1+0x24>
  for (int i = 0; i < LENGTH; i ++)
80000246:	0505                	addi	a0,a0,1
80000248:	fdd517e3          	bne	a0,t4,80000216 <s0_c1+0x22>
}
8000024c:	8082                	ret

8000024e <s0_c2>:
void s0_c2() {
  // for (int i = 0; i < HALF; i++)
  //   for (int j = 0; j < HALF; j++)
  //     for (int k = 0; k < HALF; k++)
  //       ce[i*HALF + j] += c[i + k*HALF] * e[k + j*HALF];
  for (int i = 0; i < LENGTH; i ++)
8000024e:	4501                	li	a0,0
80000250:	00000e17          	auipc	t3,0x0
80000254:	784e0e13          	addi	t3,t3,1924 # 800009d4 <ce>
80000258:	00000317          	auipc	t1,0x0
8000025c:	78c30313          	addi	t1,t1,1932 # 800009e4 <c>
80000260:	00000897          	auipc	a7,0x0
80000264:	76c88893          	addi	a7,a7,1900 # 800009cc <e>
    for (int j = 0; j < HALF; j++)
80000268:	02000813          	li	a6,32
  for (int i = 0; i < LENGTH; i ++)
8000026c:	40000e93          	li	t4,1024
    for (int j = 0; j < HALF; j++)
80000270:	4701                	li	a4,0
      ce[i] += c[j] * e[j];
80000272:	00032783          	lw	a5,0(t1)
80000276:	0008a603          	lw	a2,0(a7)
8000027a:	000e2683          	lw	a3,0(t3)
8000027e:	97ba                	add	a5,a5,a4
80000280:	963a                	add	a2,a2,a4
80000282:	00064583          	lbu	a1,0(a2)
80000286:	0007c783          	lbu	a5,0(a5)
8000028a:	96aa                	add	a3,a3,a0
8000028c:	0006c603          	lbu	a2,0(a3)
80000290:	02b787b3          	mul	a5,a5,a1
    for (int j = 0; j < HALF; j++)
80000294:	0705                	addi	a4,a4,1
      ce[i] += c[j] * e[j];
80000296:	97b2                	add	a5,a5,a2
80000298:	00f68023          	sb	a5,0(a3)
    for (int j = 0; j < HALF; j++)
8000029c:	fd071be3          	bne	a4,a6,80000272 <s0_c2+0x24>
  for (int i = 0; i < LENGTH; i ++)
800002a0:	0505                	addi	a0,a0,1
800002a2:	fdd517e3          	bne	a0,t4,80000270 <s0_c2+0x22>
}
800002a6:	8082                	ret

800002a8 <s0_c3>:
void s0_c3() {
  // for (int i = 0; i < HALF; i++)
  //   for (int j = 0; j < HALF; j++)
  //     for (int k = 0; k < HALF; k++)
  //       dg[i*HALF + j] += d[i + k*HALF] * g[k + j*HALF];
  for (int i = 0; i < LENGTH; i ++)
800002a8:	4501                	li	a0,0
800002aa:	00000e17          	auipc	t3,0x0
800002ae:	726e0e13          	addi	t3,t3,1830 # 800009d0 <dg>
800002b2:	00000317          	auipc	t1,0x0
800002b6:	72e30313          	addi	t1,t1,1838 # 800009e0 <d>
800002ba:	00000897          	auipc	a7,0x0
800002be:	70a88893          	addi	a7,a7,1802 # 800009c4 <g>
      for (int j = 0; j < HALF; j++)
800002c2:	02000813          	li	a6,32
  for (int i = 0; i < LENGTH; i ++)
800002c6:	40000e93          	li	t4,1024
      for (int j = 0; j < HALF; j++)
800002ca:	4701                	li	a4,0
        dg[i] += d[j] * g[j];      
800002cc:	00032783          	lw	a5,0(t1)
800002d0:	0008a603          	lw	a2,0(a7)
800002d4:	000e2683          	lw	a3,0(t3)
800002d8:	97ba                	add	a5,a5,a4
800002da:	963a                	add	a2,a2,a4
800002dc:	00064583          	lbu	a1,0(a2)
800002e0:	0007c783          	lbu	a5,0(a5)
800002e4:	96aa                	add	a3,a3,a0
800002e6:	0006c603          	lbu	a2,0(a3)
800002ea:	02b787b3          	mul	a5,a5,a1
      for (int j = 0; j < HALF; j++)
800002ee:	0705                	addi	a4,a4,1
        dg[i] += d[j] * g[j];      
800002f0:	97b2                	add	a5,a5,a2
800002f2:	00f68023          	sb	a5,0(a3)
      for (int j = 0; j < HALF; j++)
800002f6:	fd071be3          	bne	a4,a6,800002cc <s0_c3+0x24>
  for (int i = 0; i < LENGTH; i ++)
800002fa:	0505                	addi	a0,a0,1
800002fc:	fdd517e3          	bne	a0,t4,800002ca <s0_c3+0x22>
}
80000300:	8082                	ret

80000302 <s1_c0>:

// ============== Stage 1 ==================================
void s1_c0() {
  for (int i = 0; i < LENGTH; i++)
80000302:	4781                	li	a5,0
80000304:	00000897          	auipc	a7,0x0
80000308:	6c888893          	addi	a7,a7,1736 # 800009cc <e>
8000030c:	00000817          	auipc	a6,0x0
80000310:	6d080813          	addi	a6,a6,1744 # 800009dc <ae>
80000314:	00000517          	auipc	a0,0x0
80000318:	6c450513          	addi	a0,a0,1732 # 800009d8 <bg>
8000031c:	40000593          	li	a1,1024
        e[i] = ae[i] + bg[i];
80000320:	00082683          	lw	a3,0(a6)
80000324:	4110                	lw	a2,0(a0)
80000326:	0008a703          	lw	a4,0(a7)
8000032a:	96be                	add	a3,a3,a5
8000032c:	963e                	add	a2,a2,a5
8000032e:	0006c683          	lbu	a3,0(a3)
80000332:	00064603          	lbu	a2,0(a2)
80000336:	973e                	add	a4,a4,a5
  for (int i = 0; i < LENGTH; i++)
80000338:	0785                	addi	a5,a5,1
        e[i] = ae[i] + bg[i];
8000033a:	96b2                	add	a3,a3,a2
8000033c:	00d70023          	sb	a3,0(a4)
  for (int i = 0; i < LENGTH; i++)
80000340:	feb790e3          	bne	a5,a1,80000320 <s1_c0+0x1e>
}
80000344:	8082                	ret

80000346 <s1_c2>:

void s1_c2() {
  for (int i = 0; i < LENGTH; i++)
80000346:	4781                	li	a5,0
80000348:	00000897          	auipc	a7,0x0
8000034c:	67c88893          	addi	a7,a7,1660 # 800009c4 <g>
80000350:	00000817          	auipc	a6,0x0
80000354:	68480813          	addi	a6,a6,1668 # 800009d4 <ce>
80000358:	00000517          	auipc	a0,0x0
8000035c:	67850513          	addi	a0,a0,1656 # 800009d0 <dg>
80000360:	40000593          	li	a1,1024
        g[i] = ce[i] + dg[i];
80000364:	00082683          	lw	a3,0(a6)
80000368:	4110                	lw	a2,0(a0)
8000036a:	0008a703          	lw	a4,0(a7)
8000036e:	96be                	add	a3,a3,a5
80000370:	963e                	add	a2,a2,a5
80000372:	0006c683          	lbu	a3,0(a3)
80000376:	00064603          	lbu	a2,0(a2)
8000037a:	973e                	add	a4,a4,a5
  for (int i = 0; i < LENGTH; i++)
8000037c:	0785                	addi	a5,a5,1
        g[i] = ce[i] + dg[i];
8000037e:	96b2                	add	a3,a3,a2
80000380:	00d70023          	sb	a3,0(a4)
  for (int i = 0; i < LENGTH; i++)
80000384:	feb790e3          	bne	a5,a1,80000364 <s1_c2+0x1e>
}
80000388:	8082                	ret

8000038a <s2_c0>:
void s2_c0() {
  // for (int i = 0; i < HALF; i++)
  //   for (int j = 0; j < HALF; j++)
  //     for (int k = 0; k < HALF; k++)
  //       ae[i*HALF + j] += a[i + k*HALF] * f[k + j*HALF];
  for (int i = 0; i < LENGTH; i ++)
8000038a:	4501                	li	a0,0
8000038c:	00000e17          	auipc	t3,0x0
80000390:	650e0e13          	addi	t3,t3,1616 # 800009dc <ae>
80000394:	00000317          	auipc	t1,0x0
80000398:	65830313          	addi	t1,t1,1624 # 800009ec <a>
8000039c:	00000897          	auipc	a7,0x0
800003a0:	62c88893          	addi	a7,a7,1580 # 800009c8 <f>
    for (int j = 0; j < HALF; j++)
800003a4:	02000813          	li	a6,32
  for (int i = 0; i < LENGTH; i ++)
800003a8:	40000e93          	li	t4,1024
    for (int j = 0; j < HALF; j++)
800003ac:	4701                	li	a4,0
      ae[i] += a[j] * f[j];
800003ae:	00032783          	lw	a5,0(t1)
800003b2:	0008a603          	lw	a2,0(a7)
800003b6:	000e2683          	lw	a3,0(t3)
800003ba:	97ba                	add	a5,a5,a4
800003bc:	963a                	add	a2,a2,a4
800003be:	00064583          	lbu	a1,0(a2)
800003c2:	0007c783          	lbu	a5,0(a5)
800003c6:	96aa                	add	a3,a3,a0
800003c8:	0006c603          	lbu	a2,0(a3)
800003cc:	02b787b3          	mul	a5,a5,a1
    for (int j = 0; j < HALF; j++)
800003d0:	0705                	addi	a4,a4,1
      ae[i] += a[j] * f[j];
800003d2:	97b2                	add	a5,a5,a2
800003d4:	00f68023          	sb	a5,0(a3)
    for (int j = 0; j < HALF; j++)
800003d8:	fd071be3          	bne	a4,a6,800003ae <s2_c0+0x24>
  for (int i = 0; i < LENGTH; i ++)
800003dc:	0505                	addi	a0,a0,1
800003de:	fdd517e3          	bne	a0,t4,800003ac <s2_c0+0x22>
}
800003e2:	8082                	ret

800003e4 <s2_c1>:
void s2_c1() {
  // for (int i = 0; i < HALF; i++)
  //   for (int j = 0; j < HALF; j++)
  //     for (int k = 0; k < HALF; k++)
  //       bg[i*HALF + j] += b[i + k*HALF] * h[k + j*HALF];
  for (int i = 0; i < LENGTH; i ++)
800003e4:	4501                	li	a0,0
800003e6:	00000e17          	auipc	t3,0x0
800003ea:	5f2e0e13          	addi	t3,t3,1522 # 800009d8 <bg>
800003ee:	00000317          	auipc	t1,0x0
800003f2:	5fa30313          	addi	t1,t1,1530 # 800009e8 <b>
800003f6:	00000897          	auipc	a7,0x0
800003fa:	5ca88893          	addi	a7,a7,1482 # 800009c0 <h>
    for (int j = 0; j < HALF; j++)
800003fe:	02000813          	li	a6,32
  for (int i = 0; i < LENGTH; i ++)
80000402:	40000e93          	li	t4,1024
    for (int j = 0; j < HALF; j++)
80000406:	4701                	li	a4,0
      bg[i] += b[j] * h[j];
80000408:	00032783          	lw	a5,0(t1)
8000040c:	0008a603          	lw	a2,0(a7)
80000410:	000e2683          	lw	a3,0(t3)
80000414:	97ba                	add	a5,a5,a4
80000416:	963a                	add	a2,a2,a4
80000418:	00064583          	lbu	a1,0(a2)
8000041c:	0007c783          	lbu	a5,0(a5)
80000420:	96aa                	add	a3,a3,a0
80000422:	0006c603          	lbu	a2,0(a3)
80000426:	02b787b3          	mul	a5,a5,a1
    for (int j = 0; j < HALF; j++)
8000042a:	0705                	addi	a4,a4,1
      bg[i] += b[j] * h[j];
8000042c:	97b2                	add	a5,a5,a2
8000042e:	00f68023          	sb	a5,0(a3)
    for (int j = 0; j < HALF; j++)
80000432:	fd071be3          	bne	a4,a6,80000408 <s2_c1+0x24>
  for (int i = 0; i < LENGTH; i ++)
80000436:	0505                	addi	a0,a0,1
80000438:	fdd517e3          	bne	a0,t4,80000406 <s2_c1+0x22>
}
8000043c:	8082                	ret

8000043e <s2_c2>:
void s2_c2() {
  // for (int i = 0; i < HALF; i++)
  //   for (int j = 0; j < HALF; j++)
  //     for (int k = 0; k < HALF; k++)
  //       ce[i*HALF + j] += c[i + k*HALF] * f[k + j*HALF];
  for (int i = 0; i < LENGTH; i ++)
8000043e:	4501                	li	a0,0
80000440:	00000e17          	auipc	t3,0x0
80000444:	594e0e13          	addi	t3,t3,1428 # 800009d4 <ce>
80000448:	00000317          	auipc	t1,0x0
8000044c:	59c30313          	addi	t1,t1,1436 # 800009e4 <c>
80000450:	00000897          	auipc	a7,0x0
80000454:	57888893          	addi	a7,a7,1400 # 800009c8 <f>
    for (int j = 0; j < HALF; j++)
80000458:	02000813          	li	a6,32
  for (int i = 0; i < LENGTH; i ++)
8000045c:	40000e93          	li	t4,1024
    for (int j = 0; j < HALF; j++)
80000460:	4701                	li	a4,0
      ce[i] += c[j] * f[j];
80000462:	00032783          	lw	a5,0(t1)
80000466:	0008a603          	lw	a2,0(a7)
8000046a:	000e2683          	lw	a3,0(t3)
8000046e:	97ba                	add	a5,a5,a4
80000470:	963a                	add	a2,a2,a4
80000472:	00064583          	lbu	a1,0(a2)
80000476:	0007c783          	lbu	a5,0(a5)
8000047a:	96aa                	add	a3,a3,a0
8000047c:	0006c603          	lbu	a2,0(a3)
80000480:	02b787b3          	mul	a5,a5,a1
    for (int j = 0; j < HALF; j++)
80000484:	0705                	addi	a4,a4,1
      ce[i] += c[j] * f[j];
80000486:	97b2                	add	a5,a5,a2
80000488:	00f68023          	sb	a5,0(a3)
    for (int j = 0; j < HALF; j++)
8000048c:	fd071be3          	bne	a4,a6,80000462 <s2_c2+0x24>
  for (int i = 0; i < LENGTH; i ++)
80000490:	0505                	addi	a0,a0,1
80000492:	fdd517e3          	bne	a0,t4,80000460 <s2_c2+0x22>
}
80000496:	8082                	ret

80000498 <s2_c3>:
void s2_c3() {
  // for (int i = 0; i < HALF; i++)
  //   for (int j = 0; j < HALF; j++)
  //     for (int k = 0; k < HALF; k++)
  //       dg[i*HALF + j] += d[i + k*HALF] * h[k + j*HALF];
  for (int i = 0; i < LENGTH; i ++)
80000498:	4501                	li	a0,0
8000049a:	00000e17          	auipc	t3,0x0
8000049e:	536e0e13          	addi	t3,t3,1334 # 800009d0 <dg>
800004a2:	00000317          	auipc	t1,0x0
800004a6:	53e30313          	addi	t1,t1,1342 # 800009e0 <d>
800004aa:	00000897          	auipc	a7,0x0
800004ae:	51688893          	addi	a7,a7,1302 # 800009c0 <h>
    for (int j = 0; j < HALF; j++)
800004b2:	02000813          	li	a6,32
  for (int i = 0; i < LENGTH; i ++)
800004b6:	40000e93          	li	t4,1024
    for (int j = 0; j < HALF; j++)
800004ba:	4701                	li	a4,0
      dg[i] += d[j] * h[j];
800004bc:	00032783          	lw	a5,0(t1)
800004c0:	0008a603          	lw	a2,0(a7)
800004c4:	000e2683          	lw	a3,0(t3)
800004c8:	97ba                	add	a5,a5,a4
800004ca:	963a                	add	a2,a2,a4
800004cc:	00064583          	lbu	a1,0(a2)
800004d0:	0007c783          	lbu	a5,0(a5)
800004d4:	96aa                	add	a3,a3,a0
800004d6:	0006c603          	lbu	a2,0(a3)
800004da:	02b787b3          	mul	a5,a5,a1
    for (int j = 0; j < HALF; j++)
800004de:	0705                	addi	a4,a4,1
      dg[i] += d[j] * h[j];
800004e0:	97b2                	add	a5,a5,a2
800004e2:	00f68023          	sb	a5,0(a3)
    for (int j = 0; j < HALF; j++)
800004e6:	fd071be3          	bne	a4,a6,800004bc <s2_c3+0x24>
  for (int i = 0; i < LENGTH; i ++)
800004ea:	0505                	addi	a0,a0,1
800004ec:	fdd517e3          	bne	a0,t4,800004ba <s2_c3+0x22>
}
800004f0:	8082                	ret

800004f2 <s3_c0>:

// ============== Stage 3 ==================================
void s3_c0() {
  for (int i = 0; i < LENGTH; i++)
800004f2:	4781                	li	a5,0
800004f4:	00000897          	auipc	a7,0x0
800004f8:	4d488893          	addi	a7,a7,1236 # 800009c8 <f>
800004fc:	00000817          	auipc	a6,0x0
80000500:	4e080813          	addi	a6,a6,1248 # 800009dc <ae>
80000504:	00000517          	auipc	a0,0x0
80000508:	4d450513          	addi	a0,a0,1236 # 800009d8 <bg>
8000050c:	40000593          	li	a1,1024
        f[i] = ae[i] + bg[i];
80000510:	00082683          	lw	a3,0(a6)
80000514:	4110                	lw	a2,0(a0)
80000516:	0008a703          	lw	a4,0(a7)
8000051a:	96be                	add	a3,a3,a5
8000051c:	963e                	add	a2,a2,a5
8000051e:	0006c683          	lbu	a3,0(a3)
80000522:	00064603          	lbu	a2,0(a2)
80000526:	973e                	add	a4,a4,a5
  for (int i = 0; i < LENGTH; i++)
80000528:	0785                	addi	a5,a5,1
        f[i] = ae[i] + bg[i];
8000052a:	96b2                	add	a3,a3,a2
8000052c:	00d70023          	sb	a3,0(a4)
  for (int i = 0; i < LENGTH; i++)
80000530:	feb790e3          	bne	a5,a1,80000510 <s3_c0+0x1e>
}
80000534:	8082                	ret

80000536 <s3_c2>:

void s3_c2() {
  for (int i = 0; i < LENGTH; i++)
80000536:	4781                	li	a5,0
80000538:	00000897          	auipc	a7,0x0
8000053c:	48888893          	addi	a7,a7,1160 # 800009c0 <h>
80000540:	00000817          	auipc	a6,0x0
80000544:	49480813          	addi	a6,a6,1172 # 800009d4 <ce>
80000548:	00000517          	auipc	a0,0x0
8000054c:	48850513          	addi	a0,a0,1160 # 800009d0 <dg>
80000550:	40000593          	li	a1,1024
        h[i] = ce[i] + dg[i];
80000554:	00082683          	lw	a3,0(a6)
80000558:	4110                	lw	a2,0(a0)
8000055a:	0008a703          	lw	a4,0(a7)
8000055e:	96be                	add	a3,a3,a5
80000560:	963e                	add	a2,a2,a5
80000562:	0006c683          	lbu	a3,0(a3)
80000566:	00064603          	lbu	a2,0(a2)
8000056a:	973e                	add	a4,a4,a5
  for (int i = 0; i < LENGTH; i++)
8000056c:	0785                	addi	a5,a5,1
        h[i] = ce[i] + dg[i];
8000056e:	96b2                	add	a3,a3,a2
80000570:	00d70023          	sb	a3,0(a4)
  for (int i = 0; i < LENGTH; i++)
80000574:	feb790e3          	bne	a5,a1,80000554 <s3_c2+0x1e>
}
80000578:	8082                	ret

8000057a <main>:

int main(int argc, char **arv) {
8000057a:	7179                	addi	sp,sp,-48
8000057c:	d422                	sw	s0,40(sp)
8000057e:	cc52                	sw	s4,24(sp)
80000580:	ca56                	sw	s5,20(sp)
80000582:	c85a                	sw	s6,16(sp)
80000584:	c65e                	sw	s7,12(sp)
80000586:	c462                	sw	s8,8(sp)
  
  REG32(uart, UART_REG_TXCTRL) = UART_TXEN;
80000588:	640007b7          	lui	a5,0x64000
int main(int argc, char **arv) {
8000058c:	d606                	sw	ra,44(sp)
8000058e:	d226                	sw	s1,36(sp)
80000590:	d04a                	sw	s2,32(sp)
80000592:	ce4e                	sw	s3,28(sp)
80000594:	c266                	sw	s9,4(sp)
80000596:	c06a                	sw	s10,0(sp)
  REG32(uart, UART_REG_TXCTRL) = UART_TXEN;
80000598:	4705                	li	a4,1
8000059a:	c798                	sw	a4,8(a5)
  //   kprintf("Time spent: %l (cycles)\r\n", t_gap);
  //   kprintf("Error: %l \r\n", error_count);
  // }

//================= Parallel =====================================
  REG32(uart, UART_REG_TXCTRL) = UART_TXEN;
8000059c:	c798                	sw	a4,8(a5)
  uint32_t t_start, t_end;
  uint32_t t_gap;
  uint32_t tl_instr_start, th_instr_start, tl_instr_end, th_instr_end;
  uint32_t error_count = 0;

  for (int i = 0; i < LENGTH; i++) {
8000059e:	00000e17          	auipc	t3,0x0
800005a2:	44ee0e13          	addi	t3,t3,1102 # 800009ec <a>
800005a6:	4781                	li	a5,0
800005a8:	00000317          	auipc	t1,0x0
800005ac:	44030313          	addi	t1,t1,1088 # 800009e8 <b>
800005b0:	00000897          	auipc	a7,0x0
800005b4:	43488893          	addi	a7,a7,1076 # 800009e4 <c>
800005b8:	00000817          	auipc	a6,0x0
800005bc:	42880813          	addi	a6,a6,1064 # 800009e0 <d>
800005c0:	00000b17          	auipc	s6,0x0
800005c4:	40cb0b13          	addi	s6,s6,1036 # 800009cc <e>
800005c8:	00000417          	auipc	s0,0x0
800005cc:	40040413          	addi	s0,s0,1024 # 800009c8 <f>
800005d0:	00000c17          	auipc	s8,0x0
800005d4:	3f4c0c13          	addi	s8,s8,1012 # 800009c4 <g>
800005d8:	00000b97          	auipc	s7,0x0
800005dc:	3e8b8b93          	addi	s7,s7,1000 # 800009c0 <h>
800005e0:	00000a17          	auipc	s4,0x0
800005e4:	3fca0a13          	addi	s4,s4,1020 # 800009dc <ae>
800005e8:	00000a97          	auipc	s5,0x0
800005ec:	3f0a8a93          	addi	s5,s5,1008 # 800009d8 <bg>
800005f0:	00000517          	auipc	a0,0x0
800005f4:	3e450513          	addi	a0,a0,996 # 800009d4 <ce>
800005f8:	00000597          	auipc	a1,0x0
800005fc:	3d858593          	addi	a1,a1,984 # 800009d0 <dg>
80000600:	40000613          	li	a2,1024
    a[i] = i % 256;
80000604:	000e2683          	lw	a3,0(t3)
80000608:	0ff7f713          	zext.b	a4,a5
8000060c:	96be                	add	a3,a3,a5
8000060e:	00e68023          	sb	a4,0(a3)
    b[i] = i % 256;
80000612:	00032683          	lw	a3,0(t1)
80000616:	96be                	add	a3,a3,a5
80000618:	00e68023          	sb	a4,0(a3)
    c[i] = i % 256;
8000061c:	0008a683          	lw	a3,0(a7)
80000620:	96be                	add	a3,a3,a5
80000622:	00e68023          	sb	a4,0(a3)
    d[i] = i % 256;
80000626:	00082683          	lw	a3,0(a6)
8000062a:	96be                	add	a3,a3,a5
8000062c:	00e68023          	sb	a4,0(a3)
    e[i] = i % 256;
80000630:	000b2683          	lw	a3,0(s6)
80000634:	96be                	add	a3,a3,a5
80000636:	00e68023          	sb	a4,0(a3)
    f[i] = i % 256;
8000063a:	4014                	lw	a3,0(s0)
8000063c:	96be                	add	a3,a3,a5
8000063e:	00e68023          	sb	a4,0(a3)
    g[i] = i % 256;
80000642:	000c2683          	lw	a3,0(s8)
80000646:	96be                	add	a3,a3,a5
80000648:	00e68023          	sb	a4,0(a3)
    h[i] = i % 256;
8000064c:	000ba683          	lw	a3,0(s7)
80000650:	96be                	add	a3,a3,a5
80000652:	00e68023          	sb	a4,0(a3)

    ae[i] = 0;
80000656:	000a2703          	lw	a4,0(s4)
8000065a:	973e                	add	a4,a4,a5
8000065c:	00070023          	sb	zero,0(a4)
    bg[i] = 0;
80000660:	000aa703          	lw	a4,0(s5)
80000664:	973e                	add	a4,a4,a5
80000666:	00070023          	sb	zero,0(a4)
    ce[i] = 0;
8000066a:	4118                	lw	a4,0(a0)
8000066c:	973e                	add	a4,a4,a5
8000066e:	00070023          	sb	zero,0(a4)
    dg[i] = 0;
80000672:	4198                	lw	a4,0(a1)
80000674:	973e                	add	a4,a4,a5
80000676:	00070023          	sb	zero,0(a4)
  for (int i = 0; i < LENGTH; i++) {
8000067a:	0785                	addi	a5,a5,1 # 64000001 <_prog_start-0x1bffffff>
8000067c:	f8c794e3          	bne	a5,a2,80000604 <main+0x8a>
  }

    t_start = read_csr(mcycle);
80000680:	b00029f3          	csrr	s3,mcycle
    tl_instr_start = read_csr(instret);
80000684:	c0202973          	rdinstret	s2
    th_instr_start = read_csr(instreth);
80000688:	c82024f3          	rdinstreth	s1
    // Stage 0
    REG32(clint, CLINT_MSIP1) = CLINT_MSIPEN;
8000068c:	020007b7          	lui	a5,0x2000
80000690:	4705                	li	a4,1
80000692:	c3d8                	sw	a4,4(a5)
    REG32(clint, CLINT_MSIP2) = CLINT_MSIPEN;
80000694:	c798                	sw	a4,8(a5)
    REG32(clint, CLINT_MSIP3) = CLINT_MSIPEN;
80000696:	c7d8                	sw	a4,12(a5)
    s0_c0();
80000698:	3609                	jal	8000019a <s0_c0>
  for (int i = 0; i < LENGTH; i++)
8000069a:	4781                	li	a5,0
8000069c:	40000593          	li	a1,1024
        e[i] = ae[i] + bg[i];
800006a0:	000a2683          	lw	a3,0(s4)
800006a4:	000aa603          	lw	a2,0(s5)
800006a8:	000b2703          	lw	a4,0(s6)
800006ac:	96be                	add	a3,a3,a5
800006ae:	963e                	add	a2,a2,a5
800006b0:	0006c683          	lbu	a3,0(a3)
800006b4:	00064603          	lbu	a2,0(a2)
800006b8:	973e                	add	a4,a4,a5
  for (int i = 0; i < LENGTH; i++)
800006ba:	0785                	addi	a5,a5,1 # 2000001 <_prog_start-0x7dffffff>
        e[i] = ae[i] + bg[i];
800006bc:	96b2                	add	a3,a3,a2
800006be:	00d70023          	sb	a3,0(a4)
  for (int i = 0; i < LENGTH; i++)
800006c2:	fcb79fe3          	bne	a5,a1,800006a0 <main+0x126>
    // REG32(clint, CLINT_MSIP2) = CLINT_MSIPEN;
    s1_c0();
    // s1_c2();

    // Stage 2
    REG32(clint, CLINT_MSIP1) = CLINT_MSIPEN;
800006c6:	02000cb7          	lui	s9,0x2000
800006ca:	4d05                	li	s10,1
800006cc:	01aca223          	sw	s10,4(s9) # 2000004 <_prog_start-0x7dfffffc>
    REG32(clint, CLINT_MSIP2) = CLINT_MSIPEN;
800006d0:	01aca423          	sw	s10,8(s9)
    REG32(clint, CLINT_MSIP3) = CLINT_MSIPEN;
800006d4:	01aca623          	sw	s10,12(s9)
    s2_c0();
800006d8:	394d                	jal	8000038a <s2_c0>
  for (int i = 0; i < LENGTH; i++)
800006da:	4781                	li	a5,0
    // s0_c1();
    // s0_c2();
    // s0_c3();

    // Stage 3
    REG32(clint, CLINT_MSIP2) = CLINT_MSIPEN;
800006dc:	01aca423          	sw	s10,8(s9)
  for (int i = 0; i < LENGTH; i++)
800006e0:	40000593          	li	a1,1024
        f[i] = ae[i] + bg[i];
800006e4:	000a2683          	lw	a3,0(s4)
800006e8:	000aa603          	lw	a2,0(s5)
800006ec:	4018                	lw	a4,0(s0)
800006ee:	96be                	add	a3,a3,a5
800006f0:	963e                	add	a2,a2,a5
800006f2:	0006c683          	lbu	a3,0(a3)
800006f6:	00064603          	lbu	a2,0(a2)
800006fa:	973e                	add	a4,a4,a5
  for (int i = 0; i < LENGTH; i++)
800006fc:	0785                	addi	a5,a5,1
        f[i] = ae[i] + bg[i];
800006fe:	96b2                	add	a3,a3,a2
80000700:	00d70023          	sb	a3,0(a4)
  for (int i = 0; i < LENGTH; i++)
80000704:	feb790e3          	bne	a5,a1,800006e4 <main+0x16a>
    s3_c0();
    // s3_c2();
    t_end = read_csr(mcycle);
80000708:	b00025f3          	csrr	a1,mcycle
    tl_instr_end = read_csr(instret);
8000070c:	c0202af3          	rdinstret	s5
    th_instr_end = read_csr(instreth);
80000710:	c8202a73          	rdinstreth	s4

    for (int i = 0; i < LENGTH; i = i + 1) {
        if (e[i] == 0) error_count++;
80000714:	000b2e83          	lw	t4,0(s6)
        if (f[i] == 0) error_count++;
        if (g[i] == 0) error_count++;
80000718:	000c2303          	lw	t1,0(s8)
        if (h[i] == 0) error_count++;
8000071c:	000ba883          	lw	a7,0(s7)
        if (f[i] == 0) error_count++;
80000720:	00042e03          	lw	t3,0(s0)
    for (int i = 0; i < LENGTH; i = i + 1) {
80000724:	4781                	li	a5,0
  uint32_t error_count = 0;
80000726:	4401                	li	s0,0
    for (int i = 0; i < LENGTH; i = i + 1) {
80000728:	40000813          	li	a6,1024
        if (e[i] == 0) error_count++;
8000072c:	00fe86b3          	add	a3,t4,a5
        if (f[i] == 0) error_count++;
80000730:	00fe0733          	add	a4,t3,a5
        if (e[i] == 0) error_count++;
80000734:	0006c503          	lbu	a0,0(a3)
        if (f[i] == 0) error_count++;
80000738:	00074603          	lbu	a2,0(a4)
        if (g[i] == 0) error_count++;
8000073c:	00f306b3          	add	a3,t1,a5
        if (h[i] == 0) error_count++;
80000740:	00f88733          	add	a4,a7,a5
        if (g[i] == 0) error_count++;
80000744:	0006c683          	lbu	a3,0(a3)
        if (h[i] == 0) error_count++;
80000748:	00074703          	lbu	a4,0(a4)
        if (e[i] == 0) error_count++;
8000074c:	00153513          	seqz	a0,a0
80000750:	942a                	add	s0,s0,a0
        if (f[i] == 0) error_count++;
80000752:	00163613          	seqz	a2,a2
80000756:	9432                	add	s0,s0,a2
        if (g[i] == 0) error_count++;
80000758:	0016b693          	seqz	a3,a3
8000075c:	9436                	add	s0,s0,a3
        if (h[i] == 0) error_count++;
8000075e:	00173713          	seqz	a4,a4
    for (int i = 0; i < LENGTH; i = i + 1) {
80000762:	0785                	addi	a5,a5,1
        if (h[i] == 0) error_count++;
80000764:	943a                	add	s0,s0,a4
    for (int i = 0; i < LENGTH; i = i + 1) {
80000766:	fd0793e3          	bne	a5,a6,8000072c <main+0x1b2>
    }
    
    t_gap = t_end - t_start;

    kprintf("Time spent: %l (cycles)\r\n", t_gap);
8000076a:	413585b3          	sub	a1,a1,s3
8000076e:	00000517          	auipc	a0,0x0
80000772:	28250513          	addi	a0,a0,642 # 800009f0 <a+0x4>
80000776:	2041                	jal	800007f6 <kprintf>
    kprintf("Cycle start: %x %x (cycles)\r\n", th_instr_start, tl_instr_start);
80000778:	864a                	mv	a2,s2
8000077a:	85a6                	mv	a1,s1
8000077c:	00000517          	auipc	a0,0x0
80000780:	29050513          	addi	a0,a0,656 # 80000a0c <a+0x20>
80000784:	288d                	jal	800007f6 <kprintf>
    kprintf("Cycle end: %x %x (cycles)\r\n", th_instr_end, tl_instr_end);
80000786:	8656                	mv	a2,s5
80000788:	85d2                	mv	a1,s4
8000078a:	00000517          	auipc	a0,0x0
8000078e:	2a250513          	addi	a0,a0,674 # 80000a2c <a+0x40>
80000792:	2095                	jal	800007f6 <kprintf>
    kprintf("Error: %l \r\n", error_count);
80000794:	85a2                	mv	a1,s0
80000796:	00000517          	auipc	a0,0x0
8000079a:	2b250513          	addi	a0,a0,690 # 80000a48 <a+0x5c>
8000079e:	28a1                	jal	800007f6 <kprintf>

  return 0;
}
800007a0:	50b2                	lw	ra,44(sp)
800007a2:	5422                	lw	s0,40(sp)
800007a4:	5492                	lw	s1,36(sp)
800007a6:	5902                	lw	s2,32(sp)
800007a8:	49f2                	lw	s3,28(sp)
800007aa:	4a62                	lw	s4,24(sp)
800007ac:	4ad2                	lw	s5,20(sp)
800007ae:	4b42                	lw	s6,16(sp)
800007b0:	4bb2                	lw	s7,12(sp)
800007b2:	4c22                	lw	s8,8(sp)
800007b4:	4c92                	lw	s9,4(sp)
800007b6:	4d02                	lw	s10,0(sp)
800007b8:	4501                	li	a0,0
800007ba:	6145                	addi	sp,sp,48
800007bc:	8082                	ret

800007be <kputs>:
#include "kprintf.h"

static inline void _kputs(const char *s)
{
	char c;
	for (; (c = *s) != '\0'; s++)
800007be:	00054703          	lbu	a4,0(a0)
800007c2:	cb19                	beqz	a4,800007d8 <kputs+0x1a>
{
	volatile uint32_t *tx = &REG32(uart, UART_REG_TXFIFO);
#ifdef __riscv_atomic
	int32_t r;
	do {
		__asm__ __volatile__ (
800007c4:	640007b7          	lui	a5,0x64000
800007c8:	40e7a6af          	amoor.w	a3,a4,(a5)
			"amoor.w %0, %2, %1\n"
			: "=r" (r), "+A" (*tx)
			: "r" (c));
	} while (r < 0);
800007cc:	fe06cee3          	bltz	a3,800007c8 <kputs+0xa>
800007d0:	00154703          	lbu	a4,1(a0)
800007d4:	0505                	addi	a0,a0,1
800007d6:	fb6d                	bnez	a4,800007c8 <kputs+0xa>
		__asm__ __volatile__ (
800007d8:	640007b7          	lui	a5,0x64000
800007dc:	4735                	li	a4,13
800007de:	40e7a6af          	amoor.w	a3,a4,(a5)
	} while (r < 0);
800007e2:	fe06cee3          	bltz	a3,800007de <kputs+0x20>
		__asm__ __volatile__ (
800007e6:	640007b7          	lui	a5,0x64000
800007ea:	4729                	li	a4,10
800007ec:	40e7a6af          	amoor.w	a3,a4,(a5)
	} while (r < 0);
800007f0:	fe06cee3          	bltz	a3,800007ec <kputs+0x2e>
void kputs(const char *s)
{
	_kputs(s);
	kputc('\r');
	kputc('\n');
}
800007f4:	8082                	ret

800007f6 <kprintf>:

void kprintf(const char *fmt, ...)
{
800007f6:	7159                	addi	sp,sp,-112

	va_start(vl, fmt);
	is_format = false;
	is_long = false;
	is_char = false;
	while ((c = *fmt++) != '\0') {
800007f8:	00054303          	lbu	t1,0(a0)
{
800007fc:	d2be                	sw	a5,100(sp)
	va_start(vl, fmt);
800007fe:	08dc                	addi	a5,sp,84
{
80000800:	caae                	sw	a1,84(sp)
80000802:	ccb2                	sw	a2,88(sp)
80000804:	ceb6                	sw	a3,92(sp)
80000806:	d0ba                	sw	a4,96(sp)
80000808:	d4c2                	sw	a6,104(sp)
8000080a:	d6c6                	sw	a7,108(sp)
	va_start(vl, fmt);
8000080c:	c63e                	sw	a5,12(sp)
	while ((c = *fmt++) != '\0') {
8000080e:	04030d63          	beqz	t1,80000868 <kprintf+0x72>
80000812:	0505                	addi	a0,a0,1
80000814:	4701                	li	a4,0
80000816:	4681                	li	a3,0
				break;
			}
			is_format = false;
			is_long = false;
			is_char = false;
		} else if (c == '%') {
80000818:	02500e13          	li	t3,37
		__asm__ __volatile__ (
8000081c:	640005b7          	lui	a1,0x64000
			switch (c) {
80000820:	48d5                	li	a7,21
80000822:	00000817          	auipc	a6,0x0
80000826:	23680813          	addi	a6,a6,566 # 80000a58 <a+0x6c>
		if (is_format) {
8000082a:	c6f5                	beqz	a3,80000916 <kprintf+0x120>
			switch (c) {
8000082c:	f9d30313          	addi	t1,t1,-99
80000830:	0ff37313          	zext.b	t1,t1
80000834:	0268e363          	bltu	a7,t1,8000085a <kprintf+0x64>
80000838:	00231793          	slli	a5,t1,0x2
8000083c:	97c2                	add	a5,a5,a6
8000083e:	439c                	lw	a5,0(a5)
80000840:	97c2                	add	a5,a5,a6
80000842:	8782                	jr	a5
				kputc(va_arg(vl, int));
80000844:	46b2                	lw	a3,12(sp)
80000846:	640007b7          	lui	a5,0x64000
8000084a:	0006c703          	lbu	a4,0(a3)
8000084e:	0691                	addi	a3,a3,4
80000850:	c636                	sw	a3,12(sp)
80000852:	40e7a6af          	amoor.w	a3,a4,(a5)
	} while (r < 0);
80000856:	fe06cee3          	bltz	a3,80000852 <kprintf+0x5c>
			is_char = false;
8000085a:	4701                	li	a4,0
			is_format = false;
8000085c:	4681                	li	a3,0
	while ((c = *fmt++) != '\0') {
8000085e:	00054303          	lbu	t1,0(a0)
80000862:	0505                	addi	a0,a0,1
80000864:	fc0313e3          	bnez	t1,8000082a <kprintf+0x34>
		} else {
			kputc(c);
		}
	}
	va_end(vl);
}
80000868:	6165                	addi	sp,sp,112
8000086a:	8082                	ret
					n = va_arg(vl, unsigned int);
8000086c:	47b2                	lw	a5,12(sp)
					i = is_char ? 4 : (sizeof(unsigned int) << 3) - 4;
8000086e:	00e03633          	snez	a2,a4
80000872:	40c00633          	neg	a2,a2
					n = va_arg(vl, unsigned int);
80000876:	0007af83          	lw	t6,0(a5) # 64000000 <_prog_start-0x1c000000>
					i = is_char ? 4 : (sizeof(unsigned int) << 3) - 4;
8000087a:	9a21                	andi	a2,a2,-24
					n = va_arg(vl, unsigned int);
8000087c:	0791                	addi	a5,a5,4
8000087e:	c63e                	sw	a5,12(sp)
					i = is_char ? 4 : (sizeof(unsigned int) << 3) - 4;
80000880:	0671                	addi	a2,a2,28
					kputc(d < 10 ? '0' + d : 'a' + d - 10);
80000882:	4f25                	li	t5,9
		__asm__ __volatile__ (
80000884:	640007b7          	lui	a5,0x64000
				for (; i >= 0; i -= 4) {
80000888:	5ef1                	li	t4,-4
					d = (n >> i) & 0xF;
8000088a:	00cfd733          	srl	a4,t6,a2
					kputc(d < 10 ? '0' + d : 'a' + d - 10);
8000088e:	00f77313          	andi	t1,a4,15
80000892:	05730713          	addi	a4,t1,87
80000896:	006f6463          	bltu	t5,t1,8000089e <kprintf+0xa8>
8000089a:	03030713          	addi	a4,t1,48
8000089e:	40e7a6af          	amoor.w	a3,a4,(a5)
	} while (r < 0);
800008a2:	fe06cee3          	bltz	a3,8000089e <kprintf+0xa8>
				for (; i >= 0; i -= 4) {
800008a6:	1671                	addi	a2,a2,-4
800008a8:	ffd611e3          	bne	a2,t4,8000088a <kprintf+0x94>
800008ac:	b77d                	j	8000085a <kprintf+0x64>
				_kputs(va_arg(vl, const char *));
800008ae:	47b2                	lw	a5,12(sp)
800008b0:	4390                	lw	a2,0(a5)
800008b2:	0791                	addi	a5,a5,4 # 64000004 <_prog_start-0x1bfffffc>
800008b4:	c63e                	sw	a5,12(sp)
	for (; (c = *s) != '\0'; s++)
800008b6:	00064703          	lbu	a4,0(a2)
800008ba:	d345                	beqz	a4,8000085a <kprintf+0x64>
		__asm__ __volatile__ (
800008bc:	640007b7          	lui	a5,0x64000
800008c0:	40e7a6af          	amoor.w	a3,a4,(a5)
	} while (r < 0);
800008c4:	fe06cee3          	bltz	a3,800008c0 <kprintf+0xca>
800008c8:	00164703          	lbu	a4,1(a2)
800008cc:	0605                	addi	a2,a2,1
800008ce:	fb6d                	bnez	a4,800008c0 <kprintf+0xca>
800008d0:	b769                	j	8000085a <kprintf+0x64>
				n = va_arg(vl, unsigned long);
800008d2:	47b2                	lw	a5,12(sp)
				for (int i = 0; i < 64; i ++) c[i] = 0;
800008d4:	c802                	sw	zero,16(sp)
800008d6:	ca02                	sw	zero,20(sp)
				n = va_arg(vl, unsigned long);
800008d8:	0007a303          	lw	t1,0(a5) # 64000000 <_prog_start-0x1c000000>
800008dc:	0791                	addi	a5,a5,4
800008de:	c63e                	sw	a5,12(sp)
				for (int i = 0; i < 64; i ++) c[i] = 0;
800008e0:	cc02                	sw	zero,24(sp)
800008e2:	ce02                	sw	zero,28(sp)
800008e4:	d002                	sw	zero,32(sp)
800008e6:	d202                	sw	zero,36(sp)
800008e8:	d402                	sw	zero,40(sp)
800008ea:	d602                	sw	zero,44(sp)
800008ec:	d802                	sw	zero,48(sp)
800008ee:	da02                	sw	zero,52(sp)
800008f0:	dc02                	sw	zero,56(sp)
800008f2:	de02                	sw	zero,60(sp)
800008f4:	c082                	sw	zero,64(sp)
800008f6:	c282                	sw	zero,68(sp)
800008f8:	c482                	sw	zero,72(sp)
800008fa:	c682                	sw	zero,76(sp)
				if (n == 0) {
800008fc:	02031a63          	bnez	t1,80000930 <kprintf+0x13a>
		__asm__ __volatile__ (
80000900:	640007b7          	lui	a5,0x64000
80000904:	03000713          	li	a4,48
80000908:	40e7a6af          	amoor.w	a3,a4,(a5)
	} while (r < 0);
8000090c:	fe06cee3          	bltz	a3,80000908 <kprintf+0x112>
80000910:	b7a9                	j	8000085a <kprintf+0x64>
				is_char = true;
80000912:	8736                	mv	a4,a3
80000914:	b7a9                	j	8000085e <kprintf+0x68>
		} else if (c == '%') {
80000916:	01c31463          	bne	t1,t3,8000091e <kprintf+0x128>
			is_format = true;
8000091a:	4685                	li	a3,1
8000091c:	b789                	j	8000085e <kprintf+0x68>
		__asm__ __volatile__ (
8000091e:	4065a7af          	amoor.w	a5,t1,(a1)
	} while (r < 0);
80000922:	f207dee3          	bgez	a5,8000085e <kprintf+0x68>
		__asm__ __volatile__ (
80000926:	4065a7af          	amoor.w	a5,t1,(a1)
	} while (r < 0);
8000092a:	fe07cae3          	bltz	a5,8000091e <kprintf+0x128>
8000092e:	bf05                	j	8000085e <kprintf+0x68>
80000930:	0810                	addi	a2,sp,16
					c[0] = '0' + (n%10);
80000932:	4ea9                	li	t4,10
				for (;n != 0;) {
80000934:	4f25                	li	t5,9
					for (int i = 63; i > 0; i--) c[i] = c[i-1];
80000936:	04e10793          	addi	a5,sp,78
8000093a:	0007c683          	lbu	a3,0(a5) # 64000000 <_prog_start-0x1c000000>
8000093e:	873e                	mv	a4,a5
80000940:	17fd                	addi	a5,a5,-1
80000942:	00d78123          	sb	a3,2(a5)
80000946:	fee61ae3          	bne	a2,a4,8000093a <kprintf+0x144>
					c[0] = '0' + (n%10);
8000094a:	03d37733          	remu	a4,t1,t4
8000094e:	03070713          	addi	a4,a4,48
80000952:	00e10823          	sb	a4,16(sp)
					n = n / 10;
80000956:	03d357b3          	divu	a5,t1,t4
				for (;n != 0;) {
8000095a:	006f7463          	bgeu	t5,t1,80000962 <kprintf+0x16c>
					n = n / 10;
8000095e:	833e                	mv	t1,a5
80000960:	bfd9                	j	80000936 <kprintf+0x140>
80000962:	01110613          	addi	a2,sp,17
		__asm__ __volatile__ (
80000966:	640007b7          	lui	a5,0x64000
8000096a:	40e7a6af          	amoor.w	a3,a4,(a5)
	} while (r < 0);
8000096e:	fe06cee3          	bltz	a3,8000096a <kprintf+0x174>
				for (int i = 0; c[i] != 0; i++) kputc(c[i]);
80000972:	00064703          	lbu	a4,0(a2)
80000976:	0605                	addi	a2,a2,1
80000978:	fb6d                	bnez	a4,8000096a <kprintf+0x174>
8000097a:	b5c5                	j	8000085a <kprintf+0x64>
	...

Disassembly of section .sdata:

800009c0 <h>:
uint8_t *h = (uint8_t *)0x80008000;
800009c0:	8000                	.2byte	0x8000
800009c2:	8000                	.2byte	0x8000

800009c4 <g>:
uint8_t *g = (uint8_t *)0x80007000;
800009c4:	7000                	.2byte	0x7000
800009c6:	8000                	.2byte	0x8000

800009c8 <f>:
uint8_t *f = (uint8_t *)0x80006000;
800009c8:	6000                	.2byte	0x6000
800009ca:	8000                	.2byte	0x8000

800009cc <e>:
uint8_t *e = (uint8_t *)0x80005000;
800009cc:	5000                	lw	s0,32(s0)
800009ce:	8000                	.2byte	0x8000

800009d0 <dg>:
uint8_t *dg = (uint8_t *)0x40003400;
800009d0:	3400                	.2byte	0x3400
800009d2:	4000                	lw	s0,0(s0)

800009d4 <ce>:
uint8_t *ce = (uint8_t *)0x40002400;
800009d4:	2400                	.2byte	0x2400
800009d6:	4000                	lw	s0,0(s0)

800009d8 <bg>:
uint8_t *bg = (uint8_t *)0x40001400;
800009d8:	1400                	addi	s0,sp,544
800009da:	4000                	lw	s0,0(s0)

800009dc <ae>:
uint8_t *ae = (uint8_t *)0x40000400;
800009dc:	0400                	addi	s0,sp,512
800009de:	4000                	lw	s0,0(s0)

800009e0 <d>:
uint8_t *d = (uint8_t *)0x40003000;
800009e0:	3000                	.2byte	0x3000
800009e2:	4000                	lw	s0,0(s0)

800009e4 <c>:
uint8_t *c = (uint8_t *)0x40002000;
800009e4:	2000                	.2byte	0x2000
800009e6:	4000                	lw	s0,0(s0)

800009e8 <b>:
uint8_t *b = (uint8_t *)0x40001000;
800009e8:	1000                	addi	s0,sp,32
800009ea:	4000                	lw	s0,0(s0)

800009ec <a>:
uint8_t *a = (uint8_t *)0x40000000;
800009ec:	0000                	unimp
800009ee:	4000                	lw	s0,0(s0)

Disassembly of section .rodata:

800009f0 <.rodata>:
800009f0:	6954                	.2byte	0x6954
800009f2:	656d                	lui	a0,0x1b
800009f4:	7320                	.2byte	0x7320
800009f6:	6570                	.2byte	0x6570
800009f8:	746e                	.2byte	0x746e
800009fa:	203a                	.2byte	0x203a
800009fc:	6c25                	lui	s8,0x9
800009fe:	2820                	.2byte	0x2820
80000a00:	6c637963          	bgeu	t1,t1,800010d2 <a+0x6e6>
80000a04:	7365                	lui	t1,0xffff9
80000a06:	0d29                	addi	s10,s10,10
80000a08:	000a                	c.slli	zero,0x2
80000a0a:	0000                	unimp
80000a0c:	6c637943          	.4byte	0x6c637943
80000a10:	2065                	jal	80000ab8 <a+0xcc>
80000a12:	72617473          	csrrci	s0,mhpmevent6h,2
80000a16:	3a74                	.2byte	0x3a74
80000a18:	2520                	.2byte	0x2520
80000a1a:	2078                	.2byte	0x2078
80000a1c:	7825                	lui	a6,0xfffe9
80000a1e:	2820                	.2byte	0x2820
80000a20:	6c637963          	bgeu	t1,t1,800010f2 <a+0x706>
80000a24:	7365                	lui	t1,0xffff9
80000a26:	0d29                	addi	s10,s10,10
80000a28:	000a                	c.slli	zero,0x2
80000a2a:	0000                	unimp
80000a2c:	6c637943          	.4byte	0x6c637943
80000a30:	2065                	jal	80000ad8 <a+0xec>
80000a32:	6e65                	lui	t3,0x19
80000a34:	3a64                	.2byte	0x3a64
80000a36:	2520                	.2byte	0x2520
80000a38:	2078                	.2byte	0x2078
80000a3a:	7825                	lui	a6,0xfffe9
80000a3c:	2820                	.2byte	0x2820
80000a3e:	6c637963          	bgeu	t1,t1,80001110 <a+0x724>
80000a42:	7365                	lui	t1,0xffff9
80000a44:	0d29                	addi	s10,s10,10
80000a46:	000a                	c.slli	zero,0x2
80000a48:	7245                	lui	tp,0xffff1
80000a4a:	6f72                	.2byte	0x6f72
80000a4c:	3a72                	.2byte	0x3a72
80000a4e:	2520                	.2byte	0x2520
80000a50:	206c                	.2byte	0x206c
80000a52:	0a0d                	addi	s4,s4,3
80000a54:	0000                	unimp
80000a56:	0000                	unimp
80000a58:	fdec                	.2byte	0xfdec
80000a5a:	ffff                	.2byte	0xffff
80000a5c:	fe02                	.2byte	0xfe02
80000a5e:	ffff                	.2byte	0xffff
80000a60:	fe02                	.2byte	0xfe02
80000a62:	ffff                	.2byte	0xffff
80000a64:	fe02                	.2byte	0xfe02
80000a66:	ffff                	.2byte	0xffff
80000a68:	fe02                	.2byte	0xfe02
80000a6a:	ffff                	.2byte	0xffff
80000a6c:	feba                	.2byte	0xfeba
80000a6e:	ffff                	.2byte	0xffff
80000a70:	fe02                	.2byte	0xfe02
80000a72:	ffff                	.2byte	0xffff
80000a74:	fe02                	.2byte	0xfe02
80000a76:	ffff                	.2byte	0xffff
80000a78:	fe02                	.2byte	0xfe02
80000a7a:	ffff                	.2byte	0xffff
80000a7c:	fe7a                	.2byte	0xfe7a
80000a7e:	ffff                	.2byte	0xffff
80000a80:	fe02                	.2byte	0xfe02
80000a82:	ffff                	.2byte	0xffff
80000a84:	fe02                	.2byte	0xfe02
80000a86:	ffff                	.2byte	0xffff
80000a88:	fe02                	.2byte	0xfe02
80000a8a:	ffff                	.2byte	0xffff
80000a8c:	fe02                	.2byte	0xfe02
80000a8e:	ffff                	.2byte	0xffff
80000a90:	fe02                	.2byte	0xfe02
80000a92:	ffff                	.2byte	0xffff
80000a94:	fe02                	.2byte	0xfe02
80000a96:	ffff                	.2byte	0xffff
80000a98:	fe56                	.2byte	0xfe56
80000a9a:	ffff                	.2byte	0xffff
80000a9c:	fe02                	.2byte	0xfe02
80000a9e:	ffff                	.2byte	0xffff
80000aa0:	fe02                	.2byte	0xfe02
80000aa2:	ffff                	.2byte	0xffff
80000aa4:	fe02                	.2byte	0xfe02
80000aa6:	ffff                	.2byte	0xffff
80000aa8:	fe02                	.2byte	0xfe02
80000aaa:	ffff                	.2byte	0xffff
80000aac:	fe14                	.2byte	0xfe14
80000aae:	ffff                	.2byte	0xffff

Disassembly of section .riscv.attributes:

00000000 <.riscv.attributes>:
   0:	2e41                	jal	390 <_prog_start-0x7ffffc70>
   2:	0000                	unimp
   4:	7200                	.2byte	0x7200
   6:	7369                	lui	t1,0xffffa
   8:	01007663          	bgeu	zero,a6,14 <_prog_start-0x7fffffec>
   c:	0024                	addi	s1,sp,8
   e:	0000                	unimp
  10:	1004                	addi	s1,sp,32
  12:	7205                	lui	tp,0xfffe1
  14:	3376                	.2byte	0x3376
  16:	6932                	.2byte	0x6932
  18:	7032                	.2byte	0x7032
  1a:	5f30                	lw	a2,120(a4)
  1c:	326d                	jal	fffff9c6 <a+0x7fffefda>
  1e:	3070                	.2byte	0x3070
  20:	615f 7032 5f30      	.byte	0x5f, 0x61, 0x32, 0x70, 0x30, 0x5f
  26:	30703263          	.4byte	0x30703263
  2a:	0800                	addi	s0,sp,16
  2c:	0a01                	addi	s4,s4,0
  2e:	0b              	Address 0x000000000000002e is out of bounds.


Disassembly of section .comment:

00000000 <.comment>:
   0:	3a434347          	.4byte	0x3a434347
   4:	2820                	.2byte	0x2820
   6:	65653267          	.4byte	0x65653267
   a:	6535                	lui	a0,0xd
   c:	3334                	.2byte	0x3334
   e:	3030                	.2byte	0x3030
  10:	3831                	jal	fffff82c <a+0x7fffee40>
  12:	2029                	jal	1c <_prog_start-0x7fffffe4>
  14:	3231                	jal	fffff920 <a+0x7fffef34>
  16:	322e                	.2byte	0x322e
  18:	302e                	.2byte	0x302e
	...

Disassembly of section .debug_line:

00000000 <.debug_line>:
       0:	0258                	addi	a4,sp,260
       2:	0000                	unimp
       4:	0005                	c.nop	1
       6:	0004                	.2byte	0x4
       8:	002a                	c.slli	zero,0xa
       a:	0000                	unimp
       c:	0101                	addi	sp,sp,0
       e:	fb01                	bnez	a4,ffffff1e <a+0x7ffff532>
      10:	0d0e                	slli	s10,s10,0x3
      12:	0100                	addi	s0,sp,128
      14:	0101                	addi	sp,sp,0
      16:	0001                	nop
      18:	0000                	unimp
      1a:	0001                	nop
      1c:	0100                	addi	s0,sp,128
      1e:	0101                	addi	sp,sp,0
      20:	011f 0000 0000      	.byte	0x1f, 0x01, 0x00, 0x00, 0x00, 0x00
      26:	0102                	c.slli64	sp
      28:	021f 020f 0047      	.byte	0x1f, 0x02, 0x0f, 0x02, 0x47, 0x00
      2e:	0000                	unimp
      30:	4700                	lw	s0,8(a4)
      32:	0000                	unimp
      34:	0000                	unimp
      36:	0500                	addi	s0,sp,640
      38:	0002                	c.slli64	zero
      3a:	0000                	unimp
      3c:	0380                	addi	s0,sp,448
      3e:	010c                	addi	a1,sp,128
      40:	04090103          	lb	sp,64(s2)
      44:	0100                	addi	s0,sp,128
      46:	04090103          	lb	sp,64(s2)
      4a:	0100                	addi	s0,sp,128
      4c:	04090103          	lb	sp,64(s2)
      50:	0100                	addi	s0,sp,128
      52:	04090103          	lb	sp,64(s2)
      56:	0100                	addi	s0,sp,128
      58:	04090103          	lb	sp,64(s2)
      5c:	0100                	addi	s0,sp,128
      5e:	04090103          	lb	sp,64(s2)
      62:	0100                	addi	s0,sp,128
      64:	04090103          	lb	sp,64(s2)
      68:	0100                	addi	s0,sp,128
      6a:	04090103          	lb	sp,64(s2)
      6e:	0100                	addi	s0,sp,128
      70:	04090103          	lb	sp,64(s2)
      74:	0100                	addi	s0,sp,128
      76:	04090203          	lb	tp,64(s2)
      7a:	0100                	addi	s0,sp,128
      7c:	04090203          	lb	tp,64(s2)
      80:	0100                	addi	s0,sp,128
      82:	08090103          	lb	sp,128(s2)
      86:	0100                	addi	s0,sp,128
      88:	02090103          	lb	sp,32(s2)
      8c:	0100                	addi	s0,sp,128
      8e:	04090203          	lb	tp,64(s2)
      92:	0100                	addi	s0,sp,128
      94:	04090203          	lb	tp,64(s2)
      98:	0100                	addi	s0,sp,128
      9a:	04090103          	lb	sp,64(s2)
      9e:	0100                	addi	s0,sp,128
      a0:	04090103          	lb	sp,64(s2)
      a4:	0100                	addi	s0,sp,128
      a6:	08090103          	lb	sp,128(s2)
      aa:	0100                	addi	s0,sp,128
      ac:	04090103          	lb	sp,64(s2)
      b0:	0100                	addi	s0,sp,128
      b2:	08090103          	lb	sp,128(s2)
      b6:	0100                	addi	s0,sp,128
      b8:	02090103          	lb	sp,32(s2)
      bc:	0100                	addi	s0,sp,128
      be:	04090103          	lb	sp,64(s2)
      c2:	0100                	addi	s0,sp,128
      c4:	04090103          	lb	sp,64(s2)
      c8:	0100                	addi	s0,sp,128
      ca:	04090203          	lb	tp,64(s2)
      ce:	0100                	addi	s0,sp,128
      d0:	04090103          	lb	sp,64(s2)
      d4:	0100                	addi	s0,sp,128
      d6:	04090103          	lb	sp,64(s2)
      da:	0100                	addi	s0,sp,128
      dc:	08090103          	lb	sp,128(s2)
      e0:	0100                	addi	s0,sp,128
      e2:	04090103          	lb	sp,64(s2)
      e6:	0100                	addi	s0,sp,128
      e8:	08090103          	lb	sp,128(s2)
      ec:	0100                	addi	s0,sp,128
      ee:	02090103          	lb	sp,32(s2)
      f2:	0100                	addi	s0,sp,128
      f4:	04090103          	lb	sp,64(s2)
      f8:	0100                	addi	s0,sp,128
      fa:	04090103          	lb	sp,64(s2)
      fe:	0100                	addi	s0,sp,128
     100:	04090203          	lb	tp,64(s2)
     104:	0100                	addi	s0,sp,128
     106:	04090203          	lb	tp,64(s2)
     10a:	0100                	addi	s0,sp,128
     10c:	04090103          	lb	sp,64(s2)
     110:	0100                	addi	s0,sp,128
     112:	04090103          	lb	sp,64(s2)
     116:	0100                	addi	s0,sp,128
     118:	08090103          	lb	sp,128(s2)
     11c:	0100                	addi	s0,sp,128
     11e:	04090103          	lb	sp,64(s2)
     122:	0100                	addi	s0,sp,128
     124:	08090103          	lb	sp,128(s2)
     128:	0100                	addi	s0,sp,128
     12a:	02090103          	lb	sp,32(s2)
     12e:	0100                	addi	s0,sp,128
     130:	04090103          	lb	sp,64(s2)
     134:	0100                	addi	s0,sp,128
     136:	04090103          	lb	sp,64(s2)
     13a:	0100                	addi	s0,sp,128
     13c:	04090203          	lb	tp,64(s2)
     140:	0100                	addi	s0,sp,128
     142:	04090103          	lb	sp,64(s2)
     146:	0100                	addi	s0,sp,128
     148:	04090103          	lb	sp,64(s2)
     14c:	0100                	addi	s0,sp,128
     14e:	08090103          	lb	sp,128(s2)
     152:	0100                	addi	s0,sp,128
     154:	04090103          	lb	sp,64(s2)
     158:	0100                	addi	s0,sp,128
     15a:	08090103          	lb	sp,128(s2)
     15e:	0100                	addi	s0,sp,128
     160:	02090103          	lb	sp,32(s2)
     164:	0100                	addi	s0,sp,128
     166:	04090103          	lb	sp,64(s2)
     16a:	0100                	addi	s0,sp,128
     16c:	04090103          	lb	sp,64(s2)
     170:	0100                	addi	s0,sp,128
     172:	04090203          	lb	tp,64(s2)
     176:	0100                	addi	s0,sp,128
     178:	04090103          	lb	sp,64(s2)
     17c:	0100                	addi	s0,sp,128
     17e:	04090103          	lb	sp,64(s2)
     182:	0100                	addi	s0,sp,128
     184:	08090103          	lb	sp,128(s2)
     188:	0100                	addi	s0,sp,128
     18a:	04090103          	lb	sp,64(s2)
     18e:	0100                	addi	s0,sp,128
     190:	08090103          	lb	sp,128(s2)
     194:	0100                	addi	s0,sp,128
     196:	02090103          	lb	sp,32(s2)
     19a:	0100                	addi	s0,sp,128
     19c:	04090103          	lb	sp,64(s2)
     1a0:	0100                	addi	s0,sp,128
     1a2:	04090103          	lb	sp,64(s2)
     1a6:	0100                	addi	s0,sp,128
     1a8:	04090203          	lb	tp,64(s2)
     1ac:	0100                	addi	s0,sp,128
     1ae:	04090103          	lb	sp,64(s2)
     1b2:	0100                	addi	s0,sp,128
     1b4:	04090103          	lb	sp,64(s2)
     1b8:	0100                	addi	s0,sp,128
     1ba:	08090103          	lb	sp,128(s2)
     1be:	0100                	addi	s0,sp,128
     1c0:	04090103          	lb	sp,64(s2)
     1c4:	0100                	addi	s0,sp,128
     1c6:	08090103          	lb	sp,128(s2)
     1ca:	0100                	addi	s0,sp,128
     1cc:	02090103          	lb	sp,32(s2)
     1d0:	0100                	addi	s0,sp,128
     1d2:	04090103          	lb	sp,64(s2)
     1d6:	0100                	addi	s0,sp,128
     1d8:	04090103          	lb	sp,64(s2)
     1dc:	0100                	addi	s0,sp,128
     1de:	04090203          	lb	tp,64(s2)
     1e2:	0100                	addi	s0,sp,128
     1e4:	04090203          	lb	tp,64(s2)
     1e8:	0100                	addi	s0,sp,128
     1ea:	04090103          	lb	sp,64(s2)
     1ee:	0100                	addi	s0,sp,128
     1f0:	04090103          	lb	sp,64(s2)
     1f4:	0100                	addi	s0,sp,128
     1f6:	08090103          	lb	sp,128(s2)
     1fa:	0100                	addi	s0,sp,128
     1fc:	04090103          	lb	sp,64(s2)
     200:	0100                	addi	s0,sp,128
     202:	08090103          	lb	sp,128(s2)
     206:	0100                	addi	s0,sp,128
     208:	02090103          	lb	sp,32(s2)
     20c:	0100                	addi	s0,sp,128
     20e:	04090103          	lb	sp,64(s2)
     212:	0100                	addi	s0,sp,128
     214:	04090103          	lb	sp,64(s2)
     218:	0100                	addi	s0,sp,128
     21a:	04090203          	lb	tp,64(s2)
     21e:	0100                	addi	s0,sp,128
     220:	04090103          	lb	sp,64(s2)
     224:	0100                	addi	s0,sp,128
     226:	04090103          	lb	sp,64(s2)
     22a:	0100                	addi	s0,sp,128
     22c:	08090103          	lb	sp,128(s2)
     230:	0100                	addi	s0,sp,128
     232:	04090103          	lb	sp,64(s2)
     236:	0100                	addi	s0,sp,128
     238:	08090103          	lb	sp,128(s2)
     23c:	0100                	addi	s0,sp,128
     23e:	02090103          	lb	sp,32(s2)
     242:	0100                	addi	s0,sp,128
     244:	04090103          	lb	sp,64(s2)
     248:	0100                	addi	s0,sp,128
     24a:	04090103          	lb	sp,64(s2)
     24e:	0100                	addi	s0,sp,128
     250:	04090203          	lb	tp,64(s2)
     254:	0100                	addi	s0,sp,128
     256:	0409                	addi	s0,s0,2
     258:	0000                	unimp
     25a:	0101                	addi	sp,sp,0
     25c:	11c0                	addi	s0,sp,228
     25e:	0000                	unimp
     260:	0005                	c.nop	1
     262:	0004                	.2byte	0x4
     264:	0041                	c.nop	16
     266:	0000                	unimp
     268:	0101                	addi	sp,sp,0
     26a:	fb01                	bnez	a4,17a <_prog_start-0x7ffffe86>
     26c:	0d0e                	slli	s10,s10,0x3
     26e:	0100                	addi	s0,sp,128
     270:	0101                	addi	sp,sp,0
     272:	0001                	nop
     274:	0000                	unimp
     276:	0001                	nop
     278:	0100                	addi	s0,sp,128
     27a:	0101                	addi	sp,sp,0
     27c:	031f 0000 0000      	.byte	0x1f, 0x03, 0x00, 0x00, 0x00, 0x00
     282:	0055                	c.nop	21
     284:	0000                	unimp
     286:	000000bf 021f0102 	.8byte	0x21f0102000000bf
     28e:	004e050f          	.4byte	0x4e050f
     292:	0000                	unimp
     294:	4e00                	lw	s0,24(a2)
     296:	0000                	unimp
     298:	0000                	unimp
     29a:	0125                	addi	sp,sp,9
     29c:	0000                	unimp
     29e:	3601                	jal	fffffd9e <a+0x7ffff3b2>
     2a0:	0001                	nop
     2a2:	0200                	addi	s0,sp,256
     2a4:	0140                	addi	s0,sp,132
     2a6:	0000                	unimp
     2a8:	0500                	addi	s0,sp,640
     2aa:	000e                	c.slli	zero,0x3
     2ac:	0205                	addi	tp,tp,1 # fffe1001 <a+0x7ffe0615>
     2ae:	019a                	slli	gp,gp,0x6
     2b0:	8000                	.2byte	0x8000
     2b2:	05011e03          	lh	t3,80(sp)
     2b6:	09050303          	lb	t1,144(a0) # d090 <_prog_start-0x7fff2f70>
     2ba:	0000                	unimp
     2bc:	0501                	addi	a0,a0,0
     2be:	0308                	addi	a0,sp,384
     2c0:	0900                	addi	s0,sp,144
     2c2:	0000                	unimp
     2c4:	0501                	addi	a0,a0,0
     2c6:	0315                	addi	t1,t1,5 # ffffa005 <a+0x7fff9619>
     2c8:	0900                	addi	s0,sp,144
     2ca:	0000                	unimp
     2cc:	0501                	addi	a0,a0,0
     2ce:	060c                	addi	a1,sp,768
     2d0:	00090003          	lb	zero,0(s2)
     2d4:	0100                	addi	s0,sp,128
     2d6:	1705                	addi	a4,a4,-31
     2d8:	1a090103          	lb	sp,416(s2)
     2dc:	0100                	addi	s0,sp,128
     2de:	1505                	addi	a0,a0,-31
     2e0:	04097f03          	.4byte	0x4097f03
     2e4:	0100                	addi	s0,sp,128
     2e6:	1705                	addi	a4,a4,-31
     2e8:	0306                	slli	t1,t1,0x1
     2ea:	0901                	addi	s2,s2,0
     2ec:	0004                	.2byte	0x4
     2ee:	0501                	addi	a0,a0,0
     2f0:	060e                	slli	a2,a2,0x3
     2f2:	00090003          	lb	zero,0(s2)
     2f6:	0100                	addi	s0,sp,128
     2f8:	0705                	addi	a4,a4,1
     2fa:	0200                	addi	s0,sp,256
     2fc:	0304                	addi	s1,sp,384
     2fe:	0306                	slli	t1,t1,0x1
     300:	0901                	addi	s2,s2,0
     302:	0002                	c.slli64	zero
     304:	0501                	addi	a0,a0,0
     306:	0011                	c.nop	4
     308:	0402                	c.slli64	s0
     30a:	00030603          	lb	a2,0(t1)
     30e:	0009                	c.nop	2
     310:	0100                	addi	s0,sp,128
     312:	1805                	addi	a6,a6,-31 # fffe8fe1 <a+0x7ffe85f5>
     314:	0200                	addi	s0,sp,256
     316:	0304                	addi	s1,sp,384
     318:	04090003          	lb	zero,64(s2)
     31c:	0100                	addi	s0,sp,128
     31e:	0905                	addi	s2,s2,1
     320:	0200                	addi	s0,sp,256
     322:	0304                	addi	s1,sp,384
     324:	04090003          	lb	zero,64(s2)
     328:	0100                	addi	s0,sp,128
     32a:	1105                	addi	sp,sp,-31
     32c:	0200                	addi	s0,sp,256
     32e:	0304                	addi	s1,sp,384
     330:	04090003          	lb	zero,64(s2)
     334:	0100                	addi	s0,sp,128
     336:	1805                	addi	a6,a6,-31
     338:	0200                	addi	s0,sp,256
     33a:	0304                	addi	s1,sp,384
     33c:	02090003          	lb	zero,32(s2)
     340:	0100                	addi	s0,sp,128
     342:	1505                	addi	a0,a0,-31
     344:	0200                	addi	s0,sp,256
     346:	0304                	addi	s1,sp,384
     348:	02090003          	lb	zero,32(s2)
     34c:	0100                	addi	s0,sp,128
     34e:	0905                	addi	s2,s2,1
     350:	0200                	addi	s0,sp,256
     352:	0304                	addi	s1,sp,384
     354:	08090003          	lb	zero,128(s2)
     358:	0100                	addi	s0,sp,128
     35a:	0d05                	addi	s10,s10,1
     35c:	0200                	addi	s0,sp,256
     35e:	0304                	addi	s1,sp,384
     360:	02090003          	lb	zero,32(s2)
     364:	0100                	addi	s0,sp,128
     366:	1505                	addi	a0,a0,-31
     368:	0200                	addi	s0,sp,256
     36a:	0304                	addi	s1,sp,384
     36c:	04090003          	lb	zero,64(s2)
     370:	0100                	addi	s0,sp,128
     372:	2005                	jal	392 <_prog_start-0x7ffffc6e>
     374:	0200                	addi	s0,sp,256
     376:	0304                	addi	s1,sp,384
     378:	04097f03          	.4byte	0x4097f03
     37c:	0100                	addi	s0,sp,128
     37e:	0d05                	addi	s10,s10,1
     380:	0200                	addi	s0,sp,256
     382:	0304                	addi	s1,sp,384
     384:	02090103          	lb	sp,32(s2)
     388:	0100                	addi	s0,sp,128
     38a:	2005                	jal	3aa <_prog_start-0x7ffffc56>
     38c:	0200                	addi	s0,sp,256
     38e:	0304                	addi	s1,sp,384
     390:	0306                	slli	t1,t1,0x1
     392:	097f                	.2byte	0x97f
     394:	0006                	c.slli	zero,0x1
     396:	0501                	addi	a0,a0,0
     398:	04020017          	auipc	zero,0x4020
     39c:	09000303          	lb	t1,144(zero) # 90 <_prog_start-0x7fffff70>
     3a0:	0000                	unimp
     3a2:	0501                	addi	a0,a0,0
     3a4:	0021                	c.nop	8
     3a6:	0402                	c.slli64	s0
     3a8:	0302                	c.slli64	t1
     3aa:	097f                	.2byte	0x97f
     3ac:	0004                	.2byte	0x4
     3ae:	0501                	addi	a0,a0,0
     3b0:	0015                	c.nop	5
     3b2:	0402                	c.slli64	s0
     3b4:	0302                	c.slli64	t1
     3b6:	0900                	addi	s0,sp,144
     3b8:	0002                	c.slli64	zero
     3ba:	0501                	addi	a0,a0,0
     3bc:	0601                	addi	a2,a2,0
     3be:	04090303          	lb	t1,64(s2)
     3c2:	0100                	addi	s0,sp,128
     3c4:	0e05                	addi	t3,t3,1 # 19001 <_prog_start-0x7ffe6fff>
     3c6:	0306                	slli	t1,t1,0x1
     3c8:	0902                	c.slli64	s2
     3ca:	0002                	c.slli64	zero
     3cc:	0501                	addi	a0,a0,0
     3ce:	09050303          	lb	t1,144(a0)
     3d2:	0000                	unimp
     3d4:	0501                	addi	a0,a0,0
     3d6:	0308                	addi	a0,sp,384
     3d8:	0900                	addi	s0,sp,144
     3da:	0000                	unimp
     3dc:	0501                	addi	a0,a0,0
     3de:	0315                	addi	t1,t1,5
     3e0:	0900                	addi	s0,sp,144
     3e2:	0000                	unimp
     3e4:	0501                	addi	a0,a0,0
     3e6:	060c                	addi	a1,sp,768
     3e8:	00090003          	lb	zero,0(s2)
     3ec:	0100                	addi	s0,sp,128
     3ee:	1705                	addi	a4,a4,-31
     3f0:	1a090103          	lb	sp,416(s2)
     3f4:	0100                	addi	s0,sp,128
     3f6:	1505                	addi	a0,a0,-31
     3f8:	04097f03          	.4byte	0x4097f03
     3fc:	0100                	addi	s0,sp,128
     3fe:	1705                	addi	a4,a4,-31
     400:	0306                	slli	t1,t1,0x1
     402:	0901                	addi	s2,s2,0
     404:	0004                	.2byte	0x4
     406:	0501                	addi	a0,a0,0
     408:	060e                	slli	a2,a2,0x3
     40a:	00090003          	lb	zero,0(s2)
     40e:	0100                	addi	s0,sp,128
     410:	0705                	addi	a4,a4,1
     412:	0200                	addi	s0,sp,256
     414:	0304                	addi	s1,sp,384
     416:	0306                	slli	t1,t1,0x1
     418:	0901                	addi	s2,s2,0
     41a:	0002                	c.slli64	zero
     41c:	0501                	addi	a0,a0,0
     41e:	0011                	c.nop	4
     420:	0402                	c.slli64	s0
     422:	00030603          	lb	a2,0(t1)
     426:	0009                	c.nop	2
     428:	0100                	addi	s0,sp,128
     42a:	1805                	addi	a6,a6,-31
     42c:	0200                	addi	s0,sp,256
     42e:	0304                	addi	s1,sp,384
     430:	04090003          	lb	zero,64(s2)
     434:	0100                	addi	s0,sp,128
     436:	0905                	addi	s2,s2,1
     438:	0200                	addi	s0,sp,256
     43a:	0304                	addi	s1,sp,384
     43c:	04090003          	lb	zero,64(s2)
     440:	0100                	addi	s0,sp,128
     442:	1105                	addi	sp,sp,-31
     444:	0200                	addi	s0,sp,256
     446:	0304                	addi	s1,sp,384
     448:	04090003          	lb	zero,64(s2)
     44c:	0100                	addi	s0,sp,128
     44e:	1805                	addi	a6,a6,-31
     450:	0200                	addi	s0,sp,256
     452:	0304                	addi	s1,sp,384
     454:	02090003          	lb	zero,32(s2)
     458:	0100                	addi	s0,sp,128
     45a:	1505                	addi	a0,a0,-31
     45c:	0200                	addi	s0,sp,256
     45e:	0304                	addi	s1,sp,384
     460:	02090003          	lb	zero,32(s2)
     464:	0100                	addi	s0,sp,128
     466:	0905                	addi	s2,s2,1
     468:	0200                	addi	s0,sp,256
     46a:	0304                	addi	s1,sp,384
     46c:	08090003          	lb	zero,128(s2)
     470:	0100                	addi	s0,sp,128
     472:	0d05                	addi	s10,s10,1
     474:	0200                	addi	s0,sp,256
     476:	0304                	addi	s1,sp,384
     478:	02090003          	lb	zero,32(s2)
     47c:	0100                	addi	s0,sp,128
     47e:	1505                	addi	a0,a0,-31
     480:	0200                	addi	s0,sp,256
     482:	0304                	addi	s1,sp,384
     484:	04090003          	lb	zero,64(s2)
     488:	0100                	addi	s0,sp,128
     48a:	2005                	jal	4aa <_prog_start-0x7ffffb56>
     48c:	0200                	addi	s0,sp,256
     48e:	0304                	addi	s1,sp,384
     490:	04097f03          	.4byte	0x4097f03
     494:	0100                	addi	s0,sp,128
     496:	0d05                	addi	s10,s10,1
     498:	0200                	addi	s0,sp,256
     49a:	0304                	addi	s1,sp,384
     49c:	02090103          	lb	sp,32(s2)
     4a0:	0100                	addi	s0,sp,128
     4a2:	2005                	jal	4c2 <_prog_start-0x7ffffb3e>
     4a4:	0200                	addi	s0,sp,256
     4a6:	0304                	addi	s1,sp,384
     4a8:	0306                	slli	t1,t1,0x1
     4aa:	097f                	.2byte	0x97f
     4ac:	0006                	c.slli	zero,0x1
     4ae:	0501                	addi	a0,a0,0
     4b0:	04020017          	auipc	zero,0x4020
     4b4:	09000303          	lb	t1,144(zero) # 90 <_prog_start-0x7fffff70>
     4b8:	0000                	unimp
     4ba:	0501                	addi	a0,a0,0
     4bc:	0021                	c.nop	8
     4be:	0402                	c.slli64	s0
     4c0:	0302                	c.slli64	t1
     4c2:	097f                	.2byte	0x97f
     4c4:	0004                	.2byte	0x4
     4c6:	0501                	addi	a0,a0,0
     4c8:	0015                	c.nop	5
     4ca:	0402                	c.slli64	s0
     4cc:	0302                	c.slli64	t1
     4ce:	0900                	addi	s0,sp,144
     4d0:	0002                	c.slli64	zero
     4d2:	0501                	addi	a0,a0,0
     4d4:	0601                	addi	a2,a2,0
     4d6:	04090303          	lb	t1,64(s2)
     4da:	0100                	addi	s0,sp,128
     4dc:	0e05                	addi	t3,t3,1
     4de:	0306                	slli	t1,t1,0x1
     4e0:	0902                	c.slli64	s2
     4e2:	0002                	c.slli64	zero
     4e4:	0501                	addi	a0,a0,0
     4e6:	09050303          	lb	t1,144(a0)
     4ea:	0000                	unimp
     4ec:	0501                	addi	a0,a0,0
     4ee:	0308                	addi	a0,sp,384
     4f0:	0900                	addi	s0,sp,144
     4f2:	0000                	unimp
     4f4:	0501                	addi	a0,a0,0
     4f6:	0315                	addi	t1,t1,5
     4f8:	0900                	addi	s0,sp,144
     4fa:	0000                	unimp
     4fc:	0501                	addi	a0,a0,0
     4fe:	060c                	addi	a1,sp,768
     500:	00090003          	lb	zero,0(s2)
     504:	0100                	addi	s0,sp,128
     506:	1705                	addi	a4,a4,-31
     508:	1a090103          	lb	sp,416(s2)
     50c:	0100                	addi	s0,sp,128
     50e:	1505                	addi	a0,a0,-31
     510:	04097f03          	.4byte	0x4097f03
     514:	0100                	addi	s0,sp,128
     516:	1705                	addi	a4,a4,-31
     518:	0306                	slli	t1,t1,0x1
     51a:	0901                	addi	s2,s2,0
     51c:	0004                	.2byte	0x4
     51e:	0501                	addi	a0,a0,0
     520:	060e                	slli	a2,a2,0x3
     522:	00090003          	lb	zero,0(s2)
     526:	0100                	addi	s0,sp,128
     528:	0705                	addi	a4,a4,1
     52a:	0200                	addi	s0,sp,256
     52c:	0304                	addi	s1,sp,384
     52e:	0306                	slli	t1,t1,0x1
     530:	0901                	addi	s2,s2,0
     532:	0002                	c.slli64	zero
     534:	0501                	addi	a0,a0,0
     536:	0011                	c.nop	4
     538:	0402                	c.slli64	s0
     53a:	00030603          	lb	a2,0(t1)
     53e:	0009                	c.nop	2
     540:	0100                	addi	s0,sp,128
     542:	1805                	addi	a6,a6,-31
     544:	0200                	addi	s0,sp,256
     546:	0304                	addi	s1,sp,384
     548:	04090003          	lb	zero,64(s2)
     54c:	0100                	addi	s0,sp,128
     54e:	0905                	addi	s2,s2,1
     550:	0200                	addi	s0,sp,256
     552:	0304                	addi	s1,sp,384
     554:	04090003          	lb	zero,64(s2)
     558:	0100                	addi	s0,sp,128
     55a:	1105                	addi	sp,sp,-31
     55c:	0200                	addi	s0,sp,256
     55e:	0304                	addi	s1,sp,384
     560:	04090003          	lb	zero,64(s2)
     564:	0100                	addi	s0,sp,128
     566:	1805                	addi	a6,a6,-31
     568:	0200                	addi	s0,sp,256
     56a:	0304                	addi	s1,sp,384
     56c:	02090003          	lb	zero,32(s2)
     570:	0100                	addi	s0,sp,128
     572:	1505                	addi	a0,a0,-31
     574:	0200                	addi	s0,sp,256
     576:	0304                	addi	s1,sp,384
     578:	02090003          	lb	zero,32(s2)
     57c:	0100                	addi	s0,sp,128
     57e:	0905                	addi	s2,s2,1
     580:	0200                	addi	s0,sp,256
     582:	0304                	addi	s1,sp,384
     584:	08090003          	lb	zero,128(s2)
     588:	0100                	addi	s0,sp,128
     58a:	0d05                	addi	s10,s10,1
     58c:	0200                	addi	s0,sp,256
     58e:	0304                	addi	s1,sp,384
     590:	02090003          	lb	zero,32(s2)
     594:	0100                	addi	s0,sp,128
     596:	1505                	addi	a0,a0,-31
     598:	0200                	addi	s0,sp,256
     59a:	0304                	addi	s1,sp,384
     59c:	04090003          	lb	zero,64(s2)
     5a0:	0100                	addi	s0,sp,128
     5a2:	2005                	jal	5c2 <_prog_start-0x7ffffa3e>
     5a4:	0200                	addi	s0,sp,256
     5a6:	0304                	addi	s1,sp,384
     5a8:	04097f03          	.4byte	0x4097f03
     5ac:	0100                	addi	s0,sp,128
     5ae:	0d05                	addi	s10,s10,1
     5b0:	0200                	addi	s0,sp,256
     5b2:	0304                	addi	s1,sp,384
     5b4:	02090103          	lb	sp,32(s2)
     5b8:	0100                	addi	s0,sp,128
     5ba:	2005                	jal	5da <_prog_start-0x7ffffa26>
     5bc:	0200                	addi	s0,sp,256
     5be:	0304                	addi	s1,sp,384
     5c0:	0306                	slli	t1,t1,0x1
     5c2:	097f                	.2byte	0x97f
     5c4:	0006                	c.slli	zero,0x1
     5c6:	0501                	addi	a0,a0,0
     5c8:	04020017          	auipc	zero,0x4020
     5cc:	09000303          	lb	t1,144(zero) # 90 <_prog_start-0x7fffff70>
     5d0:	0000                	unimp
     5d2:	0501                	addi	a0,a0,0
     5d4:	0021                	c.nop	8
     5d6:	0402                	c.slli64	s0
     5d8:	0302                	c.slli64	t1
     5da:	097f                	.2byte	0x97f
     5dc:	0004                	.2byte	0x4
     5de:	0501                	addi	a0,a0,0
     5e0:	0015                	c.nop	5
     5e2:	0402                	c.slli64	s0
     5e4:	0302                	c.slli64	t1
     5e6:	0900                	addi	s0,sp,144
     5e8:	0002                	c.slli64	zero
     5ea:	0501                	addi	a0,a0,0
     5ec:	0601                	addi	a2,a2,0
     5ee:	04090303          	lb	t1,64(s2)
     5f2:	0100                	addi	s0,sp,128
     5f4:	0e05                	addi	t3,t3,1
     5f6:	0306                	slli	t1,t1,0x1
     5f8:	0902                	c.slli64	s2
     5fa:	0002                	c.slli64	zero
     5fc:	0501                	addi	a0,a0,0
     5fe:	09050303          	lb	t1,144(a0)
     602:	0000                	unimp
     604:	0501                	addi	a0,a0,0
     606:	0308                	addi	a0,sp,384
     608:	0900                	addi	s0,sp,144
     60a:	0000                	unimp
     60c:	0501                	addi	a0,a0,0
     60e:	0315                	addi	t1,t1,5
     610:	0900                	addi	s0,sp,144
     612:	0000                	unimp
     614:	0501                	addi	a0,a0,0
     616:	060c                	addi	a1,sp,768
     618:	00090003          	lb	zero,0(s2)
     61c:	0100                	addi	s0,sp,128
     61e:	1905                	addi	s2,s2,-31
     620:	1a090103          	lb	sp,416(s2)
     624:	0100                	addi	s0,sp,128
     626:	1505                	addi	a0,a0,-31
     628:	04097f03          	.4byte	0x4097f03
     62c:	0100                	addi	s0,sp,128
     62e:	1905                	addi	s2,s2,-31
     630:	0306                	slli	t1,t1,0x1
     632:	0901                	addi	s2,s2,0
     634:	0004                	.2byte	0x4
     636:	0501                	addi	a0,a0,0
     638:	0610                	addi	a2,sp,768
     63a:	00090003          	lb	zero,0(s2)
     63e:	0100                	addi	s0,sp,128
     640:	0905                	addi	s2,s2,1
     642:	0200                	addi	s0,sp,256
     644:	0304                	addi	s1,sp,384
     646:	0306                	slli	t1,t1,0x1
     648:	0901                	addi	s2,s2,0
     64a:	0002                	c.slli64	zero
     64c:	0501                	addi	a0,a0,0
     64e:	04020013          	addi	zero,tp,64 # 40 <_prog_start-0x7fffffc0>
     652:	00030603          	lb	a2,0(t1)
     656:	0009                	c.nop	2
     658:	0100                	addi	s0,sp,128
     65a:	1a05                	addi	s4,s4,-31
     65c:	0200                	addi	s0,sp,256
     65e:	0304                	addi	s1,sp,384
     660:	04090003          	lb	zero,64(s2)
     664:	0100                	addi	s0,sp,128
     666:	0b05                	addi	s6,s6,1
     668:	0200                	addi	s0,sp,256
     66a:	0304                	addi	s1,sp,384
     66c:	04090003          	lb	zero,64(s2)
     670:	0100                	addi	s0,sp,128
     672:	1305                	addi	t1,t1,-31
     674:	0200                	addi	s0,sp,256
     676:	0304                	addi	s1,sp,384
     678:	04090003          	lb	zero,64(s2)
     67c:	0100                	addi	s0,sp,128
     67e:	1a05                	addi	s4,s4,-31
     680:	0200                	addi	s0,sp,256
     682:	0304                	addi	s1,sp,384
     684:	02090003          	lb	zero,32(s2)
     688:	0100                	addi	s0,sp,128
     68a:	1705                	addi	a4,a4,-31
     68c:	0200                	addi	s0,sp,256
     68e:	0304                	addi	s1,sp,384
     690:	02090003          	lb	zero,32(s2)
     694:	0100                	addi	s0,sp,128
     696:	0b05                	addi	s6,s6,1
     698:	0200                	addi	s0,sp,256
     69a:	0304                	addi	s1,sp,384
     69c:	08090003          	lb	zero,128(s2)
     6a0:	0100                	addi	s0,sp,128
     6a2:	0f05                	addi	t5,t5,1
     6a4:	0200                	addi	s0,sp,256
     6a6:	0304                	addi	s1,sp,384
     6a8:	02090003          	lb	zero,32(s2)
     6ac:	0100                	addi	s0,sp,128
     6ae:	1705                	addi	a4,a4,-31
     6b0:	0200                	addi	s0,sp,256
     6b2:	0304                	addi	s1,sp,384
     6b4:	04090003          	lb	zero,64(s2)
     6b8:	0100                	addi	s0,sp,128
     6ba:	2205                	jal	7da <_prog_start-0x7ffff826>
     6bc:	0200                	addi	s0,sp,256
     6be:	0304                	addi	s1,sp,384
     6c0:	04097f03          	.4byte	0x4097f03
     6c4:	0100                	addi	s0,sp,128
     6c6:	0f05                	addi	t5,t5,1
     6c8:	0200                	addi	s0,sp,256
     6ca:	0304                	addi	s1,sp,384
     6cc:	02090103          	lb	sp,32(s2)
     6d0:	0100                	addi	s0,sp,128
     6d2:	2205                	jal	7f2 <_prog_start-0x7ffff80e>
     6d4:	0200                	addi	s0,sp,256
     6d6:	0304                	addi	s1,sp,384
     6d8:	0306                	slli	t1,t1,0x1
     6da:	097f                	.2byte	0x97f
     6dc:	0006                	c.slli	zero,0x1
     6de:	0501                	addi	a0,a0,0
     6e0:	0019                	c.nop	6
     6e2:	0402                	c.slli64	s0
     6e4:	09000303          	lb	t1,144(zero) # 90 <_prog_start-0x7fffff70>
     6e8:	0000                	unimp
     6ea:	0501                	addi	a0,a0,0
     6ec:	0021                	c.nop	8
     6ee:	0402                	c.slli64	s0
     6f0:	0302                	c.slli64	t1
     6f2:	097f                	.2byte	0x97f
     6f4:	0004                	.2byte	0x4
     6f6:	0501                	addi	a0,a0,0
     6f8:	0015                	c.nop	5
     6fa:	0402                	c.slli64	s0
     6fc:	0302                	c.slli64	t1
     6fe:	0900                	addi	s0,sp,144
     700:	0002                	c.slli64	zero
     702:	0501                	addi	a0,a0,0
     704:	0601                	addi	a2,a2,0
     706:	04090303          	lb	t1,64(s2)
     70a:	0100                	addi	s0,sp,128
     70c:	0e05                	addi	t3,t3,1
     70e:	0306                	slli	t1,t1,0x1
     710:	00020903          	lb	s2,0(tp) # 0 <_prog_start-0x80000000>
     714:	0501                	addi	a0,a0,0
     716:	09010303          	lb	t1,144(sp)
     71a:	0000                	unimp
     71c:	0501                	addi	a0,a0,0
     71e:	0308                	addi	a0,sp,384
     720:	0900                	addi	s0,sp,144
     722:	0000                	unimp
     724:	0501                	addi	a0,a0,0
     726:	0315                	addi	t1,t1,5
     728:	0900                	addi	s0,sp,144
     72a:	0000                	unimp
     72c:	0501                	addi	a0,a0,0
     72e:	060c                	addi	a1,sp,768
     730:	00090003          	lb	zero,0(s2)
     734:	0100                	addi	s0,sp,128
     736:	1505                	addi	a0,a0,-31
     738:	1a090003          	lb	zero,416(s2)
     73c:	0100                	addi	s0,sp,128
     73e:	0905                	addi	s2,s2,1
     740:	0200                	addi	s0,sp,256
     742:	0304                	addi	s1,sp,384
     744:	0306                	slli	t1,t1,0x1
     746:	0901                	addi	s2,s2,0
     748:	0004                	.2byte	0x4
     74a:	0501                	addi	a0,a0,0
     74c:	0012                	c.slli	zero,0x4
     74e:	0402                	c.slli64	s0
     750:	00030603          	lb	a2,0(t1)
     754:	0009                	c.nop	2
     756:	0100                	addi	s0,sp,128
     758:	1a05                	addi	s4,s4,-31
     75a:	0200                	addi	s0,sp,256
     75c:	0304                	addi	s1,sp,384
     75e:	04090003          	lb	zero,64(s2)
     762:	0100                	addi	s0,sp,128
     764:	0e05                	addi	t3,t3,1
     766:	0200                	addi	s0,sp,256
     768:	0304                	addi	s1,sp,384
     76a:	02090003          	lb	zero,32(s2)
     76e:	0100                	addi	s0,sp,128
     770:	1205                	addi	tp,tp,-31 # ffffffe1 <a+0x7ffff5f5>
     772:	0200                	addi	s0,sp,256
     774:	0304                	addi	s1,sp,384
     776:	04090003          	lb	zero,64(s2)
     77a:	0100                	addi	s0,sp,128
     77c:	1a05                	addi	s4,s4,-31
     77e:	0200                	addi	s0,sp,256
     780:	0304                	addi	s1,sp,384
     782:	02090003          	lb	zero,32(s2)
     786:	0100                	addi	s0,sp,128
     788:	1605                	addi	a2,a2,-31
     78a:	0200                	addi	s0,sp,256
     78c:	0304                	addi	s1,sp,384
     78e:	02090003          	lb	zero,32(s2)
     792:	0100                	addi	s0,sp,128
     794:	0e05                	addi	t3,t3,1
     796:	0200                	addi	s0,sp,256
     798:	0304                	addi	s1,sp,384
     79a:	08090003          	lb	zero,128(s2)
     79e:	0100                	addi	s0,sp,128
     7a0:	2005                	jal	7c0 <_prog_start-0x7ffff840>
     7a2:	0200                	addi	s0,sp,256
     7a4:	0304                	addi	s1,sp,384
     7a6:	02097f03          	.4byte	0x2097f03
     7aa:	0100                	addi	s0,sp,128
     7ac:	1605                	addi	a2,a2,-31
     7ae:	0200                	addi	s0,sp,256
     7b0:	0304                	addi	s1,sp,384
     7b2:	02090103          	lb	sp,32(s2)
     7b6:	0100                	addi	s0,sp,128
     7b8:	0e05                	addi	t3,t3,1
     7ba:	0200                	addi	s0,sp,256
     7bc:	0304                	addi	s1,sp,384
     7be:	02090003          	lb	zero,32(s2)
     7c2:	0100                	addi	s0,sp,128
     7c4:	2005                	jal	7e4 <_prog_start-0x7ffff81c>
     7c6:	0200                	addi	s0,sp,256
     7c8:	0304                	addi	s1,sp,384
     7ca:	0306                	slli	t1,t1,0x1
     7cc:	097f                	.2byte	0x97f
     7ce:	0004                	.2byte	0x4
     7d0:	0501                	addi	a0,a0,0
     7d2:	0015                	c.nop	5
     7d4:	0402                	c.slli64	s0
     7d6:	09000303          	lb	t1,144(zero) # 90 <_prog_start-0x7fffff70>
     7da:	0000                	unimp
     7dc:	0501                	addi	a0,a0,0
     7de:	0601                	addi	a2,a2,0
     7e0:	04090203          	lb	tp,64(s2)
     7e4:	0100                	addi	s0,sp,128
     7e6:	0e05                	addi	t3,t3,1
     7e8:	0306                	slli	t1,t1,0x1
     7ea:	0902                	c.slli64	s2
     7ec:	0002                	c.slli64	zero
     7ee:	0501                	addi	a0,a0,0
     7f0:	09010303          	lb	t1,144(sp)
     7f4:	0000                	unimp
     7f6:	0501                	addi	a0,a0,0
     7f8:	0308                	addi	a0,sp,384
     7fa:	0900                	addi	s0,sp,144
     7fc:	0000                	unimp
     7fe:	0501                	addi	a0,a0,0
     800:	0315                	addi	t1,t1,5
     802:	0900                	addi	s0,sp,144
     804:	0000                	unimp
     806:	0501                	addi	a0,a0,0
     808:	060c                	addi	a1,sp,768
     80a:	00090003          	lb	zero,0(s2)
     80e:	0100                	addi	s0,sp,128
     810:	1505                	addi	a0,a0,-31
     812:	1a090003          	lb	zero,416(s2)
     816:	0100                	addi	s0,sp,128
     818:	0905                	addi	s2,s2,1
     81a:	0200                	addi	s0,sp,256
     81c:	0304                	addi	s1,sp,384
     81e:	0306                	slli	t1,t1,0x1
     820:	0901                	addi	s2,s2,0
     822:	0004                	.2byte	0x4
     824:	0501                	addi	a0,a0,0
     826:	0012                	c.slli	zero,0x4
     828:	0402                	c.slli64	s0
     82a:	00030603          	lb	a2,0(t1)
     82e:	0009                	c.nop	2
     830:	0100                	addi	s0,sp,128
     832:	1a05                	addi	s4,s4,-31
     834:	0200                	addi	s0,sp,256
     836:	0304                	addi	s1,sp,384
     838:	04090003          	lb	zero,64(s2)
     83c:	0100                	addi	s0,sp,128
     83e:	0e05                	addi	t3,t3,1
     840:	0200                	addi	s0,sp,256
     842:	0304                	addi	s1,sp,384
     844:	02090003          	lb	zero,32(s2)
     848:	0100                	addi	s0,sp,128
     84a:	1205                	addi	tp,tp,-31 # ffffffe1 <a+0x7ffff5f5>
     84c:	0200                	addi	s0,sp,256
     84e:	0304                	addi	s1,sp,384
     850:	04090003          	lb	zero,64(s2)
     854:	0100                	addi	s0,sp,128
     856:	1a05                	addi	s4,s4,-31
     858:	0200                	addi	s0,sp,256
     85a:	0304                	addi	s1,sp,384
     85c:	02090003          	lb	zero,32(s2)
     860:	0100                	addi	s0,sp,128
     862:	1605                	addi	a2,a2,-31
     864:	0200                	addi	s0,sp,256
     866:	0304                	addi	s1,sp,384
     868:	02090003          	lb	zero,32(s2)
     86c:	0100                	addi	s0,sp,128
     86e:	0e05                	addi	t3,t3,1
     870:	0200                	addi	s0,sp,256
     872:	0304                	addi	s1,sp,384
     874:	08090003          	lb	zero,128(s2)
     878:	0100                	addi	s0,sp,128
     87a:	2005                	jal	89a <_prog_start-0x7ffff766>
     87c:	0200                	addi	s0,sp,256
     87e:	0304                	addi	s1,sp,384
     880:	02097f03          	.4byte	0x2097f03
     884:	0100                	addi	s0,sp,128
     886:	1605                	addi	a2,a2,-31
     888:	0200                	addi	s0,sp,256
     88a:	0304                	addi	s1,sp,384
     88c:	02090103          	lb	sp,32(s2)
     890:	0100                	addi	s0,sp,128
     892:	0e05                	addi	t3,t3,1
     894:	0200                	addi	s0,sp,256
     896:	0304                	addi	s1,sp,384
     898:	02090003          	lb	zero,32(s2)
     89c:	0100                	addi	s0,sp,128
     89e:	2005                	jal	8be <_prog_start-0x7ffff742>
     8a0:	0200                	addi	s0,sp,256
     8a2:	0304                	addi	s1,sp,384
     8a4:	0306                	slli	t1,t1,0x1
     8a6:	097f                	.2byte	0x97f
     8a8:	0004                	.2byte	0x4
     8aa:	0501                	addi	a0,a0,0
     8ac:	0015                	c.nop	5
     8ae:	0402                	c.slli64	s0
     8b0:	09000303          	lb	t1,144(zero) # 90 <_prog_start-0x7fffff70>
     8b4:	0000                	unimp
     8b6:	0501                	addi	a0,a0,0
     8b8:	0601                	addi	a2,a2,0
     8ba:	04090203          	lb	tp,64(s2)
     8be:	0100                	addi	s0,sp,128
     8c0:	0e05                	addi	t3,t3,1
     8c2:	0306                	slli	t1,t1,0x1
     8c4:	00020903          	lb	s2,0(tp) # 0 <_prog_start-0x80000000>
     8c8:	0501                	addi	a0,a0,0
     8ca:	09050303          	lb	t1,144(a0)
     8ce:	0000                	unimp
     8d0:	0501                	addi	a0,a0,0
     8d2:	0308                	addi	a0,sp,384
     8d4:	0900                	addi	s0,sp,144
     8d6:	0000                	unimp
     8d8:	0501                	addi	a0,a0,0
     8da:	0315                	addi	t1,t1,5
     8dc:	0900                	addi	s0,sp,144
     8de:	0000                	unimp
     8e0:	0501                	addi	a0,a0,0
     8e2:	060c                	addi	a1,sp,768
     8e4:	00090003          	lb	zero,0(s2)
     8e8:	0100                	addi	s0,sp,128
     8ea:	1705                	addi	a4,a4,-31
     8ec:	1a090103          	lb	sp,416(s2)
     8f0:	0100                	addi	s0,sp,128
     8f2:	1505                	addi	a0,a0,-31
     8f4:	04097f03          	.4byte	0x4097f03
     8f8:	0100                	addi	s0,sp,128
     8fa:	1705                	addi	a4,a4,-31
     8fc:	0306                	slli	t1,t1,0x1
     8fe:	0901                	addi	s2,s2,0
     900:	0004                	.2byte	0x4
     902:	0501                	addi	a0,a0,0
     904:	060e                	slli	a2,a2,0x3
     906:	00090003          	lb	zero,0(s2)
     90a:	0100                	addi	s0,sp,128
     90c:	0705                	addi	a4,a4,1
     90e:	0200                	addi	s0,sp,256
     910:	0304                	addi	s1,sp,384
     912:	0306                	slli	t1,t1,0x1
     914:	0901                	addi	s2,s2,0
     916:	0002                	c.slli64	zero
     918:	0501                	addi	a0,a0,0
     91a:	0011                	c.nop	4
     91c:	0402                	c.slli64	s0
     91e:	00030603          	lb	a2,0(t1)
     922:	0009                	c.nop	2
     924:	0100                	addi	s0,sp,128
     926:	1805                	addi	a6,a6,-31
     928:	0200                	addi	s0,sp,256
     92a:	0304                	addi	s1,sp,384
     92c:	04090003          	lb	zero,64(s2)
     930:	0100                	addi	s0,sp,128
     932:	0905                	addi	s2,s2,1
     934:	0200                	addi	s0,sp,256
     936:	0304                	addi	s1,sp,384
     938:	04090003          	lb	zero,64(s2)
     93c:	0100                	addi	s0,sp,128
     93e:	1105                	addi	sp,sp,-31
     940:	0200                	addi	s0,sp,256
     942:	0304                	addi	s1,sp,384
     944:	04090003          	lb	zero,64(s2)
     948:	0100                	addi	s0,sp,128
     94a:	1805                	addi	a6,a6,-31
     94c:	0200                	addi	s0,sp,256
     94e:	0304                	addi	s1,sp,384
     950:	02090003          	lb	zero,32(s2)
     954:	0100                	addi	s0,sp,128
     956:	1505                	addi	a0,a0,-31
     958:	0200                	addi	s0,sp,256
     95a:	0304                	addi	s1,sp,384
     95c:	02090003          	lb	zero,32(s2)
     960:	0100                	addi	s0,sp,128
     962:	0905                	addi	s2,s2,1
     964:	0200                	addi	s0,sp,256
     966:	0304                	addi	s1,sp,384
     968:	08090003          	lb	zero,128(s2)
     96c:	0100                	addi	s0,sp,128
     96e:	0d05                	addi	s10,s10,1
     970:	0200                	addi	s0,sp,256
     972:	0304                	addi	s1,sp,384
     974:	02090003          	lb	zero,32(s2)
     978:	0100                	addi	s0,sp,128
     97a:	1505                	addi	a0,a0,-31
     97c:	0200                	addi	s0,sp,256
     97e:	0304                	addi	s1,sp,384
     980:	04090003          	lb	zero,64(s2)
     984:	0100                	addi	s0,sp,128
     986:	2005                	jal	9a6 <_prog_start-0x7ffff65a>
     988:	0200                	addi	s0,sp,256
     98a:	0304                	addi	s1,sp,384
     98c:	04097f03          	.4byte	0x4097f03
     990:	0100                	addi	s0,sp,128
     992:	0d05                	addi	s10,s10,1
     994:	0200                	addi	s0,sp,256
     996:	0304                	addi	s1,sp,384
     998:	02090103          	lb	sp,32(s2)
     99c:	0100                	addi	s0,sp,128
     99e:	2005                	jal	9be <_prog_start-0x7ffff642>
     9a0:	0200                	addi	s0,sp,256
     9a2:	0304                	addi	s1,sp,384
     9a4:	0306                	slli	t1,t1,0x1
     9a6:	097f                	.2byte	0x97f
     9a8:	0006                	c.slli	zero,0x1
     9aa:	0501                	addi	a0,a0,0
     9ac:	04020017          	auipc	zero,0x4020
     9b0:	09000303          	lb	t1,144(zero) # 90 <_prog_start-0x7fffff70>
     9b4:	0000                	unimp
     9b6:	0501                	addi	a0,a0,0
     9b8:	0021                	c.nop	8
     9ba:	0402                	c.slli64	s0
     9bc:	0302                	c.slli64	t1
     9be:	097f                	.2byte	0x97f
     9c0:	0004                	.2byte	0x4
     9c2:	0501                	addi	a0,a0,0
     9c4:	0015                	c.nop	5
     9c6:	0402                	c.slli64	s0
     9c8:	0302                	c.slli64	t1
     9ca:	0900                	addi	s0,sp,144
     9cc:	0002                	c.slli64	zero
     9ce:	0501                	addi	a0,a0,0
     9d0:	0601                	addi	a2,a2,0
     9d2:	04090303          	lb	t1,64(s2)
     9d6:	0100                	addi	s0,sp,128
     9d8:	0e05                	addi	t3,t3,1
     9da:	0306                	slli	t1,t1,0x1
     9dc:	0902                	c.slli64	s2
     9de:	0002                	c.slli64	zero
     9e0:	0501                	addi	a0,a0,0
     9e2:	09050303          	lb	t1,144(a0)
     9e6:	0000                	unimp
     9e8:	0501                	addi	a0,a0,0
     9ea:	0308                	addi	a0,sp,384
     9ec:	0900                	addi	s0,sp,144
     9ee:	0000                	unimp
     9f0:	0501                	addi	a0,a0,0
     9f2:	0315                	addi	t1,t1,5
     9f4:	0900                	addi	s0,sp,144
     9f6:	0000                	unimp
     9f8:	0501                	addi	a0,a0,0
     9fa:	060c                	addi	a1,sp,768
     9fc:	00090003          	lb	zero,0(s2)
     a00:	0100                	addi	s0,sp,128
     a02:	1705                	addi	a4,a4,-31
     a04:	1a090103          	lb	sp,416(s2)
     a08:	0100                	addi	s0,sp,128
     a0a:	1505                	addi	a0,a0,-31
     a0c:	04097f03          	.4byte	0x4097f03
     a10:	0100                	addi	s0,sp,128
     a12:	1705                	addi	a4,a4,-31
     a14:	0306                	slli	t1,t1,0x1
     a16:	0901                	addi	s2,s2,0
     a18:	0004                	.2byte	0x4
     a1a:	0501                	addi	a0,a0,0
     a1c:	060e                	slli	a2,a2,0x3
     a1e:	00090003          	lb	zero,0(s2)
     a22:	0100                	addi	s0,sp,128
     a24:	0705                	addi	a4,a4,1
     a26:	0200                	addi	s0,sp,256
     a28:	0304                	addi	s1,sp,384
     a2a:	0306                	slli	t1,t1,0x1
     a2c:	0901                	addi	s2,s2,0
     a2e:	0002                	c.slli64	zero
     a30:	0501                	addi	a0,a0,0
     a32:	0011                	c.nop	4
     a34:	0402                	c.slli64	s0
     a36:	00030603          	lb	a2,0(t1)
     a3a:	0009                	c.nop	2
     a3c:	0100                	addi	s0,sp,128
     a3e:	1805                	addi	a6,a6,-31
     a40:	0200                	addi	s0,sp,256
     a42:	0304                	addi	s1,sp,384
     a44:	04090003          	lb	zero,64(s2)
     a48:	0100                	addi	s0,sp,128
     a4a:	0905                	addi	s2,s2,1
     a4c:	0200                	addi	s0,sp,256
     a4e:	0304                	addi	s1,sp,384
     a50:	04090003          	lb	zero,64(s2)
     a54:	0100                	addi	s0,sp,128
     a56:	1105                	addi	sp,sp,-31
     a58:	0200                	addi	s0,sp,256
     a5a:	0304                	addi	s1,sp,384
     a5c:	04090003          	lb	zero,64(s2)
     a60:	0100                	addi	s0,sp,128
     a62:	1805                	addi	a6,a6,-31
     a64:	0200                	addi	s0,sp,256
     a66:	0304                	addi	s1,sp,384
     a68:	02090003          	lb	zero,32(s2)
     a6c:	0100                	addi	s0,sp,128
     a6e:	1505                	addi	a0,a0,-31
     a70:	0200                	addi	s0,sp,256
     a72:	0304                	addi	s1,sp,384
     a74:	02090003          	lb	zero,32(s2)
     a78:	0100                	addi	s0,sp,128
     a7a:	0905                	addi	s2,s2,1
     a7c:	0200                	addi	s0,sp,256
     a7e:	0304                	addi	s1,sp,384
     a80:	08090003          	lb	zero,128(s2)
     a84:	0100                	addi	s0,sp,128
     a86:	0d05                	addi	s10,s10,1
     a88:	0200                	addi	s0,sp,256
     a8a:	0304                	addi	s1,sp,384
     a8c:	02090003          	lb	zero,32(s2)
     a90:	0100                	addi	s0,sp,128
     a92:	1505                	addi	a0,a0,-31
     a94:	0200                	addi	s0,sp,256
     a96:	0304                	addi	s1,sp,384
     a98:	04090003          	lb	zero,64(s2)
     a9c:	0100                	addi	s0,sp,128
     a9e:	2005                	jal	abe <_prog_start-0x7ffff542>
     aa0:	0200                	addi	s0,sp,256
     aa2:	0304                	addi	s1,sp,384
     aa4:	04097f03          	.4byte	0x4097f03
     aa8:	0100                	addi	s0,sp,128
     aaa:	0d05                	addi	s10,s10,1
     aac:	0200                	addi	s0,sp,256
     aae:	0304                	addi	s1,sp,384
     ab0:	02090103          	lb	sp,32(s2)
     ab4:	0100                	addi	s0,sp,128
     ab6:	2005                	jal	ad6 <_prog_start-0x7ffff52a>
     ab8:	0200                	addi	s0,sp,256
     aba:	0304                	addi	s1,sp,384
     abc:	0306                	slli	t1,t1,0x1
     abe:	097f                	.2byte	0x97f
     ac0:	0006                	c.slli	zero,0x1
     ac2:	0501                	addi	a0,a0,0
     ac4:	04020017          	auipc	zero,0x4020
     ac8:	09000303          	lb	t1,144(zero) # 90 <_prog_start-0x7fffff70>
     acc:	0000                	unimp
     ace:	0501                	addi	a0,a0,0
     ad0:	0021                	c.nop	8
     ad2:	0402                	c.slli64	s0
     ad4:	0302                	c.slli64	t1
     ad6:	097f                	.2byte	0x97f
     ad8:	0004                	.2byte	0x4
     ada:	0501                	addi	a0,a0,0
     adc:	0015                	c.nop	5
     ade:	0402                	c.slli64	s0
     ae0:	0302                	c.slli64	t1
     ae2:	0900                	addi	s0,sp,144
     ae4:	0002                	c.slli64	zero
     ae6:	0501                	addi	a0,a0,0
     ae8:	0601                	addi	a2,a2,0
     aea:	04090303          	lb	t1,64(s2)
     aee:	0100                	addi	s0,sp,128
     af0:	0e05                	addi	t3,t3,1
     af2:	0306                	slli	t1,t1,0x1
     af4:	0902                	c.slli64	s2
     af6:	0002                	c.slli64	zero
     af8:	0501                	addi	a0,a0,0
     afa:	09050303          	lb	t1,144(a0)
     afe:	0000                	unimp
     b00:	0501                	addi	a0,a0,0
     b02:	0308                	addi	a0,sp,384
     b04:	0900                	addi	s0,sp,144
     b06:	0000                	unimp
     b08:	0501                	addi	a0,a0,0
     b0a:	0315                	addi	t1,t1,5
     b0c:	0900                	addi	s0,sp,144
     b0e:	0000                	unimp
     b10:	0501                	addi	a0,a0,0
     b12:	060c                	addi	a1,sp,768
     b14:	00090003          	lb	zero,0(s2)
     b18:	0100                	addi	s0,sp,128
     b1a:	1705                	addi	a4,a4,-31
     b1c:	1a090103          	lb	sp,416(s2)
     b20:	0100                	addi	s0,sp,128
     b22:	1505                	addi	a0,a0,-31
     b24:	04097f03          	.4byte	0x4097f03
     b28:	0100                	addi	s0,sp,128
     b2a:	1705                	addi	a4,a4,-31
     b2c:	0306                	slli	t1,t1,0x1
     b2e:	0901                	addi	s2,s2,0
     b30:	0004                	.2byte	0x4
     b32:	0501                	addi	a0,a0,0
     b34:	060e                	slli	a2,a2,0x3
     b36:	00090003          	lb	zero,0(s2)
     b3a:	0100                	addi	s0,sp,128
     b3c:	0705                	addi	a4,a4,1
     b3e:	0200                	addi	s0,sp,256
     b40:	0304                	addi	s1,sp,384
     b42:	0306                	slli	t1,t1,0x1
     b44:	0901                	addi	s2,s2,0
     b46:	0002                	c.slli64	zero
     b48:	0501                	addi	a0,a0,0
     b4a:	0011                	c.nop	4
     b4c:	0402                	c.slli64	s0
     b4e:	00030603          	lb	a2,0(t1)
     b52:	0009                	c.nop	2
     b54:	0100                	addi	s0,sp,128
     b56:	1805                	addi	a6,a6,-31
     b58:	0200                	addi	s0,sp,256
     b5a:	0304                	addi	s1,sp,384
     b5c:	04090003          	lb	zero,64(s2)
     b60:	0100                	addi	s0,sp,128
     b62:	0905                	addi	s2,s2,1
     b64:	0200                	addi	s0,sp,256
     b66:	0304                	addi	s1,sp,384
     b68:	04090003          	lb	zero,64(s2)
     b6c:	0100                	addi	s0,sp,128
     b6e:	1105                	addi	sp,sp,-31
     b70:	0200                	addi	s0,sp,256
     b72:	0304                	addi	s1,sp,384
     b74:	04090003          	lb	zero,64(s2)
     b78:	0100                	addi	s0,sp,128
     b7a:	1805                	addi	a6,a6,-31
     b7c:	0200                	addi	s0,sp,256
     b7e:	0304                	addi	s1,sp,384
     b80:	02090003          	lb	zero,32(s2)
     b84:	0100                	addi	s0,sp,128
     b86:	1505                	addi	a0,a0,-31
     b88:	0200                	addi	s0,sp,256
     b8a:	0304                	addi	s1,sp,384
     b8c:	02090003          	lb	zero,32(s2)
     b90:	0100                	addi	s0,sp,128
     b92:	0905                	addi	s2,s2,1
     b94:	0200                	addi	s0,sp,256
     b96:	0304                	addi	s1,sp,384
     b98:	08090003          	lb	zero,128(s2)
     b9c:	0100                	addi	s0,sp,128
     b9e:	0d05                	addi	s10,s10,1
     ba0:	0200                	addi	s0,sp,256
     ba2:	0304                	addi	s1,sp,384
     ba4:	02090003          	lb	zero,32(s2)
     ba8:	0100                	addi	s0,sp,128
     baa:	1505                	addi	a0,a0,-31
     bac:	0200                	addi	s0,sp,256
     bae:	0304                	addi	s1,sp,384
     bb0:	04090003          	lb	zero,64(s2)
     bb4:	0100                	addi	s0,sp,128
     bb6:	2005                	jal	bd6 <_prog_start-0x7ffff42a>
     bb8:	0200                	addi	s0,sp,256
     bba:	0304                	addi	s1,sp,384
     bbc:	04097f03          	.4byte	0x4097f03
     bc0:	0100                	addi	s0,sp,128
     bc2:	0d05                	addi	s10,s10,1
     bc4:	0200                	addi	s0,sp,256
     bc6:	0304                	addi	s1,sp,384
     bc8:	02090103          	lb	sp,32(s2)
     bcc:	0100                	addi	s0,sp,128
     bce:	2005                	jal	bee <_prog_start-0x7ffff412>
     bd0:	0200                	addi	s0,sp,256
     bd2:	0304                	addi	s1,sp,384
     bd4:	0306                	slli	t1,t1,0x1
     bd6:	097f                	.2byte	0x97f
     bd8:	0006                	c.slli	zero,0x1
     bda:	0501                	addi	a0,a0,0
     bdc:	04020017          	auipc	zero,0x4020
     be0:	09000303          	lb	t1,144(zero) # 90 <_prog_start-0x7fffff70>
     be4:	0000                	unimp
     be6:	0501                	addi	a0,a0,0
     be8:	0021                	c.nop	8
     bea:	0402                	c.slli64	s0
     bec:	0302                	c.slli64	t1
     bee:	097f                	.2byte	0x97f
     bf0:	0004                	.2byte	0x4
     bf2:	0501                	addi	a0,a0,0
     bf4:	0015                	c.nop	5
     bf6:	0402                	c.slli64	s0
     bf8:	0302                	c.slli64	t1
     bfa:	0900                	addi	s0,sp,144
     bfc:	0002                	c.slli64	zero
     bfe:	0501                	addi	a0,a0,0
     c00:	0601                	addi	a2,a2,0
     c02:	04090303          	lb	t1,64(s2)
     c06:	0100                	addi	s0,sp,128
     c08:	0e05                	addi	t3,t3,1
     c0a:	0306                	slli	t1,t1,0x1
     c0c:	0902                	c.slli64	s2
     c0e:	0002                	c.slli64	zero
     c10:	0501                	addi	a0,a0,0
     c12:	09050303          	lb	t1,144(a0)
     c16:	0000                	unimp
     c18:	0501                	addi	a0,a0,0
     c1a:	0308                	addi	a0,sp,384
     c1c:	0900                	addi	s0,sp,144
     c1e:	0000                	unimp
     c20:	0501                	addi	a0,a0,0
     c22:	0315                	addi	t1,t1,5
     c24:	0900                	addi	s0,sp,144
     c26:	0000                	unimp
     c28:	0501                	addi	a0,a0,0
     c2a:	060c                	addi	a1,sp,768
     c2c:	00090003          	lb	zero,0(s2)
     c30:	0100                	addi	s0,sp,128
     c32:	1705                	addi	a4,a4,-31
     c34:	1a090103          	lb	sp,416(s2)
     c38:	0100                	addi	s0,sp,128
     c3a:	1505                	addi	a0,a0,-31
     c3c:	04097f03          	.4byte	0x4097f03
     c40:	0100                	addi	s0,sp,128
     c42:	1705                	addi	a4,a4,-31
     c44:	0306                	slli	t1,t1,0x1
     c46:	0901                	addi	s2,s2,0
     c48:	0004                	.2byte	0x4
     c4a:	0501                	addi	a0,a0,0
     c4c:	060e                	slli	a2,a2,0x3
     c4e:	00090003          	lb	zero,0(s2)
     c52:	0100                	addi	s0,sp,128
     c54:	0705                	addi	a4,a4,1
     c56:	0200                	addi	s0,sp,256
     c58:	0304                	addi	s1,sp,384
     c5a:	0306                	slli	t1,t1,0x1
     c5c:	0901                	addi	s2,s2,0
     c5e:	0002                	c.slli64	zero
     c60:	0501                	addi	a0,a0,0
     c62:	0011                	c.nop	4
     c64:	0402                	c.slli64	s0
     c66:	00030603          	lb	a2,0(t1)
     c6a:	0009                	c.nop	2
     c6c:	0100                	addi	s0,sp,128
     c6e:	1805                	addi	a6,a6,-31
     c70:	0200                	addi	s0,sp,256
     c72:	0304                	addi	s1,sp,384
     c74:	04090003          	lb	zero,64(s2)
     c78:	0100                	addi	s0,sp,128
     c7a:	0905                	addi	s2,s2,1
     c7c:	0200                	addi	s0,sp,256
     c7e:	0304                	addi	s1,sp,384
     c80:	04090003          	lb	zero,64(s2)
     c84:	0100                	addi	s0,sp,128
     c86:	1105                	addi	sp,sp,-31
     c88:	0200                	addi	s0,sp,256
     c8a:	0304                	addi	s1,sp,384
     c8c:	04090003          	lb	zero,64(s2)
     c90:	0100                	addi	s0,sp,128
     c92:	1805                	addi	a6,a6,-31
     c94:	0200                	addi	s0,sp,256
     c96:	0304                	addi	s1,sp,384
     c98:	02090003          	lb	zero,32(s2)
     c9c:	0100                	addi	s0,sp,128
     c9e:	1505                	addi	a0,a0,-31
     ca0:	0200                	addi	s0,sp,256
     ca2:	0304                	addi	s1,sp,384
     ca4:	02090003          	lb	zero,32(s2)
     ca8:	0100                	addi	s0,sp,128
     caa:	0905                	addi	s2,s2,1
     cac:	0200                	addi	s0,sp,256
     cae:	0304                	addi	s1,sp,384
     cb0:	08090003          	lb	zero,128(s2)
     cb4:	0100                	addi	s0,sp,128
     cb6:	0d05                	addi	s10,s10,1
     cb8:	0200                	addi	s0,sp,256
     cba:	0304                	addi	s1,sp,384
     cbc:	02090003          	lb	zero,32(s2)
     cc0:	0100                	addi	s0,sp,128
     cc2:	1505                	addi	a0,a0,-31
     cc4:	0200                	addi	s0,sp,256
     cc6:	0304                	addi	s1,sp,384
     cc8:	04090003          	lb	zero,64(s2)
     ccc:	0100                	addi	s0,sp,128
     cce:	2005                	jal	cee <_prog_start-0x7ffff312>
     cd0:	0200                	addi	s0,sp,256
     cd2:	0304                	addi	s1,sp,384
     cd4:	04097f03          	.4byte	0x4097f03
     cd8:	0100                	addi	s0,sp,128
     cda:	0d05                	addi	s10,s10,1
     cdc:	0200                	addi	s0,sp,256
     cde:	0304                	addi	s1,sp,384
     ce0:	02090103          	lb	sp,32(s2)
     ce4:	0100                	addi	s0,sp,128
     ce6:	2005                	jal	d06 <_prog_start-0x7ffff2fa>
     ce8:	0200                	addi	s0,sp,256
     cea:	0304                	addi	s1,sp,384
     cec:	0306                	slli	t1,t1,0x1
     cee:	097f                	.2byte	0x97f
     cf0:	0006                	c.slli	zero,0x1
     cf2:	0501                	addi	a0,a0,0
     cf4:	04020017          	auipc	zero,0x4020
     cf8:	09000303          	lb	t1,144(zero) # 90 <_prog_start-0x7fffff70>
     cfc:	0000                	unimp
     cfe:	0501                	addi	a0,a0,0
     d00:	0021                	c.nop	8
     d02:	0402                	c.slli64	s0
     d04:	0302                	c.slli64	t1
     d06:	097f                	.2byte	0x97f
     d08:	0004                	.2byte	0x4
     d0a:	0501                	addi	a0,a0,0
     d0c:	0015                	c.nop	5
     d0e:	0402                	c.slli64	s0
     d10:	0302                	c.slli64	t1
     d12:	0900                	addi	s0,sp,144
     d14:	0002                	c.slli64	zero
     d16:	0501                	addi	a0,a0,0
     d18:	0601                	addi	a2,a2,0
     d1a:	04090303          	lb	t1,64(s2)
     d1e:	0100                	addi	s0,sp,128
     d20:	0e05                	addi	t3,t3,1
     d22:	0306                	slli	t1,t1,0x1
     d24:	00020903          	lb	s2,0(tp) # 0 <_prog_start-0x80000000>
     d28:	0501                	addi	a0,a0,0
     d2a:	09010303          	lb	t1,144(sp)
     d2e:	0000                	unimp
     d30:	0501                	addi	a0,a0,0
     d32:	0308                	addi	a0,sp,384
     d34:	0900                	addi	s0,sp,144
     d36:	0000                	unimp
     d38:	0501                	addi	a0,a0,0
     d3a:	0315                	addi	t1,t1,5
     d3c:	0900                	addi	s0,sp,144
     d3e:	0000                	unimp
     d40:	0501                	addi	a0,a0,0
     d42:	060c                	addi	a1,sp,768
     d44:	00090003          	lb	zero,0(s2)
     d48:	0100                	addi	s0,sp,128
     d4a:	1505                	addi	a0,a0,-31
     d4c:	1a090003          	lb	zero,416(s2)
     d50:	0100                	addi	s0,sp,128
     d52:	0905                	addi	s2,s2,1
     d54:	0200                	addi	s0,sp,256
     d56:	0304                	addi	s1,sp,384
     d58:	0306                	slli	t1,t1,0x1
     d5a:	0901                	addi	s2,s2,0
     d5c:	0004                	.2byte	0x4
     d5e:	0501                	addi	a0,a0,0
     d60:	0012                	c.slli	zero,0x4
     d62:	0402                	c.slli64	s0
     d64:	00030603          	lb	a2,0(t1)
     d68:	0009                	c.nop	2
     d6a:	0100                	addi	s0,sp,128
     d6c:	1a05                	addi	s4,s4,-31
     d6e:	0200                	addi	s0,sp,256
     d70:	0304                	addi	s1,sp,384
     d72:	04090003          	lb	zero,64(s2)
     d76:	0100                	addi	s0,sp,128
     d78:	0e05                	addi	t3,t3,1
     d7a:	0200                	addi	s0,sp,256
     d7c:	0304                	addi	s1,sp,384
     d7e:	02090003          	lb	zero,32(s2)
     d82:	0100                	addi	s0,sp,128
     d84:	1205                	addi	tp,tp,-31 # ffffffe1 <a+0x7ffff5f5>
     d86:	0200                	addi	s0,sp,256
     d88:	0304                	addi	s1,sp,384
     d8a:	04090003          	lb	zero,64(s2)
     d8e:	0100                	addi	s0,sp,128
     d90:	1a05                	addi	s4,s4,-31
     d92:	0200                	addi	s0,sp,256
     d94:	0304                	addi	s1,sp,384
     d96:	02090003          	lb	zero,32(s2)
     d9a:	0100                	addi	s0,sp,128
     d9c:	1605                	addi	a2,a2,-31
     d9e:	0200                	addi	s0,sp,256
     da0:	0304                	addi	s1,sp,384
     da2:	02090003          	lb	zero,32(s2)
     da6:	0100                	addi	s0,sp,128
     da8:	0e05                	addi	t3,t3,1
     daa:	0200                	addi	s0,sp,256
     dac:	0304                	addi	s1,sp,384
     dae:	08090003          	lb	zero,128(s2)
     db2:	0100                	addi	s0,sp,128
     db4:	2005                	jal	dd4 <_prog_start-0x7ffff22c>
     db6:	0200                	addi	s0,sp,256
     db8:	0304                	addi	s1,sp,384
     dba:	02097f03          	.4byte	0x2097f03
     dbe:	0100                	addi	s0,sp,128
     dc0:	1605                	addi	a2,a2,-31
     dc2:	0200                	addi	s0,sp,256
     dc4:	0304                	addi	s1,sp,384
     dc6:	02090103          	lb	sp,32(s2)
     dca:	0100                	addi	s0,sp,128
     dcc:	0e05                	addi	t3,t3,1
     dce:	0200                	addi	s0,sp,256
     dd0:	0304                	addi	s1,sp,384
     dd2:	02090003          	lb	zero,32(s2)
     dd6:	0100                	addi	s0,sp,128
     dd8:	2005                	jal	df8 <_prog_start-0x7ffff208>
     dda:	0200                	addi	s0,sp,256
     ddc:	0304                	addi	s1,sp,384
     dde:	0306                	slli	t1,t1,0x1
     de0:	097f                	.2byte	0x97f
     de2:	0004                	.2byte	0x4
     de4:	0501                	addi	a0,a0,0
     de6:	0015                	c.nop	5
     de8:	0402                	c.slli64	s0
     dea:	09000303          	lb	t1,144(zero) # 90 <_prog_start-0x7fffff70>
     dee:	0000                	unimp
     df0:	0501                	addi	a0,a0,0
     df2:	0601                	addi	a2,a2,0
     df4:	04090203          	lb	tp,64(s2)
     df8:	0100                	addi	s0,sp,128
     dfa:	0e05                	addi	t3,t3,1
     dfc:	0306                	slli	t1,t1,0x1
     dfe:	0902                	c.slli64	s2
     e00:	0002                	c.slli64	zero
     e02:	0501                	addi	a0,a0,0
     e04:	09010303          	lb	t1,144(sp)
     e08:	0000                	unimp
     e0a:	0501                	addi	a0,a0,0
     e0c:	0308                	addi	a0,sp,384
     e0e:	0900                	addi	s0,sp,144
     e10:	0000                	unimp
     e12:	0501                	addi	a0,a0,0
     e14:	0315                	addi	t1,t1,5
     e16:	0900                	addi	s0,sp,144
     e18:	0000                	unimp
     e1a:	0501                	addi	a0,a0,0
     e1c:	060c                	addi	a1,sp,768
     e1e:	00090003          	lb	zero,0(s2)
     e22:	0100                	addi	s0,sp,128
     e24:	1505                	addi	a0,a0,-31
     e26:	1a090003          	lb	zero,416(s2)
     e2a:	0100                	addi	s0,sp,128
     e2c:	0905                	addi	s2,s2,1
     e2e:	0200                	addi	s0,sp,256
     e30:	0304                	addi	s1,sp,384
     e32:	0306                	slli	t1,t1,0x1
     e34:	0901                	addi	s2,s2,0
     e36:	0004                	.2byte	0x4
     e38:	0501                	addi	a0,a0,0
     e3a:	0012                	c.slli	zero,0x4
     e3c:	0402                	c.slli64	s0
     e3e:	00030603          	lb	a2,0(t1)
     e42:	0009                	c.nop	2
     e44:	0100                	addi	s0,sp,128
     e46:	1a05                	addi	s4,s4,-31
     e48:	0200                	addi	s0,sp,256
     e4a:	0304                	addi	s1,sp,384
     e4c:	04090003          	lb	zero,64(s2)
     e50:	0100                	addi	s0,sp,128
     e52:	0e05                	addi	t3,t3,1
     e54:	0200                	addi	s0,sp,256
     e56:	0304                	addi	s1,sp,384
     e58:	02090003          	lb	zero,32(s2)
     e5c:	0100                	addi	s0,sp,128
     e5e:	1205                	addi	tp,tp,-31 # ffffffe1 <a+0x7ffff5f5>
     e60:	0200                	addi	s0,sp,256
     e62:	0304                	addi	s1,sp,384
     e64:	04090003          	lb	zero,64(s2)
     e68:	0100                	addi	s0,sp,128
     e6a:	1a05                	addi	s4,s4,-31
     e6c:	0200                	addi	s0,sp,256
     e6e:	0304                	addi	s1,sp,384
     e70:	02090003          	lb	zero,32(s2)
     e74:	0100                	addi	s0,sp,128
     e76:	1605                	addi	a2,a2,-31
     e78:	0200                	addi	s0,sp,256
     e7a:	0304                	addi	s1,sp,384
     e7c:	02090003          	lb	zero,32(s2)
     e80:	0100                	addi	s0,sp,128
     e82:	0e05                	addi	t3,t3,1
     e84:	0200                	addi	s0,sp,256
     e86:	0304                	addi	s1,sp,384
     e88:	08090003          	lb	zero,128(s2)
     e8c:	0100                	addi	s0,sp,128
     e8e:	2005                	jal	eae <_prog_start-0x7ffff152>
     e90:	0200                	addi	s0,sp,256
     e92:	0304                	addi	s1,sp,384
     e94:	02097f03          	.4byte	0x2097f03
     e98:	0100                	addi	s0,sp,128
     e9a:	1605                	addi	a2,a2,-31
     e9c:	0200                	addi	s0,sp,256
     e9e:	0304                	addi	s1,sp,384
     ea0:	02090103          	lb	sp,32(s2)
     ea4:	0100                	addi	s0,sp,128
     ea6:	0e05                	addi	t3,t3,1
     ea8:	0200                	addi	s0,sp,256
     eaa:	0304                	addi	s1,sp,384
     eac:	02090003          	lb	zero,32(s2)
     eb0:	0100                	addi	s0,sp,128
     eb2:	2005                	jal	ed2 <_prog_start-0x7ffff12e>
     eb4:	0200                	addi	s0,sp,256
     eb6:	0304                	addi	s1,sp,384
     eb8:	0306                	slli	t1,t1,0x1
     eba:	097f                	.2byte	0x97f
     ebc:	0004                	.2byte	0x4
     ebe:	0501                	addi	a0,a0,0
     ec0:	0015                	c.nop	5
     ec2:	0402                	c.slli64	s0
     ec4:	09000303          	lb	t1,144(zero) # 90 <_prog_start-0x7fffff70>
     ec8:	0000                	unimp
     eca:	0501                	addi	a0,a0,0
     ecc:	0601                	addi	a2,a2,0
     ece:	04090203          	lb	tp,64(s2)
     ed2:	0100                	addi	s0,sp,128
     ed4:	0209                	addi	tp,tp,2 # 2 <_prog_start-0x7ffffffe>
     ed6:	0000                	unimp
     ed8:	0101                	addi	sp,sp,0
     eda:	2005                	jal	efa <_prog_start-0x7ffff106>
     edc:	0500                	addi	s0,sp,640
     ede:	7a02                	.2byte	0x7a02
     ee0:	0005                	c.nop	1
     ee2:	0380                	addi	s0,sp,448
     ee4:	0185                	addi	gp,gp,1
     ee6:	0501                	addi	a0,a0,0
     ee8:	09020303          	lb	t1,144(tp) # 90 <_prog_start-0x7fffff70>
     eec:	0000                	unimp
     eee:	0501                	addi	a0,a0,0
     ef0:	0620                	addi	s0,sp,776
     ef2:	00097e03          	.4byte	0x97e03
     ef6:	0100                	addi	s0,sp,128
     ef8:	0e090203          	lb	tp,224(s2)
     efc:	0100                	addi	s0,sp,128
     efe:	04097e03          	.4byte	0x4097e03
     f02:	0100                	addi	s0,sp,128
     f04:	0c090203          	lb	tp,192(s2)
     f08:	0100                	addi	s0,sp,128
     f0a:	0305                	addi	t1,t1,1
     f0c:	0306                	slli	t1,t1,0x1
     f0e:	0931                	addi	s2,s2,12
     f10:	0004                	.2byte	0x4
     f12:	0501                	addi	a0,a0,0
     f14:	0620                	addi	s0,sp,776
     f16:	00090003          	lb	zero,0(s2)
     f1a:	0100                	addi	s0,sp,128
     f1c:	0305                	addi	t1,t1,1
     f1e:	0306                	slli	t1,t1,0x1
     f20:	0902                	c.slli64	s2
     f22:	0002                	c.slli64	zero
     f24:	0301                	addi	t1,t1,0
     f26:	0901                	addi	s2,s2,0
     f28:	0000                	unimp
     f2a:	0301                	addi	t1,t1,0
     f2c:	0901                	addi	s2,s2,0
     f2e:	0000                	unimp
     f30:	0301                	addi	t1,t1,0
     f32:	0901                	addi	s2,s2,0
     f34:	0000                	unimp
     f36:	0301                	addi	t1,t1,0
     f38:	0902                	c.slli64	s2
     f3a:	0000                	unimp
     f3c:	0501                	addi	a0,a0,0
     f3e:	0308                	addi	a0,sp,384
     f40:	0900                	addi	s0,sp,144
     f42:	0000                	unimp
     f44:	0501                	addi	a0,a0,0
     f46:	0315                	addi	t1,t1,5
     f48:	0900                	addi	s0,sp,144
     f4a:	0000                	unimp
     f4c:	0501                	addi	a0,a0,0
     f4e:	060c                	addi	a1,sp,768
     f50:	08090003          	lb	zero,128(s2)
     f54:	0100                	addi	s0,sp,128
     f56:	1505                	addi	a0,a0,-31
     f58:	5a090003          	lb	zero,1440(s2)
     f5c:	0100                	addi	s0,sp,128
     f5e:	0505                	addi	a0,a0,1
     f60:	0200                	addi	s0,sp,256
     f62:	0304                	addi	s1,sp,384
     f64:	0306                	slli	t1,t1,0x1
     f66:	0901                	addi	s2,s2,0
     f68:	0004                	.2byte	0x4
     f6a:	0501                	addi	a0,a0,0
     f6c:	000a                	c.slli	zero,0x2
     f6e:	0402                	c.slli64	s0
     f70:	00030603          	lb	a2,0(t1)
     f74:	0009                	c.nop	2
     f76:	0100                	addi	s0,sp,128
     f78:	0505                	addi	a0,a0,1
     f7a:	0200                	addi	s0,sp,256
     f7c:	0304                	addi	s1,sp,384
     f7e:	0306                	slli	t1,t1,0x1
     f80:	0901                	addi	s2,s2,0
     f82:	000e                	c.slli	zero,0x3
     f84:	0501                	addi	a0,a0,0
     f86:	000a                	c.slli	zero,0x2
     f88:	0402                	c.slli64	s0
     f8a:	00030603          	lb	a2,0(t1)
     f8e:	0009                	c.nop	2
     f90:	0100                	addi	s0,sp,128
     f92:	0505                	addi	a0,a0,1
     f94:	0200                	addi	s0,sp,256
     f96:	0304                	addi	s1,sp,384
     f98:	0306                	slli	t1,t1,0x1
     f9a:	0901                	addi	s2,s2,0
     f9c:	000a                	c.slli	zero,0x2
     f9e:	0501                	addi	a0,a0,0
     fa0:	000a                	c.slli	zero,0x2
     fa2:	0402                	c.slli64	s0
     fa4:	00030603          	lb	a2,0(t1)
     fa8:	0009                	c.nop	2
     faa:	0100                	addi	s0,sp,128
     fac:	0505                	addi	a0,a0,1
     fae:	0200                	addi	s0,sp,256
     fb0:	0304                	addi	s1,sp,384
     fb2:	0306                	slli	t1,t1,0x1
     fb4:	0901                	addi	s2,s2,0
     fb6:	000a                	c.slli	zero,0x2
     fb8:	0501                	addi	a0,a0,0
     fba:	000a                	c.slli	zero,0x2
     fbc:	0402                	c.slli64	s0
     fbe:	00030603          	lb	a2,0(t1)
     fc2:	0009                	c.nop	2
     fc4:	0100                	addi	s0,sp,128
     fc6:	0505                	addi	a0,a0,1
     fc8:	0200                	addi	s0,sp,256
     fca:	0304                	addi	s1,sp,384
     fcc:	0306                	slli	t1,t1,0x1
     fce:	0901                	addi	s2,s2,0
     fd0:	000a                	c.slli	zero,0x2
     fd2:	0501                	addi	a0,a0,0
     fd4:	000a                	c.slli	zero,0x2
     fd6:	0402                	c.slli64	s0
     fd8:	00030603          	lb	a2,0(t1)
     fdc:	0009                	c.nop	2
     fde:	0100                	addi	s0,sp,128
     fe0:	0505                	addi	a0,a0,1
     fe2:	0200                	addi	s0,sp,256
     fe4:	0304                	addi	s1,sp,384
     fe6:	0306                	slli	t1,t1,0x1
     fe8:	0901                	addi	s2,s2,0
     fea:	000a                	c.slli	zero,0x2
     fec:	0501                	addi	a0,a0,0
     fee:	000a                	c.slli	zero,0x2
     ff0:	0402                	c.slli64	s0
     ff2:	00030603          	lb	a2,0(t1)
     ff6:	0009                	c.nop	2
     ff8:	0100                	addi	s0,sp,128
     ffa:	0505                	addi	a0,a0,1
     ffc:	0200                	addi	s0,sp,256
     ffe:	0304                	addi	s1,sp,384
    1000:	0306                	slli	t1,t1,0x1
    1002:	0901                	addi	s2,s2,0
    1004:	0008                	.2byte	0x8
    1006:	0501                	addi	a0,a0,0
    1008:	000a                	c.slli	zero,0x2
    100a:	0402                	c.slli64	s0
    100c:	00030603          	lb	a2,0(t1)
    1010:	0009                	c.nop	2
    1012:	0100                	addi	s0,sp,128
    1014:	0505                	addi	a0,a0,1
    1016:	0200                	addi	s0,sp,256
    1018:	0304                	addi	s1,sp,384
    101a:	0306                	slli	t1,t1,0x1
    101c:	0901                	addi	s2,s2,0
    101e:	000a                	c.slli	zero,0x2
    1020:	0501                	addi	a0,a0,0
    1022:	000a                	c.slli	zero,0x2
    1024:	0402                	c.slli64	s0
    1026:	00030603          	lb	a2,0(t1)
    102a:	0009                	c.nop	2
    102c:	0100                	addi	s0,sp,128
    102e:	0505                	addi	a0,a0,1
    1030:	0200                	addi	s0,sp,256
    1032:	0304                	addi	s1,sp,384
    1034:	0306                	slli	t1,t1,0x1
    1036:	0902                	c.slli64	s2
    1038:	000a                	c.slli	zero,0x2
    103a:	0501                	addi	a0,a0,0
    103c:	0402000b          	.4byte	0x402000b
    1040:	00030603          	lb	a2,0(t1)
    1044:	0009                	c.nop	2
    1046:	0100                	addi	s0,sp,128
    1048:	0505                	addi	a0,a0,1
    104a:	0200                	addi	s0,sp,256
    104c:	0304                	addi	s1,sp,384
    104e:	0306                	slli	t1,t1,0x1
    1050:	0901                	addi	s2,s2,0
    1052:	000a                	c.slli	zero,0x2
    1054:	0501                	addi	a0,a0,0
    1056:	0402000b          	.4byte	0x402000b
    105a:	00030603          	lb	a2,0(t1)
    105e:	0009                	c.nop	2
    1060:	0100                	addi	s0,sp,128
    1062:	0505                	addi	a0,a0,1
    1064:	0200                	addi	s0,sp,256
    1066:	0304                	addi	s1,sp,384
    1068:	0306                	slli	t1,t1,0x1
    106a:	0901                	addi	s2,s2,0
    106c:	000a                	c.slli	zero,0x2
    106e:	0501                	addi	a0,a0,0
    1070:	0402000b          	.4byte	0x402000b
    1074:	00030603          	lb	a2,0(t1)
    1078:	0009                	c.nop	2
    107a:	0100                	addi	s0,sp,128
    107c:	0505                	addi	a0,a0,1
    107e:	0200                	addi	s0,sp,256
    1080:	0304                	addi	s1,sp,384
    1082:	0306                	slli	t1,t1,0x1
    1084:	0901                	addi	s2,s2,0
    1086:	0008                	.2byte	0x8
    1088:	0501                	addi	a0,a0,0
    108a:	0402000b          	.4byte	0x402000b
    108e:	00030603          	lb	a2,0(t1)
    1092:	0009                	c.nop	2
    1094:	0100                	addi	s0,sp,128
    1096:	2005                	jal	10b6 <_prog_start-0x7fffef4a>
    1098:	0200                	addi	s0,sp,256
    109a:	0304                	addi	s1,sp,384
    109c:	0306                	slli	t1,t1,0x1
    109e:	00080973          	.4byte	0x80973
    10a2:	0501                	addi	a0,a0,0
    10a4:	0015                	c.nop	5
    10a6:	0402                	c.slli64	s0
    10a8:	09000303          	lb	t1,144(zero) # 90 <_prog_start-0x7fffff70>
    10ac:	0002                	c.slli64	zero
    10ae:	0501                	addi	a0,a0,0
    10b0:	0305                	addi	t1,t1,1
    10b2:	0910                	addi	a2,sp,144
    10b4:	0004                	.2byte	0x4
    10b6:	0501                	addi	a0,a0,0
    10b8:	0900030f          	.4byte	0x900030f
    10bc:	0000                	unimp
    10be:	0301                	addi	t1,t1,0
    10c0:	0900                	addi	s0,sp,144
    10c2:	0000                	unimp
    10c4:	0301                	addi	t1,t1,0
    10c6:	0900                	addi	s0,sp,144
    10c8:	0004                	.2byte	0x4
    10ca:	0501                	addi	a0,a0,0
    10cc:	0305                	addi	t1,t1,1
    10ce:	0901                	addi	s2,s2,0
    10d0:	0000                	unimp
    10d2:	0501                	addi	a0,a0,0
    10d4:	0316                	slli	t1,t1,0x5
    10d6:	0900                	addi	s0,sp,144
    10d8:	0000                	unimp
    10da:	0301                	addi	t1,t1,0
    10dc:	0900                	addi	s0,sp,144
    10de:	0000                	unimp
    10e0:	0301                	addi	t1,t1,0
    10e2:	0900                	addi	s0,sp,144
    10e4:	0004                	.2byte	0x4
    10e6:	0501                	addi	a0,a0,0
    10e8:	0305                	addi	t1,t1,1
    10ea:	0901                	addi	s2,s2,0
    10ec:	0000                	unimp
    10ee:	0501                	addi	a0,a0,0
    10f0:	0316                	slli	t1,t1,0x5
    10f2:	0900                	addi	s0,sp,144
    10f4:	0000                	unimp
    10f6:	0301                	addi	t1,t1,0
    10f8:	0900                	addi	s0,sp,144
    10fa:	0000                	unimp
    10fc:	0301                	addi	t1,t1,0
    10fe:	0900                	addi	s0,sp,144
    1100:	0004                	.2byte	0x4
    1102:	0501                	addi	a0,a0,0
    1104:	0305                	addi	t1,t1,1
    1106:	0902                	c.slli64	s2
    1108:	0000                	unimp
    110a:	0501                	addi	a0,a0,0
    110c:	061f 0003 0009      	.byte	0x1f, 0x06, 0x03, 0x00, 0x09, 0x00
    1112:	0100                	addi	s0,sp,128
    1114:	0505                	addi	a0,a0,1
    1116:	0306                	slli	t1,t1,0x1
    1118:	0901                	addi	s2,s2,0
    111a:	0008                	.2byte	0x8
    111c:	0501                	addi	a0,a0,0
    111e:	061f 0003 0009      	.byte	0x1f, 0x06, 0x03, 0x00, 0x09, 0x00
    1124:	0100                	addi	s0,sp,128
    1126:	0505                	addi	a0,a0,1
    1128:	0306                	slli	t1,t1,0x1
    112a:	0901                	addi	s2,s2,0
    112c:	0002                	c.slli64	zero
    112e:	0501                	addi	a0,a0,0
    1130:	061f 0003 0009      	.byte	0x1f, 0x06, 0x03, 0x00, 0x09, 0x00
    1136:	0100                	addi	s0,sp,128
    1138:	0505                	addi	a0,a0,1
    113a:	0306                	slli	t1,t1,0x1
    113c:	0901                	addi	s2,s2,0
    113e:	0002                	c.slli64	zero
    1140:	0301                	addi	t1,t1,0
    1142:	00020907          	.4byte	0x20907
    1146:	0501                	addi	a0,a0,0
    1148:	7eeb0303          	lb	t1,2030(s6)
    114c:	0009                	c.nop	2
    114e:	0100                	addi	s0,sp,128
    1150:	0805                	addi	a6,a6,1
    1152:	00090003          	lb	zero,0(s2)
    1156:	0100                	addi	s0,sp,128
    1158:	1505                	addi	a0,a0,-31
    115a:	00090003          	lb	zero,0(s2)
    115e:	0100                	addi	s0,sp,128
    1160:	0c05                	addi	s8,s8,1 # 9001 <_prog_start-0x7fff6fff>
    1162:	0306                	slli	t1,t1,0x1
    1164:	0900                	addi	s0,sp,144
    1166:	0000                	unimp
    1168:	0501                	addi	a0,a0,0
    116a:	0315                	addi	t1,t1,5
    116c:	0900                	addi	s0,sp,144
    116e:	0002                	c.slli64	zero
    1170:	0501                	addi	a0,a0,0
    1172:	0609                	addi	a2,a2,2
    1174:	04090103          	lb	sp,64(s2)
    1178:	0100                	addi	s0,sp,128
    117a:	1205                	addi	tp,tp,-31 # ffffffe1 <a+0x7ffff5f5>
    117c:	0306                	slli	t1,t1,0x1
    117e:	0900                	addi	s0,sp,144
    1180:	0000                	unimp
    1182:	0501                	addi	a0,a0,0
    1184:	031a                	slli	t1,t1,0x6
    1186:	0900                	addi	s0,sp,144
    1188:	0004                	.2byte	0x4
    118a:	0501                	addi	a0,a0,0
    118c:	030e                	slli	t1,t1,0x3
    118e:	0900                	addi	s0,sp,144
    1190:	0004                	.2byte	0x4
    1192:	0501                	addi	a0,a0,0
    1194:	0312                	slli	t1,t1,0x4
    1196:	0900                	addi	s0,sp,144
    1198:	0004                	.2byte	0x4
    119a:	0501                	addi	a0,a0,0
    119c:	031a                	slli	t1,t1,0x6
    119e:	0900                	addi	s0,sp,144
    11a0:	0002                	c.slli64	zero
    11a2:	0501                	addi	a0,a0,0
    11a4:	0316                	slli	t1,t1,0x5
    11a6:	0900                	addi	s0,sp,144
    11a8:	0002                	c.slli64	zero
    11aa:	0501                	addi	a0,a0,0
    11ac:	030e                	slli	t1,t1,0x3
    11ae:	0900                	addi	s0,sp,144
    11b0:	0008                	.2byte	0x8
    11b2:	0501                	addi	a0,a0,0
    11b4:	0320                	addi	s0,sp,392
    11b6:	097f                	.2byte	0x97f
    11b8:	0002                	c.slli64	zero
    11ba:	0501                	addi	a0,a0,0
    11bc:	0316                	slli	t1,t1,0x5
    11be:	0901                	addi	s2,s2,0
    11c0:	0002                	c.slli64	zero
    11c2:	0501                	addi	a0,a0,0
    11c4:	030e                	slli	t1,t1,0x3
    11c6:	0900                	addi	s0,sp,144
    11c8:	0002                	c.slli64	zero
    11ca:	0501                	addi	a0,a0,0
    11cc:	0620                	addi	s0,sp,776
    11ce:	04097f03          	.4byte	0x4097f03
    11d2:	0100                	addi	s0,sp,128
    11d4:	1505                	addi	a0,a0,-31
    11d6:	00090003          	lb	zero,0(s2)
    11da:	0100                	addi	s0,sp,128
    11dc:	0505                	addi	a0,a0,1
    11de:	09019903          	lh	s2,144(gp)
    11e2:	0004                	.2byte	0x4
    11e4:	0501                	addi	a0,a0,0
    11e6:	061f 0003 0009      	.byte	0x1f, 0x06, 0x03, 0x00, 0x09, 0x00
    11ec:	0100                	addi	s0,sp,128
    11ee:	0505                	addi	a0,a0,1
    11f0:	0306                	slli	t1,t1,0x1
    11f2:	0901                	addi	s2,s2,0
    11f4:	000a                	c.slli	zero,0x2
    11f6:	0501                	addi	a0,a0,0
    11f8:	061f 0003 0009      	.byte	0x1f, 0x06, 0x03, 0x00, 0x09, 0x00
    11fe:	0100                	addi	s0,sp,128
    1200:	0505                	addi	a0,a0,1
    1202:	0306                	slli	t1,t1,0x1
    1204:	0901                	addi	s2,s2,0
    1206:	0004                	.2byte	0x4
    1208:	0501                	addi	a0,a0,0
    120a:	061f 0003 0009      	.byte	0x1f, 0x06, 0x03, 0x00, 0x09, 0x00
    1210:	0100                	addi	s0,sp,128
    1212:	0505                	addi	a0,a0,1
    1214:	0306                	slli	t1,t1,0x1
    1216:	0901                	addi	s2,s2,0
    1218:	0004                	.2byte	0x4
    121a:	0301                	addi	t1,t1,0
    121c:	0906                	slli	s2,s2,0x1
    121e:	0002                	c.slli64	zero
    1220:	0501                	addi	a0,a0,0
    1222:	060c                	addi	a1,sp,768
    1224:	097f9203          	lh	tp,151(t6)
    1228:	0000                	unimp
    122a:	0501                	addi	a0,a0,0
    122c:	031f 00ee 0209      	.byte	0x1f, 0x03, 0xee, 0x00, 0x09, 0x02
    1232:	0100                	addi	s0,sp,128
    1234:	0505                	addi	a0,a0,1
    1236:	0306                	slli	t1,t1,0x1
    1238:	0901                	addi	s2,s2,0
    123a:	0004                	.2byte	0x4
    123c:	0501                	addi	a0,a0,0
    123e:	0315                	addi	t1,t1,5
    1240:	7f91                	lui	t6,0xfffe4
    1242:	0009                	c.nop	2
    1244:	0100                	addi	s0,sp,128
    1246:	0905                	addi	s2,s2,1
    1248:	04090103          	lb	sp,64(s2)
    124c:	0100                	addi	s0,sp,128
    124e:	1205                	addi	tp,tp,-31 # ffffffe1 <a+0x7ffff5f5>
    1250:	0306                	slli	t1,t1,0x1
    1252:	0900                	addi	s0,sp,144
    1254:	0000                	unimp
    1256:	0501                	addi	a0,a0,0
    1258:	031a                	slli	t1,t1,0x6
    125a:	0900                	addi	s0,sp,144
    125c:	0004                	.2byte	0x4
    125e:	0501                	addi	a0,a0,0
    1260:	030e                	slli	t1,t1,0x3
    1262:	0900                	addi	s0,sp,144
    1264:	0004                	.2byte	0x4
    1266:	0501                	addi	a0,a0,0
    1268:	0312                	slli	t1,t1,0x4
    126a:	0900                	addi	s0,sp,144
    126c:	0002                	c.slli64	zero
    126e:	0501                	addi	a0,a0,0
    1270:	031a                	slli	t1,t1,0x6
    1272:	0900                	addi	s0,sp,144
    1274:	0002                	c.slli64	zero
    1276:	0501                	addi	a0,a0,0
    1278:	0316                	slli	t1,t1,0x5
    127a:	0900                	addi	s0,sp,144
    127c:	0002                	c.slli64	zero
    127e:	0501                	addi	a0,a0,0
    1280:	030e                	slli	t1,t1,0x3
    1282:	0900                	addi	s0,sp,144
    1284:	0008                	.2byte	0x8
    1286:	0501                	addi	a0,a0,0
    1288:	0320                	addi	s0,sp,392
    128a:	097f                	.2byte	0x97f
    128c:	0002                	c.slli64	zero
    128e:	0501                	addi	a0,a0,0
    1290:	0316                	slli	t1,t1,0x5
    1292:	0901                	addi	s2,s2,0
    1294:	0002                	c.slli64	zero
    1296:	0501                	addi	a0,a0,0
    1298:	030e                	slli	t1,t1,0x3
    129a:	0900                	addi	s0,sp,144
    129c:	0002                	c.slli64	zero
    129e:	0501                	addi	a0,a0,0
    12a0:	0620                	addi	s0,sp,776
    12a2:	04097f03          	.4byte	0x4097f03
    12a6:	0100                	addi	s0,sp,128
    12a8:	1505                	addi	a0,a0,-31
    12aa:	00090003          	lb	zero,0(s2)
    12ae:	0100                	addi	s0,sp,128
    12b0:	0505                	addi	a0,a0,1
    12b2:	0900f103          	.4byte	0x900f103
    12b6:	0004                	.2byte	0x4
    12b8:	0501                	addi	a0,a0,0
    12ba:	030d                	addi	t1,t1,3
    12bc:	0900                	addi	s0,sp,144
    12be:	0000                	unimp
    12c0:	0301                	addi	t1,t1,0
    12c2:	0900                	addi	s0,sp,144
    12c4:	0000                	unimp
    12c6:	0301                	addi	t1,t1,0
    12c8:	0900                	addi	s0,sp,144
    12ca:	0004                	.2byte	0x4
    12cc:	0501                	addi	a0,a0,0
    12ce:	0305                	addi	t1,t1,1
    12d0:	0901                	addi	s2,s2,0
    12d2:	0000                	unimp
    12d4:	0501                	addi	a0,a0,0
    12d6:	0314                	addi	a3,sp,384
    12d8:	0900                	addi	s0,sp,144
    12da:	0000                	unimp
    12dc:	0301                	addi	t1,t1,0
    12de:	0900                	addi	s0,sp,144
    12e0:	0000                	unimp
    12e2:	0301                	addi	t1,t1,0
    12e4:	0900                	addi	s0,sp,144
    12e6:	0004                	.2byte	0x4
    12e8:	0501                	addi	a0,a0,0
    12ea:	0305                	addi	t1,t1,1
    12ec:	0901                	addi	s2,s2,0
    12ee:	0000                	unimp
    12f0:	0501                	addi	a0,a0,0
    12f2:	0314                	addi	a3,sp,384
    12f4:	0900                	addi	s0,sp,144
    12f6:	0000                	unimp
    12f8:	0301                	addi	t1,t1,0
    12fa:	0900                	addi	s0,sp,144
    12fc:	0000                	unimp
    12fe:	0301                	addi	t1,t1,0
    1300:	0900                	addi	s0,sp,144
    1302:	0004                	.2byte	0x4
    1304:	0501                	addi	a0,a0,0
    1306:	0305                	addi	t1,t1,1
    1308:	0902                	c.slli64	s2
    130a:	0000                	unimp
    130c:	0501                	addi	a0,a0,0
    130e:	030a                	slli	t1,t1,0x2
    1310:	0900                	addi	s0,sp,144
    1312:	0000                	unimp
    1314:	0501                	addi	a0,a0,0
    1316:	09000317          	auipc	t1,0x9000
    131a:	0000                	unimp
    131c:	0501                	addi	a0,a0,0
    131e:	060e                	slli	a2,a2,0x3
    1320:	00090103          	lb	sp,0(s2)
    1324:	0100                	addi	s0,sp,128
    1326:	04090203          	lb	tp,64(s2)
    132a:	0100                	addi	s0,sp,128
    132c:	04090103          	lb	sp,64(s2)
    1330:	0100                	addi	s0,sp,128
    1332:	04097e03          	.4byte	0x4097e03
    1336:	0100                	addi	s0,sp,128
    1338:	04097e03          	.4byte	0x4097e03
    133c:	0100                	addi	s0,sp,128
    133e:	0c05                	addi	s8,s8,1
    1340:	02094c03          	lbu	s8,32(s2)
    1344:	0100                	addi	s0,sp,128
    1346:	1705                	addi	a4,a4,-31
    1348:	02093403          	.4byte	0x2093403
    134c:	0100                	addi	s0,sp,128
    134e:	0905                	addi	s2,s2,1
    1350:	0306                	slli	t1,t1,0x1
    1352:	0901                	addi	s2,s2,0
    1354:	0004                	.2byte	0x4
    1356:	0501                	addi	a0,a0,0
    1358:	060e                	slli	a2,a2,0x3
    135a:	00090003          	lb	zero,0(s2)
    135e:	0100                	addi	s0,sp,128
    1360:	04090103          	lb	sp,64(s2)
    1364:	0100                	addi	s0,sp,128
    1366:	0c05                	addi	s8,s8,1
    1368:	04097f03          	.4byte	0x4097f03
    136c:	0100                	addi	s0,sp,128
    136e:	04090103          	lb	sp,64(s2)
    1372:	0100                	addi	s0,sp,128
    1374:	0e05                	addi	t3,t3,1
    1376:	04090103          	lb	sp,64(s2)
    137a:	0100                	addi	s0,sp,128
    137c:	04090103          	lb	sp,64(s2)
    1380:	0100                	addi	s0,sp,128
    1382:	0c05                	addi	s8,s8,1
    1384:	04097f03          	.4byte	0x4097f03
    1388:	0100                	addi	s0,sp,128
    138a:	04090103          	lb	sp,64(s2)
    138e:	0100                	addi	s0,sp,128
    1390:	2305                	jal	18b0 <_prog_start-0x7fffe750>
    1392:	04097d03          	.4byte	0x4097d03
    1396:	0100                	addi	s0,sp,128
    1398:	0905                	addi	s2,s2,1
    139a:	0306                	slli	t1,t1,0x1
    139c:	0901                	addi	s2,s2,0
    139e:	0006                	c.slli	zero,0x1
    13a0:	0501                	addi	a0,a0,0
    13a2:	00030623          	sb	zero,12(t1) # 9001322 <_prog_start-0x76ffecde>
    13a6:	0009                	c.nop	2
    13a8:	0100                	addi	s0,sp,128
    13aa:	0905                	addi	s2,s2,1
    13ac:	0306                	slli	t1,t1,0x1
    13ae:	0901                	addi	s2,s2,0
    13b0:	0006                	c.slli	zero,0x1
    13b2:	0501                	addi	a0,a0,0
    13b4:	00030623          	sb	zero,12(t1)
    13b8:	0009                	c.nop	2
    13ba:	0100                	addi	s0,sp,128
    13bc:	0905                	addi	s2,s2,1
    13be:	0306                	slli	t1,t1,0x1
    13c0:	0901                	addi	s2,s2,0
    13c2:	0006                	c.slli	zero,0x1
    13c4:	0501                	addi	a0,a0,0
    13c6:	00030623          	sb	zero,12(t1)
    13ca:	0009                	c.nop	2
    13cc:	0100                	addi	s0,sp,128
    13ce:	04097c03          	.4byte	0x4097c03
    13d2:	0100                	addi	s0,sp,128
    13d4:	02090403          	lb	s0,32(s2)
    13d8:	0100                	addi	s0,sp,128
    13da:	0306                	slli	t1,t1,0x1
    13dc:	097c                	addi	a5,sp,156
    13de:	0002                	c.slli64	zero
    13e0:	0501                	addi	a0,a0,0
    13e2:	09000317          	auipc	t1,0x9000
    13e6:	0000                	unimp
    13e8:	0501                	addi	a0,a0,0
    13ea:	0305                	addi	t1,t1,1 # 90013e3 <_prog_start-0x76ffec1d>
    13ec:	00040907          	.4byte	0x40907
    13f0:	0301                	addi	t1,t1,0
    13f2:	0902                	c.slli64	s2
    13f4:	0000                	unimp
    13f6:	0301                	addi	t1,t1,0
    13f8:	0901                	addi	s2,s2,0
    13fa:	000e                	c.slli	zero,0x3
    13fc:	0301                	addi	t1,t1,0
    13fe:	0901                	addi	s2,s2,0
    1400:	000e                	c.slli	zero,0x3
    1402:	0301                	addi	t1,t1,0
    1404:	0901                	addi	s2,s2,0
    1406:	000e                	c.slli	zero,0x3
    1408:	0501                	addi	a0,a0,0
    140a:	09020303          	lb	t1,144(tp) # 90 <_prog_start-0x7fffff70>
    140e:	000c                	.2byte	0xc
    1410:	0501                	addi	a0,a0,0
    1412:	0601                	addi	a2,a2,0
    1414:	00090103          	lb	sp,0(s2)
    1418:	0100                	addi	s0,sp,128
    141a:	1e09                	addi	t3,t3,-30
    141c:	0000                	unimp
    141e:	0101                	addi	sp,sp,0
    1420:	07ff                	.2byte	0x7ff
    1422:	0000                	unimp
    1424:	0005                	c.nop	1
    1426:	0004                	.2byte	0x4
    1428:	004a                	c.slli	zero,0x12
    142a:	0000                	unimp
    142c:	0101                	addi	sp,sp,0
    142e:	fb01                	bnez	a4,133e <_prog_start-0x7fffecc2>
    1430:	0d0e                	slli	s10,s10,0x3
    1432:	0100                	addi	s0,sp,128
    1434:	0101                	addi	sp,sp,0
    1436:	0001                	nop
    1438:	0000                	unimp
    143a:	0001                	nop
    143c:	0100                	addi	s0,sp,128
    143e:	0101                	addi	sp,sp,0
    1440:	041f 0000 0000      	.byte	0x1f, 0x04, 0x00, 0x00, 0x00, 0x00
    1446:	0154                	addi	a3,sp,132
    1448:	0000                	unimp
    144a:	0055                	c.nop	21
    144c:	0000                	unimp
    144e:	000000bf 021f0102 	.8byte	0x21f0102000000bf
    1456:	014a060f          	.4byte	0x14a060f
    145a:	0000                	unimp
    145c:	4a00                	lw	s0,16(a2)
    145e:	0001                	nop
    1460:	0000                	unimp
    1462:	0140                	addi	s0,sp,132
    1464:	0000                	unimp
    1466:	c500                	sw	s0,8(a0)
    1468:	0001                	nop
    146a:	0100                	addi	s0,sp,128
    146c:	0125                	addi	sp,sp,9
    146e:	0000                	unimp
    1470:	3602                	.2byte	0x3602
    1472:	0001                	nop
    1474:	0300                	addi	s0,sp,384
    1476:	0105                	addi	sp,sp,1
    1478:	0500                	addi	s0,sp,640
    147a:	be02                	.2byte	0xbe02
    147c:	03800007          	.4byte	0x3800007
    1480:	0205010f          	.4byte	0x205010f
    1484:	00090103          	lb	sp,0(s2)
    1488:	0100                	addi	s0,sp,128
    148a:	00097903          	.4byte	0x97903
    148e:	0100                	addi	s0,sp,128
    1490:	00090103          	lb	sp,0(s2)
    1494:	0100                	addi	s0,sp,128
    1496:	1205                	addi	tp,tp,-31 # ffffffe1 <a+0x7ffff5f5>
    1498:	00090003          	lb	zero,0(s2)
    149c:	0100                	addi	s0,sp,128
    149e:	0c05                	addi	s8,s8,1
    14a0:	0306                	slli	t1,t1,0x1
    14a2:	0900                	addi	s0,sp,144
    14a4:	0000                	unimp
    14a6:	0501                	addi	a0,a0,0
    14a8:	0312                	slli	t1,t1,0x4
    14aa:	0900                	addi	s0,sp,144
    14ac:	0004                	.2byte	0x4
    14ae:	0401                	addi	s0,s0,0
    14b0:	0502                	c.slli64	a0
    14b2:	09100303          	lb	t1,145(zero) # 91 <_prog_start-0x7fffff6f>
    14b6:	0002                	c.slli64	zero
    14b8:	0501                	addi	a0,a0,0
    14ba:	0602                	c.slli64	a2
    14bc:	04097e03          	.4byte	0x4097e03
    14c0:	0100                	addi	s0,sp,128
    14c2:	00090103          	lb	sp,0(s2)
    14c6:	0100                	addi	s0,sp,128
    14c8:	0305                	addi	t1,t1,1
    14ca:	00090103          	lb	sp,0(s2)
    14ce:	0100                	addi	s0,sp,128
    14d0:	0d05                	addi	s10,s10,1
    14d2:	04090403          	lb	s0,64(s2)
    14d6:	0100                	addi	s0,sp,128
    14d8:	0104                	addi	s1,sp,128
    14da:	1c05                	addi	s8,s8,-31
    14dc:	04096c03          	.4byte	0x4096c03
    14e0:	0100                	addi	s0,sp,128
    14e2:	0c05                	addi	s8,s8,1
    14e4:	0306                	slli	t1,t1,0x1
    14e6:	0900                	addi	s0,sp,144
    14e8:	0000                	unimp
    14ea:	0501                	addi	a0,a0,0
    14ec:	031c                	addi	a5,sp,384
    14ee:	0900                	addi	s0,sp,144
    14f0:	0004                	.2byte	0x4
    14f2:	0501                	addi	a0,a0,0
    14f4:	0612                	slli	a2,a2,0x4
    14f6:	02090003          	lb	zero,32(s2)
    14fa:	0100                	addi	s0,sp,128
    14fc:	0204                	addi	s1,sp,256
    14fe:	0305                	addi	t1,t1,1
    1500:	0306                	slli	t1,t1,0x1
    1502:	0910                	addi	a2,sp,144
    1504:	0002                	c.slli64	zero
    1506:	0501                	addi	a0,a0,0
    1508:	0602                	c.slli64	a2
    150a:	06097e03          	.4byte	0x6097e03
    150e:	0100                	addi	s0,sp,128
    1510:	00090103          	lb	sp,0(s2)
    1514:	0100                	addi	s0,sp,128
    1516:	0305                	addi	t1,t1,1
    1518:	00090103          	lb	sp,0(s2)
    151c:	0100                	addi	s0,sp,128
    151e:	0d05                	addi	s10,s10,1
    1520:	04090403          	lb	s0,64(s2)
    1524:	0100                	addi	s0,sp,128
    1526:	0305                	addi	t1,t1,1
    1528:	0306                	slli	t1,t1,0x1
    152a:	097c                	addi	a5,sp,156
    152c:	0004                	.2byte	0x4
    152e:	0501                	addi	a0,a0,0
    1530:	0602                	c.slli64	a2
    1532:	06097e03          	.4byte	0x6097e03
    1536:	0100                	addi	s0,sp,128
    1538:	00090103          	lb	sp,0(s2)
    153c:	0100                	addi	s0,sp,128
    153e:	0305                	addi	t1,t1,1
    1540:	00090103          	lb	sp,0(s2)
    1544:	0100                	addi	s0,sp,128
    1546:	0d05                	addi	s10,s10,1
    1548:	04090403          	lb	s0,64(s2)
    154c:	0100                	addi	s0,sp,128
    154e:	0104                	addi	s1,sp,128
    1550:	0105                	addi	sp,sp,1
    1552:	0306                	slli	t1,t1,0x1
    1554:	0975                	addi	s2,s2,29
    1556:	0004                	.2byte	0x4
    1558:	0601                	addi	a2,a2,0
    155a:	02090303          	lb	t1,32(s2)
    155e:	0100                	addi	s0,sp,128
    1560:	0205                	addi	tp,tp,1 # 1 <_prog_start-0x7fffffff>
    1562:	00090103          	lb	sp,0(s2)
    1566:	0100                	addi	s0,sp,128
    1568:	00090103          	lb	sp,0(s2)
    156c:	0100                	addi	s0,sp,128
    156e:	00090103          	lb	sp,0(s2)
    1572:	0100                	addi	s0,sp,128
    1574:	00090203          	lb	tp,0(s2)
    1578:	0100                	addi	s0,sp,128
    157a:	0105                	addi	sp,sp,1
    157c:	0306                	slli	t1,t1,0x1
    157e:	0000097b          	.4byte	0x97b
    1582:	0501                	addi	a0,a0,0
    1584:	030c                	addi	a1,sp,384
    1586:	0909                	addi	s2,s2,2
    1588:	0002                	c.slli64	zero
    158a:	0501                	addi	a0,a0,0
    158c:	0301                	addi	t1,t1,0
    158e:	00040977          	.4byte	0x40977
    1592:	0501                	addi	a0,a0,0
    1594:	0302                	c.slli64	t1
    1596:	0905                	addi	s2,s2,1
    1598:	0002                	c.slli64	zero
    159a:	0501                	addi	a0,a0,0
    159c:	0301                	addi	t1,t1,0
    159e:	0002097b          	.4byte	0x2097b
    15a2:	0501                	addi	a0,a0,0
    15a4:	0302                	c.slli64	t1
    15a6:	0905                	addi	s2,s2,1
    15a8:	000c                	.2byte	0xc
    15aa:	0601                	addi	a2,a2,0
    15ac:	02090103          	lb	sp,32(s2)
    15b0:	0100                	addi	s0,sp,128
    15b2:	00090103          	lb	sp,0(s2)
    15b6:	0100                	addi	s0,sp,128
    15b8:	00090103          	lb	sp,0(s2)
    15bc:	0100                	addi	s0,sp,128
    15be:	00090103          	lb	sp,0(s2)
    15c2:	0100                	addi	s0,sp,128
    15c4:	1605                	addi	a2,a2,-31
    15c6:	00090003          	lb	zero,0(s2)
    15ca:	0100                	addi	s0,sp,128
    15cc:	0d05                	addi	s10,s10,1
    15ce:	0306                	slli	t1,t1,0x1
    15d0:	0931                	addi	s2,s2,12
    15d2:	000a                	c.slli	zero,0x2
    15d4:	0401                	addi	s0,s0,0
    15d6:	0502                	c.slli64	a0
    15d8:	094a0303          	lb	t1,148(s4)
    15dc:	0004                	.2byte	0x4
    15de:	0401                	addi	s0,s0,0
    15e0:	0501                	addi	a0,a0,0
    15e2:	0304                	addi	s1,sp,384
    15e4:	00040907          	.4byte	0x40907
    15e8:	0501                	addi	a0,a0,0
    15ea:	7f030603          	lb	a2,2032(t1)
    15ee:	0a09                	addi	s4,s4,2
    15f0:	0100                	addi	s0,sp,128
    15f2:	0605                	addi	a2,a2,1
    15f4:	0306                	slli	t1,t1,0x1
    15f6:	0900                	addi	s0,sp,144
    15f8:	0000                	unimp
    15fa:	0501                	addi	a0,a0,0
    15fc:	0604                	addi	s1,sp,768
    15fe:	02090103          	lb	sp,32(s2)
    1602:	0100                	addi	s0,sp,128
    1604:	0505                	addi	a0,a0,1
    1606:	18092903          	lw	s2,384(s2)
    160a:	0100                	addi	s0,sp,128
    160c:	0b05                	addi	s6,s6,1
    160e:	0306                	slli	t1,t1,0x1
    1610:	0900                	addi	s0,sp,144
    1612:	0000                	unimp
    1614:	0401                	addi	s0,s0,0
    1616:	0502                	c.slli64	a0
    1618:	09500303          	lb	t1,149(zero) # 95 <_prog_start-0x7fffff6b>
    161c:	0002                	c.slli64	zero
    161e:	0401                	addi	s0,s0,0
    1620:	0501                	addi	a0,a0,0
    1622:	0305                	addi	t1,t1,1
    1624:	0930                	addi	a2,sp,152
    1626:	0004                	.2byte	0x4
    1628:	0401                	addi	s0,s0,0
    162a:	0502                	c.slli64	a0
    162c:	0602                	c.slli64	a2
    162e:	04094c03          	lbu	s8,64(s2)
    1632:	0100                	addi	s0,sp,128
    1634:	0104                	addi	s1,sp,128
    1636:	0b05                	addi	s6,s6,1
    1638:	0306                	slli	t1,t1,0x1
    163a:	0934                	addi	a3,sp,152
    163c:	0000                	unimp
    163e:	0401                	addi	s0,s0,0
    1640:	0502                	c.slli64	a0
    1642:	0602                	c.slli64	a2
    1644:	04094e03          	lbu	t3,64(s2)
    1648:	0100                	addi	s0,sp,128
    164a:	00090103          	lb	sp,0(s2)
    164e:	0100                	addi	s0,sp,128
    1650:	0305                	addi	t1,t1,1
    1652:	00090103          	lb	sp,0(s2)
    1656:	0100                	addi	s0,sp,128
    1658:	0d05                	addi	s10,s10,1
    165a:	04090403          	lb	s0,64(s2)
    165e:	0100                	addi	s0,sp,128
    1660:	0104                	addi	s1,sp,128
    1662:	0c05                	addi	s8,s8,1
    1664:	0306                	slli	t1,t1,0x1
    1666:	0931                	addi	s2,s2,12
    1668:	0004                	.2byte	0x4
    166a:	0501                	addi	a0,a0,0
    166c:	030e                	slli	t1,t1,0x3
    166e:	097e                	slli	s2,s2,0x1f
    1670:	0002                	c.slli64	zero
    1672:	0501                	addi	a0,a0,0
    1674:	0616                	slli	a2,a2,0x5
    1676:	02095203          	lhu	tp,32(s2)
    167a:	0100                	addi	s0,sp,128
    167c:	0c05                	addi	s8,s8,1
    167e:	0306                	slli	t1,t1,0x1
    1680:	0900                	addi	s0,sp,144
    1682:	0000                	unimp
    1684:	0501                	addi	a0,a0,0
    1686:	0312                	slli	t1,t1,0x4
    1688:	0900                	addi	s0,sp,144
    168a:	0004                	.2byte	0x4
    168c:	0501                	addi	a0,a0,0
    168e:	0316                	slli	t1,t1,0x5
    1690:	0900                	addi	s0,sp,144
    1692:	0002                	c.slli64	zero
    1694:	0501                	addi	a0,a0,0
    1696:	0301                	addi	t1,t1,0
    1698:	0938                	addi	a4,sp,152
    169a:	0004                	.2byte	0x4
    169c:	0501                	addi	a0,a0,0
    169e:	0605                	addi	a2,a2,1
    16a0:	04095f03          	lhu	t5,64(s2)
    16a4:	0100                	addi	s0,sp,128
    16a6:	00090103          	lb	sp,0(s2)
    16aa:	0100                	addi	s0,sp,128
    16ac:	00090103          	lb	sp,0(s2)
    16b0:	0100                	addi	s0,sp,128
    16b2:	0605                	addi	a2,a2,1
    16b4:	00090403          	lb	s0,0(s2)
    16b8:	0100                	addi	s0,sp,128
    16ba:	0805                	addi	a6,a6,1
    16bc:	0306                	slli	t1,t1,0x1
    16be:	0900                	addi	s0,sp,144
    16c0:	0000                	unimp
    16c2:	0501                	addi	a0,a0,0
    16c4:	0316                	slli	t1,t1,0x5
    16c6:	0901                	addi	s2,s2,0
    16c8:	0002                	c.slli64	zero
    16ca:	0501                	addi	a0,a0,0
    16cc:	0308                	addi	a0,sp,384
    16ce:	097f                	.2byte	0x97f
    16d0:	0008                	.2byte	0x8
    16d2:	0501                	addi	a0,a0,0
    16d4:	0606                	slli	a2,a2,0x1
    16d6:	04090103          	lb	sp,64(s2)
    16da:	0100                	addi	s0,sp,128
    16dc:	1605                	addi	a2,a2,-31
    16de:	0306                	slli	t1,t1,0x1
    16e0:	0900                	addi	s0,sp,144
    16e2:	0000                	unimp
    16e4:	0501                	addi	a0,a0,0
    16e6:	0308                	addi	a0,sp,384
    16e8:	097f                	.2byte	0x97f
    16ea:	0002                	c.slli64	zero
    16ec:	0501                	addi	a0,a0,0
    16ee:	0316                	slli	t1,t1,0x5
    16f0:	0901                	addi	s2,s2,0
    16f2:	0004                	.2byte	0x4
    16f4:	0501                	addi	a0,a0,0
    16f6:	0306                	slli	t1,t1,0x1
    16f8:	0905                	addi	s2,s2,1
    16fa:	0002                	c.slli64	zero
    16fc:	0401                	addi	s0,s0,0
    16fe:	0502                	c.slli64	a0
    1700:	09580303          	lb	t1,149(a6)
    1704:	0002                	c.slli64	zero
    1706:	0401                	addi	s0,s0,0
    1708:	0501                	addi	a0,a0,0
    170a:	030e                	slli	t1,t1,0x3
    170c:	0925                	addi	s2,s2,9
    170e:	0004                	.2byte	0x4
    1710:	0501                	addi	a0,a0,0
    1712:	0606                	slli	a2,a2,0x1
    1714:	02090103          	lb	sp,32(s2)
    1718:	0100                	addi	s0,sp,128
    171a:	00090103          	lb	sp,0(s2)
    171e:	0100                	addi	s0,sp,128
    1720:	0d05                	addi	s10,s10,1
    1722:	0306                	slli	t1,t1,0x1
    1724:	0900                	addi	s0,sp,144
    1726:	0000                	unimp
    1728:	0501                	addi	a0,a0,0
    172a:	0319                	addi	t1,t1,6
    172c:	0901                	addi	s2,s2,0
    172e:	0004                	.2byte	0x4
    1730:	0501                	addi	a0,a0,0
    1732:	0606                	slli	a2,a2,0x1
    1734:	04090003          	lb	zero,64(s2)
    1738:	0100                	addi	s0,sp,128
    173a:	0200                	addi	s0,sp,256
    173c:	0104                	addi	s1,sp,128
    173e:	0306                	slli	t1,t1,0x1
    1740:	0900                	addi	s0,sp,144
    1742:	0008                	.2byte	0x8
    1744:	0401                	addi	s0,s0,0
    1746:	0502                	c.slli64	a0
    1748:	0602                	c.slli64	a2
    174a:	04095603          	lhu	a2,64(s2)
    174e:	0100                	addi	s0,sp,128
    1750:	00090103          	lb	sp,0(s2)
    1754:	0100                	addi	s0,sp,128
    1756:	0305                	addi	t1,t1,1
    1758:	00090103          	lb	sp,0(s2)
    175c:	0100                	addi	s0,sp,128
    175e:	0d05                	addi	s10,s10,1
    1760:	04090403          	lb	s0,64(s2)
    1764:	0100                	addi	s0,sp,128
    1766:	0104                	addi	s1,sp,128
    1768:	1605                	addi	a2,a2,-31
    176a:	0200                	addi	s0,sp,256
    176c:	0404                	addi	s1,sp,512
    176e:	04092103          	lw	sp,64(s2)
    1772:	0100                	addi	s0,sp,128
    1774:	0e05                	addi	t3,t3,1
    1776:	0200                	addi	s0,sp,256
    1778:	0404                	addi	s1,sp,512
    177a:	02090003          	lb	zero,32(s2)
    177e:	0100                	addi	s0,sp,128
    1780:	0505                	addi	a0,a0,1
    1782:	06090803          	lb	a6,96(s2)
    1786:	0100                	addi	s0,sp,128
    1788:	0205                	addi	tp,tp,1 # 1 <_prog_start-0x7fffffff>
    178a:	04094203          	lbu	tp,64(s2)
    178e:	0100                	addi	s0,sp,128
    1790:	00090103          	lb	sp,0(s2)
    1794:	0100                	addi	s0,sp,128
    1796:	1205                	addi	tp,tp,-31 # ffffffe1 <a+0x7ffff5f5>
    1798:	00090003          	lb	zero,0(s2)
    179c:	0100                	addi	s0,sp,128
    179e:	0505                	addi	a0,a0,1
    17a0:	0306                	slli	t1,t1,0x1
    17a2:	093d                	addi	s2,s2,15
    17a4:	0000                	unimp
    17a6:	0501                	addi	a0,a0,0
    17a8:	030c                	addi	a1,sp,384
    17aa:	00040943          	.4byte	0x40943
    17ae:	0501                	addi	a0,a0,0
    17b0:	0312                	slli	t1,t1,0x4
    17b2:	0900                	addi	s0,sp,144
    17b4:	0004                	.2byte	0x4
    17b6:	0401                	addi	s0,s0,0
    17b8:	0502                	c.slli64	a0
    17ba:	09100303          	lb	t1,145(zero) # 91 <_prog_start-0x7fffff6f>
    17be:	0002                	c.slli64	zero
    17c0:	0501                	addi	a0,a0,0
    17c2:	0602                	c.slli64	a2
    17c4:	04097e03          	.4byte	0x4097e03
    17c8:	0100                	addi	s0,sp,128
    17ca:	00090103          	lb	sp,0(s2)
    17ce:	0100                	addi	s0,sp,128
    17d0:	0305                	addi	t1,t1,1
    17d2:	00090103          	lb	sp,0(s2)
    17d6:	0100                	addi	s0,sp,128
    17d8:	0d05                	addi	s10,s10,1
    17da:	04090403          	lb	s0,64(s2)
    17de:	0100                	addi	s0,sp,128
    17e0:	0104                	addi	s1,sp,128
    17e2:	1c05                	addi	s8,s8,-31
    17e4:	04096c03          	.4byte	0x4096c03
    17e8:	0100                	addi	s0,sp,128
    17ea:	0c05                	addi	s8,s8,1
    17ec:	0306                	slli	t1,t1,0x1
    17ee:	0900                	addi	s0,sp,144
    17f0:	0000                	unimp
    17f2:	0501                	addi	a0,a0,0
    17f4:	031c                	addi	a5,sp,384
    17f6:	0900                	addi	s0,sp,144
    17f8:	0004                	.2byte	0x4
    17fa:	0501                	addi	a0,a0,0
    17fc:	0612                	slli	a2,a2,0x4
    17fe:	02090003          	lb	zero,32(s2)
    1802:	0100                	addi	s0,sp,128
    1804:	0505                	addi	a0,a0,1
    1806:	04091903          	lh	s2,64(s2)
    180a:	0100                	addi	s0,sp,128
    180c:	00090103          	lb	sp,0(s2)
    1810:	0100                	addi	s0,sp,128
    1812:	0705                	addi	a4,a4,1
    1814:	0306                	slli	t1,t1,0x1
    1816:	0900                	addi	s0,sp,144
    1818:	0000                	unimp
    181a:	0501                	addi	a0,a0,0
    181c:	0328                	addi	a0,sp,392
    181e:	0902                	c.slli64	s2
    1820:	0002                	c.slli64	zero
    1822:	0501                	addi	a0,a0,0
    1824:	097e0307          	.4byte	0x97e0307
    1828:	0004                	.2byte	0x4
    182a:	0501                	addi	a0,a0,0
    182c:	0605                	addi	a2,a2,1
    182e:	04090103          	lb	sp,64(s2)
    1832:	0100                	addi	s0,sp,128
    1834:	00090103          	lb	sp,0(s2)
    1838:	0100                	addi	s0,sp,128
    183a:	0a05                	addi	s4,s4,1
    183c:	00090003          	lb	zero,0(s2)
    1840:	0100                	addi	s0,sp,128
    1842:	1705                	addi	a4,a4,-31
    1844:	00090003          	lb	zero,0(s2)
    1848:	0100                	addi	s0,sp,128
    184a:	2305                	jal	1d6a <_prog_start-0x7fffe296>
    184c:	00090003          	lb	zero,0(s2)
    1850:	0100                	addi	s0,sp,128
    1852:	1f05                	addi	t5,t5,-31
    1854:	00090003          	lb	zero,0(s2)
    1858:	0100                	addi	s0,sp,128
    185a:	1705                	addi	a4,a4,-31
    185c:	00090003          	lb	zero,0(s2)
    1860:	0100                	addi	s0,sp,128
    1862:	2305                	jal	1d82 <_prog_start-0x7fffe27e>
    1864:	00090003          	lb	zero,0(s2)
    1868:	0100                	addi	s0,sp,128
    186a:	1f05                	addi	t5,t5,-31
    186c:	00090003          	lb	zero,0(s2)
    1870:	0100                	addi	s0,sp,128
    1872:	1705                	addi	a4,a4,-31
    1874:	00090003          	lb	zero,0(s2)
    1878:	0100                	addi	s0,sp,128
    187a:	2305                	jal	1d9a <_prog_start-0x7fffe266>
    187c:	00090003          	lb	zero,0(s2)
    1880:	0100                	addi	s0,sp,128
    1882:	0705                	addi	a4,a4,1
    1884:	0306                	slli	t1,t1,0x1
    1886:	097e                	slli	s2,s2,0x1f
    1888:	0000                	unimp
    188a:	0501                	addi	a0,a0,0
    188c:	0328                	addi	a0,sp,392
    188e:	0902                	c.slli64	s2
    1890:	0004                	.2byte	0x4
    1892:	0501                	addi	a0,a0,0
    1894:	061f 0003 0209      	.byte	0x1f, 0x06, 0x03, 0x00, 0x09, 0x02
    189a:	0100                	addi	s0,sp,128
    189c:	1705                	addi	a4,a4,-31
    189e:	00090003          	lb	zero,0(s2)
    18a2:	0100                	addi	s0,sp,128
    18a4:	2305                	jal	1dc4 <_prog_start-0x7fffe23c>
    18a6:	00090003          	lb	zero,0(s2)
    18aa:	0100                	addi	s0,sp,128
    18ac:	2805                	jal	18dc <_prog_start-0x7fffe724>
    18ae:	0306                	slli	t1,t1,0x1
    18b0:	0900                	addi	s0,sp,144
    18b2:	0000                	unimp
    18b4:	0501                	addi	a0,a0,0
    18b6:	061f 0003 0209      	.byte	0x1f, 0x06, 0x03, 0x00, 0x09, 0x02
    18bc:	0100                	addi	s0,sp,128
    18be:	1705                	addi	a4,a4,-31
    18c0:	00090003          	lb	zero,0(s2)
    18c4:	0100                	addi	s0,sp,128
    18c6:	2305                	jal	1de6 <_prog_start-0x7fffe21a>
    18c8:	00090003          	lb	zero,0(s2)
    18cc:	0100                	addi	s0,sp,128
    18ce:	2805                	jal	18fe <_prog_start-0x7fffe702>
    18d0:	0306                	slli	t1,t1,0x1
    18d2:	0900                	addi	s0,sp,144
    18d4:	0000                	unimp
    18d6:	0501                	addi	a0,a0,0
    18d8:	061f 0003 0209      	.byte	0x1f, 0x06, 0x03, 0x00, 0x09, 0x02
    18de:	0100                	addi	s0,sp,128
    18e0:	1705                	addi	a4,a4,-31
    18e2:	00090003          	lb	zero,0(s2)
    18e6:	0100                	addi	s0,sp,128
    18e8:	2305                	jal	1e08 <_prog_start-0x7fffe1f8>
    18ea:	00090003          	lb	zero,0(s2)
    18ee:	0100                	addi	s0,sp,128
    18f0:	2805                	jal	1920 <_prog_start-0x7fffe6e0>
    18f2:	0306                	slli	t1,t1,0x1
    18f4:	0900                	addi	s0,sp,144
    18f6:	0000                	unimp
    18f8:	0501                	addi	a0,a0,0
    18fa:	061f 0003 0209      	.byte	0x1f, 0x06, 0x03, 0x00, 0x09, 0x02
    1900:	0100                	addi	s0,sp,128
    1902:	1705                	addi	a4,a4,-31
    1904:	00090003          	lb	zero,0(s2)
    1908:	0100                	addi	s0,sp,128
    190a:	2305                	jal	1e2a <_prog_start-0x7fffe1d6>
    190c:	00090003          	lb	zero,0(s2)
    1910:	0100                	addi	s0,sp,128
    1912:	2805                	jal	1942 <_prog_start-0x7fffe6be>
    1914:	0306                	slli	t1,t1,0x1
    1916:	0900                	addi	s0,sp,144
    1918:	0000                	unimp
    191a:	0501                	addi	a0,a0,0
    191c:	061f 0003 0209      	.byte	0x1f, 0x06, 0x03, 0x00, 0x09, 0x02
    1922:	0100                	addi	s0,sp,128
    1924:	1705                	addi	a4,a4,-31
    1926:	00090003          	lb	zero,0(s2)
    192a:	0100                	addi	s0,sp,128
    192c:	2305                	jal	1e4c <_prog_start-0x7fffe1b4>
    192e:	00090003          	lb	zero,0(s2)
    1932:	0100                	addi	s0,sp,128
    1934:	2805                	jal	1964 <_prog_start-0x7fffe69c>
    1936:	0306                	slli	t1,t1,0x1
    1938:	0900                	addi	s0,sp,144
    193a:	0000                	unimp
    193c:	0501                	addi	a0,a0,0
    193e:	061f 0003 0209      	.byte	0x1f, 0x06, 0x03, 0x00, 0x09, 0x02
    1944:	0100                	addi	s0,sp,128
    1946:	1705                	addi	a4,a4,-31
    1948:	00090003          	lb	zero,0(s2)
    194c:	0100                	addi	s0,sp,128
    194e:	2305                	jal	1e6e <_prog_start-0x7fffe192>
    1950:	00090003          	lb	zero,0(s2)
    1954:	0100                	addi	s0,sp,128
    1956:	2805                	jal	1986 <_prog_start-0x7fffe67a>
    1958:	0306                	slli	t1,t1,0x1
    195a:	0900                	addi	s0,sp,144
    195c:	0000                	unimp
    195e:	0501                	addi	a0,a0,0
    1960:	061f 0003 0209      	.byte	0x1f, 0x06, 0x03, 0x00, 0x09, 0x02
    1966:	0100                	addi	s0,sp,128
    1968:	1705                	addi	a4,a4,-31
    196a:	00090003          	lb	zero,0(s2)
    196e:	0100                	addi	s0,sp,128
    1970:	2305                	jal	1e90 <_prog_start-0x7fffe170>
    1972:	00090003          	lb	zero,0(s2)
    1976:	0100                	addi	s0,sp,128
    1978:	2805                	jal	19a8 <_prog_start-0x7fffe658>
    197a:	0306                	slli	t1,t1,0x1
    197c:	0900                	addi	s0,sp,144
    197e:	0000                	unimp
    1980:	0501                	addi	a0,a0,0
    1982:	061f 0003 0209      	.byte	0x1f, 0x06, 0x03, 0x00, 0x09, 0x02
    1988:	0100                	addi	s0,sp,128
    198a:	1705                	addi	a4,a4,-31
    198c:	00090003          	lb	zero,0(s2)
    1990:	0100                	addi	s0,sp,128
    1992:	2305                	jal	1eb2 <_prog_start-0x7fffe14e>
    1994:	00090003          	lb	zero,0(s2)
    1998:	0100                	addi	s0,sp,128
    199a:	2805                	jal	19ca <_prog_start-0x7fffe636>
    199c:	0306                	slli	t1,t1,0x1
    199e:	0900                	addi	s0,sp,144
    19a0:	0000                	unimp
    19a2:	0501                	addi	a0,a0,0
    19a4:	061f 0003 0209      	.byte	0x1f, 0x06, 0x03, 0x00, 0x09, 0x02
    19aa:	0100                	addi	s0,sp,128
    19ac:	1705                	addi	a4,a4,-31
    19ae:	00090003          	lb	zero,0(s2)
    19b2:	0100                	addi	s0,sp,128
    19b4:	2305                	jal	1ed4 <_prog_start-0x7fffe12c>
    19b6:	00090003          	lb	zero,0(s2)
    19ba:	0100                	addi	s0,sp,128
    19bc:	2805                	jal	19ec <_prog_start-0x7fffe614>
    19be:	0306                	slli	t1,t1,0x1
    19c0:	0900                	addi	s0,sp,144
    19c2:	0000                	unimp
    19c4:	0501                	addi	a0,a0,0
    19c6:	061f 0003 0209      	.byte	0x1f, 0x06, 0x03, 0x00, 0x09, 0x02
    19cc:	0100                	addi	s0,sp,128
    19ce:	1705                	addi	a4,a4,-31
    19d0:	00090003          	lb	zero,0(s2)
    19d4:	0100                	addi	s0,sp,128
    19d6:	2305                	jal	1ef6 <_prog_start-0x7fffe10a>
    19d8:	00090003          	lb	zero,0(s2)
    19dc:	0100                	addi	s0,sp,128
    19de:	2805                	jal	1a0e <_prog_start-0x7fffe5f2>
    19e0:	0306                	slli	t1,t1,0x1
    19e2:	0900                	addi	s0,sp,144
    19e4:	0000                	unimp
    19e6:	0501                	addi	a0,a0,0
    19e8:	061f 0003 0209      	.byte	0x1f, 0x06, 0x03, 0x00, 0x09, 0x02
    19ee:	0100                	addi	s0,sp,128
    19f0:	1705                	addi	a4,a4,-31
    19f2:	00090003          	lb	zero,0(s2)
    19f6:	0100                	addi	s0,sp,128
    19f8:	2305                	jal	1f18 <_prog_start-0x7fffe0e8>
    19fa:	00090003          	lb	zero,0(s2)
    19fe:	0100                	addi	s0,sp,128
    1a00:	2805                	jal	1a30 <_prog_start-0x7fffe5d0>
    1a02:	0306                	slli	t1,t1,0x1
    1a04:	0900                	addi	s0,sp,144
    1a06:	0000                	unimp
    1a08:	0501                	addi	a0,a0,0
    1a0a:	061f 0003 0209      	.byte	0x1f, 0x06, 0x03, 0x00, 0x09, 0x02
    1a10:	0100                	addi	s0,sp,128
    1a12:	1705                	addi	a4,a4,-31
    1a14:	00090003          	lb	zero,0(s2)
    1a18:	0100                	addi	s0,sp,128
    1a1a:	2305                	jal	1f3a <_prog_start-0x7fffe0c6>
    1a1c:	00090003          	lb	zero,0(s2)
    1a20:	0100                	addi	s0,sp,128
    1a22:	2805                	jal	1a52 <_prog_start-0x7fffe5ae>
    1a24:	0306                	slli	t1,t1,0x1
    1a26:	0900                	addi	s0,sp,144
    1a28:	0000                	unimp
    1a2a:	0501                	addi	a0,a0,0
    1a2c:	061f 0003 0209      	.byte	0x1f, 0x06, 0x03, 0x00, 0x09, 0x02
    1a32:	0100                	addi	s0,sp,128
    1a34:	1705                	addi	a4,a4,-31
    1a36:	00090003          	lb	zero,0(s2)
    1a3a:	0100                	addi	s0,sp,128
    1a3c:	2305                	jal	1f5c <_prog_start-0x7fffe0a4>
    1a3e:	00090003          	lb	zero,0(s2)
    1a42:	0100                	addi	s0,sp,128
    1a44:	2805                	jal	1a74 <_prog_start-0x7fffe58c>
    1a46:	0306                	slli	t1,t1,0x1
    1a48:	0900                	addi	s0,sp,144
    1a4a:	0000                	unimp
    1a4c:	0501                	addi	a0,a0,0
    1a4e:	061f 0003 0209      	.byte	0x1f, 0x06, 0x03, 0x00, 0x09, 0x02
    1a54:	0100                	addi	s0,sp,128
    1a56:	1705                	addi	a4,a4,-31
    1a58:	00090003          	lb	zero,0(s2)
    1a5c:	0100                	addi	s0,sp,128
    1a5e:	0505                	addi	a0,a0,1
    1a60:	00090103          	lb	sp,0(s2)
    1a64:	0100                	addi	s0,sp,128
    1a66:	0805                	addi	a6,a6,1
    1a68:	0306                	slli	t1,t1,0x1
    1a6a:	0900                	addi	s0,sp,144
    1a6c:	0000                	unimp
    1a6e:	0401                	addi	s0,s0,0
    1a70:	0502                	c.slli64	a0
    1a72:	09730303          	lb	t1,151(t1)
    1a76:	0004                	.2byte	0x4
    1a78:	0501                	addi	a0,a0,0
    1a7a:	0602                	c.slli64	a2
    1a7c:	08097e03          	.4byte	0x8097e03
    1a80:	0100                	addi	s0,sp,128
    1a82:	00090103          	lb	sp,0(s2)
    1a86:	0100                	addi	s0,sp,128
    1a88:	0305                	addi	t1,t1,1
    1a8a:	00090103          	lb	sp,0(s2)
    1a8e:	0100                	addi	s0,sp,128
    1a90:	0d05                	addi	s10,s10,1
    1a92:	04090403          	lb	s0,64(s2)
    1a96:	0100                	addi	s0,sp,128
    1a98:	0104                	addi	s1,sp,128
    1a9a:	0505                	addi	a0,a0,1
    1a9c:	0200                	addi	s0,sp,256
    1a9e:	0104                	addi	s1,sp,128
    1aa0:	06091503          	lh	a0,96(s2)
    1aa4:	0100                	addi	s0,sp,128
    1aa6:	0200                	addi	s0,sp,256
    1aa8:	0104                	addi	s1,sp,128
    1aaa:	00090103          	lb	sp,0(s2)
    1aae:	0100                	addi	s0,sp,128
    1ab0:	0d05                	addi	s10,s10,1
    1ab2:	0200                	addi	s0,sp,256
    1ab4:	0104                	addi	s1,sp,128
    1ab6:	0306                	slli	t1,t1,0x1
    1ab8:	097f                	.2byte	0x97f
    1aba:	0000                	unimp
    1abc:	0501                	addi	a0,a0,0
    1abe:	060a                	slli	a2,a2,0x2
    1ac0:	04091d03          	lh	s10,64(s2)
    1ac4:	0100                	addi	s0,sp,128
    1ac6:	0d05                	addi	s10,s10,1
    1ac8:	0306                	slli	t1,t1,0x1
    1aca:	0900                	addi	s0,sp,144
    1acc:	0000                	unimp
    1ace:	0501                	addi	a0,a0,0
    1ad0:	030e                	slli	t1,t1,0x3
    1ad2:	0901                	addi	s2,s2,0
    1ad4:	0004                	.2byte	0x4
    1ad6:	0401                	addi	s0,s0,0
    1ad8:	0502                	c.slli64	a0
    1ada:	0602                	c.slli64	a2
    1adc:	04094703          	lbu	a4,64(s2)
    1ae0:	0100                	addi	s0,sp,128
    1ae2:	00090103          	lb	sp,0(s2)
    1ae6:	0100                	addi	s0,sp,128
    1ae8:	0305                	addi	t1,t1,1
    1aea:	00090103          	lb	sp,0(s2)
    1aee:	0100                	addi	s0,sp,128
    1af0:	0d05                	addi	s10,s10,1
    1af2:	04090403          	lb	s0,64(s2)
    1af6:	0100                	addi	s0,sp,128
    1af8:	0205                	addi	tp,tp,1 # 1 <_prog_start-0x7fffffff>
    1afa:	04097a03          	.4byte	0x4097a03
    1afe:	0100                	addi	s0,sp,128
    1b00:	00090103          	lb	sp,0(s2)
    1b04:	0100                	addi	s0,sp,128
    1b06:	0305                	addi	t1,t1,1
    1b08:	00090103          	lb	sp,0(s2)
    1b0c:	0100                	addi	s0,sp,128
    1b0e:	0d05                	addi	s10,s10,1
    1b10:	04090403          	lb	s0,64(s2)
    1b14:	0100                	addi	s0,sp,128
    1b16:	0104                	addi	s1,sp,128
    1b18:	1505                	addi	a0,a0,-31
    1b1a:	0306                	slli	t1,t1,0x1
    1b1c:	0008090f          	.4byte	0x8090f
    1b20:	0501                	addi	a0,a0,0
    1b22:	030d                	addi	t1,t1,3
    1b24:	097e                	slli	s2,s2,0x1f
    1b26:	0002                	c.slli64	zero
    1b28:	0501                	addi	a0,a0,0
    1b2a:	0619                	addi	a2,a2,6
    1b2c:	02090103          	lb	sp,32(s2)
    1b30:	0100                	addi	s0,sp,128
    1b32:	2305                	jal	2052 <_prog_start-0x7fffdfae>
    1b34:	0200                	addi	s0,sp,256
    1b36:	0304                	addi	s1,sp,384
    1b38:	04090003          	lb	zero,64(s2)
    1b3c:	0100                	addi	s0,sp,128
    1b3e:	2805                	jal	1b6e <_prog_start-0x7fffe492>
    1b40:	0200                	addi	s0,sp,256
    1b42:	0304                	addi	s1,sp,384
    1b44:	0306                	slli	t1,t1,0x1
    1b46:	0900                	addi	s0,sp,144
    1b48:	0000                	unimp
    1b4a:	0501                	addi	a0,a0,0
    1b4c:	0019                	c.nop	6
    1b4e:	0402                	c.slli64	s0
    1b50:	09000303          	lb	t1,144(zero) # 90 <_prog_start-0x7fffff70>
    1b54:	0006                	c.slli	zero,0x1
    1b56:	0501                	addi	a0,a0,0
    1b58:	0028                	addi	a0,sp,8
    1b5a:	0402                	c.slli64	s0
    1b5c:	09000303          	lb	t1,144(zero) # 90 <_prog_start-0x7fffff70>
    1b60:	0002                	c.slli64	zero
    1b62:	0501                	addi	a0,a0,0
    1b64:	001f 0402 0603      	.byte	0x1f, 0x00, 0x02, 0x04, 0x03, 0x06
    1b6a:	04090003          	lb	zero,64(s2)
    1b6e:	0100                	addi	s0,sp,128
    1b70:	1905                	addi	s2,s2,-31
    1b72:	0200                	addi	s0,sp,256
    1b74:	0304                	addi	s1,sp,384
    1b76:	00090003          	lb	zero,0(s2)
    1b7a:	0100                	addi	s0,sp,128
    1b7c:	0605                	addi	a2,a2,1
    1b7e:	04090103          	lb	sp,64(s2)
    1b82:	0100                	addi	s0,sp,128
    1b84:	1505                	addi	a0,a0,-31
    1b86:	0306                	slli	t1,t1,0x1
    1b88:	0900                	addi	s0,sp,144
    1b8a:	0000                	unimp
    1b8c:	0501                	addi	a0,a0,0
    1b8e:	0311                	addi	t1,t1,4
    1b90:	0900                	addi	s0,sp,144
    1b92:	0004                	.2byte	0x4
    1b94:	0501                	addi	a0,a0,0
    1b96:	0900030b          	.4byte	0x900030b
    1b9a:	0004                	.2byte	0x4
    1b9c:	0501                	addi	a0,a0,0
    1b9e:	0606                	slli	a2,a2,0x1
    1ba0:	04090103          	lb	sp,64(s2)
    1ba4:	0100                	addi	s0,sp,128
    1ba6:	0805                	addi	a6,a6,1
    1ba8:	0306                	slli	t1,t1,0x1
    1baa:	0900                	addi	s0,sp,144
    1bac:	0000                	unimp
    1bae:	0501                	addi	a0,a0,0
    1bb0:	060d                	addi	a2,a2,3
    1bb2:	04097d03          	.4byte	0x4097d03
    1bb6:	0100                	addi	s0,sp,128
    1bb8:	0805                	addi	a6,a6,1
    1bba:	0306                	slli	t1,t1,0x1
    1bbc:	00040903          	lb	s2,0(s0)
    1bc0:	0401                	addi	s0,s0,0
    1bc2:	0502                	c.slli64	a0
    1bc4:	096c0303          	lb	t1,150(s8)
    1bc8:	0008                	.2byte	0x8
    1bca:	0501                	addi	a0,a0,0
    1bcc:	0602                	c.slli64	a2
    1bce:	04097e03          	.4byte	0x4097e03
    1bd2:	0100                	addi	s0,sp,128
    1bd4:	00090103          	lb	sp,0(s2)
    1bd8:	0100                	addi	s0,sp,128
    1bda:	0305                	addi	t1,t1,1
    1bdc:	00090103          	lb	sp,0(s2)
    1be0:	0100                	addi	s0,sp,128
    1be2:	0d05                	addi	s10,s10,1
    1be4:	04090403          	lb	s0,64(s2)
    1be8:	0100                	addi	s0,sp,128
    1bea:	0104                	addi	s1,sp,128
    1bec:	2105                	jal	200c <_prog_start-0x7fffdff4>
    1bee:	0200                	addi	s0,sp,256
    1bf0:	0304                	addi	s1,sp,384
    1bf2:	04091203          	lh	tp,64(s2)
    1bf6:	0100                	addi	s0,sp,128
    1bf8:	1a05                	addi	s4,s4,-31
    1bfa:	0200                	addi	s0,sp,256
    1bfc:	0304                	addi	s1,sp,384
    1bfe:	00090003          	lb	zero,0(s2)
    1c02:	0100                	addi	s0,sp,128
    1c04:	1605                	addi	a2,a2,-31
    1c06:	0200                	addi	s0,sp,256
    1c08:	0304                	addi	s1,sp,384
    1c0a:	0306                	slli	t1,t1,0x1
    1c0c:	0900                	addi	s0,sp,144
    1c0e:	0000                	unimp
    1c10:	0501                	addi	a0,a0,0
    1c12:	001a                	c.slli	zero,0x6
    1c14:	0402                	c.slli64	s0
    1c16:	09000303          	lb	t1,144(zero) # 90 <_prog_start-0x7fffff70>
    1c1a:	0004                	.2byte	0x4
    1c1c:	0901                	addi	s2,s2,0
    1c1e:	0006                	c.slli	zero,0x1
    1c20:	0100                	addi	s0,sp,128
    1c22:	01              	Address 0x0000000000001c22 is out of bounds.


Disassembly of section .debug_line_str:

00000000 <.debug_line_str>:
   0:	6d6f682f          	.4byte	0x6d6f682f
   4:	2f65                	jal	7bc <_prog_start-0x7ffff844>
   6:	6962                	.2byte	0x6962
   8:	686e                	.2byte	0x686e
   a:	7565696b          	.4byte	0x7565696b
   e:	6f64                	.2byte	0x6f64
  10:	726f572f          	.4byte	0x726f572f
  14:	6170736b          	.4byte	0x6170736b
  18:	522f6563          	bltu	t5,sp,542 <_prog_start-0x7ffffabe>
  1c:	5349                	li	t1,-14
  1e:	2f562d43          	.4byte	0x2f562d43
  22:	654e                	.2byte	0x654e
  24:	61724677          	.4byte	0x61724677
  28:	656d                	lui	a0,0x1b
  2a:	6b726f77          	.4byte	0x6b726f77
  2e:	6172662f          	.4byte	0x6172662f
  32:	656d                	lui	a0,0x1b
  34:	6b726f77          	.4byte	0x6b726f77
  38:	2f77732f          	.4byte	0x2f77732f
  3c:	616d                	addi	sp,sp,240
  3e:	7274                	.2byte	0x7274
  40:	7869                	lui	a6,0xffffa
  42:	6d5f 6c75 6300      	.byte	0x5f, 0x6d, 0x75, 0x6c, 0x00, 0x63
  48:	7472                	.2byte	0x7472
  4a:	2e30                	.2byte	0x2e30
  4c:	616d0053          	.4byte	0x616d0053
  50:	6e69                	lui	t3,0x1a
  52:	632e                	.2byte	0x632e
  54:	2f00                	.2byte	0x2f00
  56:	6f68                	.2byte	0x6f68
  58:	656d                	lui	a0,0x1b
  5a:	6e69622f          	.4byte	0x6e69622f
  5e:	6b68                	.2byte	0x6b68
  60:	6569                	lui	a0,0x1a
  62:	6475                	lui	s0,0x1d
  64:	6f572f6f          	jal	t5,72f58 <_prog_start-0x7ff8d0a8>
  68:	6b72                	.2byte	0x6b72
  6a:	63617073          	csrci	0x636,2
  6e:	2f65                	jal	826 <_prog_start-0x7ffff7da>
  70:	4952                	lw	s2,20(sp)
  72:	562d4353          	.4byte	0x562d4353
  76:	77654e2f          	.4byte	0x77654e2f
  7a:	7246                	.2byte	0x7246
  7c:	6d61                	lui	s10,0x18
  7e:	7765                	lui	a4,0xffff9
  80:	2f6b726f          	jal	tp,b7376 <_prog_start-0x7ff48c8a>
  84:	632e                	.2byte	0x632e
  86:	61646e6f          	jal	t3,4669c <_prog_start-0x7ffb9964>
  8a:	652d                	lui	a0,0xb
  8c:	766e                	.2byte	0x766e
  8e:	7369722f          	.4byte	0x7369722f
  92:	742d7663          	bgeu	s10,sp,7de <_prog_start-0x7ffff822>
  96:	736c6f6f          	jal	t5,c67cc <_prog_start-0x7ff39834>
  9a:	7369722f          	.4byte	0x7369722f
  9e:	34367663          	bgeu	a2,gp,3ea <_prog_start-0x7ffffc16>
  a2:	752d                	lui	a0,0xfffeb
  a4:	6b6e                	.2byte	0x6b6e
  a6:	6f6e                	.2byte	0x6f6e
  a8:	652d6e77          	.4byte	0x652d6e77
  ac:	666c                	.2byte	0x666c
  ae:	636e692f          	.4byte	0x636e692f
  b2:	756c                	.2byte	0x756c
  b4:	6564                	.2byte	0x6564
  b6:	63616d2f          	.4byte	0x63616d2f
  ba:	6968                	.2byte	0x6968
  bc:	656e                	.2byte	0x656e
  be:	2f00                	.2byte	0x2f00
  c0:	6f68                	.2byte	0x6f68
  c2:	656d                	lui	a0,0x1b
  c4:	6e69622f          	.4byte	0x6e69622f
  c8:	6b68                	.2byte	0x6b68
  ca:	6569                	lui	a0,0x1a
  cc:	6475                	lui	s0,0x1d
  ce:	6f572f6f          	jal	t5,72fc2 <_prog_start-0x7ff8d03e>
  d2:	6b72                	.2byte	0x6b72
  d4:	63617073          	csrci	0x636,2
  d8:	2f65                	jal	890 <_prog_start-0x7ffff770>
  da:	4952                	lw	s2,20(sp)
  dc:	562d4353          	.4byte	0x562d4353
  e0:	77654e2f          	.4byte	0x77654e2f
  e4:	7246                	.2byte	0x7246
  e6:	6d61                	lui	s10,0x18
  e8:	7765                	lui	a4,0xffff9
  ea:	2f6b726f          	jal	tp,b73e0 <_prog_start-0x7ff48c20>
  ee:	632e                	.2byte	0x632e
  f0:	61646e6f          	jal	t3,46706 <_prog_start-0x7ffb98fa>
  f4:	652d                	lui	a0,0xb
  f6:	766e                	.2byte	0x766e
  f8:	7369722f          	.4byte	0x7369722f
  fc:	742d7663          	bgeu	s10,sp,848 <_prog_start-0x7ffff7b8>
 100:	736c6f6f          	jal	t5,c6836 <_prog_start-0x7ff397ca>
 104:	7369722f          	.4byte	0x7369722f
 108:	34367663          	bgeu	a2,gp,454 <_prog_start-0x7ffffbac>
 10c:	752d                	lui	a0,0xfffeb
 10e:	6b6e                	.2byte	0x6b6e
 110:	6f6e                	.2byte	0x6f6e
 112:	652d6e77          	.4byte	0x652d6e77
 116:	666c                	.2byte	0x666c
 118:	636e692f          	.4byte	0x636e692f
 11c:	756c                	.2byte	0x756c
 11e:	6564                	.2byte	0x6564
 120:	7379732f          	.4byte	0x7379732f
 124:	5f00                	lw	s0,56(a4)
 126:	6564                	.2byte	0x6564
 128:	6166                	.2byte	0x6166
 12a:	6c75                	lui	s8,0x1d
 12c:	5f74                	lw	a3,124(a4)
 12e:	7974                	.2byte	0x7974
 130:	6570                	.2byte	0x6570
 132:	00682e73          	csrrs	t3,0x6,a6
 136:	735f 6474 6e69      	.byte	0x5f, 0x73, 0x74, 0x64, 0x69, 0x6e
 13c:	2e74                	.2byte	0x2e74
 13e:	0068                	addi	a0,sp,12
 140:	6972706b          	.4byte	0x6972706b
 144:	746e                	.2byte	0x746e
 146:	2e66                	.2byte	0x2e66
 148:	0068                	addi	a0,sp,12
 14a:	6972706b          	.4byte	0x6972706b
 14e:	746e                	.2byte	0x746e
 150:	2e66                	.2byte	0x2e66
 152:	682f0063          	beq	t5,sp,7d2 <_prog_start-0x7ffff82e>
 156:	2f656d6f          	jal	s10,5644c <_prog_start-0x7ffa9bb4>
 15a:	6962                	.2byte	0x6962
 15c:	686e                	.2byte	0x686e
 15e:	7565696b          	.4byte	0x7565696b
 162:	6f64                	.2byte	0x6f64
 164:	726f572f          	.4byte	0x726f572f
 168:	6170736b          	.4byte	0x6170736b
 16c:	522f6563          	bltu	t5,sp,696 <_prog_start-0x7ffff96a>
 170:	5349                	li	t1,-14
 172:	2f562d43          	.4byte	0x2f562d43
 176:	654e                	.2byte	0x654e
 178:	61724677          	.4byte	0x61724677
 17c:	656d                	lui	a0,0x1b
 17e:	6b726f77          	.4byte	0x6b726f77
 182:	6f632e2f          	.4byte	0x6f632e2f
 186:	646e                	.2byte	0x646e
 188:	2d61                	jal	820 <_prog_start-0x7ffff7e0>
 18a:	6e65                	lui	t3,0x19
 18c:	2f76                	.2byte	0x2f76
 18e:	6972                	.2byte	0x6972
 190:	2d766373          	csrrsi	t1,0x2d7,12
 194:	6f74                	.2byte	0x6f74
 196:	2f736c6f          	jal	s8,36c8c <_prog_start-0x7ffc9374>
 19a:	696c                	.2byte	0x696c
 19c:	2f62                	.2byte	0x2f62
 19e:	2f636367          	.4byte	0x2f636367
 1a2:	6972                	.2byte	0x6972
 1a4:	36766373          	csrrsi	t1,0x367,12
 1a8:	2d34                	.2byte	0x2d34
 1aa:	6e75                	lui	t3,0x1d
 1ac:	776f6e6b          	.4byte	0x776f6e6b
 1b0:	2d6e                	.2byte	0x2d6e
 1b2:	6c65                	lui	s8,0x19
 1b4:	2f66                	.2byte	0x2f66
 1b6:	3231                	jal	fffffac2 <a+0x7ffff0d6>
 1b8:	322e                	.2byte	0x322e
 1ba:	302e                	.2byte	0x302e
 1bc:	636e692f          	.4byte	0x636e692f
 1c0:	756c                	.2byte	0x756c
 1c2:	6564                	.2byte	0x6564
 1c4:	7300                	.2byte	0x7300
 1c6:	6474                	.2byte	0x6474
 1c8:	7261                	lui	tp,0xffff8
 1ca:	00682e67          	.4byte	0x682e67

Disassembly of section .debug_info:

00000000 <.debug_info>:
   0:	0021                	c.nop	8
   2:	0000                	unimp
   4:	0005                	c.nop	1
   6:	0401                	addi	s0,s0,0 # 1d000 <_prog_start-0x7ffe3000>
   8:	0000                	unimp
   a:	0000                	unimp
   c:	0001                	nop
   e:	0000                	unimp
  10:	0000                	unimp
  12:	0000                	unimp
  14:	d080                	sw	s0,32(s1)
  16:	00000003          	lb	zero,0(zero) # 0 <_prog_start-0x80000000>
  1a:	0700                	addi	s0,sp,896
  1c:	0000                	unimp
  1e:	4e00                	lw	s0,24(a2)
  20:	0000                	unimp
  22:	0100                	addi	s0,sp,128
  24:	e080                	.2byte	0xe080
  26:	0006                	c.slli	zero,0x1
  28:	0500                	addi	s0,sp,640
  2a:	0100                	addi	s0,sp,128
  2c:	1404                	addi	s1,sp,544
  2e:	0000                	unimp
  30:	1500                	addi	s0,sp,672
  32:	00b5                	addi	ra,ra,13
  34:	0000                	unimp
  36:	4e1d                	li	t3,7
  38:	0000                	unimp
  3a:	0000                	unimp
  3c:	0000                	unimp
  3e:	ca00                	sw	s0,16(a2)
  40:	0000                	unimp
  42:	0000                	unimp
  44:	0000                	unimp
  46:	5c00                	lw	s0,56(s0)
  48:	0002                	c.slli64	zero
  4a:	0400                	addi	s0,sp,512
  4c:	0601                	addi	a2,a2,0
  4e:	0000017b          	.4byte	0x17b
  52:	0001510b          	.4byte	0x1510b
  56:	0200                	addi	s0,sp,256
  58:	0039182b          	.4byte	0x39182b
  5c:	0000                	unimp
  5e:	0104                	addi	s1,sp,128
  60:	7908                	.2byte	0x7908
  62:	0001                	nop
  64:	0400                	addi	s0,sp,512
  66:	0502                	c.slli64	a0
  68:	0069                	c.nop	26
  6a:	0000                	unimp
  6c:	0204                	addi	s1,sp,256
  6e:	0001b207          	.4byte	0x1b207
  72:	0400                	addi	s0,sp,512
  74:	0504                	addi	s1,sp,640
  76:	0140                	addi	s0,sp,132
  78:	0000                	unimp
  7a:	0000860b          	.4byte	0x860b
  7e:	0200                	addi	s0,sp,256
  80:	0061194f          	.4byte	0x61194f
  84:	0000                	unimp
  86:	0404                	addi	s1,sp,512
  88:	0001a007          	.4byte	0x1a007
  8c:	0400                	addi	s0,sp,512
  8e:	0508                	addi	a0,sp,640
  90:	0000013b          	.4byte	0x13b
  94:	0804                	addi	s1,sp,16
  96:	00019b07          	.4byte	0x19b07
  9a:	1600                	addi	s0,sp,800
  9c:	0504                	addi	s1,sp,640
  9e:	6e69                	lui	t3,0x1a
  a0:	0074                	addi	a3,sp,12
  a2:	0404                	addi	s1,sp,512
  a4:	0001a507          	.4byte	0x1a507
  a8:	0b00                	addi	s0,sp,400
  aa:	00000153          	.4byte	0x153
  ae:	2d131803          	lh	a6,721(t1)
  b2:	0000                	unimp
  b4:	0b00                	addi	s0,sp,400
  b6:	0088                	addi	a0,sp,64
  b8:	0000                	unimp
  ba:	55143003          	.4byte	0x55143003
  be:	0000                	unimp
  c0:	1700                	addi	s0,sp,928
  c2:	0090                	addi	a2,sp,64
  c4:	0000                	unimp
  c6:	0000910f          	.4byte	0x910f
  ca:	0400                	addi	s0,sp,512
  cc:	0000b513          	sltiu	a0,ra,0
  d0:	0000                	unimp
  d2:	0000                	unimp
  d4:	0a64                	addi	s1,sp,284
  d6:	009c                	addi	a5,sp,64
  d8:	0000                	unimp
  da:	b010                	.2byte	0xb010
  dc:	0000                	unimp
  de:	0f00                	addi	s0,sp,912
  e0:	0000015b          	.4byte	0x15b
  e4:	0701                	addi	a4,a4,0 # ffff9000 <a+0x7fff8614>
  e6:	00b5                	addi	ra,ra,13
  e8:	0000                	unimp
  ea:	0000                	unimp
  ec:	0200                	addi	s0,sp,256
  ee:	0f006103          	.4byte	0xf006103
  f2:	000000d7          	.4byte	0xd7
  f6:	0305                	addi	t1,t1,1
  f8:	09ec                	addi	a1,sp,220
  fa:	8000                	.2byte	0x8000
  fc:	840a                	mv	s0,sp
  fe:	0000                	unimp
 100:	0300                	addi	s0,sp,384
 102:	0062                	c.slli	zero,0x18
 104:	d710                	sw	a2,40(a4)
 106:	0000                	unimp
 108:	0500                	addi	s0,sp,640
 10a:	0009e803          	.4byte	0x9e803
 10e:	0380                	addi	s0,sp,448
 110:	d7110063          	beq	sp,a7,fffff670 <a+0x7fffec84>
 114:	0000                	unimp
 116:	0500                	addi	s0,sp,640
 118:	0009e403          	.4byte	0x9e403
 11c:	0380                	addi	s0,sp,448
 11e:	0064                	addi	s1,sp,12
 120:	d712                	sw	tp,172(sp)
 122:	0000                	unimp
 124:	0500                	addi	s0,sp,640
 126:	0009e003          	.4byte	0x9e003
 12a:	0380                	addi	s0,sp,448
 12c:	6561                	lui	a0,0x18
 12e:	1400                	addi	s0,sp,544
 130:	000000d7          	.4byte	0xd7
 134:	0305                	addi	t1,t1,1
 136:	09dc                	addi	a5,sp,212
 138:	8000                	.2byte	0x8000
 13a:	00676203          	.4byte	0x676203
 13e:	d715                	beqz	a4,6a <_prog_start-0x7fffff96>
 140:	0000                	unimp
 142:	0500                	addi	s0,sp,640
 144:	0009d803          	lhu	a6,0(s3)
 148:	0380                	addi	s0,sp,448
 14a:	16006563          	bltu	zero,zero,2b4 <_prog_start-0x7ffffd4c>
 14e:	000000d7          	.4byte	0xd7
 152:	0305                	addi	t1,t1,1
 154:	09d4                	addi	a3,sp,212
 156:	8000                	.2byte	0x8000
 158:	00676403          	.4byte	0x676403
 15c:	0000d717          	auipc	a4,0xd
 160:	0500                	addi	s0,sp,640
 162:	0009d003          	lhu	zero,0(s3)
 166:	0380                	addi	s0,sp,448
 168:	0065                	c.nop	25
 16a:	d719                	beqz	a4,78 <_prog_start-0x7fffff88>
 16c:	0000                	unimp
 16e:	0500                	addi	s0,sp,640
 170:	0009cc03          	lbu	s8,0(s3)
 174:	0380                	addi	s0,sp,448
 176:	0066                	c.slli	zero,0x19
 178:	d71a                	sw	t1,172(sp)
 17a:	0000                	unimp
 17c:	0500                	addi	s0,sp,640
 17e:	0009c803          	lbu	a6,0(s3)
 182:	0380                	addi	s0,sp,448
 184:	d71b0067          	jr	-655(s6)
 188:	0000                	unimp
 18a:	0500                	addi	s0,sp,640
 18c:	0009c403          	lbu	s0,0(s3)
 190:	0380                	addi	s0,sp,448
 192:	0068                	addi	a0,sp,12
 194:	d71c                	sw	a5,40(a4)
 196:	0000                	unimp
 198:	0500                	addi	s0,sp,640
 19a:	0009c003          	lbu	zero,0(s3)
 19e:	1880                	addi	s0,sp,112
 1a0:	0079                	c.nop	30
 1a2:	0000                	unimp
 1a4:	2704                	.2byte	0x2704
 1a6:	8d0d                	sub	a0,a0,a1
 1a8:	0001                	nop
 1aa:	1900                	addi	s0,sp,176
 1ac:	018d                	addi	gp,gp,3
 1ae:	0000                	unimp
 1b0:	001a                	c.slli	zero,0x6
 1b2:	990a                	add	s2,s2,sp
 1b4:	0001                	nop
 1b6:	0400                	addi	s0,sp,512
 1b8:	0801                	addi	a6,a6,0 # ffffa000 <a+0x7fff9614>
 1ba:	0182                	c.slli64	gp
 1bc:	0000                	unimp
 1be:	9210                	.2byte	0x9210
 1c0:	0001                	nop
 1c2:	1b00                	addi	s0,sp,432
 1c4:	0081                	addi	ra,ra,0
 1c6:	0000                	unimp
 1c8:	8601                	c.srai64	a2
 1ca:	7605                	lui	a2,0xfffe1
 1cc:	0000                	unimp
 1ce:	7a00                	.2byte	0x7a00
 1d0:	0005                	c.nop	1
 1d2:	4480                	lw	s0,8(s1)
 1d4:	0002                	c.slli64	zero
 1d6:	0100                	addi	s0,sp,128
 1d8:	0d9c                	addi	a5,sp,720
 1da:	0004                	.2byte	0x4
 1dc:	1c00                	addi	s0,sp,560
 1de:	0196                	slli	gp,gp,0x5
 1e0:	0000                	unimp
 1e2:	8601                	c.srai64	a2
 1e4:	760e                	.2byte	0x760e
 1e6:	0000                	unimp
 1e8:	0c00                	addi	s0,sp,528
 1ea:	0000                	unimp
 1ec:	1d00                	addi	s0,sp,688
 1ee:	7261                	lui	tp,0xffff8
 1f0:	0076                	c.slli	zero,0x1d
 1f2:	8601                	c.srai64	a2
 1f4:	00040d1b          	.4byte	0x40d1b
 1f8:	2600                	.2byte	0x2600
 1fa:	0000                	unimp
 1fc:	0200                	addi	s0,sp,256
 1fe:	0149                	addi	sp,sp,18
 200:	0000                	unimp
 202:	00900cbb          	.4byte	0x900cbb
 206:	0000                	unimp
 208:	0040                	addi	s0,sp,4
 20a:	0000                	unimp
 20c:	ea02                	.2byte	0xea02
 20e:	0001                	nop
 210:	bb00                	.2byte	0xbb00
 212:	9015                	srli	s0,s0,0x25
 214:	0000                	unimp
 216:	4c00                	lw	s0,24(s0)
 218:	0000                	unimp
 21a:	0200                	addi	s0,sp,256
 21c:	000000af          	.4byte	0xaf
 220:	0cbc                	addi	a5,sp,600
 222:	0090                	addi	a2,sp,64
 224:	0000                	unimp
 226:	0058                	addi	a4,sp,4
 228:	0000                	unimp
 22a:	5a02                	lw	s4,32(sp)
 22c:	0000                	unimp
 22e:	bd00                	.2byte	0xbd00
 230:	900c                	.2byte	0x900c
 232:	0000                	unimp
 234:	7400                	.2byte	0x7400
 236:	0000                	unimp
 238:	0200                	addi	s0,sp,256
 23a:	00000187          	.4byte	0x187
 23e:	1cbd                	addi	s9,s9,-17
 240:	0090                	addi	a2,sp,64
 242:	0000                	unimp
 244:	0080                	addi	s0,sp,64
 246:	0000                	unimp
 248:	d102                	sw	zero,160(sp)
 24a:	0001                	nop
 24c:	bd00                	.2byte	0xbd00
 24e:	902c                	.2byte	0x902c
 250:	0000                	unimp
 252:	8c00                	.2byte	0x8c00
 254:	0000                	unimp
 256:	0200                	addi	s0,sp,256
 258:	0096                	slli	ra,ra,0x5
 25a:	0000                	unimp
 25c:	3abd                	jal	fffffbda <a+0x7ffff1ee>
 25e:	0090                	addi	a2,sp,64
 260:	0000                	unimp
 262:	0098                	addi	a4,sp,64
 264:	0000                	unimp
 266:	de02                	sw	zero,60(sp)
 268:	0001                	nop
 26a:	be00                	.2byte	0xbe00
 26c:	900c                	.2byte	0x900c
 26e:	0000                	unimp
 270:	a400                	.2byte	0xa400
 272:	0000                	unimp
 274:	0900                	addi	s0,sp,144
 276:	059e                	slli	a1,a1,0x7
 278:	8000                	.2byte	0x8000
 27a:	00e2                	slli	ra,ra,0x18
 27c:	0000                	unimp
 27e:	0000026b          	.4byte	0x26b
 282:	6901                	.2byte	0x6901
 284:	c000                	sw	s0,0(s0)
 286:	760c                	.2byte	0x760c
 288:	0000                	unimp
 28a:	bc00                	.2byte	0xbc00
 28c:	0000                	unimp
 28e:	0000                	unimp
 290:	8009                	srli	s0,s0,0x2
 292:	0006                	c.slli	zero,0x1
 294:	0480                	addi	s0,sp,576
 296:	0000                	unimp
 298:	8800                	.2byte	0x8800
 29a:	0002                	c.slli64	zero
 29c:	0200                	addi	s0,sp,256
 29e:	00000073          	ecall
 2a2:	0fd0                	addi	a2,sp,980
 2a4:	0061                	c.nop	24
 2a6:	0000                	unimp
 2a8:	0040                	addi	s0,sp,4
 2aa:	0000                	unimp
 2ac:	0900                	addi	s0,sp,144
 2ae:	0684                	addi	s1,sp,832
 2b0:	8000                	.2byte	0x8000
 2b2:	0004                	.2byte	0x4
 2b4:	0000                	unimp
 2b6:	02a5                	addi	t0,t0,9
 2b8:	0000                	unimp
 2ba:	7302                	.2byte	0x7302
 2bc:	0000                	unimp
 2be:	d100                	sw	s0,32(a0)
 2c0:	6116                	.2byte	0x6116
 2c2:	0000                	unimp
 2c4:	7400                	.2byte	0x7400
 2c6:	0000                	unimp
 2c8:	0000                	unimp
 2ca:	8809                	andi	s0,s0,2
 2cc:	0006                	c.slli	zero,0x1
 2ce:	0480                	addi	s0,sp,576
 2d0:	0000                	unimp
 2d2:	c200                	sw	s0,0(a2)
 2d4:	0002                	c.slli64	zero
 2d6:	0200                	addi	s0,sp,256
 2d8:	00000073          	ecall
 2dc:	16d2                	slli	a3,a3,0x34
 2de:	0061                	c.nop	24
 2e0:	0000                	unimp
 2e2:	0080                	addi	s0,sp,64
 2e4:	0000                	unimp
 2e6:	0900                	addi	s0,sp,144
 2e8:	0708                	addi	a0,sp,896
 2ea:	8000                	.2byte	0x8000
 2ec:	0004                	.2byte	0x4
 2ee:	0000                	unimp
 2f0:	02df 0000 7302      	.byte	0xdf, 0x02, 0x00, 0x00, 0x02, 0x73
 2f6:	0000                	unimp
 2f8:	ee00                	.2byte	0xee00
 2fa:	610d                	addi	sp,sp,160
 2fc:	0000                	unimp
 2fe:	4c00                	lw	s0,24(s0)
 300:	0000                	unimp
 302:	0000                	unimp
 304:	0c09                	addi	s8,s8,2 # 19002 <_prog_start-0x7ffe6ffe>
 306:	04800007          	.4byte	0x4800007
 30a:	0000                	unimp
 30c:	fc00                	.2byte	0xfc00
 30e:	0002                	c.slli64	zero
 310:	0200                	addi	s0,sp,256
 312:	00000073          	ecall
 316:	006114ef          	jal	s1,1131c <_prog_start-0x7ffeece4>
 31a:	0000                	unimp
 31c:	008c                	addi	a1,sp,64
 31e:	0000                	unimp
 320:	0900                	addi	s0,sp,144
 322:	0710                	addi	a2,sp,896
 324:	8000                	.2byte	0x8000
 326:	0004                	.2byte	0x4
 328:	0000                	unimp
 32a:	0319                	addi	t1,t1,6
 32c:	0000                	unimp
 32e:	7302                	.2byte	0x7302
 330:	0000                	unimp
 332:	f000                	.2byte	0xf000
 334:	6114                	.2byte	0x6114
 336:	0000                	unimp
 338:	9800                	.2byte	0x9800
 33a:	0000                	unimp
 33c:	0000                	unimp
 33e:	b71e                	.2byte	0xb71e
 340:	0000                	unimp
 342:	3000                	.2byte	0x3000
 344:	01000003          	lb	zero,16(zero) # 10 <_prog_start-0x7ffffff0>
 348:	0069                	c.nop	26
 34a:	0ef2                	slli	t4,t4,0x1c
 34c:	0076                	c.slli	zero,0x1d
 34e:	0000                	unimp
 350:	00d4                	addi	a3,sp,68
 352:	0000                	unimp
 354:	1f00                	addi	s0,sp,944
 356:	0580                	addi	s0,sp,704
 358:	0000                	unimp
 35a:	069a                	slli	a3,a3,0x6
 35c:	8000                	.2byte	0x8000
 35e:	002c                	addi	a1,sp,8
 360:	0000                	unimp
 362:	de01                	beqz	a2,27a <_prog_start-0x7ffffd86>
 364:	5c05                	li	s8,-31
 366:	0d000003          	lb	zero,208(zero) # d0 <_prog_start-0x7fffff30>
 36a:	058a                	slli	a1,a1,0x2
 36c:	0000                	unimp
 36e:	069a                	slli	a3,a3,0x6
 370:	8000                	.2byte	0x8000
 372:	002c                	addi	a1,sp,8
 374:	0000                	unimp
 376:	8b0c                	.2byte	0x8b0c
 378:	0005                	c.nop	1
 37a:	0400                	addi	s0,sp,512
 37c:	0001                	nop
 37e:	0000                	unimp
 380:	2000                	.2byte	0x2000
 382:	00000443          	.4byte	0x443
 386:	06da                	slli	a3,a3,0x16
 388:	8000                	.2byte	0x8000
 38a:	00a4                	addi	s1,sp,72
 38c:	0000                	unimp
 38e:	ec01                	bnez	s0,3a6 <_prog_start-0x7ffffc5a>
 390:	8405                	srai	s0,s0,0x1
 392:	21000003          	lb	zero,528(zero) # 210 <_prog_start-0x7ffffdf0>
 396:	044d                	addi	s0,s0,19
 398:	0000                	unimp
 39a:	00a4                	addi	s1,sp,72
 39c:	0000                	unimp
 39e:	4e0c                	lw	a1,24(a2)
 3a0:	0004                	.2byte	0x4
 3a2:	3400                	.2byte	0x3400
 3a4:	0001                	nop
 3a6:	0000                	unimp
 3a8:	1100                	addi	s0,sp,160
 3aa:	069a                	slli	a3,a3,0x6
 3ac:	8000                	.2byte	0x8000
 3ae:	0652                	slli	a2,a2,0x14
 3b0:	0000                	unimp
 3b2:	da11                	beqz	a2,2c6 <_prog_start-0x7ffffd3a>
 3b4:	0006                	c.slli	zero,0x1
 3b6:	1580                	addi	s0,sp,736
 3b8:	0005                	c.nop	1
 3ba:	0e00                	addi	s0,sp,784
 3bc:	0778                	addi	a4,sp,908
 3be:	8000                	.2byte	0x8000
 3c0:	017a                	slli	sp,sp,0x1e
 3c2:	0000                	unimp
 3c4:	03ad                	addi	t2,t2,11
 3c6:	0000                	unimp
 3c8:	055a0107          	.4byte	0x55a0107
 3cc:	0009f003          	.4byte	0x9f003
 3d0:	0080                	addi	s0,sp,64
 3d2:	860e                	mv	a2,gp
 3d4:	7a800007          	.4byte	0x7a800007
 3d8:	0001                	nop
 3da:	d000                	sw	s0,32(s0)
 3dc:	07000003          	lb	zero,112(zero) # 70 <_prog_start-0x7fffff90>
 3e0:	5a01                	li	s4,-32
 3e2:	0305                	addi	t1,t1,1
 3e4:	0a0c                	addi	a1,sp,272
 3e6:	8000                	.2byte	0x8000
 3e8:	025b0107          	.4byte	0x25b0107
 3ec:	0079                	c.nop	30
 3ee:	025c0107          	.4byte	0x25c0107
 3f2:	0082                	c.slli64	ra
 3f4:	0e00                	addi	s0,sp,784
 3f6:	0794                	addi	a3,sp,960
 3f8:	8000                	.2byte	0x8000
 3fa:	017a                	slli	sp,sp,0x1e
 3fc:	0000                	unimp
 3fe:	000003f3          	.4byte	0x3f3
 402:	055a0107          	.4byte	0x55a0107
 406:	000a2c03          	lw	s8,0(s4)
 40a:	0780                	addi	s0,sp,960
 40c:	5b01                	li	s6,-32
 40e:	8402                	jr	s0
 410:	0700                	addi	s0,sp,896
 412:	5c01                	li	s8,-32
 414:	8502                	jr	a0
 416:	0000                	unimp
 418:	a022                	.2byte	0xa022
 41a:	7a800007          	.4byte	0x7a800007
 41e:	0001                	nop
 420:	0700                	addi	s0,sp,896
 422:	5a01                	li	s4,-32
 424:	0305                	addi	t1,t1,1
 426:	0a48                	addi	a0,sp,276
 428:	8000                	.2byte	0x8000
 42a:	025b0107          	.4byte	0x25b0107
 42e:	0078                	addi	a4,sp,12
 430:	0000                	unimp
 432:	120a                	slli	tp,tp,0x22
 434:	0004                	.2byte	0x4
 436:	0a00                	addi	s0,sp,272
 438:	0192                	slli	gp,gp,0x4
 43a:	0000                	unimp
 43c:	cb05                	beqz	a4,46c <_prog_start-0x7ffffb94>
 43e:	0001                	nop
 440:	8100                	.2byte	0x8100
 442:	0536                	slli	a0,a0,0xd
 444:	8000                	.2byte	0x8000
 446:	0044                	addi	s1,sp,4
 448:	0000                	unimp
 44a:	9c01                	.2byte	0x9c01
 44c:	00000443          	.4byte	0x443
 450:	3606                	.2byte	0x3606
 452:	0005                	c.nop	1
 454:	4280                	lw	s0,0(a3)
 456:	0000                	unimp
 458:	0100                	addi	s0,sp,128
 45a:	0069                	c.nop	26
 45c:	0c82                	c.slli64	s9
 45e:	0076                	c.slli	zero,0x1d
 460:	0000                	unimp
 462:	0164                	addi	s1,sp,140
 464:	0000                	unimp
 466:	0000                	unimp
 468:	c512                	sw	tp,136(sp)
 46a:	0001                	nop
 46c:	7c00                	.2byte	0x7c00
 46e:	0458                	addi	a4,sp,516
 470:	0000                	unimp
 472:	00691413          	slli	s0,s2,0x6
 476:	767d                	lui	a2,0xfffff
 478:	0000                	unimp
 47a:	0000                	unimp
 47c:	0500                	addi	s0,sp,640
 47e:	00000173          	.4byte	0x173
 482:	9871                	andi	s0,s0,-4
 484:	0004                	.2byte	0x4
 486:	5a80                	lw	s0,48(a3)
 488:	0000                	unimp
 48a:	0100                	addi	s0,sp,128
 48c:	979c                	.2byte	0x979c
 48e:	0004                	.2byte	0x4
 490:	0600                	addi	s0,sp,768
 492:	0498                	addi	a4,sp,576
 494:	8000                	.2byte	0x8000
 496:	0058                	addi	a4,sp,4
 498:	0000                	unimp
 49a:	6901                	.2byte	0x6901
 49c:	7600                	.2byte	0x7600
 49e:	760c                	.2byte	0x760c
 4a0:	0000                	unimp
 4a2:	9400                	.2byte	0x9400
 4a4:	0001                	nop
 4a6:	0800                	addi	s0,sp,16
 4a8:	0091                	addi	ra,ra,4
 4aa:	0000                	unimp
 4ac:	6a01                	.2byte	0x6a01
 4ae:	7700                	.2byte	0x7700
 4b0:	760e                	.2byte	0x760e
 4b2:	0000                	unimp
 4b4:	ac00                	.2byte	0xac00
 4b6:	0001                	nop
 4b8:	0000                	unimp
 4ba:	0000                	unimp
 4bc:	6d05                	lui	s10,0x1
 4be:	0001                	nop
 4c0:	6700                	.2byte	0x6700
 4c2:	043e                	slli	s0,s0,0xf
 4c4:	8000                	.2byte	0x8000
 4c6:	005a                	c.slli	zero,0x16
 4c8:	0000                	unimp
 4ca:	9c01                	.2byte	0x9c01
 4cc:	04d6                	slli	s1,s1,0x15
 4ce:	0000                	unimp
 4d0:	3e06                	.2byte	0x3e06
 4d2:	0004                	.2byte	0x4
 4d4:	5880                	lw	s0,48(s1)
 4d6:	0000                	unimp
 4d8:	0100                	addi	s0,sp,128
 4da:	0069                	c.nop	26
 4dc:	0c6c                	addi	a1,sp,540
 4de:	0076                	c.slli	zero,0x1d
 4e0:	0000                	unimp
 4e2:	01dc                	addi	a5,sp,196
 4e4:	0000                	unimp
 4e6:	7e08                	.2byte	0x7e08
 4e8:	0000                	unimp
 4ea:	0100                	addi	s0,sp,128
 4ec:	006a                	c.slli	zero,0x1a
 4ee:	0e6d                	addi	t3,t3,27 # 1a01b <_prog_start-0x7ffe5fe5>
 4f0:	0076                	c.slli	zero,0x1d
 4f2:	0000                	unimp
 4f4:	01f4                	addi	a3,sp,204
 4f6:	0000                	unimp
 4f8:	0000                	unimp
 4fa:	0500                	addi	s0,sp,640
 4fc:	00000167          	jalr	sp,zero # 0 <_prog_start-0x80000000>
 500:	e45d                	bnez	s0,5ae <_prog_start-0x7ffffa52>
 502:	5a800003          	lb	zero,1448(zero) # 5a8 <_prog_start-0x7ffffa58>
 506:	0000                	unimp
 508:	0100                	addi	s0,sp,128
 50a:	159c                	addi	a5,sp,736
 50c:	0005                	c.nop	1
 50e:	0600                	addi	s0,sp,768
 510:	03e4                	addi	s1,sp,460
 512:	8000                	.2byte	0x8000
 514:	0058                	addi	a4,sp,4
 516:	0000                	unimp
 518:	6901                	.2byte	0x6901
 51a:	6200                	.2byte	0x6200
 51c:	760c                	.2byte	0x760c
 51e:	0000                	unimp
 520:	2400                	.2byte	0x2400
 522:	0002                	c.slli64	zero
 524:	0800                	addi	s0,sp,16
 526:	0000006b          	.4byte	0x6b
 52a:	6a01                	.2byte	0x6a01
 52c:	6300                	.2byte	0x6300
 52e:	760e                	.2byte	0x760e
 530:	0000                	unimp
 532:	3c00                	.2byte	0x3c00
 534:	0002                	c.slli64	zero
 536:	0000                	unimp
 538:	0000                	unimp
 53a:	6105                	addi	sp,sp,32
 53c:	0001                	nop
 53e:	5300                	lw	s0,32(a4)
 540:	038a                	slli	t2,t2,0x2
 542:	8000                	.2byte	0x8000
 544:	005a                	c.slli	zero,0x16
 546:	0000                	unimp
 548:	9c01                	.2byte	0x9c01
 54a:	0554                	addi	a3,sp,644
 54c:	0000                	unimp
 54e:	8a06                	mv	s4,ra
 550:	58800003          	lb	zero,1416(zero) # 588 <_prog_start-0x7ffffa78>
 554:	0000                	unimp
 556:	0100                	addi	s0,sp,128
 558:	0069                	c.nop	26
 55a:	0c58                	addi	a4,sp,532
 55c:	0076                	c.slli	zero,0x1d
 55e:	0000                	unimp
 560:	026c                	addi	a1,sp,268
 562:	0000                	unimp
 564:	5808                	lw	a0,48(s0)
 566:	0000                	unimp
 568:	0100                	addi	s0,sp,128
 56a:	006a                	c.slli	zero,0x1a
 56c:	0e59                	addi	t3,t3,22
 56e:	0076                	c.slli	zero,0x1d
 570:	0000                	unimp
 572:	0284                	addi	s1,sp,320
 574:	0000                	unimp
 576:	0000                	unimp
 578:	0500                	addi	s0,sp,640
 57a:	00a9                	addi	ra,ra,10
 57c:	0000                	unimp
 57e:	464d                	li	a2,19
 580:	44800003          	lb	zero,1096(zero) # 448 <_prog_start-0x7ffffbb8>
 584:	0000                	unimp
 586:	0100                	addi	s0,sp,128
 588:	809c                	.2byte	0x809c
 58a:	0005                	c.nop	1
 58c:	0600                	addi	s0,sp,768
 58e:	0346                	slli	t1,t1,0x11
 590:	8000                	.2byte	0x8000
 592:	0042                	c.slli	zero,0x10
 594:	0000                	unimp
 596:	6901                	.2byte	0x6901
 598:	4e00                	lw	s0,24(a2)
 59a:	760c                	.2byte	0x760c
 59c:	0000                	unimp
 59e:	b400                	.2byte	0xb400
 5a0:	0002                	c.slli64	zero
 5a2:	0000                	unimp
 5a4:	1200                	addi	s0,sp,288
 5a6:	000000a3          	sb	zero,1(zero) # 1 <_prog_start-0x7fffffff>
 5aa:	9548                	.2byte	0x9548
 5ac:	0005                	c.nop	1
 5ae:	1300                	addi	s0,sp,416
 5b0:	6914                	.2byte	0x6914
 5b2:	4900                	lw	s0,16(a0)
 5b4:	0076                	c.slli	zero,0x1d
 5b6:	0000                	unimp
 5b8:	0000                	unimp
 5ba:	0205                	addi	tp,tp,1 # ffff8001 <a+0x7fff7615>
 5bc:	0002                	c.slli64	zero
 5be:	3d00                	.2byte	0x3d00
 5c0:	02a8                	addi	a0,sp,328
 5c2:	8000                	.2byte	0x8000
 5c4:	005a                	c.slli	zero,0x16
 5c6:	0000                	unimp
 5c8:	9c01                	.2byte	0x9c01
 5ca:	05d4                	addi	a3,sp,708
 5cc:	0000                	unimp
 5ce:	a806                	.2byte	0xa806
 5d0:	0002                	c.slli64	zero
 5d2:	5880                	lw	s0,48(s1)
 5d4:	0000                	unimp
 5d6:	0100                	addi	s0,sp,128
 5d8:	0069                	c.nop	26
 5da:	0c42                	slli	s8,s8,0x10
 5dc:	0076                	c.slli	zero,0x1d
 5de:	0000                	unimp
 5e0:	02e4                	addi	s1,sp,332
 5e2:	0000                	unimp
 5e4:	4508                	lw	a0,8(a0)
 5e6:	0000                	unimp
 5e8:	0100                	addi	s0,sp,128
 5ea:	006a                	c.slli	zero,0x1a
 5ec:	00761043          	.4byte	0x761043
 5f0:	0000                	unimp
 5f2:	02fc                	addi	a5,sp,332
 5f4:	0000                	unimp
 5f6:	0000                	unimp
 5f8:	0500                	addi	s0,sp,640
 5fa:	01fc                	addi	a5,sp,204
 5fc:	0000                	unimp
 5fe:	00024e33          	xor	t3,tp,zero
 602:	5a80                	lw	s0,48(a3)
 604:	0000                	unimp
 606:	0100                	addi	s0,sp,128
 608:	139c                	addi	a5,sp,480
 60a:	0006                	c.slli	zero,0x1
 60c:	0600                	addi	s0,sp,768
 60e:	024e                	slli	tp,tp,0x13
 610:	8000                	.2byte	0x8000
 612:	0058                	addi	a4,sp,4
 614:	0000                	unimp
 616:	6901                	.2byte	0x6901
 618:	3800                	.2byte	0x3800
 61a:	760c                	.2byte	0x760c
 61c:	0000                	unimp
 61e:	2c00                	.2byte	0x2c00
 620:	08000003          	lb	zero,128(zero) # 80 <_prog_start-0x7fffff80>
 624:	0032                	c.slli	zero,0xc
 626:	0000                	unimp
 628:	6a01                	.2byte	0x6a01
 62a:	3900                	.2byte	0x3900
 62c:	760e                	.2byte	0x760e
 62e:	0000                	unimp
 630:	4400                	lw	s0,8(s0)
 632:	00000003          	lb	zero,0(zero) # 0 <_prog_start-0x80000000>
 636:	0000                	unimp
 638:	f605                	bnez	a2,560 <_prog_start-0x7ffffaa0>
 63a:	0001                	nop
 63c:	2900                	.2byte	0x2900
 63e:	01f4                	addi	a3,sp,204
 640:	8000                	.2byte	0x8000
 642:	005a                	c.slli	zero,0x16
 644:	0000                	unimp
 646:	9c01                	.2byte	0x9c01
 648:	0652                	slli	a2,a2,0x14
 64a:	0000                	unimp
 64c:	f406                	.2byte	0xf406
 64e:	0001                	nop
 650:	5880                	lw	s0,48(s1)
 652:	0000                	unimp
 654:	0100                	addi	s0,sp,128
 656:	0069                	c.nop	26
 658:	0c2e                	slli	s8,s8,0xb
 65a:	0076                	c.slli	zero,0x1d
 65c:	0000                	unimp
 65e:	0374                	addi	a3,sp,396
 660:	0000                	unimp
 662:	1f08                	addi	a0,sp,944
 664:	0000                	unimp
 666:	0100                	addi	s0,sp,128
 668:	006a                	c.slli	zero,0x1a
 66a:	00760e2f          	.4byte	0x760e2f
 66e:	0000                	unimp
 670:	038c                	addi	a1,sp,448
 672:	0000                	unimp
 674:	0000                	unimp
 676:	0500                	addi	s0,sp,640
 678:	01f0                	addi	a2,sp,204
 67a:	0000                	unimp
 67c:	9a1f 0001 5a80      	.byte	0x1f, 0x9a, 0x01, 0x00, 0x80, 0x5a
 682:	0000                	unimp
 684:	0100                	addi	s0,sp,128
 686:	919c                	.2byte	0x919c
 688:	0006                	c.slli	zero,0x1
 68a:	0600                	addi	s0,sp,768
 68c:	019a                	slli	gp,gp,0x6
 68e:	8000                	.2byte	0x8000
 690:	0058                	addi	a4,sp,4
 692:	0000                	unimp
 694:	6901                	.2byte	0x6901
 696:	2400                	.2byte	0x2400
 698:	760c                	.2byte	0x760c
 69a:	0000                	unimp
 69c:	bc00                	.2byte	0xbc00
 69e:	08000003          	lb	zero,128(zero) # 80 <_prog_start-0x7fffff80>
 6a2:	000c                	.2byte	0xc
 6a4:	0000                	unimp
 6a6:	6a01                	.2byte	0x6a01
 6a8:	2500                	.2byte	0x2500
 6aa:	760e                	.2byte	0x760e
 6ac:	0000                	unimp
 6ae:	d400                	sw	s0,40(s0)
 6b0:	00000003          	lb	zero,0(zero) # 0 <_prog_start-0x80000000>
 6b4:	0000                	unimp
 6b6:	00058023          	sb	zero,0(a1) # 64000000 <_prog_start-0x1c000000>
 6ba:	0200                	addi	s0,sp,256
 6bc:	44800003          	lb	zero,1096(zero) # 448 <_prog_start-0x7ffffbb8>
 6c0:	0000                	unimp
 6c2:	0100                	addi	s0,sp,128
 6c4:	bc9c                	.2byte	0xbc9c
 6c6:	0006                	c.slli	zero,0x1
 6c8:	0d00                	addi	s0,sp,656
 6ca:	058a                	slli	a1,a1,0x2
 6cc:	0000                	unimp
 6ce:	0302                	c.slli64	t1
 6d0:	8000                	.2byte	0x8000
 6d2:	0042                	c.slli	zero,0x10
 6d4:	0000                	unimp
 6d6:	8b0c                	.2byte	0x8b0c
 6d8:	0005                	c.nop	1
 6da:	0400                	addi	s0,sp,512
 6dc:	0004                	.2byte	0x4
 6de:	0000                	unimp
 6e0:	2400                	.2byte	0x2400
 6e2:	00000443          	.4byte	0x443
 6e6:	04f2                	slli	s1,s1,0x1c
 6e8:	8000                	.2byte	0x8000
 6ea:	0044                	addi	s1,sp,4
 6ec:	0000                	unimp
 6ee:	9c01                	.2byte	0x9c01
 6f0:	4d0d                	li	s10,3
 6f2:	0004                	.2byte	0x4
 6f4:	f200                	.2byte	0xf200
 6f6:	0004                	.2byte	0x4
 6f8:	4280                	lw	s0,0(a3)
 6fa:	0000                	unimp
 6fc:	0c00                	addi	s0,sp,528
 6fe:	044e                	slli	s0,s0,0x13
 700:	0000                	unimp
 702:	0434                	addi	a3,sp,520
 704:	0000                	unimp
 706:	0000                	unimp
 708:	2400                	.2byte	0x2400
 70a:	0004                	.2byte	0x4
 70c:	0500                	addi	s0,sp,640
 70e:	0100                	addi	s0,sp,128
 710:	0404                	addi	s1,sp,512
 712:	0002                	c.slli64	zero
 714:	1700                	addi	s0,sp,928
 716:	00b5                	addi	ra,ra,13
 718:	0000                	unimp
 71a:	4a1d                	li	s4,7
 71c:	0001                	nop
 71e:	0000                	unimp
 720:	0000                	unimp
 722:	be00                	.2byte	0xbe00
 724:	be800007          	.4byte	0xbe800007
 728:	0001                	nop
 72a:	2000                	.2byte	0x2000
 72c:	0014                	.2byte	0x14
 72e:	0100                	addi	s0,sp,128
 730:	0704                	addi	s1,sp,896
 732:	01a5                	addi	gp,gp,9
 734:	0000                	unimp
 736:	3405                	jal	156 <_prog_start-0x7ffffeaa>
 738:	0002                	c.slli64	zero
 73a:	0300                	addi	s0,sp,384
 73c:	1b28                	addi	a0,sp,440
 73e:	0039                	c.nop	14
 740:	0000                	unimp
 742:	0418                	addi	a4,sp,512
 744:	0210                	addi	a2,sp,256
 746:	0000                	unimp
 748:	3b05                	jal	478 <_prog_start-0x7ffffb88>
 74a:	0002                	c.slli64	zero
 74c:	0300                	addi	s0,sp,384
 74e:	002d1863          	bne	s10,sp,75e <_prog_start-0x7ffff8a2>
 752:	0000                	unimp
 754:	0101                	addi	sp,sp,0
 756:	7b06                	.2byte	0x7b06
 758:	0001                	nop
 75a:	0100                	addi	s0,sp,128
 75c:	0801                	addi	a6,a6,0
 75e:	0179                	addi	sp,sp,30
 760:	0000                	unimp
 762:	0201                	addi	tp,tp,0 # 0 <_prog_start-0x80000000>
 764:	6905                	lui	s2,0x1
 766:	0000                	unimp
 768:	0100                	addi	s0,sp,128
 76a:	0702                	c.slli64	a4
 76c:	01b2                	slli	gp,gp,0xc
 76e:	0000                	unimp
 770:	2205                	jal	890 <_prog_start-0x7ffff770>
 772:	0002                	c.slli64	zero
 774:	0400                	addi	s0,sp,512
 776:	184d                	addi	a6,a6,-13
 778:	00000073          	ecall
 77c:	0401                	addi	s0,s0,0
 77e:	4005                	c.li	zero,1
 780:	0001                	nop
 782:	0500                	addi	s0,sp,640
 784:	0086                	slli	ra,ra,0x1
 786:	0000                	unimp
 788:	4f04                	lw	s1,24(a4)
 78a:	8619                	srai	a2,a2,0x6
 78c:	0000                	unimp
 78e:	0100                	addi	s0,sp,128
 790:	0704                	addi	s1,sp,896
 792:	01a0                	addi	s0,sp,200
 794:	0000                	unimp
 796:	0801                	addi	a6,a6,0
 798:	3b05                	jal	4c8 <_prog_start-0x7ffffb38>
 79a:	0001                	nop
 79c:	0100                	addi	s0,sp,128
 79e:	0708                	addi	a0,sp,896
 7a0:	0000019b          	.4byte	0x19b
 7a4:	0419                	addi	s0,s0,6
 7a6:	6905                	lui	s2,0x1
 7a8:	746e                	.2byte	0x746e
 7aa:	0500                	addi	s0,sp,640
 7ac:	0224                	addi	s1,sp,264
 7ae:	0000                	unimp
 7b0:	2c05                	jal	9e0 <_prog_start-0x7ffff620>
 7b2:	00006713          	ori	a4,zero,0
 7b6:	0500                	addi	s0,sp,640
 7b8:	0088                	addi	a0,sp,64
 7ba:	0000                	unimp
 7bc:	3005                	jal	ffffffdc <a+0x7ffff5f0>
 7be:	7a14                	.2byte	0x7a14
 7c0:	0000                	unimp
 7c2:	1a00                	addi	s0,sp,304
 7c4:	00ae                	slli	ra,ra,0xb
 7c6:	0000                	unimp
 7c8:	0000911b          	.4byte	0x911b
 7cc:	0200                	addi	s0,sp,256
 7ce:	00d42213          	slti	tp,s0,13
 7d2:	0000                	unimp
 7d4:	0000                	unimp
 7d6:	6400                	.2byte	0x6400
 7d8:	ba0d                	j	10a <_prog_start-0x7ffffef6>
 7da:	0000                	unimp
 7dc:	0e00                	addi	s0,sp,784
 7de:	000000cf          	.4byte	0xcf
 7e2:	0000790f          	.4byte	0x790f
 7e6:	1600                	addi	s0,sp,800
 7e8:	07f6                	slli	a5,a5,0x1d
 7ea:	8000                	.2byte	0x8000
 7ec:	0186                	slli	gp,gp,0x1
 7ee:	0000                	unimp
 7f0:	9c01                	.2byte	0x9c01
 7f2:	00000303          	lb	t1,0(zero) # 0 <_prog_start-0x80000000>
 7f6:	6610                	.2byte	0x6610
 7f8:	746d                	lui	s0,0xffffb
 7fa:	1600                	addi	s0,sp,800
 7fc:	031a                	slli	t1,t1,0x6
 7fe:	70000003          	lb	zero,1792(zero) # 700 <_prog_start-0x7ffff900>
 802:	0004                	.2byte	0x4
 804:	1c00                	addi	s0,sp,560
 806:	760a                	.2byte	0x760a
 808:	006c                	addi	a1,sp,12
 80a:	0a18                	addi	a4,sp,272
 80c:	0000003f 7f9c9103 	.8byte	0x7f9c91030000003f
 814:	4311                	li	t1,4
 816:	0002                	c.slli64	zero
 818:	0700                	addi	s0,sp,896
 81a:	0314                	addi	a3,sp,384
 81c:	0000                	unimp
 81e:	049f 0000 2c1d      	.byte	0x9f, 0x04, 0x00, 0x00, 0x1d, 0x2c
 824:	0002                	c.slli64	zero
 826:	0100                	addi	s0,sp,128
 828:	1219                	addi	tp,tp,-26 # ffffffe6 <a+0x7ffff5fa>
 82a:	0314                	addi	a3,sp,384
 82c:	0000                	unimp
 82e:	1100                	addi	s0,sp,160
 830:	0208                	addi	a0,sp,256
 832:	0000                	unimp
 834:	0003141b          	.4byte	0x3141b
 838:	0500                	addi	s0,sp,640
 83a:	0005                	c.nop	1
 83c:	0600                	addi	s0,sp,768
 83e:	071a0063          	beq	s4,a7,89e <_prog_start-0x7ffff762>
 842:	0308                	addi	a0,sp,384
 844:	0000                	unimp
 846:	0560                	addi	s0,sp,652
 848:	0000                	unimp
 84a:	fc12                	.2byte	0xfc12
 84c:	0000                	unimp
 84e:	d900                	sw	s0,48(a0)
 850:	0002                	c.slli64	zero
 852:	0600                	addi	s0,sp,768
 854:	006e                	c.slli	zero,0x1b
 856:	1324                	addi	s1,sp,424
 858:	0086                	slli	ra,ra,0x1
 85a:	0000                	unimp
 85c:	0582                	c.slli64	a1
 85e:	0000                	unimp
 860:	630a                	.2byte	0x630a
 862:	2600                	.2byte	0x2600
 864:	1b0a                	slli	s6,s6,0x22
 866:	03000003          	lb	zero,48(zero) # 30 <_prog_start-0x7fffffd0>
 86a:	a091                	j	8ae <_prog_start-0x7ffff752>
 86c:	127f                	.2byte	0x127f
 86e:	016d                	addi	sp,sp,27
 870:	0000                	unimp
 872:	0178                	addi	a4,sp,140
 874:	0000                	unimp
 876:	6909                	lui	s2,0x2
 878:	0100                	addi	s0,sp,128
 87a:	009b0e27          	.4byte	0x9b0e27
 87e:	0000                	unimp
 880:	0b00                	addi	s0,sp,400
 882:	0936                	slli	s2,s2,0xd
 884:	8000                	.2byte	0x8000
 886:	0014                	.2byte	0x14
 888:	0000                	unimp
 88a:	00000193          	li	gp,0
 88e:	6906                	.2byte	0x6906
 890:	2d00                	.2byte	0x2d00
 892:	00009b0f          	.4byte	0x9b0f
 896:	af00                	.2byte	0xaf00
 898:	0005                	c.nop	1
 89a:	0000                	unimp
 89c:	0009660b          	.4byte	0x9660b
 8a0:	1680                	addi	s0,sp,864
 8a2:	0000                	unimp
 8a4:	d100                	sw	s0,32(a0)
 8a6:	0001                	nop
 8a8:	0600                	addi	s0,sp,768
 8aa:	0069                	c.nop	26
 8ac:	0e31                	addi	t3,t3,12
 8ae:	0000009b          	.4byte	0x9b
 8b2:	05e1                	addi	a1,a1,24
 8b4:	0000                	unimp
 8b6:	0003fe07          	.4byte	0x3fe07
 8ba:	6600                	.2byte	0x6600
 8bc:	0009                	c.nop	2
 8be:	0c80                	addi	s0,sp,592
 8c0:	0000                	unimp
 8c2:	3100                	.2byte	0x3100
 8c4:	0325                	addi	t1,t1,9
 8c6:	00000407          	.4byte	0x407
 8ca:	1104                	addi	s1,sp,160
 8cc:	0004                	.2byte	0x4
 8ce:	0200                	addi	s0,sp,256
 8d0:	041c                	addi	a5,sp,512
 8d2:	0000                	unimp
 8d4:	0606                	slli	a2,a2,0x1
 8d6:	0000                	unimp
 8d8:	0000                	unimp
 8da:	00086c0b          	.4byte	0x86c0b
 8de:	4280                	lw	s0,0(a3)
 8e0:	0000                	unimp
 8e2:	3300                	.2byte	0x3300
 8e4:	0002                	c.slli64	zero
 8e6:	0a00                	addi	s0,sp,272
 8e8:	006e                	c.slli	zero,0x1b
 8ea:	00861337          	lui	t1,0x861
 8ee:	0000                	unimp
 8f0:	6f01                	.2byte	0x6f01
 8f2:	6906                	.2byte	0x6906
 8f4:	3800                	.2byte	0x3800
 8f6:	730a                	.2byte	0x730a
 8f8:	0000                	unimp
 8fa:	1200                	addi	s0,sp,288
 8fc:	0006                	c.slli	zero,0x1
 8fe:	0800                	addi	s0,sp,16
 900:	0134                	addi	a3,sp,136
 902:	0000                	unimp
 904:	6406                	.2byte	0x6406
 906:	4100                	lw	s0,0(a0)
 908:	0000730b          	.4byte	0x730b
 90c:	1e00                	addi	s0,sp,816
 90e:	0006                	c.slli	zero,0x1
 910:	1300                	addi	s0,sp,416
 912:	03fe                	slli	t2,t2,0x1f
 914:	0000                	unimp
 916:	0884                	addi	s1,sp,80
 918:	8000                	.2byte	0x8000
 91a:	00000147          	.4byte	0x147
 91e:	07030643          	.4byte	0x7030643
 922:	0004                	.2byte	0x4
 924:	0800                	addi	s0,sp,16
 926:	00000147          	.4byte	0x147
 92a:	1104                	addi	s1,sp,160
 92c:	0004                	.2byte	0x4
 92e:	0200                	addi	s0,sp,256
 930:	041c                	addi	a5,sp,512
 932:	0000                	unimp
 934:	062a                	slli	a2,a2,0xa
 936:	0000                	unimp
 938:	0000                	unimp
 93a:	0000                	unimp
 93c:	fe14                	.2byte	0xfe14
 93e:	46000003          	lb	zero,1120(zero) # 460 <_prog_start-0x7ffffba0>
 942:	0008                	.2byte	0x8
 944:	1880                	addi	s0,sp,112
 946:	0001                	nop
 948:	4b00                	lw	s0,16(a4)
 94a:	00000267          	jalr	tp,zero # 0 <_prog_start-0x80000000>
 94e:	070c                	addi	a1,sp,896
 950:	0004                	.2byte	0x4
 952:	3600                	.2byte	0x3600
 954:	0006                	c.slli	zero,0x1
 956:	0800                	addi	s0,sp,16
 958:	0118                	addi	a4,sp,128
 95a:	0000                	unimp
 95c:	1102                	slli	sp,sp,0x20
 95e:	0004                	.2byte	0x4
 960:	4200                	lw	s0,0(a2)
 962:	0006                	c.slli	zero,0x1
 964:	0200                	addi	s0,sp,256
 966:	041c                	addi	a5,sp,512
 968:	0000                	unimp
 96a:	0651                	addi	a2,a2,20 # fffff014 <a+0x7fffe628>
 96c:	0000                	unimp
 96e:	0000                	unimp
 970:	dc14                	sw	a3,56(s0)
 972:	b2000003          	lb	zero,-1248(zero) # fffffb20 <a+0x7ffff134>
 976:	0008                	.2byte	0x8
 978:	5a80                	lw	s0,48(a3)
 97a:	0001                	nop
 97c:	4800                	lw	s0,16(s0)
 97e:	02b5                	addi	t0,t0,13
 980:	0000                	unimp
 982:	e90c                	.2byte	0xe90c
 984:	5d000003          	lb	zero,1488(zero) # 5d0 <_prog_start-0x7ffffa30>
 988:	0006                	c.slli	zero,0x1
 98a:	0800                	addi	s0,sp,16
 98c:	015a                	slli	sp,sp,0x16
 98e:	0000                	unimp
 990:	f302                	.2byte	0xf302
 992:	69000003          	lb	zero,1680(zero) # 690 <_prog_start-0x7ffff970>
 996:	0006                	c.slli	zero,0x1
 998:	0700                	addi	s0,sp,896
 99a:	03fe                	slli	t2,t2,0x1f
 99c:	0000                	unimp
 99e:	08bc                	addi	a5,sp,88
 9a0:	8000                	.2byte	0x8000
 9a2:	000c                	.2byte	0xc
 9a4:	0000                	unimp
 9a6:	030c                	addi	a1,sp,384
 9a8:	00040703          	lb	a4,0(s0) # ffffb000 <a+0x7fffa614>
 9ac:	0400                	addi	s0,sp,512
 9ae:	0411                	addi	s0,s0,4
 9b0:	0000                	unimp
 9b2:	1c02                	slli	s8,s8,0x20
 9b4:	0004                	.2byte	0x4
 9b6:	8000                	.2byte	0x8000
 9b8:	0006                	c.slli	zero,0x1
 9ba:	0000                	unimp
 9bc:	0000                	unimp
 9be:	0003fe07          	.4byte	0x3fe07
 9c2:	0000                	unimp
 9c4:	0009                	c.nop	2
 9c6:	1280                	addi	s0,sp,352
 9c8:	0000                	unimp
 9ca:	2900                	.2byte	0x2900
 9cc:	0306                	slli	t1,t1,0x1
 9ce:	00000407          	.4byte	0x407
 9d2:	1104                	addi	s1,sp,160
 9d4:	0004                	.2byte	0x4
 9d6:	0200                	addi	s0,sp,256
 9d8:	041c                	addi	a5,sp,512
 9da:	0000                	unimp
 9dc:	068c                	addi	a1,sp,832
 9de:	0000                	unimp
 9e0:	0000                	unimp
 9e2:	0003fe13          	andi	t3,t2,0
 9e6:	1c00                	addi	s0,sp,560
 9e8:	0008                	.2byte	0x8
 9ea:	e980                	.2byte	0xe980
 9ec:	0000                	unimp
 9ee:	5400                	lw	s0,40(s0)
 9f0:	0304                	addi	s1,sp,384
 9f2:	00000407          	.4byte	0x407
 9f6:	e908                	.2byte	0xe908
 9f8:	0000                	unimp
 9fa:	0400                	addi	s0,sp,512
 9fc:	0411                	addi	s0,s0,4
 9fe:	0000                	unimp
 a00:	1c02                	slli	s8,s8,0x20
 a02:	0004                	.2byte	0x4
 a04:	9800                	.2byte	0x9800
 a06:	0006                	c.slli	zero,0x1
 a08:	0000                	unimp
 a0a:	0000                	unimp
 a0c:	0f0d                	addi	t5,t5,3
 a0e:	01000003          	lb	zero,16(zero) # 10 <_prog_start-0x7ffffff0>
 a12:	0801                	addi	a6,a6,0
 a14:	0182                	c.slli64	gp
 a16:	0000                	unimp
 a18:	080e                	slli	a6,a6,0x3
 a1a:	01000003          	lb	zero,16(zero) # 10 <_prog_start-0x7ffffff0>
 a1e:	0201                	addi	tp,tp,0 # 0 <_prog_start-0x80000000>
 a20:	025a                	slli	tp,tp,0x16
 a22:	0000                	unimp
 a24:	081e                	slli	a6,a6,0x7
 a26:	2b000003          	lb	zero,688(zero) # 2b0 <_prog_start-0x7ffffd50>
 a2a:	1f000003          	lb	zero,496(zero) # 1f0 <_prog_start-0x7ffffe10>
 a2e:	0026                	c.slli	zero,0x9
 a30:	0000                	unimp
 a32:	4e0f003f 0f000002 	.8byte	0xf0000024e0f003f
 a3a:	07be                	slli	a5,a5,0xf
 a3c:	8000                	.2byte	0x8000
 a3e:	0038                	addi	a4,sp,8
 a40:	0000                	unimp
 a42:	9c01                	.2byte	0x9c01
 a44:	03dc                	addi	a5,sp,452
 a46:	0000                	unimp
 a48:	7310                	.2byte	0x7310
 a4a:	0f00                	addi	s0,sp,912
 a4c:	0318                	addi	a4,sp,384
 a4e:	a4000003          	lb	zero,-1472(zero) # fffffa40 <a+0x7ffff054>
 a52:	0006                	c.slli	zero,0x1
 a54:	1500                	addi	s0,sp,672
 a56:	03dc                	addi	a5,sp,452
 a58:	0000                	unimp
 a5a:	07be                	slli	a5,a5,0xf
 a5c:	8000                	.2byte	0x8000
 a5e:	001a                	c.slli	zero,0x6
 a60:	0000                	unimp
 a62:	9411                	srai	s0,s0,0x24
 a64:	0c000003          	lb	zero,192(zero) # c0 <_prog_start-0x7fffff40>
 a68:	03e9                	addi	t2,t2,26
 a6a:	0000                	unimp
 a6c:	06be                	slli	a3,a3,0xf
 a6e:	0000                	unimp
 a70:	f302                	.2byte	0xf302
 a72:	ca000003          	lb	zero,-864(zero) # fffffca0 <a+0x7ffff2b4>
 a76:	0006                	c.slli	zero,0x1
 a78:	0700                	addi	s0,sp,896
 a7a:	03fe                	slli	t2,t2,0x1f
 a7c:	0000                	unimp
 a7e:	07c4                	addi	s1,sp,964
 a80:	8000                	.2byte	0x8000
 a82:	000c                	.2byte	0xc
 a84:	0000                	unimp
 a86:	030c                	addi	a1,sp,384
 a88:	00040703          	lb	a4,0(s0)
 a8c:	0400                	addi	s0,sp,512
 a8e:	0411                	addi	s0,s0,4
 a90:	0000                	unimp
 a92:	1c02                	slli	s8,s8,0x20
 a94:	0004                	.2byte	0x4
 a96:	e100                	.2byte	0xe100
 a98:	0006                	c.slli	zero,0x1
 a9a:	0000                	unimp
 a9c:	1500                	addi	s0,sp,672
 a9e:	03fe                	slli	t2,t2,0x1f
 aa0:	0000                	unimp
 aa2:	07d8                	addi	a4,sp,964
 aa4:	8000                	.2byte	0x8000
 aa6:	000e                	c.slli	zero,0x3
 aa8:	0000                	unimp
 aaa:	ba12                	.2byte	0xba12
 aac:	03000003          	lb	zero,48(zero) # 30 <_prog_start-0x7fffffd0>
 ab0:	00000407          	.4byte	0x407
 ab4:	1104                	addi	s1,sp,160
 ab6:	0004                	.2byte	0x4
 ab8:	0200                	addi	s0,sp,256
 aba:	041c                	addi	a5,sp,512
 abc:	0000                	unimp
 abe:	06ed                	addi	a3,a3,27
 ac0:	0000                	unimp
 ac2:	0700                	addi	s0,sp,896
 ac4:	03fe                	slli	t2,t2,0x1f
 ac6:	0000                	unimp
 ac8:	07e6                	slli	a5,a5,0x19
 aca:	8000                	.2byte	0x8000
 acc:	000e                	c.slli	zero,0x3
 ace:	0000                	unimp
 ad0:	07030213          	addi	tp,t1,112 # 861070 <_prog_start-0x7f79ef90>
 ad4:	0004                	.2byte	0x4
 ad6:	0400                	addi	s0,sp,512
 ad8:	0411                	addi	s0,s0,4
 ada:	0000                	unimp
 adc:	1c20                	addi	s0,sp,568
 ade:	0004                	.2byte	0x4
 ae0:	0100                	addi	s0,sp,128
 ae2:	005d                	c.nop	23
 ae4:	2100                	.2byte	0x2100
 ae6:	024d                	addi	tp,tp,19 # 13 <_prog_start-0x7fffffed>
 ae8:	0000                	unimp
 aea:	0801                	addi	a6,a6,0
 aec:	0314                	addi	a3,sp,384
 aee:	03fe                	slli	t2,t2,0x1f
 af0:	0000                	unimp
 af2:	7316                	.2byte	0x7316
 af4:	0100                	addi	s0,sp,128
 af6:	2708                	.2byte	0x2708
 af8:	00000303          	lb	t1,0(zero) # 0 <_prog_start-0x80000000>
 afc:	6309                	lui	t1,0x2
 afe:	0100                	addi	s0,sp,128
 b00:	070a                	slli	a4,a4,0x2
 b02:	0308                	addi	a0,sp,384
 b04:	0000                	unimp
 b06:	2200                	.2byte	0x2200
 b08:	0254                	addi	a3,sp,260
 b0a:	0000                	unimp
 b0c:	1502                	slli	a0,a0,0x20
 b0e:	0314                	addi	a3,sp,384
 b10:	6316                	.2byte	0x6316
 b12:	0200                	addi	s0,sp,256
 b14:	1f15                	addi	t5,t5,-27
 b16:	0308                	addi	a0,sp,384
 b18:	0000                	unimp
 b1a:	7409                	lui	s0,0xfffe2
 b1c:	0078                	addi	a4,sp,12
 b1e:	1702                	slli	a4,a4,0x20
 b20:	cf15                	beqz	a4,b5c <_prog_start-0x7ffff4a4>
 b22:	0000                	unimp
 b24:	0900                	addi	s0,sp,144
 b26:	0072                	c.slli	zero,0x1c
 b28:	1902                	slli	s2,s2,0x20
 b2a:	a20a                	.2byte	0xa20a
 b2c:	0000                	unimp
 b2e:	0000                	unimp
	...

Disassembly of section .debug_abbrev:

00000000 <.debug_abbrev>:
   0:	1101                	addi	sp,sp,-32
   2:	1000                	addi	s0,sp,32
   4:	12011117          	auipc	sp,0x12011
   8:	1b0e030f          	.4byte	0x1b0e030f
   c:	250e                	.2byte	0x250e
   e:	130e                	slli	t1,t1,0x23
  10:	0005                	c.nop	1
  12:	0000                	unimp
  14:	3401                	jal	fffffa14 <a+0x7ffff028>
  16:	0300                	addi	s0,sp,384
  18:	3a08                	.2byte	0x3a08
  1a:	0121                	addi	sp,sp,8 # 1201100c <_prog_start-0x6dfeeff4>
  1c:	0b390b3b          	.4byte	0xb390b3b
  20:	1349                	addi	t1,t1,-14 # 1ff2 <_prog_start-0x7fffe00e>
  22:	1702                	slli	a4,a4,0x20
  24:	0000                	unimp
  26:	3402                	.2byte	0x3402
  28:	0300                	addi	s0,sp,384
  2a:	3a0e                	.2byte	0x3a0e
  2c:	0121                	addi	sp,sp,8
  2e:	0b390b3b          	.4byte	0xb390b3b
  32:	1349                	addi	t1,t1,-14
  34:	1702                	slli	a4,a4,0x20
  36:	0000                	unimp
  38:	03003403          	.4byte	0x3003403
  3c:	3a08                	.2byte	0x3a08
  3e:	0121                	addi	sp,sp,8
  40:	21390b3b          	.4byte	0x21390b3b
  44:	490a                	lw	s2,128(sp)
  46:	02193f13          	sltiu	t5,s2,33
  4a:	0018                	.2byte	0x18
  4c:	0400                	addi	s0,sp,512
  4e:	0024                	addi	s1,sp,8
  50:	0b3e0b0b          	.4byte	0xb3e0b0b
  54:	00000e03          	lb	t3,0(zero) # 0 <_prog_start-0x80000000>
  58:	2e05                	jal	388 <_prog_start-0x7ffffc78>
  5a:	3f01                	jal	ffffff6a <a+0x7ffff57e>
  5c:	0319                	addi	t1,t1,6
  5e:	3a0e                	.2byte	0x3a0e
  60:	0121                	addi	sp,sp,8
  62:	21390b3b          	.4byte	0x21390b3b
  66:	1106                	slli	sp,sp,0x21
  68:	1201                	addi	tp,tp,-32 # ffffffe0 <a+0x7ffff5f4>
  6a:	4006                	.2byte	0x4006
  6c:	7a18                	.2byte	0x7a18
  6e:	0119                	addi	sp,sp,6
  70:	06000013          	li	zero,96
  74:	0111010b          	.4byte	0x111010b
  78:	0612                	slli	a2,a2,0x4
  7a:	0000                	unimp
  7c:	02004907          	.4byte	0x2004907
  80:	7e18                	.2byte	0x7e18
  82:	0018                	.2byte	0x18
  84:	0800                	addi	s0,sp,16
  86:	1755010b          	.4byte	0x1755010b
  8a:	0000                	unimp
  8c:	0b09                	addi	s6,s6,2
  8e:	1101                	addi	sp,sp,-32
  90:	1201                	addi	tp,tp,-32 # ffffffe0 <a+0x7ffff5f4>
  92:	0106                	slli	sp,sp,0x1
  94:	0a000013          	li	zero,160
  98:	210b000f          	.4byte	0x210b000f
  9c:	4904                	lw	s1,16(a0)
  9e:	0b000013          	li	zero,176
  a2:	0016                	c.slli	zero,0x5
  a4:	0b3a0e03          	lb	t3,179(s4)
  a8:	0b390b3b          	.4byte	0xb390b3b
  ac:	1349                	addi	t1,t1,-14
  ae:	0000                	unimp
  b0:	340c                	.2byte	0x340c
  b2:	3100                	.2byte	0x3100
  b4:	00170213          	addi	tp,a4,1 # d15d <_prog_start-0x7fff2ea3>
  b8:	0d00                	addi	s0,sp,656
  ba:	1331010b          	.4byte	0x1331010b
  be:	0111                	addi	sp,sp,4
  c0:	0612                	slli	a2,a2,0x4
  c2:	0000                	unimp
  c4:	480e                	lw	a6,192(sp)
  c6:	7d01                	lui	s10,0xfffe0
  c8:	7f01                	lui	t5,0xfffe0
  ca:	00130113          	addi	sp,t1,1
  ce:	0f00                	addi	s0,sp,912
  d0:	0034                	addi	a3,sp,8
  d2:	0b3a0e03          	lb	t3,179(s4)
  d6:	21390b3b          	.4byte	0x21390b3b
  da:	4922                	lw	s2,8(sp)
  dc:	00061c13          	slli	s8,a2,0x0
  e0:	1000                	addi	s0,sp,32
  e2:	0026                	c.slli	zero,0x9
  e4:	1349                	addi	t1,t1,-14
  e6:	0000                	unimp
  e8:	4811                	li	a6,4
  ea:	7d00                	.2byte	0x7d00
  ec:	7f01                	lui	t5,0xfffe0
  ee:	12000013          	li	zero,288
  f2:	012e                	slli	sp,sp,0xb
  f4:	0e03193f 3b01213a 	.8byte	0x3b01213a0e03193f
  fc:	0621390b          	.4byte	0x621390b
 100:	2120                	.2byte	0x2120
 102:	0101                	addi	sp,sp,0
 104:	13000013          	li	zero,304
 108:	0000010b          	.4byte	0x10b
 10c:	3414                	.2byte	0x3414
 10e:	0300                	addi	s0,sp,384
 110:	3a08                	.2byte	0x3a08
 112:	0121                	addi	sp,sp,8
 114:	21390b3b          	.4byte	0x21390b3b
 118:	490c                	lw	a1,16(a0)
 11a:	15000013          	li	zero,336
 11e:	0111                	addi	sp,sp,4
 120:	0e25                	addi	t3,t3,9
 122:	1f030b13          	addi	s6,t1,496
 126:	17551f1b          	.4byte	0x17551f1b
 12a:	0111                	addi	sp,sp,4
 12c:	1710                	addi	a2,sp,928
 12e:	0000                	unimp
 130:	2416                	.2byte	0x2416
 132:	0b00                	addi	s0,sp,400
 134:	030b3e0b          	.4byte	0x30b3e0b
 138:	0008                	.2byte	0x8
 13a:	1700                	addi	s0,sp,928
 13c:	0035                	c.nop	13
 13e:	1349                	addi	t1,t1,-14
 140:	0000                	unimp
 142:	2e18                	.2byte	0x2e18
 144:	3f01                	jal	54 <_prog_start-0x7fffffac>
 146:	0319                	addi	t1,t1,6
 148:	3a0e                	.2byte	0x3a0e
 14a:	390b3b0b          	.4byte	0x390b3b0b
 14e:	3c19270b          	.4byte	0x3c19270b
 152:	0119                	addi	sp,sp,6
 154:	19000013          	li	zero,400
 158:	0005                	c.nop	1
 15a:	1349                	addi	t1,t1,-14
 15c:	0000                	unimp
 15e:	181a                	slli	a6,a6,0x26
 160:	0000                	unimp
 162:	1b00                	addi	s0,sp,432
 164:	012e                	slli	sp,sp,0xb
 166:	0e03193f 0b3b0b3a 	.8byte	0xb3b0b3a0e03193f
 16e:	0b39                	addi	s6,s6,14
 170:	13491927          	.4byte	0x13491927
 174:	0111                	addi	sp,sp,4
 176:	0612                	slli	a2,a2,0x4
 178:	1840                	addi	s0,sp,52
 17a:	197a                	slli	s2,s2,0x3e
 17c:	1301                	addi	t1,t1,-32
 17e:	0000                	unimp
 180:	051c                	addi	a5,sp,640
 182:	0300                	addi	s0,sp,384
 184:	3a0e                	.2byte	0x3a0e
 186:	390b3b0b          	.4byte	0x390b3b0b
 18a:	0213490b          	.4byte	0x213490b
 18e:	1d000017          	auipc	zero,0x1d000
 192:	0005                	c.nop	1
 194:	0b3a0803          	lb	a6,179(s4)
 198:	0b390b3b          	.4byte	0xb390b3b
 19c:	1349                	addi	t1,t1,-14
 19e:	1702                	slli	a4,a4,0x20
 1a0:	0000                	unimp
 1a2:	0b1e                	slli	s6,s6,0x7
 1a4:	5501                	li	a0,-32
 1a6:	00130117          	auipc	sp,0x130
 1aa:	1f00                	addi	s0,sp,944
 1ac:	011d                	addi	sp,sp,7 # 1301ad <_prog_start-0x7fecfe53>
 1ae:	1331                	addi	t1,t1,-20
 1b0:	0111                	addi	sp,sp,4
 1b2:	0612                	slli	a2,a2,0x4
 1b4:	0b58                	addi	a4,sp,404
 1b6:	0b59                	addi	s6,s6,22
 1b8:	13010b57          	.4byte	0x13010b57
 1bc:	0000                	unimp
 1be:	1d20                	addi	s0,sp,696
 1c0:	3101                	jal	fffffdc0 <a+0x7ffff3d4>
 1c2:	55015213          	.4byte	0x55015213
 1c6:	590b5817          	auipc	a6,0x590b5
 1ca:	010b570b          	.4byte	0x10b570b
 1ce:	21000013          	li	zero,528
 1d2:	1331010b          	.4byte	0x1331010b
 1d6:	1755                	addi	a4,a4,-11
 1d8:	0000                	unimp
 1da:	4822                	lw	a6,8(sp)
 1dc:	7d01                	lui	s10,0xfffe0
 1de:	7f01                	lui	t5,0xfffe0
 1e0:	23000013          	li	zero,560
 1e4:	012e                	slli	sp,sp,0xb
 1e6:	1331                	addi	t1,t1,-20
 1e8:	0111                	addi	sp,sp,4
 1ea:	0612                	slli	a2,a2,0x4
 1ec:	1840                	addi	s0,sp,52
 1ee:	197a                	slli	s2,s2,0x3e
 1f0:	1301                	addi	t1,t1,-32
 1f2:	0000                	unimp
 1f4:	2e24                	.2byte	0x2e24
 1f6:	3101                	jal	fffffdf6 <a+0x7ffff40a>
 1f8:	12011113          	.4byte	0x12011113
 1fc:	4006                	.2byte	0x4006
 1fe:	7a18                	.2byte	0x7a18
 200:	0019                	c.nop	6
 202:	0000                	unimp
 204:	2401                	jal	404 <_prog_start-0x7ffffbfc>
 206:	0b00                	addi	s0,sp,400
 208:	030b3e0b          	.4byte	0x30b3e0b
 20c:	000e                	c.slli	zero,0x3
 20e:	0200                	addi	s0,sp,256
 210:	0034                	addi	a3,sp,8
 212:	1331                	addi	t1,t1,-20
 214:	1702                	slli	a4,a4,0x20
 216:	0000                	unimp
 218:	31000503          	lb	a0,784(zero) # 310 <_prog_start-0x7ffffcf0>
 21c:	04000013          	li	zero,64
 220:	0034                	addi	a3,sp,8
 222:	1331                	addi	t1,t1,-20
 224:	0000                	unimp
 226:	1605                	addi	a2,a2,-31
 228:	0300                	addi	s0,sp,384
 22a:	3a0e                	.2byte	0x3a0e
 22c:	390b3b0b          	.4byte	0x390b3b0b
 230:	0013490b          	.4byte	0x13490b
 234:	0600                	addi	s0,sp,768
 236:	0034                	addi	a3,sp,8
 238:	213a0803          	lb	a6,531(s4)
 23c:	3b01                	jal	ffffff4c <a+0x7ffff560>
 23e:	490b390b          	.4byte	0x490b390b
 242:	00170213          	addi	tp,a4,1
 246:	0700                	addi	s0,sp,896
 248:	011d                	addi	sp,sp,7
 24a:	1331                	addi	t1,t1,-20
 24c:	0111                	addi	sp,sp,4
 24e:	0612                	slli	a2,a2,0x4
 250:	2158                	.2byte	0x2158
 252:	5901                	li	s2,-32
 254:	000b570b          	.4byte	0xb570b
 258:	0800                	addi	s0,sp,16
 25a:	1755010b          	.4byte	0x1755010b
 25e:	0000                	unimp
 260:	3409                	jal	fffffc62 <a+0x7ffff276>
 262:	0300                	addi	s0,sp,384
 264:	3a08                	.2byte	0x3a08
 266:	390b3b0b          	.4byte	0x390b3b0b
 26a:	0013490b          	.4byte	0x13490b
 26e:	0a00                	addi	s0,sp,272
 270:	0034                	addi	a3,sp,8
 272:	213a0803          	lb	a6,531(s4)
 276:	3b01                	jal	ffffff86 <a+0x7ffff59a>
 278:	490b390b          	.4byte	0x490b390b
 27c:	00180213          	addi	tp,a6,1 # 590b51c7 <_prog_start-0x26f4ae39>
 280:	0b00                	addi	s0,sp,400
 282:	0111010b          	.4byte	0x111010b
 286:	0612                	slli	a2,a2,0x4
 288:	1301                	addi	t1,t1,-32
 28a:	0000                	unimp
 28c:	050c                	addi	a1,sp,640
 28e:	3100                	.2byte	0x3100
 290:	00170213          	addi	tp,a4,1
 294:	0d00                	addi	s0,sp,656
 296:	210b000f          	.4byte	0x210b000f
 29a:	4904                	lw	s1,16(a0)
 29c:	0e000013          	li	zero,224
 2a0:	0026                	c.slli	zero,0x9
 2a2:	1349                	addi	t1,t1,-14
 2a4:	0000                	unimp
 2a6:	3f012e0f          	.4byte	0x3f012e0f
 2aa:	0319                	addi	t1,t1,6
 2ac:	3a0e                	.2byte	0x3a0e
 2ae:	0121                	addi	sp,sp,8
 2b0:	21390b3b          	.4byte	0x21390b3b
 2b4:	2706                	.2byte	0x2706
 2b6:	1119                	addi	sp,sp,-26
 2b8:	1201                	addi	tp,tp,-32 # ffffffe0 <a+0x7ffff5f4>
 2ba:	4006                	.2byte	0x4006
 2bc:	7a18                	.2byte	0x7a18
 2be:	0119                	addi	sp,sp,6
 2c0:	10000013          	li	zero,256
 2c4:	0005                	c.nop	1
 2c6:	213a0803          	lb	a6,531(s4)
 2ca:	3b01                	jal	ffffffda <a+0x7ffff5ee>
 2cc:	490b390b          	.4byte	0x490b390b
 2d0:	00170213          	addi	tp,a4,1
 2d4:	1100                	addi	s0,sp,160
 2d6:	0034                	addi	a3,sp,8
 2d8:	213a0e03          	lb	t3,531(s4)
 2dc:	3b01                	jal	ffffffec <a+0x7ffff600>
 2de:	1921                	addi	s2,s2,-24 # 1fe8 <_prog_start-0x7fffe018>
 2e0:	0b39                	addi	s6,s6,14
 2e2:	1349                	addi	t1,t1,-14
 2e4:	1702                	slli	a4,a4,0x20
 2e6:	0000                	unimp
 2e8:	0b12                	slli	s6,s6,0x4
 2ea:	5501                	li	a0,-32
 2ec:	00130117          	auipc	sp,0x130
 2f0:	1300                	addi	s0,sp,416
 2f2:	011d                	addi	sp,sp,7 # 1302f3 <_prog_start-0x7fecfd0d>
 2f4:	1331                	addi	t1,t1,-20
 2f6:	0152                	slli	sp,sp,0x14
 2f8:	1755                	addi	a4,a4,-11
 2fa:	2158                	.2byte	0x2158
 2fc:	5901                	li	s2,-32
 2fe:	000b570b          	.4byte	0xb570b
 302:	1400                	addi	s0,sp,544
 304:	011d                	addi	sp,sp,7
 306:	1331                	addi	t1,t1,-20
 308:	0152                	slli	sp,sp,0x14
 30a:	1755                	addi	a4,a4,-11
 30c:	2158                	.2byte	0x2158
 30e:	5901                	li	s2,-32
 310:	0521570b          	.4byte	0x521570b
 314:	1301                	addi	t1,t1,-32
 316:	0000                	unimp
 318:	1d15                	addi	s10,s10,-27 # fffdffe5 <a+0x7ffdf5f9>
 31a:	3101                	jal	ffffff1a <a+0x7ffff52e>
 31c:	12011113          	.4byte	0x12011113
 320:	5806                	lw	a6,96(sp)
 322:	0121                	addi	sp,sp,8
 324:	0b59                	addi	s6,s6,22
 326:	01022157          	.4byte	0x1022157
 32a:	16000013          	li	zero,352
 32e:	0005                	c.nop	1
 330:	0b3a0803          	lb	a6,179(s4)
 334:	0b390b3b          	.4byte	0xb390b3b
 338:	1349                	addi	t1,t1,-14
 33a:	0000                	unimp
 33c:	25011117          	auipc	sp,0x25011
 340:	130e                	slli	t1,t1,0x23
 342:	1b1f030b          	.4byte	0x1b1f030b
 346:	111f 1201 1006      	.byte	0x1f, 0x11, 0x01, 0x12, 0x06, 0x10
 34c:	18000017          	auipc	zero,0x18000
 350:	0b0b000f          	.4byte	0xb0b000f
 354:	00000e03          	lb	t3,0(zero) # 0 <_prog_start-0x80000000>
 358:	2419                	jal	55e <_prog_start-0x7ffffaa2>
 35a:	0b00                	addi	s0,sp,400
 35c:	030b3e0b          	.4byte	0x30b3e0b
 360:	0008                	.2byte	0x8
 362:	1a00                	addi	s0,sp,304
 364:	0035                	c.nop	13
 366:	1349                	addi	t1,t1,-14
 368:	0000                	unimp
 36a:	0300341b          	.4byte	0x300341b
 36e:	3a0e                	.2byte	0x3a0e
 370:	390b3b0b          	.4byte	0x390b3b0b
 374:	1c13490b          	.4byte	0x1c13490b
 378:	0006                	c.slli	zero,0x1
 37a:	1c00                	addi	s0,sp,560
 37c:	0018                	.2byte	0x18
 37e:	0000                	unimp
 380:	341d                	jal	fffffda6 <a+0x7ffff3ba>
 382:	0300                	addi	s0,sp,384
 384:	3a0e                	.2byte	0x3a0e
 386:	390b3b0b          	.4byte	0x390b3b0b
 38a:	1c13490b          	.4byte	0x1c13490b
 38e:	1e00000b          	.4byte	0x1e00000b
 392:	0101                	addi	sp,sp,0 # 2501133c <_prog_start-0x5afeecc4>
 394:	1349                	addi	t1,t1,-14
 396:	1301                	addi	t1,t1,-32
 398:	0000                	unimp
 39a:	211f 4900 2f13      	.byte	0x1f, 0x21, 0x00, 0x49, 0x13, 0x2f
 3a0:	2000000b          	.4byte	0x2000000b
 3a4:	0034                	addi	a3,sp,8
 3a6:	1331                	addi	t1,t1,-20
 3a8:	1802                	slli	a6,a6,0x20
 3aa:	0000                	unimp
 3ac:	2e21                	jal	6c4 <_prog_start-0x7ffff93c>
 3ae:	0301                	addi	t1,t1,0
 3b0:	3a0e                	.2byte	0x3a0e
 3b2:	390b3b0b          	.4byte	0x390b3b0b
 3b6:	2019270b          	.4byte	0x2019270b
 3ba:	0013010b          	.4byte	0x13010b
 3be:	2200                	.2byte	0x2200
 3c0:	012e                	slli	sp,sp,0xb
 3c2:	0b3a0e03          	lb	t3,179(s4)
 3c6:	0b390b3b          	.4byte	0xb390b3b
 3ca:	0b201927          	.4byte	0xb201927
 3ce:	0000                	unimp
	...

Disassembly of section .debug_aranges:

00000000 <.debug_aranges>:
   0:	001c                	.2byte	0x1c
   2:	0000                	unimp
   4:	0002                	c.slli64	zero
   6:	0000                	unimp
   8:	0000                	unimp
   a:	0004                	.2byte	0x4
   c:	0000                	unimp
   e:	0000                	unimp
  10:	0000                	unimp
  12:	8000                	.2byte	0x8000
  14:	019a                	slli	gp,gp,0x6
	...
  1e:	0000                	unimp
  20:	0024                	addi	s1,sp,8
  22:	0000                	unimp
  24:	0002                	c.slli64	zero
  26:	0025                	c.nop	9
  28:	0000                	unimp
  2a:	0004                	.2byte	0x4
  2c:	0000                	unimp
  2e:	0000                	unimp
  30:	019a                	slli	gp,gp,0x6
  32:	8000                	.2byte	0x8000
  34:	03e0                	addi	s0,sp,460
  36:	0000                	unimp
  38:	057a                	slli	a0,a0,0x1e
  3a:	8000                	.2byte	0x8000
  3c:	0244                	addi	s1,sp,260
	...
  46:	0000                	unimp
  48:	001c                	.2byte	0x1c
  4a:	0000                	unimp
  4c:	0002                	c.slli64	zero
  4e:	0709                	addi	a4,a4,2
  50:	0000                	unimp
  52:	0004                	.2byte	0x4
  54:	0000                	unimp
  56:	0000                	unimp
  58:	07be                	slli	a5,a5,0xf
  5a:	8000                	.2byte	0x8000
  5c:	01be                	slli	gp,gp,0xf
	...

Disassembly of section .debug_str:

00000000 <.debug_str>:
   0:	30747263          	bgeu	s0,t2,304 <_prog_start-0x7ffffcfc>
   4:	532e                	lw	t1,232(sp)
   6:	2f00                	.2byte	0x2f00
   8:	6f68                	.2byte	0x6f68
   a:	656d                	lui	a0,0x1b
   c:	6e69622f          	.4byte	0x6e69622f
  10:	6b68                	.2byte	0x6b68
  12:	6569                	lui	a0,0x1a
  14:	6475                	lui	s0,0x1d
  16:	6f572f6f          	jal	t5,72f0a <_prog_start-0x7ff8d0f6>
  1a:	6b72                	.2byte	0x6b72
  1c:	63617073          	csrci	0x636,2
  20:	2f65                	jal	7d8 <_prog_start-0x7ffff828>
  22:	4952                	lw	s2,20(sp)
  24:	562d4353          	.4byte	0x562d4353
  28:	77654e2f          	.4byte	0x77654e2f
  2c:	7246                	.2byte	0x7246
  2e:	6d61                	lui	s10,0x18
  30:	7765                	lui	a4,0xffff9
  32:	2f6b726f          	jal	tp,b7328 <_prog_start-0x7ff48cd8>
  36:	7266                	.2byte	0x7266
  38:	6d61                	lui	s10,0x18
  3a:	7765                	lui	a4,0xffff9
  3c:	2f6b726f          	jal	tp,b7332 <_prog_start-0x7ff48cce>
  40:	6d2f7773          	csrrci	a4,0x6d2,30
  44:	7461                	lui	s0,0xffff8
  46:	6972                	.2byte	0x6972
  48:	5f78                	lw	a4,124(a4)
  4a:	756d                	lui	a0,0xffffb
  4c:	006c                	addi	a1,sp,12
  4e:	20554e47          	.4byte	0x20554e47
  52:	5341                	li	t1,-16
  54:	3220                	.2byte	0x3220
  56:	332e                	.2byte	0x332e
  58:	0039                	c.nop	14
  5a:	6c74                	.2byte	0x6c74
  5c:	695f 736e 7274      	.byte	0x5f, 0x69, 0x6e, 0x73, 0x74, 0x72
  62:	735f 6174 7472      	.byte	0x5f, 0x73, 0x74, 0x61, 0x72, 0x74
  68:	7300                	.2byte	0x7300
  6a:	6f68                	.2byte	0x6f68
  6c:	7472                	.2byte	0x7472
  6e:	6920                	.2byte	0x6920
  70:	746e                	.2byte	0x746e
  72:	5f00                	lw	s0,56(a4)
  74:	745f 706d 6b00      	.byte	0x5f, 0x74, 0x6d, 0x70, 0x00, 0x6b
  7a:	7270                	.2byte	0x7270
  7c:	6e69                	lui	t3,0x1a
  7e:	6674                	.2byte	0x6674
  80:	6d00                	.2byte	0x6d00
  82:	6961                	lui	s2,0x18
  84:	006e                	c.slli	zero,0x1b
  86:	5f5f 6975 746e      	.byte	0x5f, 0x5f, 0x75, 0x69, 0x6e, 0x74
  8c:	745f3233          	.4byte	0x745f3233
  90:	7500                	.2byte	0x7500
  92:	7261                	lui	tp,0xffff8
  94:	0074                	addi	a3,sp,12
  96:	6874                	.2byte	0x6874
  98:	695f 736e 7274      	.byte	0x5f, 0x69, 0x6e, 0x73, 0x74, 0x72
  9e:	655f 646e 7300      	.byte	0x5f, 0x65, 0x6e, 0x64, 0x00, 0x73
  a4:	5f31                	li	t5,-20
  a6:	73003063          	.4byte	0x73003063
  aa:	5f31                	li	t5,-20
  ac:	74003263          	.4byte	0x74003263
  b0:	675f 7061 4700      	.byte	0x5f, 0x67, 0x61, 0x70, 0x00, 0x47
  b6:	554e                	lw	a0,240(sp)
  b8:	4320                	lw	s0,64(a4)
  ba:	3131                	jal	fffffcc6 <a+0x7ffff2da>
  bc:	3120                	.2byte	0x3120
  be:	2e32                	.2byte	0x2e32
  c0:	2e32                	.2byte	0x2e32
  c2:	2030                	.2byte	0x2030
  c4:	6d2d                	lui	s10,0xb
  c6:	646f6d63          	bltu	t5,t1,720 <_prog_start-0x7ffff8e0>
  ca:	6c65                	lui	s8,0x19
  cc:	6d3d                	lui	s10,0xf
  ce:	6465                	lui	s0,0x19
  d0:	6e61                	lui	t3,0x18
  d2:	2079                	jal	160 <_prog_start-0x7ffffea0>
  d4:	6d2d                	lui	s10,0xb
  d6:	6261                	lui	tp,0x18
  d8:	3d69                	jal	ffffff72 <a+0x7ffff586>
  da:	6c69                	lui	s8,0x1a
  dc:	3370                	.2byte	0x3370
  de:	2032                	.2byte	0x2032
  e0:	6d2d                	lui	s10,0xb
  e2:	7574                	.2byte	0x7574
  e4:	656e                	.2byte	0x656e
  e6:	723d                	lui	tp,0xfffef
  e8:	656b636f          	jal	t1,b673e <_prog_start-0x7ff498c2>
  ec:	2074                	.2byte	0x2074
  ee:	6d2d                	lui	s10,0xb
  f0:	7369                	lui	t1,0xffffa
  f2:	2d61                	jal	78a <_prog_start-0x7ffff876>
  f4:	63657073          	csrci	0x636,10
  f8:	323d                	jal	fffffa26 <a+0x7ffff03a>
  fa:	322e                	.2byte	0x322e
  fc:	2d20                	.2byte	0x2d20
  fe:	616d                	addi	sp,sp,240
 100:	6372                	.2byte	0x6372
 102:	3d68                	.2byte	0x3d68
 104:	7672                	.2byte	0x7672
 106:	6d693233          	.4byte	0x6d693233
 10a:	6361                	lui	t1,0x18
 10c:	2d20                	.2byte	0x2d20
 10e:	4f2d2067          	.4byte	0x4f2d2067
 112:	6166                	.2byte	0x6166
 114:	2d207473          	csrrci	s0,0x2d2,0
 118:	3d647473          	csrrci	s0,0x3d6,8
 11c:	31756e67          	.4byte	0x31756e67
 120:	2031                	jal	12c <_prog_start-0x7ffffed4>
 122:	662d                	lui	a2,0xb
 124:	6f6e                	.2byte	0x6f6e
 126:	632d                	lui	t1,0xb
 128:	6f6d6d6f          	jal	s10,d681e <_prog_start-0x7ff297e2>
 12c:	206e                	.2byte	0x206e
 12e:	662d                	lui	a2,0xb
 130:	6f6e                	.2byte	0x6f6e
 132:	622d                	lui	tp,0xb
 134:	6975                	lui	s2,0x1d
 136:	746c                	.2byte	0x746c
 138:	6e69                	lui	t3,0x1a
 13a:	6c00                	.2byte	0x6c00
 13c:	20676e6f          	jal	t3,76342 <_prog_start-0x7ff89cbe>
 140:	6f6c                	.2byte	0x6f6c
 142:	676e                	.2byte	0x676e
 144:	6920                	.2byte	0x6920
 146:	746e                	.2byte	0x746e
 148:	7400                	.2byte	0x7400
 14a:	735f 6174 7472      	.byte	0x5f, 0x73, 0x74, 0x61, 0x72, 0x74
 150:	5f00                	lw	s0,56(a4)
 152:	755f 6e69 3874      	.byte	0x5f, 0x75, 0x69, 0x6e, 0x74, 0x38
 158:	745f 6300 696c      	.byte	0x5f, 0x74, 0x00, 0x63, 0x6c, 0x69
 15e:	746e                	.2byte	0x746e
 160:	7300                	.2byte	0x7300
 162:	5f32                	lw	t5,44(sp)
 164:	73003063          	.4byte	0x73003063
 168:	5f32                	lw	t5,44(sp)
 16a:	73003163          	.4byte	0x73003163
 16e:	5f32                	lw	t5,44(sp)
 170:	73003263          	.4byte	0x73003263
 174:	5f32                	lw	t5,44(sp)
 176:	75003363          	.4byte	0x75003363
 17a:	736e                	.2byte	0x736e
 17c:	6769                	lui	a4,0x1a
 17e:	656e                	.2byte	0x656e
 180:	2064                	.2byte	0x2064
 182:	72616863          	bltu	sp,t1,8b2 <_prog_start-0x7ffff74e>
 186:	7400                	.2byte	0x7400
 188:	5f68                	lw	a0,124(a4)
 18a:	6e69                	lui	t3,0x1a
 18c:	5f727473          	csrrci	s0,0x5f7,4
 190:	72617473          	csrrci	s0,mhpmevent6h,2
 194:	0074                	addi	a3,sp,12
 196:	7261                	lui	tp,0xffff8
 198:	6c006367          	.4byte	0x6c006367
 19c:	20676e6f          	jal	t3,763a2 <_prog_start-0x7ff89c5e>
 1a0:	6f6c                	.2byte	0x6f6c
 1a2:	676e                	.2byte	0x676e
 1a4:	7520                	.2byte	0x7520
 1a6:	736e                	.2byte	0x736e
 1a8:	6769                	lui	a4,0x1a
 1aa:	656e                	.2byte	0x656e
 1ac:	2064                	.2byte	0x2064
 1ae:	6e69                	lui	t3,0x1a
 1b0:	0074                	addi	a3,sp,12
 1b2:	726f6873          	csrrsi	a6,mhpmevent6h,30
 1b6:	2074                	.2byte	0x2074
 1b8:	6e75                	lui	t3,0x1d
 1ba:	6e676973          	csrrsi	s2,0x6e6,14
 1be:	6465                	lui	s0,0x19
 1c0:	6920                	.2byte	0x6920
 1c2:	746e                	.2byte	0x746e
 1c4:	7300                	.2byte	0x7300
 1c6:	30635f33          	.4byte	0x30635f33
 1ca:	7300                	.2byte	0x7300
 1cc:	32635f33          	.4byte	0x32635f33
 1d0:	7400                	.2byte	0x7400
 1d2:	5f6c                	lw	a1,124(a4)
 1d4:	6e69                	lui	t3,0x1a
 1d6:	5f727473          	csrrci	s0,0x5f7,4
 1da:	6e65                	lui	t3,0x19
 1dc:	0064                	addi	s1,sp,12
 1de:	7265                	lui	tp,0xffff9
 1e0:	6f72                	.2byte	0x6f72
 1e2:	5f72                	lw	t5,60(sp)
 1e4:	6e756f63          	bltu	a0,t2,8e2 <_prog_start-0x7ffff71e>
 1e8:	0074                	addi	a3,sp,12
 1ea:	5f74                	lw	a3,124(a4)
 1ec:	6e65                	lui	t3,0x19
 1ee:	0064                	addi	s1,sp,12
 1f0:	635f3073          	csrc	0x635,t5
 1f4:	0030                	addi	a2,sp,8
 1f6:	635f3073          	csrc	0x635,t5
 1fa:	0031                	c.nop	12
 1fc:	635f3073          	csrc	0x635,t5
 200:	0032                	c.slli	zero,0xc
 202:	635f3073          	csrc	0x635,t5
 206:	73690033          	.4byte	0x73690033
 20a:	635f 6168 0072      	.byte	0x5f, 0x63, 0x68, 0x61, 0x72, 0x00
 210:	5f5f 7562 6c69      	.byte	0x5f, 0x5f, 0x62, 0x75, 0x69, 0x6c
 216:	6974                	.2byte	0x6974
 218:	5f6e                	lw	t5,248(sp)
 21a:	6176                	.2byte	0x6176
 21c:	6c5f 7369 0074      	.byte	0x5f, 0x6c, 0x69, 0x73, 0x74, 0x00
 222:	5f5f 6e69 3374      	.byte	0x5f, 0x5f, 0x69, 0x6e, 0x74, 0x33
 228:	5f32                	lw	t5,44(sp)
 22a:	0074                	addi	a3,sp,12
 22c:	7369                	lui	t1,0xffffa
 22e:	6c5f 6e6f 0067      	.byte	0x5f, 0x6c, 0x6f, 0x6e, 0x67, 0x00
 234:	5f5f 6e67 6375      	.byte	0x5f, 0x5f, 0x67, 0x6e, 0x75, 0x63
 23a:	765f 5f61 696c      	.byte	0x5f, 0x76, 0x61, 0x5f, 0x6c, 0x69
 240:	69007473          	csrrci	s0,0x690,0
 244:	6f665f73          	csrrwi	t5,0x6f6,12
 248:	6d72                	.2byte	0x6d72
 24a:	7461                	lui	s0,0xffff8
 24c:	5f00                	lw	s0,56(a4)
 24e:	7475706b          	.4byte	0x7475706b
 252:	706b0073          	.4byte	0x706b0073
 256:	7475                	lui	s0,0xffffd
 258:	425f0063          	beq	t5,t0,678 <_prog_start-0x7ffff988>
 25c:	006c6f6f          	jal	t5,c6262 <_prog_start-0x7ff39d9e>

Disassembly of section .debug_loclists:

00000000 <.debug_loclists>:
   0:	0460                	addi	s0,sp,524
   2:	0000                	unimp
   4:	0005                	c.nop	1
   6:	0004                	.2byte	0x4
   8:	0000                	unimp
   a:	0000                	unimp
   c:	00057a07          	.4byte	0x57a07
  10:	f880                	.2byte	0xf880
  12:	0005                	c.nop	1
  14:	0180                	addi	s0,sp,192
  16:	075a                	slli	a4,a4,0x16
  18:	05f8                	addi	a4,sp,716
  1a:	8000                	.2byte	0x8000
  1c:	07be                	slli	a5,a5,0xf
  1e:	8000                	.2byte	0x8000
  20:	a304                	.2byte	0xa304
  22:	5a01                	li	s4,-32
  24:	009f 7a07 0005      	.byte	0x9f, 0x00, 0x07, 0x7a, 0x05, 0x00
  2a:	0080                	addi	s0,sp,64
  2c:	0006                	c.slli	zero,0x1
  2e:	0180                	addi	s0,sp,192
  30:	0600075b          	.4byte	0x600075b
  34:	8000                	.2byte	0x8000
  36:	07be                	slli	a5,a5,0xf
  38:	8000                	.2byte	0x8000
  3a:	a304                	.2byte	0xa304
  3c:	5b01                	li	s6,-32
  3e:	009f 8407 0006      	.byte	0x9f, 0x00, 0x07, 0x84, 0x06, 0x00
  44:	aa80                	.2byte	0xaa80
  46:	01800007          	.4byte	0x1800007
  4a:	0c070063          	beqz	a4,10a <_prog_start-0x7ffffef6>
  4e:	6e800007          	.4byte	0x6e800007
  52:	01800007          	.4byte	0x1800007
  56:	6a07005b          	.4byte	0x6a07005b
  5a:	6e800007          	.4byte	0x6e800007
  5e:	06800007          	.4byte	0x6800007
  62:	0083007b          	.4byte	0x83007b
  66:	9f1c                	.2byte	0x9f1c
  68:	00076e07          	.4byte	0x76e07
  6c:	7780                	.2byte	0x7780
  6e:	01800007          	.4byte	0x1800007
  72:	8807005b          	.4byte	0x8807005b
  76:	0006                	c.slli	zero,0x1
  78:	a880                	.2byte	0xa880
  7a:	01800007          	.4byte	0x1800007
  7e:	0062                	c.slli	zero,0x18
  80:	00068c07          	.4byte	0x68c07
  84:	a680                	.2byte	0xa680
  86:	01800007          	.4byte	0x1800007
  8a:	0059                	c.nop	22
  8c:	00071007          	.4byte	0x71007
  90:	ae80                	.2byte	0xae80
  92:	01800007          	.4byte	0x1800007
  96:	0065                	c.nop	25
  98:	00071407          	.4byte	0x71407
  9c:	ac80                	.2byte	0xac80
  9e:	01800007          	.4byte	0x1800007
  a2:	0064                	addi	s1,sp,12
  a4:	00059e07          	.4byte	0x59e07
  a8:	2c80                	.2byte	0x2c80
  aa:	02800007          	.4byte	0x2800007
  ae:	9f30                	.2byte	0x9f30
  b0:	00072c07          	.4byte	0x72c07
  b4:	a480                	.2byte	0xa480
  b6:	01800007          	.4byte	0x1800007
  ba:	0058                	addi	a4,sp,4
  bc:	00059e07          	.4byte	0x59e07
  c0:	0480                	addi	s0,sp,576
  c2:	0006                	c.slli	zero,0x1
  c4:	0280                	addi	s0,sp,320
  c6:	9f30                	.2byte	0x9f30
  c8:	00060407          	.4byte	0x60407
  cc:	9080                	.2byte	0x9080
  ce:	0006                	c.slli	zero,0x1
  d0:	0180                	addi	s0,sp,192
  d2:	005f 1407 0007      	.byte	0x5f, 0x00, 0x07, 0x14, 0x07, 0x00
  d8:	2c80                	.2byte	0x2c80
  da:	02800007          	.4byte	0x2800007
  de:	9f30                	.2byte	0x9f30
  e0:	00072c07          	.4byte	0x72c07
  e4:	6480                	.2byte	0x6480
  e6:	01800007          	.4byte	0x1800007
  ea:	075f 0764 8000      	.byte	0x5f, 0x07, 0x64, 0x07, 0x00, 0x80
  f0:	0766                	slli	a4,a4,0x19
  f2:	8000                	.2byte	0x8000
  f4:	9f7f7f03          	.4byte	0x9f7f7f03
  f8:	00076607          	.4byte	0x76607
  fc:	7780                	.2byte	0x7780
  fe:	01800007          	.4byte	0x1800007
 102:	005f 9a07 0006      	.byte	0x5f, 0x00, 0x07, 0x9a, 0x06, 0x00
 108:	a080                	.2byte	0xa080
 10a:	0006                	c.slli	zero,0x1
 10c:	0280                	addi	s0,sp,320
 10e:	9f30                	.2byte	0x9f30
 110:	0006a007          	.4byte	0x6a007
 114:	bc80                	.2byte	0xbc80
 116:	0006                	c.slli	zero,0x1
 118:	0180                	addi	s0,sp,192
 11a:	075f 06bc 8000      	.byte	0x5f, 0x07, 0xbc, 0x06, 0x00, 0x80
 120:	06c2                	slli	a3,a3,0x10
 122:	8000                	.2byte	0x8000
 124:	9f7f7f03          	.4byte	0x9f7f7f03
 128:	0006c207          	.4byte	0x6c207
 12c:	c680                	sw	s0,8(a3)
 12e:	0006                	c.slli	zero,0x1
 130:	0180                	addi	s0,sp,192
 132:	005f e007 0006      	.byte	0x5f, 0x00, 0x07, 0xe0, 0x06, 0x00
 138:	e480                	.2byte	0xe480
 13a:	0006                	c.slli	zero,0x1
 13c:	0280                	addi	s0,sp,320
 13e:	9f30                	.2byte	0x9f30
 140:	0006e407          	.4byte	0x6e407
 144:	fe80                	.2byte	0xfe80
 146:	0006                	c.slli	zero,0x1
 148:	0180                	addi	s0,sp,192
 14a:	075f 06fe 8000      	.byte	0x5f, 0x07, 0xfe, 0x06, 0x00, 0x80
 150:	0704                	addi	s1,sp,896
 152:	8000                	.2byte	0x8000
 154:	9f7f7f03          	.4byte	0x9f7f7f03
 158:	00070407          	.4byte	0x70407
 15c:	0880                	addi	s0,sp,80
 15e:	01800007          	.4byte	0x1800007
 162:	005f 3607 0005      	.byte	0x5f, 0x00, 0x07, 0x36, 0x05, 0x00
 168:	5480                	lw	s0,40(s1)
 16a:	0005                	c.nop	1
 16c:	0280                	addi	s0,sp,320
 16e:	9f30                	.2byte	0x9f30
 170:	00055407          	.4byte	0x55407
 174:	6e80                	.2byte	0x6e80
 176:	0005                	c.nop	1
 178:	0180                	addi	s0,sp,192
 17a:	075f 056e 8000      	.byte	0x5f, 0x07, 0x6e, 0x05, 0x00, 0x80
 180:	0574                	addi	a3,sp,652
 182:	8000                	.2byte	0x8000
 184:	9f7f7f03          	.4byte	0x9f7f7f03
 188:	00057407          	.4byte	0x57407
 18c:	7a80                	.2byte	0x7a80
 18e:	0005                	c.nop	1
 190:	0180                	addi	s0,sp,192
 192:	005f 9807 0004      	.byte	0x5f, 0x00, 0x07, 0x98, 0x04, 0x00
 198:	ba80                	.2byte	0xba80
 19a:	0004                	.2byte	0x4
 19c:	0280                	addi	s0,sp,320
 19e:	9f30                	.2byte	0x9f30
 1a0:	0004ba07          	.4byte	0x4ba07
 1a4:	f280                	.2byte	0xf280
 1a6:	0004                	.2byte	0x4
 1a8:	0180                	addi	s0,sp,192
 1aa:	005a                	c.slli	zero,0x16
 1ac:	0004ba07          	.4byte	0x4ba07
 1b0:	bc80                	.2byte	0xbc80
 1b2:	0004                	.2byte	0x4
 1b4:	0280                	addi	s0,sp,320
 1b6:	9f30                	.2byte	0x9f30
 1b8:	0004bc07          	.4byte	0x4bc07
 1bc:	e080                	.2byte	0xe080
 1be:	0004                	.2byte	0x4
 1c0:	0180                	addi	s0,sp,192
 1c2:	075e                	slli	a4,a4,0x17
 1c4:	04e0                	addi	s0,sp,588
 1c6:	8000                	.2byte	0x8000
 1c8:	04e6                	slli	s1,s1,0x19
 1ca:	8000                	.2byte	0x8000
 1cc:	9f7f7e03          	.4byte	0x9f7f7e03
 1d0:	0004e607          	.4byte	0x4e607
 1d4:	f280                	.2byte	0xf280
 1d6:	0004                	.2byte	0x4
 1d8:	0180                	addi	s0,sp,192
 1da:	005e                	c.slli	zero,0x17
 1dc:	00043e07          	.4byte	0x43e07
 1e0:	6080                	.2byte	0x6080
 1e2:	0004                	.2byte	0x4
 1e4:	0280                	addi	s0,sp,320
 1e6:	9f30                	.2byte	0x9f30
 1e8:	00046007          	.4byte	0x46007
 1ec:	9880                	.2byte	0x9880
 1ee:	0004                	.2byte	0x4
 1f0:	0180                	addi	s0,sp,192
 1f2:	005a                	c.slli	zero,0x16
 1f4:	00046007          	.4byte	0x46007
 1f8:	6280                	.2byte	0x6280
 1fa:	0004                	.2byte	0x4
 1fc:	0280                	addi	s0,sp,320
 1fe:	9f30                	.2byte	0x9f30
 200:	00046207          	.4byte	0x46207
 204:	8680                	.2byte	0x8680
 206:	0004                	.2byte	0x4
 208:	0180                	addi	s0,sp,192
 20a:	075e                	slli	a4,a4,0x17
 20c:	0486                	slli	s1,s1,0x1
 20e:	8000                	.2byte	0x8000
 210:	048c                	addi	a1,sp,576
 212:	8000                	.2byte	0x8000
 214:	9f7f7e03          	.4byte	0x9f7f7e03
 218:	00048c07          	.4byte	0x48c07
 21c:	9880                	.2byte	0x9880
 21e:	0004                	.2byte	0x4
 220:	0180                	addi	s0,sp,192
 222:	005e                	c.slli	zero,0x17
 224:	0003e407          	.4byte	0x3e407
 228:	0680                	addi	s0,sp,832
 22a:	0004                	.2byte	0x4
 22c:	0280                	addi	s0,sp,320
 22e:	9f30                	.2byte	0x9f30
 230:	00040607          	.4byte	0x40607
 234:	3e80                	.2byte	0x3e80
 236:	0004                	.2byte	0x4
 238:	0180                	addi	s0,sp,192
 23a:	005a                	c.slli	zero,0x16
 23c:	00040607          	.4byte	0x40607
 240:	0880                	addi	s0,sp,80
 242:	0004                	.2byte	0x4
 244:	0280                	addi	s0,sp,320
 246:	9f30                	.2byte	0x9f30
 248:	00040807          	.4byte	0x40807
 24c:	2c80                	.2byte	0x2c80
 24e:	0004                	.2byte	0x4
 250:	0180                	addi	s0,sp,192
 252:	075e                	slli	a4,a4,0x17
 254:	042c                	addi	a1,sp,520
 256:	8000                	.2byte	0x8000
 258:	0432                	slli	s0,s0,0xc
 25a:	8000                	.2byte	0x8000
 25c:	9f7f7e03          	.4byte	0x9f7f7e03
 260:	00043207          	.4byte	0x43207
 264:	3e80                	.2byte	0x3e80
 266:	0004                	.2byte	0x4
 268:	0180                	addi	s0,sp,192
 26a:	005e                	c.slli	zero,0x17
 26c:	00038a07          	.4byte	0x38a07
 270:	ac80                	.2byte	0xac80
 272:	02800003          	lb	zero,40(zero) # 28 <_prog_start-0x7fffffd8>
 276:	9f30                	.2byte	0x9f30
 278:	0003ac07          	.4byte	0x3ac07
 27c:	e480                	.2byte	0xe480
 27e:	01800003          	lb	zero,24(zero) # 18 <_prog_start-0x7fffffe8>
 282:	005a                	c.slli	zero,0x16
 284:	0003ac07          	.4byte	0x3ac07
 288:	ae80                	.2byte	0xae80
 28a:	02800003          	lb	zero,40(zero) # 28 <_prog_start-0x7fffffd8>
 28e:	9f30                	.2byte	0x9f30
 290:	0003ae07          	.4byte	0x3ae07
 294:	d280                	sw	s0,32(a3)
 296:	01800003          	lb	zero,24(zero) # 18 <_prog_start-0x7fffffe8>
 29a:	075e                	slli	a4,a4,0x17
 29c:	03d2                	slli	t2,t2,0x14
 29e:	8000                	.2byte	0x8000
 2a0:	03d8                	addi	a4,sp,452
 2a2:	8000                	.2byte	0x8000
 2a4:	9f7f7e03          	.4byte	0x9f7f7e03
 2a8:	0003d807          	.4byte	0x3d807
 2ac:	e480                	.2byte	0xe480
 2ae:	01800003          	lb	zero,24(zero) # 18 <_prog_start-0x7fffffe8>
 2b2:	005e                	c.slli	zero,0x17
 2b4:	00034607          	.4byte	0x34607
 2b8:	6480                	.2byte	0x6480
 2ba:	02800003          	lb	zero,40(zero) # 28 <_prog_start-0x7fffffd8>
 2be:	9f30                	.2byte	0x9f30
 2c0:	00036407          	.4byte	0x36407
 2c4:	7e80                	.2byte	0x7e80
 2c6:	01800003          	lb	zero,24(zero) # 18 <_prog_start-0x7fffffe8>
 2ca:	075f 037e 8000      	.byte	0x5f, 0x07, 0x7e, 0x03, 0x00, 0x80
 2d0:	0384                	addi	s1,sp,448
 2d2:	8000                	.2byte	0x8000
 2d4:	9f7f7f03          	.4byte	0x9f7f7f03
 2d8:	00038407          	.4byte	0x38407
 2dc:	8a80                	.2byte	0x8a80
 2de:	01800003          	lb	zero,24(zero) # 18 <_prog_start-0x7fffffe8>
 2e2:	005f a807 0002      	.byte	0x5f, 0x00, 0x07, 0xa8, 0x02, 0x00
 2e8:	ca80                	sw	s0,16(a3)
 2ea:	0002                	c.slli64	zero
 2ec:	0280                	addi	s0,sp,320
 2ee:	9f30                	.2byte	0x9f30
 2f0:	0002ca07          	.4byte	0x2ca07
 2f4:	0280                	addi	s0,sp,320
 2f6:	01800003          	lb	zero,24(zero) # 18 <_prog_start-0x7fffffe8>
 2fa:	005a                	c.slli	zero,0x16
 2fc:	0002ca07          	.4byte	0x2ca07
 300:	cc80                	sw	s0,24(s1)
 302:	0002                	c.slli64	zero
 304:	0280                	addi	s0,sp,320
 306:	9f30                	.2byte	0x9f30
 308:	0002cc07          	.4byte	0x2cc07
 30c:	f080                	.2byte	0xf080
 30e:	0002                	c.slli64	zero
 310:	0180                	addi	s0,sp,192
 312:	075e                	slli	a4,a4,0x17
 314:	02f0                	addi	a2,sp,332
 316:	8000                	.2byte	0x8000
 318:	02f6                	slli	t0,t0,0x1d
 31a:	8000                	.2byte	0x8000
 31c:	9f7f7e03          	.4byte	0x9f7f7e03
 320:	0002f607          	.4byte	0x2f607
 324:	0280                	addi	s0,sp,320
 326:	01800003          	lb	zero,24(zero) # 18 <_prog_start-0x7fffffe8>
 32a:	005e                	c.slli	zero,0x17
 32c:	00024e07          	.4byte	0x24e07
 330:	7080                	.2byte	0x7080
 332:	0002                	c.slli64	zero
 334:	0280                	addi	s0,sp,320
 336:	9f30                	.2byte	0x9f30
 338:	00027007          	.4byte	0x27007
 33c:	a880                	.2byte	0xa880
 33e:	0002                	c.slli64	zero
 340:	0180                	addi	s0,sp,192
 342:	005a                	c.slli	zero,0x16
 344:	00027007          	.4byte	0x27007
 348:	7280                	.2byte	0x7280
 34a:	0002                	c.slli64	zero
 34c:	0280                	addi	s0,sp,320
 34e:	9f30                	.2byte	0x9f30
 350:	00027207          	.4byte	0x27207
 354:	9680                	.2byte	0x9680
 356:	0002                	c.slli64	zero
 358:	0180                	addi	s0,sp,192
 35a:	075e                	slli	a4,a4,0x17
 35c:	0296                	slli	t0,t0,0x5
 35e:	8000                	.2byte	0x8000
 360:	029c                	addi	a5,sp,320
 362:	8000                	.2byte	0x8000
 364:	9f7f7e03          	.4byte	0x9f7f7e03
 368:	00029c07          	.4byte	0x29c07
 36c:	a880                	.2byte	0xa880
 36e:	0002                	c.slli64	zero
 370:	0180                	addi	s0,sp,192
 372:	005e                	c.slli	zero,0x17
 374:	0001f407          	.4byte	0x1f407
 378:	1680                	addi	s0,sp,864
 37a:	0002                	c.slli64	zero
 37c:	0280                	addi	s0,sp,320
 37e:	9f30                	.2byte	0x9f30
 380:	00021607          	.4byte	0x21607
 384:	4e80                	lw	s0,24(a3)
 386:	0002                	c.slli64	zero
 388:	0180                	addi	s0,sp,192
 38a:	005a                	c.slli	zero,0x16
 38c:	00021607          	.4byte	0x21607
 390:	1880                	addi	s0,sp,112
 392:	0002                	c.slli64	zero
 394:	0280                	addi	s0,sp,320
 396:	9f30                	.2byte	0x9f30
 398:	00021807          	.4byte	0x21807
 39c:	3c80                	.2byte	0x3c80
 39e:	0002                	c.slli64	zero
 3a0:	0180                	addi	s0,sp,192
 3a2:	075e                	slli	a4,a4,0x17
 3a4:	023c                	addi	a5,sp,264
 3a6:	8000                	.2byte	0x8000
 3a8:	0242                	slli	tp,tp,0x10
 3aa:	8000                	.2byte	0x8000
 3ac:	9f7f7e03          	.4byte	0x9f7f7e03
 3b0:	00024207          	.4byte	0x24207
 3b4:	4e80                	lw	s0,24(a3)
 3b6:	0002                	c.slli64	zero
 3b8:	0180                	addi	s0,sp,192
 3ba:	005e                	c.slli	zero,0x17
 3bc:	00019a07          	.4byte	0x19a07
 3c0:	bc80                	.2byte	0xbc80
 3c2:	0001                	nop
 3c4:	0280                	addi	s0,sp,320
 3c6:	9f30                	.2byte	0x9f30
 3c8:	0001bc07          	.4byte	0x1bc07
 3cc:	f480                	.2byte	0xf480
 3ce:	0001                	nop
 3d0:	0180                	addi	s0,sp,192
 3d2:	005a                	c.slli	zero,0x16
 3d4:	0001bc07          	.4byte	0x1bc07
 3d8:	be80                	.2byte	0xbe80
 3da:	0001                	nop
 3dc:	0280                	addi	s0,sp,320
 3de:	9f30                	.2byte	0x9f30
 3e0:	0001be07          	.4byte	0x1be07
 3e4:	e280                	.2byte	0xe280
 3e6:	0001                	nop
 3e8:	0180                	addi	s0,sp,192
 3ea:	075e                	slli	a4,a4,0x17
 3ec:	01e2                	slli	gp,gp,0x18
 3ee:	8000                	.2byte	0x8000
 3f0:	01e8                	addi	a0,sp,204
 3f2:	8000                	.2byte	0x8000
 3f4:	9f7f7e03          	.4byte	0x9f7f7e03
 3f8:	0001e807          	.4byte	0x1e807
 3fc:	f480                	.2byte	0xf480
 3fe:	0001                	nop
 400:	0180                	addi	s0,sp,192
 402:	005e                	c.slli	zero,0x17
 404:	00030207          	.4byte	0x30207
 408:	2080                	.2byte	0x2080
 40a:	02800003          	lb	zero,40(zero) # 28 <_prog_start-0x7fffffd8>
 40e:	9f30                	.2byte	0x9f30
 410:	00032007          	.4byte	0x32007
 414:	3a80                	.2byte	0x3a80
 416:	01800003          	lb	zero,24(zero) # 18 <_prog_start-0x7fffffe8>
 41a:	075f 033a 8000      	.byte	0x5f, 0x07, 0x3a, 0x03, 0x00, 0x80
 420:	0340                	addi	s0,sp,388
 422:	8000                	.2byte	0x8000
 424:	9f7f7f03          	.4byte	0x9f7f7f03
 428:	00034007          	.4byte	0x34007
 42c:	4680                	lw	s0,8(a3)
 42e:	01800003          	lb	zero,24(zero) # 18 <_prog_start-0x7fffffe8>
 432:	005f f207 0004      	.byte	0x5f, 0x00, 0x07, 0xf2, 0x04, 0x00
 438:	1080                	addi	s0,sp,96
 43a:	0005                	c.nop	1
 43c:	0280                	addi	s0,sp,320
 43e:	9f30                	.2byte	0x9f30
 440:	00051007          	.4byte	0x51007
 444:	2a80                	.2byte	0x2a80
 446:	0005                	c.nop	1
 448:	0180                	addi	s0,sp,192
 44a:	075f 052a 8000      	.byte	0x5f, 0x07, 0x2a, 0x05, 0x00, 0x80
 450:	0530                	addi	a2,sp,648
 452:	8000                	.2byte	0x8000
 454:	9f7f7f03          	.4byte	0x9f7f7f03
 458:	00053007          	.4byte	0x53007
 45c:	3680                	.2byte	0x3680
 45e:	0005                	c.nop	1
 460:	0180                	addi	s0,sp,192
 462:	005f 0291 0000      	.byte	0x5f, 0x00, 0x91, 0x02, 0x00, 0x00
 468:	0005                	c.nop	1
 46a:	0004                	.2byte	0x4
 46c:	0000                	unimp
 46e:	0000                	unimp
 470:	0007f607          	.4byte	0x7f607
 474:	0e80                	addi	s0,sp,848
 476:	0008                	.2byte	0x8
 478:	0180                	addi	s0,sp,192
 47a:	075a                	slli	a4,a4,0x16
 47c:	080e                	slli	a6,a6,0x3
 47e:	8000                	.2byte	0x8000
 480:	0814                	addi	a3,sp,16
 482:	8000                	.2byte	0x8000
 484:	9f017a03          	.4byte	0x9f017a03
 488:	00081407          	.4byte	0x81407
 48c:	6880                	.2byte	0x6880
 48e:	0008                	.2byte	0x8
 490:	0180                	addi	s0,sp,192
 492:	075a                	slli	a4,a4,0x16
 494:	086c                	addi	a1,sp,28
 496:	8000                	.2byte	0x8000
 498:	097c                	addi	a5,sp,156
 49a:	8000                	.2byte	0x8000
 49c:	5a01                	li	s4,-32
 49e:	0700                	addi	s0,sp,896
 4a0:	080e                	slli	a6,a6,0x3
 4a2:	8000                	.2byte	0x8000
 4a4:	082a                	slli	a6,a6,0xa
 4a6:	8000                	.2byte	0x8000
 4a8:	3002                	.2byte	0x3002
 4aa:	079f 082a 8000      	.byte	0x9f, 0x07, 0x2a, 0x08, 0x00, 0x80
 4b0:	0846                	slli	a6,a6,0x11
 4b2:	8000                	.2byte	0x8000
 4b4:	5d01                	li	s10,-32
 4b6:	00085e07          	.4byte	0x85e07
 4ba:	6880                	.2byte	0x6880
 4bc:	0008                	.2byte	0x8
 4be:	0180                	addi	s0,sp,192
 4c0:	075d                	addi	a4,a4,23 # 1a017 <_prog_start-0x7ffe5fe9>
 4c2:	086c                	addi	a1,sp,28
 4c4:	8000                	.2byte	0x8000
 4c6:	088a                	slli	a7,a7,0x2
 4c8:	8000                	.2byte	0x8000
 4ca:	5d01                	li	s10,-32
 4cc:	0008ae07          	.4byte	0x8ae07
 4d0:	c080                	sw	s0,0(s1)
 4d2:	0008                	.2byte	0x8
 4d4:	0180                	addi	s0,sp,192
 4d6:	075d                	addi	a4,a4,23
 4d8:	08d2                	slli	a7,a7,0x14
 4da:	8000                	.2byte	0x8000
 4dc:	0908                	addi	a0,sp,144
 4de:	8000                	.2byte	0x8000
 4e0:	5d01                	li	s10,-32
 4e2:	00091207          	.4byte	0x91207
 4e6:	1680                	addi	s0,sp,864
 4e8:	0009                	c.nop	2
 4ea:	0180                	addi	s0,sp,192
 4ec:	075d                	addi	a4,a4,23
 4ee:	0916                	slli	s2,s2,0x5
 4f0:	8000                	.2byte	0x8000
 4f2:	0930                	addi	a2,sp,152
 4f4:	8000                	.2byte	0x8000
 4f6:	3002                	.2byte	0x3002
 4f8:	079f 0930 8000      	.byte	0x9f, 0x07, 0x30, 0x09, 0x00, 0x80
 4fe:	0936                	slli	s2,s2,0xd
 500:	8000                	.2byte	0x8000
 502:	5d01                	li	s10,-32
 504:	0700                	addi	s0,sp,896
 506:	080e                	slli	a6,a6,0x3
 508:	8000                	.2byte	0x8000
 50a:	082a                	slli	a6,a6,0xa
 50c:	8000                	.2byte	0x8000
 50e:	3002                	.2byte	0x3002
 510:	079f 082a 8000      	.byte	0x9f, 0x07, 0x2a, 0x08, 0x00, 0x80
 516:	084e                	slli	a6,a6,0x13
 518:	8000                	.2byte	0x8000
 51a:	5e01                	li	t3,-32
 51c:	00085e07          	.4byte	0x85e07
 520:	6880                	.2byte	0x6880
 522:	0008                	.2byte	0x8
 524:	0180                	addi	s0,sp,192
 526:	075e                	slli	a4,a4,0x17
 528:	086c                	addi	a1,sp,28
 52a:	8000                	.2byte	0x8000
 52c:	088a                	slli	a7,a7,0x2
 52e:	8000                	.2byte	0x8000
 530:	5e01                	li	t3,-32
 532:	0008ae07          	.4byte	0x8ae07
 536:	ba80                	.2byte	0xba80
 538:	0008                	.2byte	0x8
 53a:	0180                	addi	s0,sp,192
 53c:	075e                	slli	a4,a4,0x17
 53e:	08d2                	slli	a7,a7,0x14
 540:	8000                	.2byte	0x8000
 542:	0908                	addi	a0,sp,144
 544:	8000                	.2byte	0x8000
 546:	5e01                	li	t3,-32
 548:	00091207          	.4byte	0x91207
 54c:	1680                	addi	s0,sp,864
 54e:	0009                	c.nop	2
 550:	0280                	addi	s0,sp,320
 552:	9f31                	.2byte	0x9f31
 554:	00091607          	.4byte	0x91607
 558:	3680                	.2byte	0x3680
 55a:	0009                	c.nop	2
 55c:	0180                	addi	s0,sp,192
 55e:	005e                	c.slli	zero,0x17
 560:	00080e07          	.4byte	0x80e07
 564:	3080                	.2byte	0x3080
 566:	0008                	.2byte	0x8
 568:	0180                	addi	s0,sp,192
 56a:	0756                	slli	a4,a4,0x15
 56c:	0864                	addi	s1,sp,28
 56e:	8000                	.2byte	0x8000
 570:	086c                	addi	a1,sp,28
 572:	8000                	.2byte	0x8000
 574:	5601                	li	a2,-32
 576:	00091607          	.4byte	0x91607
 57a:	3080                	.2byte	0x3080
 57c:	0009                	c.nop	2
 57e:	0180                	addi	s0,sp,192
 580:	0056                	c.slli	zero,0x15
 582:	00093607          	.4byte	0x93607
 586:	5a80                	lw	s0,48(a3)
 588:	0009                	c.nop	2
 58a:	0180                	addi	s0,sp,192
 58c:	0756                	slli	a4,a4,0x15
 58e:	095a                	slli	s2,s2,0x16
 590:	8000                	.2byte	0x8000
 592:	096a                	slli	s2,s2,0x1a
 594:	8000                	.2byte	0x8000
 596:	5f01                	li	t5,-32
 598:	00096a07          	.4byte	0x96a07
 59c:	7c80                	.2byte	0x7c80
 59e:	0009                	c.nop	2
 5a0:	0c80                	addi	s0,sp,592
 5a2:	0076                	c.slli	zero,0x1d
 5a4:	26a8                	.2byte	0x26a8
 5a6:	008d                	addi	ra,ra,3
 5a8:	26a8                	.2byte	0x26a8
 5aa:	9f00a81b          	.4byte	0x9f00a81b
 5ae:	0700                	addi	s0,sp,896
 5b0:	0936                	slli	s2,s2,0xd
 5b2:	8000                	.2byte	0x8000
 5b4:	093a                	slli	s2,s2,0xe
 5b6:	8000                	.2byte	0x8000
 5b8:	9f3f0803          	lb	a6,-1549(t5) # fffdf9f3 <a+0x7ffdf007>
 5bc:	00093a07          	.4byte	0x93a07
 5c0:	4280                	lw	s0,0(a3)
 5c2:	0009                	c.nop	2
 5c4:	0880                	addi	s0,sp,80
 5c6:	007f                	.2byte	0x7f
 5c8:	0091                	addi	ra,ra,4
 5ca:	231c                	.2byte	0x231c
 5cc:	9f61                	.2byte	0x9f61
 5ce:	00094207          	.4byte	0x94207
 5d2:	4680                	lw	s0,8(a3)
 5d4:	0009                	c.nop	2
 5d6:	0880                	addi	s0,sp,80
 5d8:	007e                	c.slli	zero,0x1f
 5da:	0091                	addi	ra,ra,4
 5dc:	231c                	.2byte	0x231c
 5de:	9f61                	.2byte	0x9f61
 5e0:	0700                	addi	s0,sp,896
 5e2:	0972                	slli	s2,s2,0x1c
 5e4:	8000                	.2byte	0x8000
 5e6:	0978                	addi	a4,sp,156
 5e8:	8000                	.2byte	0x8000
 5ea:	7c08                	.2byte	0x7c08
 5ec:	9100                	.2byte	0x9100
 5ee:	1c00                	addi	s0,sp,560
 5f0:	079f6023          	.4byte	0x79f6023
 5f4:	0978                	addi	a4,sp,156
 5f6:	8000                	.2byte	0x8000
 5f8:	097c                	addi	a5,sp,156
 5fa:	8000                	.2byte	0x8000
 5fc:	7c08                	.2byte	0x7c08
 5fe:	9100                	.2byte	0x9100
 600:	1c00                	addi	s0,sp,560
 602:	009f5f23          	.4byte	0x9f5f23
 606:	00096e07          	.4byte	0x96e07
 60a:	7280                	.2byte	0x7280
 60c:	0009                	c.nop	2
 60e:	0180                	addi	s0,sp,192
 610:	005d                	c.nop	23
 612:	00088a07          	.4byte	0x88a07
 616:	ae80                	.2byte	0xae80
 618:	0008                	.2byte	0x8
 61a:	0180                	addi	s0,sp,192
 61c:	005c                	addi	a5,sp,4
 61e:	00089207          	.4byte	0x89207
 622:	ae80                	.2byte	0xae80
 624:	0008                	.2byte	0x8
 626:	0180                	addi	s0,sp,192
 628:	0056                	c.slli	zero,0x15
 62a:	0008a207          	.4byte	0x8a207
 62e:	a680                	.2byte	0xa680
 630:	0008                	.2byte	0x8
 632:	0180                	addi	s0,sp,192
 634:	005d                	c.nop	23
 636:	00084e07          	.4byte	0x84e07
 63a:	5a80                	lw	s0,48(a3)
 63c:	0008                	.2byte	0x8
 63e:	0180                	addi	s0,sp,192
 640:	005e                	c.slli	zero,0x17
 642:	00084e07          	.4byte	0x84e07
 646:	5a80                	lw	s0,48(a3)
 648:	0008                	.2byte	0x8
 64a:	0480                	addi	s0,sp,576
 64c:	4a49                	li	s4,18
 64e:	9f24                	.2byte	0x9f24
 650:	0700                	addi	s0,sp,896
 652:	0856                	slli	a6,a6,0x15
 654:	8000                	.2byte	0x8000
 656:	085a                	slli	a6,a6,0x16
 658:	8000                	.2byte	0x8000
 65a:	5d01                	li	s10,-32
 65c:	0700                	addi	s0,sp,896
 65e:	08b2                	slli	a7,a7,0xc
 660:	8000                	.2byte	0x8000
 662:	08d2                	slli	a7,a7,0x14
 664:	8000                	.2byte	0x8000
 666:	5c01                	li	s8,-32
 668:	0700                	addi	s0,sp,896
 66a:	08ba                	slli	a7,a7,0xe
 66c:	8000                	.2byte	0x8000
 66e:	08cc                	addi	a1,sp,84
 670:	8000                	.2byte	0x8000
 672:	5e01                	li	t3,-32
 674:	0008ce07          	.4byte	0x8ce07
 678:	d280                	sw	s0,32(a3)
 67a:	0008                	.2byte	0x8
 67c:	0180                	addi	s0,sp,192
 67e:	005e                	c.slli	zero,0x17
 680:	0008c407          	.4byte	0x8c407
 684:	c880                	sw	s0,16(s1)
 686:	0008                	.2byte	0x8
 688:	0180                	addi	s0,sp,192
 68a:	005d                	c.nop	23
 68c:	00090c07          	.4byte	0x90c07
 690:	1280                	addi	s0,sp,352
 692:	0009                	c.nop	2
 694:	0180                	addi	s0,sp,192
 696:	005d                	c.nop	23
 698:	00092207          	.4byte	0x92207
 69c:	3080                	.2byte	0x3080
 69e:	0009                	c.nop	2
 6a0:	0180                	addi	s0,sp,192
 6a2:	005f be07 0007      	.byte	0x5f, 0x00, 0x07, 0xbe, 0x07, 0x00
 6a8:	c880                	sw	s0,16(s1)
 6aa:	01800007          	.4byte	0x1800007
 6ae:	075a                	slli	a4,a4,0x16
 6b0:	07c8                	addi	a0,sp,964
 6b2:	8000                	.2byte	0x8000
 6b4:	07f6                	slli	a5,a5,0x1d
 6b6:	8000                	.2byte	0x8000
 6b8:	a304                	.2byte	0xa304
 6ba:	5a01                	li	s4,-32
 6bc:	009f be07 0007      	.byte	0x9f, 0x00, 0x07, 0xbe, 0x07, 0x00
 6c2:	de80                	sw	s0,56(a3)
 6c4:	01800007          	.4byte	0x1800007
 6c8:	005a                	c.slli	zero,0x16
 6ca:	0007c207          	.4byte	0x7c207
 6ce:	d480                	sw	s0,40(s1)
 6d0:	01800007          	.4byte	0x1800007
 6d4:	075e                	slli	a4,a4,0x17
 6d6:	07d6                	slli	a5,a5,0x15
 6d8:	8000                	.2byte	0x8000
 6da:	07de                	slli	a5,a5,0x17
 6dc:	8000                	.2byte	0x8000
 6de:	5e01                	li	t3,-32
 6e0:	0700                	addi	s0,sp,896
 6e2:	07cc                	addi	a1,sp,964
 6e4:	8000                	.2byte	0x8000
 6e6:	07d0                	addi	a2,sp,964
 6e8:	8000                	.2byte	0x8000
 6ea:	5d01                	li	s10,-32
 6ec:	0700                	addi	s0,sp,896
 6ee:	07e2                	slli	a5,a5,0x18
 6f0:	8000                	.2byte	0x8000
 6f2:	07ec                	addi	a1,sp,972
 6f4:	8000                	.2byte	0x8000
 6f6:	5d01                	li	s10,-32
	...

Disassembly of section .debug_rnglists:

00000000 <.debug_rnglists>:
   0:	00d9                	addi	ra,ra,22
   2:	0000                	unimp
   4:	0005                	c.nop	1
   6:	0004                	.2byte	0x4
   8:	0000                	unimp
   a:	0000                	unimp
   c:	b406                	.2byte	0xb406
   e:	0001                	nop
  10:	b880                	.2byte	0xb880
  12:	0001                	nop
  14:	0680                	addi	s0,sp,832
  16:	01bc                	addi	a5,sp,200
  18:	8000                	.2byte	0x8000
  1a:	01ec                	addi	a1,sp,204
  1c:	8000                	.2byte	0x8000
  1e:	0600                	addi	s0,sp,768
  20:	020e                	slli	tp,tp,0x3
  22:	8000                	.2byte	0x8000
  24:	0212                	slli	tp,tp,0x4
  26:	8000                	.2byte	0x8000
  28:	1606                	slli	a2,a2,0x21
  2a:	0002                	c.slli64	zero
  2c:	4680                	lw	s0,8(a3)
  2e:	0002                	c.slli64	zero
  30:	0080                	addi	s0,sp,64
  32:	6806                	.2byte	0x6806
  34:	0002                	c.slli64	zero
  36:	6c80                	.2byte	0x6c80
  38:	0002                	c.slli64	zero
  3a:	0680                	addi	s0,sp,832
  3c:	0270                	addi	a2,sp,268
  3e:	8000                	.2byte	0x8000
  40:	02a0                	addi	s0,sp,328
  42:	8000                	.2byte	0x8000
  44:	0600                	addi	s0,sp,768
  46:	02c2                	slli	t0,t0,0x10
  48:	8000                	.2byte	0x8000
  4a:	02c6                	slli	t0,t0,0x11
  4c:	8000                	.2byte	0x8000
  4e:	ca06                	sw	ra,20(sp)
  50:	0002                	c.slli64	zero
  52:	fa80                	.2byte	0xfa80
  54:	0002                	c.slli64	zero
  56:	0080                	addi	s0,sp,64
  58:	a406                	.2byte	0xa406
  5a:	a8800003          	lb	zero,-1400(zero) # fffffa88 <a+0x7ffff09c>
  5e:	06800003          	lb	zero,104(zero) # 68 <_prog_start-0x7fffff98>
  62:	03ac                	addi	a1,sp,456
  64:	8000                	.2byte	0x8000
  66:	03dc                	addi	a5,sp,452
  68:	8000                	.2byte	0x8000
  6a:	0600                	addi	s0,sp,768
  6c:	03fe                	slli	t2,t2,0x1f
  6e:	8000                	.2byte	0x8000
  70:	0402                	c.slli64	s0
  72:	8000                	.2byte	0x8000
  74:	0606                	slli	a2,a2,0x1
  76:	0004                	.2byte	0x4
  78:	3680                	.2byte	0x3680
  7a:	0004                	.2byte	0x4
  7c:	0080                	addi	s0,sp,64
  7e:	5806                	lw	a6,96(sp)
  80:	0004                	.2byte	0x4
  82:	5c80                	lw	s0,56(s1)
  84:	0004                	.2byte	0x4
  86:	0680                	addi	s0,sp,832
  88:	0460                	addi	s0,sp,524
  8a:	8000                	.2byte	0x8000
  8c:	0490                	addi	a2,sp,576
  8e:	8000                	.2byte	0x8000
  90:	0600                	addi	s0,sp,768
  92:	04b2                	slli	s1,s1,0xc
  94:	8000                	.2byte	0x8000
  96:	04b6                	slli	s1,s1,0xd
  98:	8000                	.2byte	0x8000
  9a:	ba06                	.2byte	0xba06
  9c:	0004                	.2byte	0x4
  9e:	ea80                	.2byte	0xea80
  a0:	0004                	.2byte	0x4
  a2:	0080                	addi	s0,sp,64
  a4:	da06                	sw	ra,52(sp)
  a6:	0006                	c.slli	zero,0x1
  a8:	dc80                	sw	s0,56(s1)
  aa:	0006                	c.slli	zero,0x1
  ac:	0680                	addi	s0,sp,832
  ae:	06e0                	addi	s0,sp,844
  b0:	8000                	.2byte	0x8000
  b2:	0708                	addi	a0,sp,896
  b4:	8000                	.2byte	0x8000
  b6:	0600                	addi	s0,sp,768
  b8:	0714                	addi	a3,sp,896
  ba:	8000                	.2byte	0x8000
  bc:	0726                	slli	a4,a4,0x9
  be:	8000                	.2byte	0x8000
  c0:	2806                	.2byte	0x2806
  c2:	6a800007          	.4byte	0x6a800007
  c6:	00800007          	.4byte	0x800007
  ca:	9a06                	add	s4,s4,ra
  cc:	0001                	nop
  ce:	7a80                	.2byte	0x7a80
  d0:	0005                	c.nop	1
  d2:	0680                	addi	s0,sp,832
  d4:	057a                	slli	a0,a0,0x1e
  d6:	8000                	.2byte	0x8000
  d8:	07be                	slli	a5,a5,0xf
  da:	8000                	.2byte	0x8000
  dc:	a800                	.2byte	0xa800
  de:	0000                	unimp
  e0:	0500                	addi	s0,sp,640
  e2:	0400                	addi	s0,sp,512
  e4:	0000                	unimp
  e6:	0000                	unimp
  e8:	0600                	addi	s0,sp,768
  ea:	081c                	addi	a5,sp,16
  ec:	8000                	.2byte	0x8000
  ee:	0820                	addi	s0,sp,24
  f0:	8000                	.2byte	0x8000
  f2:	1e06                	slli	t3,t3,0x21
  f4:	0009                	c.nop	2
  f6:	3280                	.2byte	0x3280
  f8:	0009                	c.nop	2
  fa:	0080                	addi	s0,sp,64
  fc:	4406                	lw	s0,64(sp)
  fe:	0008                	.2byte	0x8
 100:	5a80                	lw	s0,48(a3)
 102:	0008                	.2byte	0x8
 104:	0680                	addi	s0,sp,832
 106:	086c                	addi	a1,sp,28
 108:	8000                	.2byte	0x8000
 10a:	0916                	slli	s2,s2,0x5
 10c:	8000                	.2byte	0x8000
 10e:	3206                	.2byte	0x3206
 110:	0009                	c.nop	2
 112:	7c80                	.2byte	0x7c80
 114:	0009                	c.nop	2
 116:	0080                	addi	s0,sp,64
 118:	4606                	lw	a2,64(sp)
 11a:	0008                	.2byte	0x8
 11c:	4a80                	lw	s0,16(a3)
 11e:	0008                	.2byte	0x8
 120:	0680                	addi	s0,sp,832
 122:	084e                	slli	a6,a6,0x13
 124:	8000                	.2byte	0x8000
 126:	084e                	slli	a6,a6,0x13
 128:	8000                	.2byte	0x8000
 12a:	5206                	lw	tp,96(sp)
 12c:	0008                	.2byte	0x8
 12e:	5a80                	lw	s0,48(a3)
 130:	0008                	.2byte	0x8
 132:	0080                	addi	s0,sp,64
 134:	8206                	mv	tp,ra
 136:	0008                	.2byte	0x8
 138:	8880                	.2byte	0x8880
 13a:	0008                	.2byte	0x8
 13c:	0680                	addi	s0,sp,832
 13e:	088a                	slli	a7,a7,0x2
 140:	8000                	.2byte	0x8000
 142:	08a6                	slli	a7,a7,0x9
 144:	8000                	.2byte	0x8000
 146:	0600                	addi	s0,sp,768
 148:	0884                	addi	s1,sp,80
 14a:	8000                	.2byte	0x8000
 14c:	0888                	addi	a0,sp,80
 14e:	8000                	.2byte	0x8000
 150:	9e06                	add	t3,t3,ra
 152:	0008                	.2byte	0x8
 154:	a680                	.2byte	0xa680
 156:	0008                	.2byte	0x8
 158:	0080                	addi	s0,sp,64
 15a:	b206                	.2byte	0xb206
 15c:	0008                	.2byte	0x8
 15e:	b280                	.2byte	0xb280
 160:	0008                	.2byte	0x8
 162:	0680                	addi	s0,sp,832
 164:	08b6                	slli	a7,a7,0xd
 166:	8000                	.2byte	0x8000
 168:	08d2                	slli	a7,a7,0x14
 16a:	8000                	.2byte	0x8000
 16c:	0600                	addi	s0,sp,768
 16e:	08d4                	addi	a3,sp,84
 170:	8000                	.2byte	0x8000
 172:	08d8                	addi	a4,sp,84
 174:	8000                	.2byte	0x8000
 176:	dc06                	sw	ra,56(sp)
 178:	0008                	.2byte	0x8
 17a:	dc80                	sw	s0,56(s1)
 17c:	0008                	.2byte	0x8
 17e:	0680                	addi	s0,sp,832
 180:	08e0                	addi	s0,sp,92
 182:	8000                	.2byte	0x8000
 184:	08fc                	addi	a5,sp,92
 186:	8000                	.2byte	0x8000
	...

Disassembly of section .debug_frame:

00000000 <.debug_frame>:
   0:	000c                	.2byte	0xc
   2:	0000                	unimp
   4:	ffff                	.2byte	0xffff
   6:	ffff                	.2byte	0xffff
   8:	7c010003          	lb	zero,1984(sp)
   c:	0d01                	addi	s10,s10,0 # b000 <_prog_start-0x7fff5000>
   e:	0002                	c.slli64	zero
  10:	000c                	.2byte	0xc
  12:	0000                	unimp
  14:	0000                	unimp
  16:	0000                	unimp
  18:	019a                	slli	gp,gp,0x6
  1a:	8000                	.2byte	0x8000
  1c:	005a                	c.slli	zero,0x16
  1e:	0000                	unimp
  20:	000c                	.2byte	0xc
  22:	0000                	unimp
  24:	0000                	unimp
  26:	0000                	unimp
  28:	01f4                	addi	a3,sp,204
  2a:	8000                	.2byte	0x8000
  2c:	005a                	c.slli	zero,0x16
  2e:	0000                	unimp
  30:	000c                	.2byte	0xc
  32:	0000                	unimp
  34:	0000                	unimp
  36:	0000                	unimp
  38:	024e                	slli	tp,tp,0x13
  3a:	8000                	.2byte	0x8000
  3c:	005a                	c.slli	zero,0x16
  3e:	0000                	unimp
  40:	000c                	.2byte	0xc
  42:	0000                	unimp
  44:	0000                	unimp
  46:	0000                	unimp
  48:	02a8                	addi	a0,sp,328
  4a:	8000                	.2byte	0x8000
  4c:	005a                	c.slli	zero,0x16
  4e:	0000                	unimp
  50:	000c                	.2byte	0xc
  52:	0000                	unimp
  54:	0000                	unimp
  56:	0000                	unimp
  58:	0302                	c.slli64	t1
  5a:	8000                	.2byte	0x8000
  5c:	0044                	addi	s1,sp,4
  5e:	0000                	unimp
  60:	000c                	.2byte	0xc
  62:	0000                	unimp
  64:	0000                	unimp
  66:	0000                	unimp
  68:	0346                	slli	t1,t1,0x11
  6a:	8000                	.2byte	0x8000
  6c:	0044                	addi	s1,sp,4
  6e:	0000                	unimp
  70:	000c                	.2byte	0xc
  72:	0000                	unimp
  74:	0000                	unimp
  76:	0000                	unimp
  78:	038a                	slli	t2,t2,0x2
  7a:	8000                	.2byte	0x8000
  7c:	005a                	c.slli	zero,0x16
  7e:	0000                	unimp
  80:	000c                	.2byte	0xc
  82:	0000                	unimp
  84:	0000                	unimp
  86:	0000                	unimp
  88:	03e4                	addi	s1,sp,460
  8a:	8000                	.2byte	0x8000
  8c:	005a                	c.slli	zero,0x16
  8e:	0000                	unimp
  90:	000c                	.2byte	0xc
  92:	0000                	unimp
  94:	0000                	unimp
  96:	0000                	unimp
  98:	043e                	slli	s0,s0,0xf
  9a:	8000                	.2byte	0x8000
  9c:	005a                	c.slli	zero,0x16
  9e:	0000                	unimp
  a0:	000c                	.2byte	0xc
  a2:	0000                	unimp
  a4:	0000                	unimp
  a6:	0000                	unimp
  a8:	0498                	addi	a4,sp,576
  aa:	8000                	.2byte	0x8000
  ac:	005a                	c.slli	zero,0x16
  ae:	0000                	unimp
  b0:	000c                	.2byte	0xc
  b2:	0000                	unimp
  b4:	0000                	unimp
  b6:	0000                	unimp
  b8:	04f2                	slli	s1,s1,0x1c
  ba:	8000                	.2byte	0x8000
  bc:	0044                	addi	s1,sp,4
  be:	0000                	unimp
  c0:	000c                	.2byte	0xc
  c2:	0000                	unimp
  c4:	0000                	unimp
  c6:	0000                	unimp
  c8:	0536                	slli	a0,a0,0xd
  ca:	8000                	.2byte	0x8000
  cc:	0044                	addi	s1,sp,4
  ce:	0000                	unimp
  d0:	0048                	addi	a0,sp,4
  d2:	0000                	unimp
  d4:	0000                	unimp
  d6:	0000                	unimp
  d8:	057a                	slli	a0,a0,0x1e
  da:	8000                	.2byte	0x8000
  dc:	0244                	addi	s1,sp,260
  de:	0000                	unimp
  e0:	0e42                	slli	t3,t3,0x10
  e2:	5c30                	lw	a2,120(s0)
  e4:	0288                	addi	a0,sp,320
  e6:	0694                	addi	a3,sp,832
  e8:	0795                	addi	a5,a5,5 # 64000005 <_prog_start-0x1bfffffb>
  ea:	0896                	slli	a7,a7,0x5
  ec:	0a980997          	auipc	s3,0xa980
  f0:	0181                	addi	gp,gp,0
  f2:	0389                	addi	t2,t2,2
  f4:	0492                	slli	s1,s1,0x4
  f6:	0b990593          	addi	a1,s2,185 # 1d0b9 <_prog_start-0x7ffe2f47>
  fa:	0c9a                	slli	s9,s9,0x6
  fc:	c1020a03          	lb	s4,-1008(tp) # ffff8c10 <a+0x7fff8224>
 100:	c842                	sw	a6,16(sp)
 102:	c942                	sw	a6,144(sp)
 104:	d242                	sw	a6,36(sp)
 106:	d342                	sw	a6,164(sp)
 108:	d442                	sw	a6,40(sp)
 10a:	d542                	sw	a6,168(sp)
 10c:	d642                	sw	a6,44(sp)
 10e:	d742                	sw	a6,172(sp)
 110:	d842                	sw	a6,48(sp)
 112:	d942                	sw	a6,176(sp)
 114:	da42                	sw	a6,52(sp)
 116:	0e44                	addi	s1,sp,788
 118:	0000                	unimp
 11a:	0000                	unimp
 11c:	000c                	.2byte	0xc
 11e:	0000                	unimp
 120:	ffff                	.2byte	0xffff
 122:	ffff                	.2byte	0xffff
 124:	7c010003          	lb	zero,1984(sp)
 128:	0d01                	addi	s10,s10,0
 12a:	0002                	c.slli64	zero
 12c:	000c                	.2byte	0xc
 12e:	0000                	unimp
 130:	011c                	addi	a5,sp,128
 132:	0000                	unimp
 134:	07be                	slli	a5,a5,0xf
 136:	8000                	.2byte	0x8000
 138:	0038                	addi	a4,sp,8
 13a:	0000                	unimp
 13c:	0018                	.2byte	0x18
 13e:	0000                	unimp
 140:	011c                	addi	a5,sp,128
 142:	0000                	unimp
 144:	07f6                	slli	a5,a5,0x1d
 146:	8000                	.2byte	0x8000
 148:	0186                	slli	gp,gp,0x1
 14a:	0000                	unimp
 14c:	0e42                	slli	t3,t3,0x10
 14e:	0270                	addi	a2,sp,268
 150:	0a72                	slli	s4,s4,0x1c
 152:	000e                	c.slli	zero,0x3
 154:	0b42                	slli	s6,s6,0x10
	...
