
/home/binhkieudo/Workspace/NewFramework/framework/sw/conv2d/build/main.elf:     file format elf64-littleriscv


Disassembly of section .text:

0000000080000000 <_prog_start>:
  .option norvc
  .globl _prog_start
_prog_start:
    # li s0, MEMORY_MEM_ADDR
    # jr s0
  csrw mie, zero
    80000000:	30401073          	csrw	mie,zero
  csrr a0, mhartid
    80000004:	f1402573          	csrr	a0,mhartid
  beq a0, zero, _hart0
    80000008:	02050063          	beqz	a0,80000028 <_hart0>
  li t0, 1
    8000000c:	00100293          	li	t0,1
  beq a0, t0, _hart1
    80000010:	02550863          	beq	a0,t0,80000040 <_hart1>
  li t0, 2
    80000014:	00200293          	li	t0,2
  beq a0, t0, _hart2
    80000018:	04550c63          	beq	a0,t0,80000070 <_hart2>
  li t0, 3
    8000001c:	00300293          	li	t0,3
  beq a0, t0, _hart3
    80000020:	08550063          	beq	a0,t0,800000a0 <_hart3>
  j _loopback
    80000024:	0ac0006f          	j	800000d0 <_loopback>

0000000080000028 <_hart0>:
_hart0:
  csrrw t0, mcycle, zero
    80000028:	b00012f3          	csrrw	t0,mcycle,zero
  csrrw t0, minstret, zero
    8000002c:	b02012f3          	csrrw	t0,minstret,zero
  li sp, 0x40000ff0
    80000030:	40001137          	lui	sp,0x40001
    80000034:	ff01011b          	addiw	sp,sp,-16 # 40000ff0 <_prog_start-0x3ffff010>
  call main
    80000038:	37c000ef          	jal	ra,800003b4 <main>
  wfi
    8000003c:	10500073          	wfi

0000000080000040 <_hart1>:
_hart1:
  wfi
    80000040:	10500073          	wfi
  csrw mie, zero
    80000044:	30401073          	csrw	mie,zero
  li s1, 0
    80000048:	00000493          	li	s1,0
  li t0, (CLINT_CTRL_ADDR + CLINT_MSIP1)
    8000004c:	020002b7          	lui	t0,0x2000
    80000050:	0042829b          	addiw	t0,t0,4 # 2000004 <_prog_start-0x7dfffffc>
  amoswap.w t1, s1, (t0)
    80000054:	0892a32f          	amoswap.w	t1,s1,(t0)
  li sp, 0x40001ff0
    80000058:	40002137          	lui	sp,0x40002
    8000005c:	ff01011b          	addiw	sp,sp,-16 # 40001ff0 <_prog_start-0x3fffe010>
  call conv2d_1
    80000060:	178000ef          	jal	ra,800001d8 <conv2d_1>
  li s1, 1
    80000064:	00100493          	li	s1,1
  csrw mie, s1
    80000068:	30449073          	csrw	mie,s1
  j _hart1
    8000006c:	fd5ff06f          	j	80000040 <_hart1>

0000000080000070 <_hart2>:
_hart2:
  wfi
    80000070:	10500073          	wfi
  csrw mie, zero
    80000074:	30401073          	csrw	mie,zero
  li s1, 0
    80000078:	00000493          	li	s1,0
  li t0, (CLINT_CTRL_ADDR + CLINT_MSIP2)
    8000007c:	020002b7          	lui	t0,0x2000
    80000080:	0082829b          	addiw	t0,t0,8 # 2000008 <_prog_start-0x7dfffff8>
  amoswap.w t1, s1, (t0)
    80000084:	0892a32f          	amoswap.w	t1,s1,(t0)
  li sp, 0x40002ff0
    80000088:	40003137          	lui	sp,0x40003
    8000008c:	ff01011b          	addiw	sp,sp,-16 # 40002ff0 <_prog_start-0x3fffd010>
  call conv2d_2
    80000090:	1ec000ef          	jal	ra,8000027c <conv2d_2>
  li s1, 1
    80000094:	00100493          	li	s1,1
  csrw mie, s1
    80000098:	30449073          	csrw	mie,s1
  j _hart2
    8000009c:	fd5ff06f          	j	80000070 <_hart2>

00000000800000a0 <_hart3>:
_hart3:
  wfi
    800000a0:	10500073          	wfi
  csrw mie, zero
    800000a4:	30401073          	csrw	mie,zero
  li s1, 0
    800000a8:	00000493          	li	s1,0
  li t0, (CLINT_CTRL_ADDR + CLINT_MSIP3)
    800000ac:	020002b7          	lui	t0,0x2000
    800000b0:	00c2829b          	addiw	t0,t0,12 # 200000c <_prog_start-0x7dfffff4>
  amoswap.w t1, s1, (t0)
    800000b4:	0892a32f          	amoswap.w	t1,s1,(t0)
  li sp, 0x40003ff0
    800000b8:	40004137          	lui	sp,0x40004
    800000bc:	ff01011b          	addiw	sp,sp,-16 # 40003ff0 <_prog_start-0x3fffc010>
  call conv2d_3
    800000c0:	25c000ef          	jal	ra,8000031c <conv2d_3>
  li s1, 1
    800000c4:	00100493          	li	s1,1
  csrw mie, s1
    800000c8:	30449073          	csrw	mie,s1
  j _hart3
    800000cc:	fd5ff06f          	j	800000a0 <_hart3>

00000000800000d0 <_loopback>:
_loopback:
  j _loopback
    800000d0:	0000006f          	j	800000d0 <_loopback>

00000000800000d4 <conv2d>:
#define OUTPUT_SIZE (INPUT_SIZE*INPUT_SIZE - KERNEL_SIZE*KERNEL_SIZE + 1)

// Example usage (replace with your actual data)


void conv2d(uint8_t* input, uint8_t* kernel, uint8_t* output) {
    800000d4:	8f2e                	mv	t5,a1
    800000d6:	8eb2                	mv	t4,a2
    800000d8:	8e2a                	mv	t3,a0
    for (int y = 0; y < INPUT_SIZE - KERNEL_SIZE + 1; y++) {
    800000da:	4f81                	li	t6,0
    800000dc:	40058893          	addi	a7,a1,1024
        for (int x = 0; x < INPUT_SIZE - KERNEL_SIZE + 1; x++) {
    800000e0:	06100293          	li	t0,97
            uint8_t sum = 0;
    800000e4:	4301                	li	t1,0
    800000e6:	020e0393          	addi	t2,t3,32
            for (int ky = 0; ky < KERNEL_SIZE; ky++) {
    800000ea:	887a                	mv	a6,t5
    800000ec:	00638533          	add	a0,t2,t1
            uint8_t sum = 0;
    800000f0:	4701                	li	a4,0
                for (int kx = 0; kx < KERNEL_SIZE; kx++) {
    800000f2:	fe050793          	addi	a5,a0,-32
void conv2d(uint8_t* input, uint8_t* kernel, uint8_t* output) {
    800000f6:	8642                	mv	a2,a6
                    int in_y = y + ky;
                    int in_x = x + kx;
                    sum += input[in_y * INPUT_SIZE + in_x] * kernel[ky * KERNEL_SIZE + kx];
    800000f8:	0007c683          	lbu	a3,0(a5)
    800000fc:	00064583          	lbu	a1,0(a2)
                for (int kx = 0; kx < KERNEL_SIZE; kx++) {
    80000100:	0785                	addi	a5,a5,1
    80000102:	0605                	addi	a2,a2,1
                    sum += input[in_y * INPUT_SIZE + in_x] * kernel[ky * KERNEL_SIZE + kx];
    80000104:	02b686bb          	mulw	a3,a3,a1
    80000108:	9f35                	addw	a4,a4,a3
    8000010a:	0ff77713          	zext.b	a4,a4
                for (int kx = 0; kx < KERNEL_SIZE; kx++) {
    8000010e:	fef515e3          	bne	a0,a5,800000f8 <conv2d+0x24>
            for (int ky = 0; ky < KERNEL_SIZE; ky++) {
    80000112:	02080813          	addi	a6,a6,32
    80000116:	08050513          	addi	a0,a0,128
    8000011a:	fd089ce3          	bne	a7,a6,800000f2 <conv2d+0x1e>
                }
            }
            output[y * (INPUT_SIZE - KERNEL_SIZE + 1) + x] = sum;
    8000011e:	006e87b3          	add	a5,t4,t1
    80000122:	00e78023          	sb	a4,0(a5)
        for (int x = 0; x < INPUT_SIZE - KERNEL_SIZE + 1; x++) {
    80000126:	0305                	addi	t1,t1,1
    80000128:	fc5311e3          	bne	t1,t0,800000ea <conv2d+0x16>
    for (int y = 0; y < INPUT_SIZE - KERNEL_SIZE + 1; y++) {
    8000012c:	2f85                	addiw	t6,t6,1
    8000012e:	061e8e93          	addi	t4,t4,97
    80000132:	080e0e13          	addi	t3,t3,128
    80000136:	fa6f97e3          	bne	t6,t1,800000e4 <conv2d+0x10>
        }
    }
}
    8000013a:	8082                	ret

000000008000013c <conv2d_0>:

void conv2d_0() {
    8000013c:	1101                	addi	sp,sp,-32
    8000013e:	70000f37          	lui	t5,0x70000
    80000142:	ec22                	sd	s0,24(sp)
    80000144:	e826                	sd	s1,16(sp)
    80000146:	e44a                	sd	s2,8(sp)
    80000148:	e04e                	sd	s3,0(sp)
    uint8_t *kernel = (uint8_t*)0x40000000;
    uint8_t *input = (uint8_t*)0x70000000;
    uint8_t *output = (uint8_t*)0x70005000;
    for (int y = 0; y <= GAP_SIZEP1; y++) {
        for (int x = 0; x <= GAP_SIZE; x++) {
            uint8_t sum = 0;
    8000014a:	4e81                	li	t4,0
    8000014c:	4281                	li	t0,0
    for (int y = 0; y <= GAP_SIZEP1; y++) {
    8000014e:	4f81                	li	t6,0
    80000150:	020f0f13          	addi	t5,t5,32 # 70000020 <_prog_start-0xfffffe0>
            for (int ky = 0; ky < KERNEL_SIZE; ky++) {
                for (int kx = 0; kx < KERNEL_SIZE; kx++) {
                    int in_y = y + ky;
                    int in_x = x + kx;
                    sum += input[in_y * INPUT_SIZE + in_x] * kernel[ky * KERNEL_SIZE + kx];
    80000154:	d0000837          	lui	a6,0xd0000
            for (int ky = 0; ky < KERNEL_SIZE; ky++) {
    80000158:	40000313          	li	t1,1024
                }
            }
            output[y * GAP_SIZE1 + x] = sum;
    8000015c:	700054b7          	lui	s1,0x70005
        for (int x = 0; x <= GAP_SIZE; x++) {
    80000160:	06100413          	li	s0,97
    for (int y = 0; y <= GAP_SIZEP1; y++) {
    80000164:	43e5                	li	t2,25
            uint8_t sum = 0;
    80000166:	4e01                	li	t3,0
    80000168:	41d009b3          	neg	s3,t4
    8000016c:	01ee8933          	add	s2,t4,t5
            for (int ky = 0; ky < KERNEL_SIZE; ky++) {
    80000170:	41c98533          	sub	a0,s3,t3
    80000174:	01c905b3          	add	a1,s2,t3
void conv2d_0() {
    80000178:	4881                	li	a7,0
            uint8_t sum = 0;
    8000017a:	4701                	li	a4,0
                for (int kx = 0; kx < KERNEL_SIZE; kx++) {
    8000017c:	fe058793          	addi	a5,a1,-32
                    sum += input[in_y * INPUT_SIZE + in_x] * kernel[ky * KERNEL_SIZE + kx];
    80000180:	00f506b3          	add	a3,a0,a5
    80000184:	96c2                	add	a3,a3,a6
    80000186:	0007c603          	lbu	a2,0(a5)
    8000018a:	0006c683          	lbu	a3,0(a3)
                for (int kx = 0; kx < KERNEL_SIZE; kx++) {
    8000018e:	0785                	addi	a5,a5,1
                    sum += input[in_y * INPUT_SIZE + in_x] * kernel[ky * KERNEL_SIZE + kx];
    80000190:	02c686bb          	mulw	a3,a3,a2
    80000194:	9f35                	addw	a4,a4,a3
    80000196:	0ff77713          	zext.b	a4,a4
                for (int kx = 0; kx < KERNEL_SIZE; kx++) {
    8000019a:	fef593e3          	bne	a1,a5,80000180 <conv2d_0+0x44>
            for (int ky = 0; ky < KERNEL_SIZE; ky++) {
    8000019e:	0208889b          	addiw	a7,a7,32
    800001a2:	fa050513          	addi	a0,a0,-96
    800001a6:	08058593          	addi	a1,a1,128
    800001aa:	fc6899e3          	bne	a7,t1,8000017c <conv2d_0+0x40>
            output[y * GAP_SIZE1 + x] = sum;
    800001ae:	005e07b3          	add	a5,t3,t0
    800001b2:	97a6                	add	a5,a5,s1
    800001b4:	00e78023          	sb	a4,0(a5)
        for (int x = 0; x <= GAP_SIZE; x++) {
    800001b8:	0e05                	addi	t3,t3,1
    800001ba:	fa8e1be3          	bne	t3,s0,80000170 <conv2d_0+0x34>
    for (int y = 0; y <= GAP_SIZEP1; y++) {
    800001be:	2f85                	addiw	t6,t6,1
    800001c0:	06128293          	addi	t0,t0,97
    800001c4:	080e8e93          	addi	t4,t4,128
    800001c8:	f87f9fe3          	bne	t6,t2,80000166 <conv2d_0+0x2a>
        }
    }
}
    800001cc:	6462                	ld	s0,24(sp)
    800001ce:	64c2                	ld	s1,16(sp)
    800001d0:	6922                	ld	s2,8(sp)
    800001d2:	6982                	ld	s3,0(sp)
    800001d4:	6105                	addi	sp,sp,32
    800001d6:	8082                	ret

00000000800001d8 <conv2d_1>:

void conv2d_1() {
    800001d8:	1101                	addi	sp,sp,-32
    uint8_t *kernel = (uint8_t*)0x40001000;
    uint8_t *input = (uint8_t*)0x70000000;
    uint8_t *output = (uint8_t*)0x70005000;
    for (int y = GAP_SIZEP1+1; y <= GAP_SIZEP2; y++) {
        for (int x = 0; x <= GAP_SIZE; x++) {
            uint8_t sum = 0;
    800001da:	6e05                	lui	t3,0x1
    800001dc:	70000fb7          	lui	t6,0x70000
void conv2d_1() {
    800001e0:	ec22                	sd	s0,24(sp)
    800001e2:	e826                	sd	s1,16(sp)
            uint8_t sum = 0;
    800001e4:	c80e0f13          	addi	t5,t3,-896 # c80 <_prog_start-0x7ffff380>
void conv2d_1() {
    800001e8:	e44a                	sd	s2,8(sp)
    800001ea:	e04e                	sd	s3,0(sp)
            uint8_t sum = 0;
    800001ec:	979e0e13          	addi	t3,t3,-1671
    for (int y = GAP_SIZEP1+1; y <= GAP_SIZEP2; y++) {
    800001f0:	42e5                	li	t0,25
    800001f2:	020f8f93          	addi	t6,t6,32 # 70000020 <_prog_start-0xfffffe0>
            for (int ky = 0; ky < KERNEL_SIZE; ky++) {
                for (int kx = 0; kx < KERNEL_SIZE; kx++) {
                    int in_y = y + ky;
                    int in_x = x + kx;
                    sum += input[in_y * INPUT_SIZE + in_x] * kernel[ky * KERNEL_SIZE + kx];
    800001f6:	d0001837          	lui	a6,0xd0001
            for (int ky = 0; ky < KERNEL_SIZE; ky++) {
    800001fa:	40000313          	li	t1,1024
                }
            }
            output[y * GAP_SIZE1 + x] = sum;
    800001fe:	700054b7          	lui	s1,0x70005
        for (int x = 0; x <= GAP_SIZE; x++) {
    80000202:	06100413          	li	s0,97
    for (int y = GAP_SIZEP1+1; y <= GAP_SIZEP2; y++) {
    80000206:	03100393          	li	t2,49
            uint8_t sum = 0;
    8000020a:	4e81                	li	t4,0
    8000020c:	41e009b3          	neg	s3,t5
    80000210:	01ff0933          	add	s2,t5,t6
            for (int ky = 0; ky < KERNEL_SIZE; ky++) {
    80000214:	41d98533          	sub	a0,s3,t4
    80000218:	01d905b3          	add	a1,s2,t4
void conv2d_1() {
    8000021c:	4881                	li	a7,0
            uint8_t sum = 0;
    8000021e:	4701                	li	a4,0
                for (int kx = 0; kx < KERNEL_SIZE; kx++) {
    80000220:	fe058793          	addi	a5,a1,-32
                    sum += input[in_y * INPUT_SIZE + in_x] * kernel[ky * KERNEL_SIZE + kx];
    80000224:	00f506b3          	add	a3,a0,a5
    80000228:	96c2                	add	a3,a3,a6
    8000022a:	0007c603          	lbu	a2,0(a5)
    8000022e:	0006c683          	lbu	a3,0(a3)
                for (int kx = 0; kx < KERNEL_SIZE; kx++) {
    80000232:	0785                	addi	a5,a5,1
                    sum += input[in_y * INPUT_SIZE + in_x] * kernel[ky * KERNEL_SIZE + kx];
    80000234:	02c686bb          	mulw	a3,a3,a2
    80000238:	9f35                	addw	a4,a4,a3
    8000023a:	0ff77713          	zext.b	a4,a4
                for (int kx = 0; kx < KERNEL_SIZE; kx++) {
    8000023e:	fef593e3          	bne	a1,a5,80000224 <conv2d_1+0x4c>
            for (int ky = 0; ky < KERNEL_SIZE; ky++) {
    80000242:	0208889b          	addiw	a7,a7,32
    80000246:	fa050513          	addi	a0,a0,-96
    8000024a:	08058593          	addi	a1,a1,128
    8000024e:	fc6899e3          	bne	a7,t1,80000220 <conv2d_1+0x48>
            output[y * GAP_SIZE1 + x] = sum;
    80000252:	01ce87b3          	add	a5,t4,t3
    80000256:	97a6                	add	a5,a5,s1
    80000258:	00e78023          	sb	a4,0(a5)
        for (int x = 0; x <= GAP_SIZE; x++) {
    8000025c:	0e85                	addi	t4,t4,1
    8000025e:	fa8e9be3          	bne	t4,s0,80000214 <conv2d_1+0x3c>
    for (int y = GAP_SIZEP1+1; y <= GAP_SIZEP2; y++) {
    80000262:	2285                	addiw	t0,t0,1
    80000264:	061e0e13          	addi	t3,t3,97
    80000268:	080f0f13          	addi	t5,t5,128
    8000026c:	f8729fe3          	bne	t0,t2,8000020a <conv2d_1+0x32>
        }
    }
}
    80000270:	6462                	ld	s0,24(sp)
    80000272:	64c2                	ld	s1,16(sp)
    80000274:	6922                	ld	s2,8(sp)
    80000276:	6982                	ld	s3,0(sp)
    80000278:	6105                	addi	sp,sp,32
    8000027a:	8082                	ret

000000008000027c <conv2d_2>:

void conv2d_2() {
    8000027c:	1101                	addi	sp,sp,-32
    8000027e:	70000f37          	lui	t5,0x70000
    80000282:	ec22                	sd	s0,24(sp)
    80000284:	e826                	sd	s1,16(sp)
    80000286:	e44a                	sd	s2,8(sp)
    80000288:	e04e                	sd	s3,0(sp)
    uint8_t *kernel = (uint8_t*)0x40002000;
    uint8_t *input = (uint8_t*)0x70000000;
    uint8_t *output = (uint8_t*)0x70005000;
    for (int y = 0; y <= GAP_SIZE; y++) {
        for (int x = GAP_SIZEP2+1; x <= GAP_SIZEP3; x++) {
            uint8_t sum = 0;
    8000028a:	4e81                	li	t4,0
    8000028c:	4281                	li	t0,0
    for (int y = 0; y <= GAP_SIZE; y++) {
    8000028e:	4f81                	li	t6,0
    80000290:	020f0f13          	addi	t5,t5,32 # 70000020 <_prog_start-0xfffffe0>
            for (int ky = 0; ky < KERNEL_SIZE; ky++) {
                for (int kx = 0; kx < KERNEL_SIZE; kx++) {
                    int in_y = y + ky;
                    int in_x = x + kx;
                    sum += input[in_y * INPUT_SIZE + in_x] * kernel[ky * KERNEL_SIZE + kx];
    80000294:	d0002837          	lui	a6,0xd0002
            for (int ky = 0; ky < KERNEL_SIZE; ky++) {
    80000298:	40000313          	li	t1,1024
                }
            }
            output[y * GAP_SIZE1 + x] = sum;
    8000029c:	700054b7          	lui	s1,0x70005
        for (int x = GAP_SIZEP2+1; x <= GAP_SIZEP3; x++) {
    800002a0:	04900413          	li	s0,73
    for (int y = 0; y <= GAP_SIZE; y++) {
    800002a4:	06100393          	li	t2,97
            uint8_t sum = 0;
    800002a8:	03100e13          	li	t3,49
    800002ac:	41d009b3          	neg	s3,t4
    800002b0:	01ee8933          	add	s2,t4,t5
            for (int ky = 0; ky < KERNEL_SIZE; ky++) {
    800002b4:	41c98533          	sub	a0,s3,t3
    800002b8:	01c905b3          	add	a1,s2,t3
void conv2d_2() {
    800002bc:	4881                	li	a7,0
            uint8_t sum = 0;
    800002be:	4701                	li	a4,0
                for (int kx = 0; kx < KERNEL_SIZE; kx++) {
    800002c0:	fe058793          	addi	a5,a1,-32
                    sum += input[in_y * INPUT_SIZE + in_x] * kernel[ky * KERNEL_SIZE + kx];
    800002c4:	00f506b3          	add	a3,a0,a5
    800002c8:	96c2                	add	a3,a3,a6
    800002ca:	0007c603          	lbu	a2,0(a5)
    800002ce:	0006c683          	lbu	a3,0(a3)
                for (int kx = 0; kx < KERNEL_SIZE; kx++) {
    800002d2:	0785                	addi	a5,a5,1
                    sum += input[in_y * INPUT_SIZE + in_x] * kernel[ky * KERNEL_SIZE + kx];
    800002d4:	02c686bb          	mulw	a3,a3,a2
    800002d8:	9f35                	addw	a4,a4,a3
    800002da:	0ff77713          	zext.b	a4,a4
                for (int kx = 0; kx < KERNEL_SIZE; kx++) {
    800002de:	fef593e3          	bne	a1,a5,800002c4 <conv2d_2+0x48>
            for (int ky = 0; ky < KERNEL_SIZE; ky++) {
    800002e2:	0208889b          	addiw	a7,a7,32
    800002e6:	fa050513          	addi	a0,a0,-96
    800002ea:	08058593          	addi	a1,a1,128
    800002ee:	fc6899e3          	bne	a7,t1,800002c0 <conv2d_2+0x44>
            output[y * GAP_SIZE1 + x] = sum;
    800002f2:	005e07b3          	add	a5,t3,t0
    800002f6:	97a6                	add	a5,a5,s1
    800002f8:	00e78023          	sb	a4,0(a5)
        for (int x = GAP_SIZEP2+1; x <= GAP_SIZEP3; x++) {
    800002fc:	0e05                	addi	t3,t3,1
    800002fe:	fa8e1be3          	bne	t3,s0,800002b4 <conv2d_2+0x38>
    for (int y = 0; y <= GAP_SIZE; y++) {
    80000302:	2f85                	addiw	t6,t6,1
    80000304:	06128293          	addi	t0,t0,97
    80000308:	080e8e93          	addi	t4,t4,128
    8000030c:	f87f9ee3          	bne	t6,t2,800002a8 <conv2d_2+0x2c>
        }
    }
}
    80000310:	6462                	ld	s0,24(sp)
    80000312:	64c2                	ld	s1,16(sp)
    80000314:	6922                	ld	s2,8(sp)
    80000316:	6982                	ld	s3,0(sp)
    80000318:	6105                	addi	sp,sp,32
    8000031a:	8082                	ret

000000008000031c <conv2d_3>:

void conv2d_3() {
    8000031c:	1101                	addi	sp,sp,-32
    8000031e:	70000f37          	lui	t5,0x70000
    80000322:	ec22                	sd	s0,24(sp)
    80000324:	e826                	sd	s1,16(sp)
    80000326:	e44a                	sd	s2,8(sp)
    uint8_t *kernel = (uint8_t*)0x40003000;
    uint8_t *input = (uint8_t*)0x70000000;
    uint8_t *output = (uint8_t*)0x70005000;
    for (int y = 0; y <= GAP_SIZE; y++) {
        for (int x = GAP_SIZEP3+1; x <= GAP_SIZE; x++) {
            uint8_t sum = 0;
    80000328:	4e81                	li	t4,0
    8000032a:	4281                	li	t0,0
    for (int y = 0; y <= GAP_SIZE; y++) {
    8000032c:	4f81                	li	t6,0
    8000032e:	020f0f13          	addi	t5,t5,32 # 70000020 <_prog_start-0xfffffe0>
            for (int ky = 0; ky < KERNEL_SIZE; ky++) {
                for (int kx = 0; kx < KERNEL_SIZE; kx++) {
                    int in_y = y + ky;
                    int in_x = x + kx;
                    sum += input[in_y * INPUT_SIZE + in_x] * kernel[ky * KERNEL_SIZE + kx];
    80000332:	d0003837          	lui	a6,0xd0003
            for (int ky = 0; ky < KERNEL_SIZE; ky++) {
    80000336:	40000313          	li	t1,1024
                }
            }
            output[y * GAP_SIZE1 + x] = sum;
    8000033a:	70005437          	lui	s0,0x70005
        for (int x = GAP_SIZEP3+1; x <= GAP_SIZE; x++) {
    8000033e:	06100393          	li	t2,97
            uint8_t sum = 0;
    80000342:	04900e13          	li	t3,73
    80000346:	41d00933          	neg	s2,t4
    8000034a:	01ee84b3          	add	s1,t4,t5
            for (int ky = 0; ky < KERNEL_SIZE; ky++) {
    8000034e:	41c90533          	sub	a0,s2,t3
    80000352:	01c485b3          	add	a1,s1,t3
void conv2d_3() {
    80000356:	4881                	li	a7,0
            uint8_t sum = 0;
    80000358:	4701                	li	a4,0
                for (int kx = 0; kx < KERNEL_SIZE; kx++) {
    8000035a:	fe058793          	addi	a5,a1,-32
                    sum += input[in_y * INPUT_SIZE + in_x] * kernel[ky * KERNEL_SIZE + kx];
    8000035e:	00f506b3          	add	a3,a0,a5
    80000362:	96c2                	add	a3,a3,a6
    80000364:	0007c603          	lbu	a2,0(a5)
    80000368:	0006c683          	lbu	a3,0(a3)
                for (int kx = 0; kx < KERNEL_SIZE; kx++) {
    8000036c:	0785                	addi	a5,a5,1
                    sum += input[in_y * INPUT_SIZE + in_x] * kernel[ky * KERNEL_SIZE + kx];
    8000036e:	02c686bb          	mulw	a3,a3,a2
    80000372:	9f35                	addw	a4,a4,a3
    80000374:	0ff77713          	zext.b	a4,a4
                for (int kx = 0; kx < KERNEL_SIZE; kx++) {
    80000378:	fef593e3          	bne	a1,a5,8000035e <conv2d_3+0x42>
            for (int ky = 0; ky < KERNEL_SIZE; ky++) {
    8000037c:	0208889b          	addiw	a7,a7,32
    80000380:	fa050513          	addi	a0,a0,-96
    80000384:	08058593          	addi	a1,a1,128
    80000388:	fc6899e3          	bne	a7,t1,8000035a <conv2d_3+0x3e>
            output[y * GAP_SIZE1 + x] = sum;
    8000038c:	005e07b3          	add	a5,t3,t0
    80000390:	97a2                	add	a5,a5,s0
    80000392:	00e78023          	sb	a4,0(a5)
        for (int x = GAP_SIZEP3+1; x <= GAP_SIZE; x++) {
    80000396:	0e05                	addi	t3,t3,1
    80000398:	fa7e1be3          	bne	t3,t2,8000034e <conv2d_3+0x32>
    for (int y = 0; y <= GAP_SIZE; y++) {
    8000039c:	2f85                	addiw	t6,t6,1
    8000039e:	06128293          	addi	t0,t0,97
    800003a2:	080e8e93          	addi	t4,t4,128
    800003a6:	f9cf9ee3          	bne	t6,t3,80000342 <conv2d_3+0x26>
        }
    }
}
    800003aa:	6462                	ld	s0,24(sp)
    800003ac:	64c2                	ld	s1,16(sp)
    800003ae:	6922                	ld	s2,8(sp)
    800003b0:	6105                	addi	sp,sp,32
    800003b2:	8082                	ret

00000000800003b4 <main>:

int main(int argc, char **arv) {
    800003b4:	bd010113          	addi	sp,sp,-1072
  
    REG32(uart, UART_REG_TXCTRL) = UART_TXEN;
    800003b8:	640007b7          	lui	a5,0x64000
    800003bc:	4705                	li	a4,1
int main(int argc, char **arv) {
    800003be:	42113423          	sd	ra,1064(sp)
    800003c2:	42813023          	sd	s0,1056(sp)
    800003c6:	40913c23          	sd	s1,1048(sp)
    800003ca:	41213823          	sd	s2,1040(sp)
    800003ce:	41313423          	sd	s3,1032(sp)
    REG32(uart, UART_REG_TXCTRL) = UART_TXEN;
    800003d2:	c798                	sw	a4,8(a5)
    800003d4:	700007b7          	lui	a5,0x70000
    uint8_t *kernel_3 = (uint8_t*)0x40003000;

    uint8_t *input = (uint8_t*)0x70000000;
    uint8_t *output = (uint8_t*)0x70005000;

    for (int i = 0; i < INPUT_SIZE*INPUT_SIZE; i ++)
    800003d8:	70004737          	lui	a4,0x70004
        input[i] = i;
    800003dc:	00f78023          	sb	a5,0(a5) # 70000000 <_prog_start-0x10000000>
    for (int i = 0; i < INPUT_SIZE*INPUT_SIZE; i ++)
    800003e0:	0785                	addi	a5,a5,1
    800003e2:	fee79de3          	bne	a5,a4,800003dc <main+0x28>
    800003e6:	400007b7          	lui	a5,0x40000

    for (int i = 0; i < KERNEL_SIZE*KERNEL_SIZE; i++) {
        kernel_0[i] = i;
        kernel_1[i] = i;
    800003ea:	6885                	lui	a7,0x1
        kernel_2[i] = i;
    800003ec:	6809                	lui	a6,0x2
        kernel_3[i] = i;
    800003ee:	650d                	lui	a0,0x3
    for (int i = 0; i < KERNEL_SIZE*KERNEL_SIZE; i++) {
    800003f0:	40078593          	addi	a1,a5,1024 # 40000400 <_prog_start-0x3ffffc00>
        kernel_0[i] = i;
    800003f4:	0ff7f713          	zext.b	a4,a5
    800003f8:	00e78023          	sb	a4,0(a5)
        kernel_1[i] = i;
    800003fc:	00f886b3          	add	a3,a7,a5
    80000400:	00e68023          	sb	a4,0(a3)
        kernel_2[i] = i;
    80000404:	00f80633          	add	a2,a6,a5
        kernel_3[i] = i;
    80000408:	00f506b3          	add	a3,a0,a5
        kernel_2[i] = i;
    8000040c:	00e60023          	sb	a4,0(a2)
        kernel_3[i] = i;
    80000410:	00e68023          	sb	a4,0(a3)
    for (int i = 0; i < KERNEL_SIZE*KERNEL_SIZE; i++) {
    80000414:	0785                	addi	a5,a5,1
    80000416:	fcb79fe3          	bne	a5,a1,800003f4 <main+0x40>
    }   

    for (int i = 0; i < OUTPUT_SIZE; i ++)
    8000041a:	70009737          	lui	a4,0x70009
    8000041e:	700057b7          	lui	a5,0x70005
    80000422:	c0170713          	addi	a4,a4,-1023 # 70008c01 <_prog_start-0xfff73ff>
        output[i] = 0;
    80000426:	00078023          	sb	zero,0(a5) # 70005000 <_prog_start-0xfffb000>
    for (int i = 0; i < OUTPUT_SIZE; i ++)
    8000042a:	0785                	addi	a5,a5,1
    8000042c:	fee79de3          	bne	a5,a4,80000426 <main+0x72>

    // ============ Serial =======================
    t_start = read_csr(mcycle); 
    80000430:	b0002973          	csrr	s2,mcycle
    intr_start = read_csr(minstret); 
    80000434:	b02029f3          	csrr	s3,minstret
    conv2d(input, kernel, output);
    80000438:	70005637          	lui	a2,0x70005
    8000043c:	858a                	mv	a1,sp
    8000043e:	70000537          	lui	a0,0x70000
    80000442:	c93ff0ef          	jal	ra,800000d4 <conv2d>
    t_end = read_csr(mcycle);
    80000446:	b0002473          	csrr	s0,mcycle
    instr_end = read_csr(minstret); 
    8000044a:	b02024f3          	csrr	s1,minstret
    t_gap = t_end - t_start;
    inst_gap = instr_end - intr_start;

    kprintf("Input size/Kernel size = %l/%l ===========\r\n", INPUT_SIZE, KERNEL_SIZE);
    8000044e:	02000613          	li	a2,32
    80000452:	00000517          	auipc	a0,0x0
    80000456:	29650513          	addi	a0,a0,662 # 800006e8 <kprintf+0x1c4>
    8000045a:	08000593          	li	a1,128
    8000045e:	0c6000ef          	jal	ra,80000524 <kprintf>
    inst_gap = instr_end - intr_start;
    80000462:	413484b3          	sub	s1,s1,s3
    kprintf("Instr (single): %l\r\n", inst_gap);
    80000466:	85a6                	mv	a1,s1
    80000468:	00000517          	auipc	a0,0x0
    8000046c:	2b050513          	addi	a0,a0,688 # 80000718 <kprintf+0x1f4>
    80000470:	0b4000ef          	jal	ra,80000524 <kprintf>
    t_gap = t_end - t_start;
    80000474:	41240433          	sub	s0,s0,s2
    kprintf("Time spent (single): %l (cycles)\r\n", t_gap);
    80000478:	85a2                	mv	a1,s0
    8000047a:	00000517          	auipc	a0,0x0
    8000047e:	2b650513          	addi	a0,a0,694 # 80000730 <kprintf+0x20c>
    80000482:	0a2000ef          	jal	ra,80000524 <kprintf>

    
    // ============ Parallel =======================
    t_start = read_csr(mcycle); 
    80000486:	b0002473          	csrr	s0,mcycle
    REG32(clint, CLINT_MSIP1) = CLINT_MSIPEN;
    8000048a:	020007b7          	lui	a5,0x2000
    8000048e:	4705                	li	a4,1
    80000490:	c3d8                	sw	a4,4(a5)
    REG32(clint, CLINT_MSIP2) = CLINT_MSIPEN;
    80000492:	c798                	sw	a4,8(a5)
    REG32(clint, CLINT_MSIP3) = CLINT_MSIPEN;
    80000494:	c7d8                	sw	a4,12(a5)
    conv2d_0();
    80000496:	ca7ff0ef          	jal	ra,8000013c <conv2d_0>
    t_end = read_csr(mcycle);
    8000049a:	b00025f3          	csrr	a1,mcycle
    t_gap = t_end - t_start;

    kprintf("Time spent (multi): %l (cycles)\r\n", t_gap);   
    8000049e:	00000517          	auipc	a0,0x0
    800004a2:	2ba50513          	addi	a0,a0,698 # 80000758 <kprintf+0x234>
    800004a6:	8d81                	sub	a1,a1,s0
    800004a8:	07c000ef          	jal	ra,80000524 <kprintf>

    for (int i = 0; i < OUTPUT_SIZE; i++)
    800004ac:	700096b7          	lui	a3,0x70009
    kprintf("Time spent (multi): %l (cycles)\r\n", t_gap);   
    800004b0:	700057b7          	lui	a5,0x70005
        *cp = output[i];
    800004b4:	70000637          	lui	a2,0x70000
    for (int i = 0; i < OUTPUT_SIZE; i++)
    800004b8:	c0168693          	addi	a3,a3,-1023 # 70008c01 <_prog_start-0xfff73ff>
        *cp = output[i];
    800004bc:	0007c703          	lbu	a4,0(a5) # 70005000 <_prog_start-0xfffb000>
    for (int i = 0; i < OUTPUT_SIZE; i++)
    800004c0:	0785                	addi	a5,a5,1
        *cp = output[i];
    800004c2:	00e60023          	sb	a4,0(a2) # 70000000 <_prog_start-0x10000000>
    for (int i = 0; i < OUTPUT_SIZE; i++)
    800004c6:	fed79be3          	bne	a5,a3,800004bc <main+0x108>

    return 0;
}
    800004ca:	42813083          	ld	ra,1064(sp)
    800004ce:	42013403          	ld	s0,1056(sp)
    800004d2:	41813483          	ld	s1,1048(sp)
    800004d6:	41013903          	ld	s2,1040(sp)
    800004da:	40813983          	ld	s3,1032(sp)
    800004de:	4501                	li	a0,0
    800004e0:	43010113          	addi	sp,sp,1072
    800004e4:	8082                	ret

00000000800004e6 <kputs>:
#include "kprintf.h"

static inline void _kputs(const char *s)
{
	char c;
	for (; (c = *s) != '\0'; s++)
    800004e6:	00054683          	lbu	a3,0(a0)
    800004ea:	ce81                	beqz	a3,80000502 <kputs+0x1c>
{
	volatile uint32_t *tx = &REG32(uart, UART_REG_TXFIFO);
#ifdef __riscv_atomic
	int32_t r;
	do {
		__asm__ __volatile__ (
    800004ec:	64000737          	lui	a4,0x64000
    800004f0:	40d727af          	amoor.w	a5,a3,(a4)
    800004f4:	2781                	sext.w	a5,a5
			"amoor.w %0, %2, %1\n"
			: "=r" (r), "+A" (*tx)
			: "r" (c));
	} while (r < 0);
    800004f6:	fe07cde3          	bltz	a5,800004f0 <kputs+0xa>
    800004fa:	00154683          	lbu	a3,1(a0)
    800004fe:	0505                	addi	a0,a0,1
    80000500:	fae5                	bnez	a3,800004f0 <kputs+0xa>
		__asm__ __volatile__ (
    80000502:	64000737          	lui	a4,0x64000
    80000506:	46b5                	li	a3,13
    80000508:	40d727af          	amoor.w	a5,a3,(a4)
    8000050c:	2781                	sext.w	a5,a5
	} while (r < 0);
    8000050e:	fe07cde3          	bltz	a5,80000508 <kputs+0x22>
		__asm__ __volatile__ (
    80000512:	64000737          	lui	a4,0x64000
    80000516:	46a9                	li	a3,10
    80000518:	40d727af          	amoor.w	a5,a3,(a4)
    8000051c:	2781                	sext.w	a5,a5
	} while (r < 0);
    8000051e:	fe07cde3          	bltz	a5,80000518 <kputs+0x32>
void kputs(const char *s)
{
	_kputs(s);
	kputc('\r');
	kputc('\n');
}
    80000522:	8082                	ret

0000000080000524 <kprintf>:

void kprintf(const char *fmt, ...)
{
    80000524:	7175                	addi	sp,sp,-144

	va_start(vl, fmt);
	is_format = false;
	is_long = false;
	is_char = false;
	while ((c = *fmt++) != '\0') {
    80000526:	00054303          	lbu	t1,0(a0)
{
    8000052a:	fcbe                	sd	a5,120(sp)
	va_start(vl, fmt);
    8000052c:	08bc                	addi	a5,sp,88
{
    8000052e:	ecae                	sd	a1,88(sp)
    80000530:	f0b2                	sd	a2,96(sp)
    80000532:	f4b6                	sd	a3,104(sp)
    80000534:	f8ba                	sd	a4,112(sp)
    80000536:	e142                	sd	a6,128(sp)
    80000538:	e546                	sd	a7,136(sp)
	va_start(vl, fmt);
    8000053a:	e43e                	sd	a5,8(sp)
	while ((c = *fmt++) != '\0') {
    8000053c:	04030e63          	beqz	t1,80000598 <kprintf+0x74>
    80000540:	0505                	addi	a0,a0,1
    80000542:	4681                	li	a3,0
    80000544:	4701                	li	a4,0
				break;
			}
			is_format = false;
			is_long = false;
			is_char = false;
		} else if (c == '%') {
    80000546:	02500e13          	li	t3,37
		__asm__ __volatile__ (
    8000054a:	640005b7          	lui	a1,0x64000
			switch (c) {
    8000054e:	48d5                	li	a7,21
    80000550:	00000817          	auipc	a6,0x0
    80000554:	22c80813          	addi	a6,a6,556 # 8000077c <kprintf+0x258>
		if (is_format) {
    80000558:	cf79                	beqz	a4,80000636 <kprintf+0x112>
			switch (c) {
    8000055a:	f9d3031b          	addiw	t1,t1,-99
    8000055e:	0ff37313          	zext.b	t1,t1
    80000562:	0268e463          	bltu	a7,t1,8000058a <kprintf+0x66>
    80000566:	00231793          	slli	a5,t1,0x2
    8000056a:	97c2                	add	a5,a5,a6
    8000056c:	439c                	lw	a5,0(a5)
    8000056e:	97c2                	add	a5,a5,a6
    80000570:	8782                	jr	a5
				kputc(va_arg(vl, int));
    80000572:	67a2                	ld	a5,8(sp)
    80000574:	64000737          	lui	a4,0x64000
    80000578:	0007c683          	lbu	a3,0(a5)
    8000057c:	07a1                	addi	a5,a5,8
    8000057e:	e43e                	sd	a5,8(sp)
    80000580:	40d727af          	amoor.w	a5,a3,(a4)
    80000584:	2781                	sext.w	a5,a5
	} while (r < 0);
    80000586:	fe07cde3          	bltz	a5,80000580 <kprintf+0x5c>
			is_char = false;
    8000058a:	4681                	li	a3,0
			is_format = false;
    8000058c:	4701                	li	a4,0
	while ((c = *fmt++) != '\0') {
    8000058e:	00054303          	lbu	t1,0(a0)
    80000592:	0505                	addi	a0,a0,1
    80000594:	fc0312e3          	bnez	t1,80000558 <kprintf+0x34>
		} else {
			kputc(c);
		}
	}
	va_end(vl);
}
    80000598:	6149                	addi	sp,sp,144
    8000059a:	8082                	ret
					n = va_arg(vl, unsigned int);
    8000059c:	67a2                	ld	a5,8(sp)
					i = is_char ? 4 : (sizeof(unsigned int) << 3) - 4;
    8000059e:	4611                	li	a2,4
					n = va_arg(vl, unsigned int);
    800005a0:	00878713          	addi	a4,a5,8
    800005a4:	e43a                	sd	a4,8(sp)
    800005a6:	0007ef83          	lwu	t6,0(a5)
					i = is_char ? 4 : (sizeof(unsigned int) << 3) - 4;
    800005aa:	cef1                	beqz	a3,80000686 <kprintf+0x162>
					kputc(d < 10 ? '0' + d : 'a' + d - 10);
    800005ac:	4f25                	li	t5,9
		__asm__ __volatile__ (
    800005ae:	64000737          	lui	a4,0x64000
				for (; i >= 0; i -= 4) {
    800005b2:	5ef1                	li	t4,-4
					d = (n >> i) & 0xF;
    800005b4:	00cfd7b3          	srl	a5,t6,a2
					kputc(d < 10 ? '0' + d : 'a' + d - 10);
    800005b8:	00f7f313          	andi	t1,a5,15
    800005bc:	05730693          	addi	a3,t1,87
    800005c0:	006f6463          	bltu	t5,t1,800005c8 <kprintf+0xa4>
    800005c4:	03030693          	addi	a3,t1,48
    800005c8:	40d727af          	amoor.w	a5,a3,(a4)
    800005cc:	2781                	sext.w	a5,a5
	} while (r < 0);
    800005ce:	fe07cde3          	bltz	a5,800005c8 <kprintf+0xa4>
				for (; i >= 0; i -= 4) {
    800005d2:	1671                	addi	a2,a2,-4
    800005d4:	ffd610e3          	bne	a2,t4,800005b4 <kprintf+0x90>
    800005d8:	bf4d                	j	8000058a <kprintf+0x66>
				_kputs(va_arg(vl, const char *));
    800005da:	67a2                	ld	a5,8(sp)
    800005dc:	6390                	ld	a2,0(a5)
    800005de:	07a1                	addi	a5,a5,8
    800005e0:	e43e                	sd	a5,8(sp)
	for (; (c = *s) != '\0'; s++)
    800005e2:	00064683          	lbu	a3,0(a2)
    800005e6:	d2d5                	beqz	a3,8000058a <kprintf+0x66>
		__asm__ __volatile__ (
    800005e8:	64000737          	lui	a4,0x64000
    800005ec:	40d727af          	amoor.w	a5,a3,(a4)
    800005f0:	2781                	sext.w	a5,a5
	} while (r < 0);
    800005f2:	fe07cde3          	bltz	a5,800005ec <kprintf+0xc8>
    800005f6:	00164683          	lbu	a3,1(a2)
    800005fa:	0605                	addi	a2,a2,1
    800005fc:	fae5                	bnez	a3,800005ec <kprintf+0xc8>
    800005fe:	b771                	j	8000058a <kprintf+0x66>
				n = va_arg(vl, unsigned long);
    80000600:	67a2                	ld	a5,8(sp)
				for (int i = 0; i < 64; i ++) c[i] = 0;
    80000602:	e802                	sd	zero,16(sp)
    80000604:	ec02                	sd	zero,24(sp)
				n = va_arg(vl, unsigned long);
    80000606:	0007b303          	ld	t1,0(a5)
    8000060a:	07a1                	addi	a5,a5,8
    8000060c:	e43e                	sd	a5,8(sp)
				for (int i = 0; i < 64; i ++) c[i] = 0;
    8000060e:	f002                	sd	zero,32(sp)
    80000610:	f402                	sd	zero,40(sp)
    80000612:	f802                	sd	zero,48(sp)
    80000614:	fc02                	sd	zero,56(sp)
    80000616:	e082                	sd	zero,64(sp)
    80000618:	e482                	sd	zero,72(sp)
				if (n == 0) {
    8000061a:	02031d63          	bnez	t1,80000654 <kprintf+0x130>
		__asm__ __volatile__ (
    8000061e:	64000737          	lui	a4,0x64000
    80000622:	03000693          	li	a3,48
    80000626:	40d727af          	amoor.w	a5,a3,(a4)
    8000062a:	2781                	sext.w	a5,a5
	} while (r < 0);
    8000062c:	fe07cde3          	bltz	a5,80000626 <kprintf+0x102>
    80000630:	bfa9                	j	8000058a <kprintf+0x66>
				is_char = true;
    80000632:	86ba                	mv	a3,a4
    80000634:	bfa9                	j	8000058e <kprintf+0x6a>
		} else if (c == '%') {
    80000636:	01c31463          	bne	t1,t3,8000063e <kprintf+0x11a>
			is_format = true;
    8000063a:	4705                	li	a4,1
    8000063c:	bf89                	j	8000058e <kprintf+0x6a>
		__asm__ __volatile__ (
    8000063e:	4065a7af          	amoor.w	a5,t1,(a1)
    80000642:	2781                	sext.w	a5,a5
	} while (r < 0);
    80000644:	f407d5e3          	bgez	a5,8000058e <kprintf+0x6a>
		__asm__ __volatile__ (
    80000648:	4065a7af          	amoor.w	a5,t1,(a1)
    8000064c:	2781                	sext.w	a5,a5
	} while (r < 0);
    8000064e:	fe07c8e3          	bltz	a5,8000063e <kprintf+0x11a>
    80000652:	bf35                	j	8000058e <kprintf+0x6a>
    80000654:	0810                	addi	a2,sp,16
					c[0] = '0' + (n%10);
    80000656:	4ea9                	li	t4,10
				for (;n != 0;) {
    80000658:	4f25                	li	t5,9
					for (int i = 63; i > 0; i--) c[i] = c[i-1];
    8000065a:	04e10793          	addi	a5,sp,78
    8000065e:	0007c683          	lbu	a3,0(a5)
    80000662:	873e                	mv	a4,a5
    80000664:	17fd                	addi	a5,a5,-1
    80000666:	00d78123          	sb	a3,2(a5)
    8000066a:	fec71ae3          	bne	a4,a2,8000065e <kprintf+0x13a>
					c[0] = '0' + (n%10);
    8000066e:	03d376b3          	remu	a3,t1,t4
    80000672:	03068693          	addi	a3,a3,48
    80000676:	00d10823          	sb	a3,16(sp)
					n = n / 10;
    8000067a:	03d357b3          	divu	a5,t1,t4
				for (;n != 0;) {
    8000067e:	006f7663          	bgeu	t5,t1,8000068a <kprintf+0x166>
					n = n / 10;
    80000682:	833e                	mv	t1,a5
    80000684:	bfd9                	j	8000065a <kprintf+0x136>
					i = is_char ? 4 : (sizeof(unsigned int) << 3) - 4;
    80000686:	4671                	li	a2,28
    80000688:	b715                	j	800005ac <kprintf+0x88>
    8000068a:	01110613          	addi	a2,sp,17
		__asm__ __volatile__ (
    8000068e:	64000737          	lui	a4,0x64000
    80000692:	40d727af          	amoor.w	a5,a3,(a4)
    80000696:	2781                	sext.w	a5,a5
	} while (r < 0);
    80000698:	fe07cde3          	bltz	a5,80000692 <kprintf+0x16e>
				for (int i = 0; c[i] != 0; i++) kputc(c[i]);
    8000069c:	00064683          	lbu	a3,0(a2)
    800006a0:	0605                	addi	a2,a2,1
    800006a2:	fae5                	bnez	a3,80000692 <kprintf+0x16e>
    800006a4:	b5dd                	j	8000058a <kprintf+0x66>
	...

Disassembly of section .rodata:

00000000800006e8 <.rodata>:
    800006e8:	6e49                	lui	t3,0x12
    800006ea:	7570                	ld	a2,232(a0)
    800006ec:	2074                	fld	fa3,192(s0)
    800006ee:	657a6973          	csrrsi	s2,0x657,20
    800006f2:	72654b2f          	.4byte	0x72654b2f
    800006f6:	656e                	ld	a0,216(sp)
    800006f8:	206c                	fld	fa1,192(s0)
    800006fa:	657a6973          	csrrsi	s2,0x657,20
    800006fe:	3d20                	fld	fs0,120(a0)
    80000700:	2520                	fld	fs0,72(a0)
    80000702:	2f6c                	fld	fa1,216(a4)
    80000704:	6c25                	lui	s8,0x9
    80000706:	3d20                	fld	fs0,120(a0)
    80000708:	3d3d                	addiw	s10,s10,-17
    8000070a:	3d3d                	addiw	s10,s10,-17
    8000070c:	3d3d                	addiw	s10,s10,-17
    8000070e:	3d3d                	addiw	s10,s10,-17
    80000710:	3d3d                	addiw	s10,s10,-17
    80000712:	0a0d                	addi	s4,s4,3
    80000714:	0000                	unimp
    80000716:	0000                	unimp
    80000718:	6e49                	lui	t3,0x12
    8000071a:	20727473          	csrrci	s0,0x207,4
    8000071e:	7328                	ld	a0,96(a4)
    80000720:	6e69                	lui	t3,0x1a
    80000722:	29656c67          	.4byte	0x29656c67
    80000726:	203a                	fld	ft0,392(sp)
    80000728:	6c25                	lui	s8,0x9
    8000072a:	0a0d                	addi	s4,s4,3
    8000072c:	0000                	unimp
    8000072e:	0000                	unimp
    80000730:	6954                	ld	a3,144(a0)
    80000732:	656d                	lui	a0,0x1b
    80000734:	7320                	ld	s0,96(a4)
    80000736:	6570                	ld	a2,200(a0)
    80000738:	746e                	ld	s0,248(sp)
    8000073a:	2820                	fld	fs0,80(s0)
    8000073c:	676e6973          	csrrsi	s2,0x676,28
    80000740:	656c                	ld	a1,200(a0)
    80000742:	3a29                	addiw	s4,s4,-22
    80000744:	2520                	fld	fs0,72(a0)
    80000746:	206c                	fld	fa1,192(s0)
    80000748:	6328                	ld	a0,64(a4)
    8000074a:	6379                	lui	t1,0x1e
    8000074c:	656c                	ld	a1,200(a0)
    8000074e:	0a0d2973          	csrrs	s2,0xa0,s10
    80000752:	0000                	unimp
    80000754:	0000                	unimp
    80000756:	0000                	unimp
    80000758:	6954                	ld	a3,144(a0)
    8000075a:	656d                	lui	a0,0x1b
    8000075c:	7320                	ld	s0,96(a4)
    8000075e:	6570                	ld	a2,200(a0)
    80000760:	746e                	ld	s0,248(sp)
    80000762:	2820                	fld	fs0,80(s0)
    80000764:	756d                	lui	a0,0xffffb
    80000766:	746c                	ld	a1,232(s0)
    80000768:	2969                	addiw	s2,s2,26
    8000076a:	203a                	fld	ft0,392(sp)
    8000076c:	6c25                	lui	s8,0x9
    8000076e:	2820                	fld	fs0,80(s0)
    80000770:	6c637963          	bgeu	t1,t1,80000e42 <kprintf+0x91e>
    80000774:	7365                	lui	t1,0xffff9
    80000776:	0d29                	addi	s10,s10,10
    80000778:	000a                	c.slli	zero,0x2
    8000077a:	0000                	unimp
    8000077c:	fdf6                	sd	t4,248(sp)
    8000077e:	ffff                	.2byte	0xffff
    80000780:	fe0e                	sd	gp,312(sp)
    80000782:	ffff                	.2byte	0xffff
    80000784:	fe0e                	sd	gp,312(sp)
    80000786:	ffff                	.2byte	0xffff
    80000788:	fe0e                	sd	gp,312(sp)
    8000078a:	ffff                	.2byte	0xffff
    8000078c:	fe0e                	sd	gp,312(sp)
    8000078e:	ffff                	.2byte	0xffff
    80000790:	feb6                	sd	a3,376(sp)
    80000792:	ffff                	.2byte	0xffff
    80000794:	fe0e                	sd	gp,312(sp)
    80000796:	ffff                	.2byte	0xffff
    80000798:	fe0e                	sd	gp,312(sp)
    8000079a:	ffff                	.2byte	0xffff
    8000079c:	fe0e                	sd	gp,312(sp)
    8000079e:	ffff                	.2byte	0xffff
    800007a0:	fe84                	sd	s1,56(a3)
    800007a2:	ffff                	.2byte	0xffff
    800007a4:	fe0e                	sd	gp,312(sp)
    800007a6:	ffff                	.2byte	0xffff
    800007a8:	fe0e                	sd	gp,312(sp)
    800007aa:	ffff                	.2byte	0xffff
    800007ac:	fe0e                	sd	gp,312(sp)
    800007ae:	ffff                	.2byte	0xffff
    800007b0:	fe0e                	sd	gp,312(sp)
    800007b2:	ffff                	.2byte	0xffff
    800007b4:	fe0e                	sd	gp,312(sp)
    800007b6:	ffff                	.2byte	0xffff
    800007b8:	fe0e                	sd	gp,312(sp)
    800007ba:	ffff                	.2byte	0xffff
    800007bc:	fe5e                	sd	s7,312(sp)
    800007be:	ffff                	.2byte	0xffff
    800007c0:	fe0e                	sd	gp,312(sp)
    800007c2:	ffff                	.2byte	0xffff
    800007c4:	fe0e                	sd	gp,312(sp)
    800007c6:	ffff                	.2byte	0xffff
    800007c8:	fe0e                	sd	gp,312(sp)
    800007ca:	ffff                	.2byte	0xffff
    800007cc:	fe0e                	sd	gp,312(sp)
    800007ce:	ffff                	.2byte	0xffff
    800007d0:	fe20                	sd	s0,120(a2)
    800007d2:	ffff                	.2byte	0xffff

Disassembly of section .riscv.attributes:

0000000000000000 <.riscv.attributes>:
   0:	3841                	addiw	a6,a6,-16
   2:	0000                	unimp
   4:	7200                	ld	s0,32(a2)
   6:	7369                	lui	t1,0xffffa
   8:	01007663          	bgeu	zero,a6,14 <_prog_start-0x7fffffec>
   c:	002e                	c.slli	zero,0xb
   e:	0000                	unimp
  10:	1004                	addi	s1,sp,32
  12:	7205                	lui	tp,0xfffe1
  14:	3676                	fld	fa2,376(sp)
  16:	6934                	ld	a3,80(a0)
  18:	7032                	.2byte	0x7032
  1a:	5f30                	lw	a2,120(a4)
  1c:	326d                	addiw	tp,tp,-5 # fffffffffffe0ffb <kprintf+0xffffffff7ffe0ad7>
  1e:	3070                	fld	fa2,224(s0)
  20:	615f 7032 5f30      	.byte	0x5f, 0x61, 0x32, 0x70, 0x30, 0x5f
  26:	3266                	fld	ft4,120(sp)
  28:	3070                	fld	fa2,224(s0)
  2a:	645f 7032 5f30      	.byte	0x5f, 0x64, 0x32, 0x70, 0x30, 0x5f
  30:	30703263          	.4byte	0x30703263
  34:	0800                	addi	s0,sp,16
  36:	0a01                	addi	s4,s4,0
  38:	0b              	Address 0x0000000000000038 is out of bounds.


Disassembly of section .comment:

0000000000000000 <.comment>:
   0:	3a434347          	fmsub.d	ft6,ft6,ft4,ft7,rmm
   4:	2820                	fld	fs0,80(s0)
   6:	65653267          	.4byte	0x65653267
   a:	6535                	lui	a0,0xd
   c:	3334                	fld	fa3,96(a4)
   e:	3030                	fld	fa2,96(s0)
  10:	3831                	addiw	a6,a6,-20
  12:	2029                	.2byte	0x2029
  14:	3231                	addiw	tp,tp,-20 # ffffffffffffffec <kprintf+0xffffffff7ffffac8>
  16:	322e                	fld	ft4,232(sp)
  18:	302e                	fld	ft0,232(sp)
	...

Disassembly of section .debug_line:

0000000000000000 <.debug_line>:
       0:	0154                	addi	a3,sp,132
       2:	0000                	unimp
       4:	0005                	c.nop	1
       6:	0008                	.2byte	0x8
       8:	002a                	c.slli	zero,0xa
       a:	0000                	unimp
       c:	0101                	addi	sp,sp,0
       e:	fb01                	bnez	a4,ffffffffffffff1e <kprintf+0xffffffff7ffff9fa>
      10:	0d0e                	slli	s10,s10,0x3
      12:	0100                	addi	s0,sp,128
      14:	0101                	addi	sp,sp,0
      16:	0001                	nop
      18:	0000                	unimp
      1a:	0001                	nop
      1c:	0100                	addi	s0,sp,128
      1e:	0101                	addi	sp,sp,0
      20:	011f 0000 0000      	.byte	0x1f, 0x01, 0x00, 0x00, 0x00, 0x00
      26:	0102                	c.slli64	sp
      28:	021f 020f 003c      	.byte	0x1f, 0x02, 0x0f, 0x02, 0x3c, 0x00
      2e:	0000                	unimp
      30:	3c00                	fld	fs0,56(s0)
      32:	0000                	unimp
      34:	0000                	unimp
      36:	0900                	addi	s0,sp,144
      38:	0002                	c.slli64	zero
      3a:	0000                	unimp
      3c:	0080                	addi	s0,sp,64
      3e:	0000                	unimp
      40:	0300                	addi	s0,sp,384
      42:	010c                	addi	a1,sp,128
      44:	04090103          	lb	sp,64(s2)
      48:	0100                	addi	s0,sp,128
      4a:	04090103          	lb	sp,64(s2)
      4e:	0100                	addi	s0,sp,128
      50:	04090103          	lb	sp,64(s2)
      54:	0100                	addi	s0,sp,128
      56:	04090103          	lb	sp,64(s2)
      5a:	0100                	addi	s0,sp,128
      5c:	04090103          	lb	sp,64(s2)
      60:	0100                	addi	s0,sp,128
      62:	04090103          	lb	sp,64(s2)
      66:	0100                	addi	s0,sp,128
      68:	04090103          	lb	sp,64(s2)
      6c:	0100                	addi	s0,sp,128
      6e:	04090103          	lb	sp,64(s2)
      72:	0100                	addi	s0,sp,128
      74:	04090103          	lb	sp,64(s2)
      78:	0100                	addi	s0,sp,128
      7a:	04090203          	lb	tp,64(s2)
      7e:	0100                	addi	s0,sp,128
      80:	04090103          	lb	sp,64(s2)
      84:	0100                	addi	s0,sp,128
      86:	04090103          	lb	sp,64(s2)
      8a:	0100                	addi	s0,sp,128
      8c:	08090103          	lb	sp,128(s2)
      90:	0100                	addi	s0,sp,128
      92:	04090103          	lb	sp,64(s2)
      96:	0100                	addi	s0,sp,128
      98:	04090203          	lb	tp,64(s2)
      9c:	0100                	addi	s0,sp,128
      9e:	04090103          	lb	sp,64(s2)
      a2:	0100                	addi	s0,sp,128
      a4:	04090103          	lb	sp,64(s2)
      a8:	0100                	addi	s0,sp,128
      aa:	04090103          	lb	sp,64(s2)
      ae:	0100                	addi	s0,sp,128
      b0:	08090103          	lb	sp,128(s2)
      b4:	0100                	addi	s0,sp,128
      b6:	04090103          	lb	sp,64(s2)
      ba:	0100                	addi	s0,sp,128
      bc:	08090103          	lb	sp,128(s2)
      c0:	0100                	addi	s0,sp,128
      c2:	04090103          	lb	sp,64(s2)
      c6:	0100                	addi	s0,sp,128
      c8:	04090103          	lb	sp,64(s2)
      cc:	0100                	addi	s0,sp,128
      ce:	04090103          	lb	sp,64(s2)
      d2:	0100                	addi	s0,sp,128
      d4:	04090203          	lb	tp,64(s2)
      d8:	0100                	addi	s0,sp,128
      da:	04090103          	lb	sp,64(s2)
      de:	0100                	addi	s0,sp,128
      e0:	04090103          	lb	sp,64(s2)
      e4:	0100                	addi	s0,sp,128
      e6:	04090103          	lb	sp,64(s2)
      ea:	0100                	addi	s0,sp,128
      ec:	08090103          	lb	sp,128(s2)
      f0:	0100                	addi	s0,sp,128
      f2:	04090103          	lb	sp,64(s2)
      f6:	0100                	addi	s0,sp,128
      f8:	08090103          	lb	sp,128(s2)
      fc:	0100                	addi	s0,sp,128
      fe:	04090103          	lb	sp,64(s2)
     102:	0100                	addi	s0,sp,128
     104:	04090103          	lb	sp,64(s2)
     108:	0100                	addi	s0,sp,128
     10a:	04090103          	lb	sp,64(s2)
     10e:	0100                	addi	s0,sp,128
     110:	04090203          	lb	tp,64(s2)
     114:	0100                	addi	s0,sp,128
     116:	04090103          	lb	sp,64(s2)
     11a:	0100                	addi	s0,sp,128
     11c:	04090103          	lb	sp,64(s2)
     120:	0100                	addi	s0,sp,128
     122:	04090103          	lb	sp,64(s2)
     126:	0100                	addi	s0,sp,128
     128:	08090103          	lb	sp,128(s2)
     12c:	0100                	addi	s0,sp,128
     12e:	04090103          	lb	sp,64(s2)
     132:	0100                	addi	s0,sp,128
     134:	08090103          	lb	sp,128(s2)
     138:	0100                	addi	s0,sp,128
     13a:	04090103          	lb	sp,64(s2)
     13e:	0100                	addi	s0,sp,128
     140:	04090103          	lb	sp,64(s2)
     144:	0100                	addi	s0,sp,128
     146:	04090103          	lb	sp,64(s2)
     14a:	0100                	addi	s0,sp,128
     14c:	04090203          	lb	tp,64(s2)
     150:	0100                	addi	s0,sp,128
     152:	0409                	addi	s0,s0,2 # 70005002 <_prog_start-0xfffaffe>
     154:	0000                	unimp
     156:	0101                	addi	sp,sp,0
     158:	0b6a                	slli	s6,s6,0x1a
     15a:	0000                	unimp
     15c:	0005                	c.nop	1
     15e:	0008                	.2byte	0x8
     160:	0041                	c.nop	16
     162:	0000                	unimp
     164:	0101                	addi	sp,sp,0
     166:	fb01                	bnez	a4,76 <_prog_start-0x7fffff8a>
     168:	0d0e                	slli	s10,s10,0x3
     16a:	0100                	addi	s0,sp,128
     16c:	0101                	addi	sp,sp,0
     16e:	0001                	nop
     170:	0000                	unimp
     172:	0001                	nop
     174:	0100                	addi	s0,sp,128
     176:	0101                	addi	sp,sp,0
     178:	031f 0000 0000      	.byte	0x1f, 0x03, 0x00, 0x00, 0x00, 0x00
     17e:	004a                	c.slli	zero,0x12
     180:	0000                	unimp
     182:	00ad                	addi	ra,ra,11
     184:	0000                	unimp
     186:	0102                	c.slli64	sp
     188:	021f 050f 0043      	.byte	0x1f, 0x02, 0x0f, 0x05, 0x43, 0x00
     18e:	0000                	unimp
     190:	4300                	lw	s0,0(a4)
     192:	0000                	unimp
     194:	0000                	unimp
     196:	010c                	addi	a1,sp,128
     198:	0000                	unimp
     19a:	1d01                	addi	s10,s10,-32
     19c:	0001                	nop
     19e:	0200                	addi	s0,sp,256
     1a0:	00000127          	.4byte	0x127
     1a4:	0500                	addi	s0,sp,640
     1a6:	0209003f 800000d4 	.8byte	0x800000d40209003f
     1ae:	0000                	unimp
     1b0:	0000                	unimp
     1b2:	05011703          	lh	a4,80(sp)
     1b6:	0305                	addi	t1,t1,1 # ffffffffffffa001 <kprintf+0xffffffff7fff9add>
     1b8:	0901                	addi	s2,s2,0
     1ba:	0000                	unimp
     1bc:	0501                	addi	a0,a0,0 # d000 <_prog_start-0x7fff3000>
     1be:	030a                	slli	t1,t1,0x2
     1c0:	0900                	addi	s0,sp,144
     1c2:	0000                	unimp
     1c4:	0501                	addi	a0,a0,0
     1c6:	09000317          	auipc	t1,0x9000
     1ca:	0000                	unimp
     1cc:	0501                	addi	a0,a0,0
     1ce:	7f03063f 01000009 	.8byte	0x10000097f03063f
     1d6:	0e05                	addi	t3,t3,1 # 1a001 <_prog_start-0x7ffe5fff>
     1d8:	06090103          	lb	sp,96(s2)
     1dc:	0100                	addi	s0,sp,128
     1de:	1b05                	addi	s6,s6,-31
     1e0:	06090103          	lb	sp,96(s2)
     1e4:	0100                	addi	s0,sp,128
     1e6:	0306                	slli	t1,t1,0x1
     1e8:	0900                	addi	s0,sp,144
     1ea:	0004                	.2byte	0x4
     1ec:	0501                	addi	a0,a0,0
     1ee:	0615                	addi	a2,a2,5
     1f0:	00090103          	lb	sp,0(s2)
     1f4:	0100                	addi	s0,sp,128
     1f6:	2105                	addiw	sp,sp,1
     1f8:	0306                	slli	t1,t1,0x1
     1fa:	0901                	addi	s2,s2,0
     1fc:	0006                	c.slli	zero,0x1
     1fe:	0501                	addi	a0,a0,0
     200:	0615                	addi	a2,a2,5
     202:	06097f03          	.4byte	0x6097f03
     206:	0100                	addi	s0,sp,128
     208:	2505                	addiw	a0,a0,1
     20a:	0306                	slli	t1,t1,0x1
     20c:	0902                	c.slli64	s2
     20e:	0002                	c.slli64	zero
     210:	0501                	addi	a0,a0,0
     212:	7b03063f 01000409 	.8byte	0x10004097b03063f
     21a:	1505                	addi	a0,a0,-31
     21c:	0200                	addi	s0,sp,256
     21e:	0304                	addi	s1,sp,384
     220:	0306                	slli	t1,t1,0x1
     222:	0906                	slli	s2,s2,0x1
     224:	0002                	c.slli64	zero
     226:	0001                	nop
     228:	0402                	c.slli64	s0
     22a:	09010303          	lb	t1,144(sp)
     22e:	0000                	unimp
     230:	0001                	nop
     232:	0402                	c.slli64	s0
     234:	09010303          	lb	t1,144(sp)
     238:	0000                	unimp
     23a:	0501                	addi	a0,a0,0
     23c:	003c                	addi	a5,sp,8
     23e:	0402                	c.slli64	s0
     240:	00030603          	lb	a2,0(t1) # 90001c6 <_prog_start-0x76fffe3a>
     244:	0009                	c.nop	2
     246:	0100                	addi	s0,sp,128
     248:	2505                	addiw	a0,a0,1
     24a:	0200                	addi	s0,sp,256
     24c:	0304                	addi	s1,sp,384
     24e:	08097d03          	.4byte	0x8097d03
     252:	0100                	addi	s0,sp,128
     254:	3c05                	addiw	s8,s8,-31 # 8fe1 <_prog_start-0x7fff701f>
     256:	0200                	addi	s0,sp,256
     258:	0304                	addi	s1,sp,384
     25a:	04090303          	lb	t1,64(s2)
     25e:	0100                	addi	s0,sp,128
     260:	1905                	addi	s2,s2,-31
     262:	0200                	addi	s0,sp,256
     264:	0304                	addi	s1,sp,384
     266:	04090003          	lb	zero,64(s2)
     26a:	0100                	addi	s0,sp,128
     26c:	3605                	addiw	a2,a2,-31
     26e:	0200                	addi	s0,sp,256
     270:	0304                	addi	s1,sp,384
     272:	0306                	slli	t1,t1,0x1
     274:	097d                	addi	s2,s2,31
     276:	0006                	c.slli	zero,0x1
     278:	0501                	addi	a0,a0,0
     27a:	0025                	c.nop	9
     27c:	0402                	c.slli64	s0
     27e:	09000303          	lb	t1,144(zero) # 90 <_prog_start-0x7fffff70>
     282:	0000                	unimp
     284:	0501                	addi	a0,a0,0
     286:	0032                	c.slli	zero,0xc
     288:	0402                	c.slli64	s0
     28a:	0302                	c.slli64	t1
     28c:	097f                	.2byte	0x97f
     28e:	0004                	.2byte	0x4
     290:	0501                	addi	a0,a0,0
     292:	0021                	c.nop	8
     294:	0402                	c.slli64	s0
     296:	0302                	c.slli64	t1
     298:	0900                	addi	s0,sp,144
     29a:	0000                	unimp
     29c:	0501                	addi	a0,a0,0
     29e:	000d                	c.nop	3
     2a0:	0402                	c.slli64	s0
     2a2:	0302                	c.slli64	t1
     2a4:	000c0907          	.4byte	0xc0907
     2a8:	0501                	addi	a0,a0,0
     2aa:	003c                	addi	a5,sp,8
     2ac:	0402                	c.slli64	s0
     2ae:	0602                	c.slli64	a2
     2b0:	00090003          	lb	zero,0(s2)
     2b4:	0100                	addi	s0,sp,128
     2b6:	0200                	addi	s0,sp,256
     2b8:	0204                	addi	s1,sp,256
     2ba:	0306                	slli	t1,t1,0x1
     2bc:	00080977          	.4byte	0x80977
     2c0:	0501                	addi	a0,a0,0
     2c2:	0402001b          	addiw	zero,tp,64 # 40 <_prog_start-0x7fffffc0>
     2c6:	0302                	c.slli64	t1
     2c8:	0900                	addi	s0,sp,144
     2ca:	0000                	unimp
     2cc:	0501                	addi	a0,a0,0
     2ce:	0038                	addi	a4,sp,8
     2d0:	0402                	c.slli64	s0
     2d2:	0302                	c.slli64	t1
     2d4:	097f                	.2byte	0x97f
     2d6:	0006                	c.slli	zero,0x1
     2d8:	0501                	addi	a0,a0,0
     2da:	04020017          	auipc	zero,0x4020
     2de:	0302                	c.slli64	t1
     2e0:	0900                	addi	s0,sp,144
     2e2:	0002                	c.slli64	zero
     2e4:	0501                	addi	a0,a0,0
     2e6:	0601                	addi	a2,a2,0
     2e8:	0c090d03          	lb	s10,192(s2)
     2ec:	0100                	addi	s0,sp,128
     2ee:	1105                	addi	sp,sp,-31
     2f0:	0306                	slli	t1,t1,0x1
     2f2:	0902                	c.slli64	s2
     2f4:	0002                	c.slli64	zero
     2f6:	0501                	addi	a0,a0,0
     2f8:	0305                	addi	t1,t1,1
     2fa:	0901                	addi	s2,s2,0
     2fc:	0000                	unimp
     2fe:	0301                	addi	t1,t1,0
     300:	0901                	addi	s2,s2,0
     302:	0000                	unimp
     304:	0301                	addi	t1,t1,0
     306:	0901                	addi	s2,s2,0
     308:	0000                	unimp
     30a:	0301                	addi	t1,t1,0
     30c:	0901                	addi	s2,s2,0
     30e:	0000                	unimp
     310:	0501                	addi	a0,a0,0
     312:	030a                	slli	t1,t1,0x2
     314:	0900                	addi	s0,sp,144
     316:	0000                	unimp
     318:	0501                	addi	a0,a0,0
     31a:	09000317          	auipc	t1,0x9000
     31e:	0000                	unimp
     320:	0501                	addi	a0,a0,0
     322:	0611                	addi	a2,a2,4
     324:	00097c03          	.4byte	0x97c03
     328:	0100                	addi	s0,sp,128
     32a:	1505                	addi	a0,a0,-31
     32c:	0e090603          	lb	a2,224(s2)
     330:	0100                	addi	s0,sp,128
     332:	0e05                	addi	t3,t3,1
     334:	04097e03          	.4byte	0x4097e03
     338:	0100                	addi	s0,sp,128
     33a:	4405                	li	s0,1
     33c:	06090703          	lb	a4,96(s2)
     340:	0100                	addi	s0,sp,128
     342:	2105                	addiw	sp,sp,1
     344:	04097c03          	.4byte	0x4097c03
     348:	0100                	addi	s0,sp,128
     34a:	2705                	addiw	a4,a4,1 # 64000001 <_prog_start-0x1bffffff>
     34c:	04090703          	lb	a4,64(s2)
     350:	0100                	addi	s0,sp,128
     352:	1b05                	addi	s6,s6,-31
     354:	04097703          	.4byte	0x4097703
     358:	0100                	addi	s0,sp,128
     35a:	1705                	addi	a4,a4,-31
     35c:	04097f03          	.4byte	0x4097f03
     360:	0100                	addi	s0,sp,128
     362:	1b05                	addi	s6,s6,-31
     364:	0306                	slli	t1,t1,0x1
     366:	0901                	addi	s2,s2,0
     368:	0002                	c.slli64	zero
     36a:	0501                	addi	a0,a0,0
     36c:	0615                	addi	a2,a2,5
     36e:	00090103          	lb	sp,0(s2)
     372:	0100                	addi	s0,sp,128
     374:	2105                	addiw	sp,sp,1
     376:	0306                	slli	t1,t1,0x1
     378:	0901                	addi	s2,s2,0
     37a:	000a                	c.slli	zero,0x2
     37c:	0501                	addi	a0,a0,0
     37e:	0611                	addi	a2,a2,4
     380:	08097903          	.4byte	0x8097903
     384:	0100                	addi	s0,sp,128
     386:	1505                	addi	a0,a0,-31
     388:	02090603          	lb	a2,32(s2)
     38c:	0100                	addi	s0,sp,128
     38e:	2505                	addiw	a0,a0,1
     390:	0306                	slli	t1,t1,0x1
     392:	0902                	c.slli64	s2
     394:	0002                	c.slli64	zero
     396:	0501                	addi	a0,a0,0
     398:	0015                	c.nop	5
     39a:	0402                	c.slli64	s0
     39c:	09010303          	lb	t1,144(sp)
     3a0:	0004                	.2byte	0x4
     3a2:	0001                	nop
     3a4:	0402                	c.slli64	s0
     3a6:	09010303          	lb	t1,144(sp)
     3aa:	0000                	unimp
     3ac:	0001                	nop
     3ae:	0402                	c.slli64	s0
     3b0:	09010303          	lb	t1,144(sp)
     3b4:	0000                	unimp
     3b6:	0501                	addi	a0,a0,0
     3b8:	0044                	addi	s1,sp,4
     3ba:	0402                	c.slli64	s0
     3bc:	00030603          	lb	a2,0(t1) # 900031a <_prog_start-0x76fffce6>
     3c0:	0009                	c.nop	2
     3c2:	0100                	addi	s0,sp,128
     3c4:	3c05                	addiw	s8,s8,-31
     3c6:	0200                	addi	s0,sp,256
     3c8:	0304                	addi	s1,sp,384
     3ca:	06090003          	lb	zero,96(s2)
     3ce:	0100                	addi	s0,sp,128
     3d0:	2505                	addiw	a0,a0,1
     3d2:	0200                	addi	s0,sp,256
     3d4:	0304                	addi	s1,sp,384
     3d6:	08097d03          	.4byte	0x8097d03
     3da:	0100                	addi	s0,sp,128
     3dc:	3c05                	addiw	s8,s8,-31
     3de:	0200                	addi	s0,sp,256
     3e0:	0304                	addi	s1,sp,384
     3e2:	02090303          	lb	t1,32(s2)
     3e6:	0100                	addi	s0,sp,128
     3e8:	1905                	addi	s2,s2,-31
     3ea:	0200                	addi	s0,sp,256
     3ec:	0304                	addi	s1,sp,384
     3ee:	04090003          	lb	zero,64(s2)
     3f2:	0100                	addi	s0,sp,128
     3f4:	3605                	addiw	a2,a2,-31
     3f6:	0200                	addi	s0,sp,256
     3f8:	0304                	addi	s1,sp,384
     3fa:	0306                	slli	t1,t1,0x1
     3fc:	097d                	addi	s2,s2,31
     3fe:	0006                	c.slli	zero,0x1
     400:	0501                	addi	a0,a0,0
     402:	0025                	c.nop	9
     404:	0402                	c.slli64	s0
     406:	09000303          	lb	t1,144(zero) # 90 <_prog_start-0x7fffff70>
     40a:	0000                	unimp
     40c:	0501                	addi	a0,a0,0
     40e:	0032                	c.slli	zero,0xc
     410:	0402                	c.slli64	s0
     412:	0302                	c.slli64	t1
     414:	097f                	.2byte	0x97f
     416:	0004                	.2byte	0x4
     418:	0501                	addi	a0,a0,0
     41a:	0021                	c.nop	8
     41c:	0402                	c.slli64	s0
     41e:	0302                	c.slli64	t1
     420:	0900                	addi	s0,sp,144
     422:	0000                	unimp
     424:	0501                	addi	a0,a0,0
     426:	000d                	c.nop	3
     428:	0402                	c.slli64	s0
     42a:	0302                	c.slli64	t1
     42c:	00100907          	.4byte	0x100907
     430:	0501                	addi	a0,a0,0
     432:	04020027          	.4byte	0x4020027
     436:	0602                	c.slli64	a2
     438:	00090003          	lb	zero,0(s2)
     43c:	0100                	addi	s0,sp,128
     43e:	2905                	addiw	s2,s2,1
     440:	0200                	addi	s0,sp,256
     442:	0204                	addi	s1,sp,256
     444:	0306                	slli	t1,t1,0x1
     446:	000a0977          	.4byte	0xa0977
     44a:	0501                	addi	a0,a0,0
     44c:	0402001b          	addiw	zero,tp,64 # 40 <_prog_start-0x7fffffc0>
     450:	0302                	c.slli64	t1
     452:	0900                	addi	s0,sp,144
     454:	0000                	unimp
     456:	0501                	addi	a0,a0,0
     458:	04020027          	.4byte	0x4020027
     45c:	0302                	c.slli64	t1
     45e:	097f                	.2byte	0x97f
     460:	0006                	c.slli	zero,0x1
     462:	0501                	addi	a0,a0,0
     464:	04020017          	auipc	zero,0x4020
     468:	0302                	c.slli64	t1
     46a:	0900                	addi	s0,sp,144
     46c:	0002                	c.slli64	zero
     46e:	0501                	addi	a0,a0,0
     470:	0601                	addi	a2,a2,0
     472:	0c090d03          	lb	s10,192(s2)
     476:	0100                	addi	s0,sp,128
     478:	1105                	addi	sp,sp,-31
     47a:	0306                	slli	t1,t1,0x1
     47c:	0902                	c.slli64	s2
     47e:	000c                	.2byte	0xc
     480:	0501                	addi	a0,a0,0
     482:	0305                	addi	t1,t1,1
     484:	0901                	addi	s2,s2,0
     486:	0000                	unimp
     488:	0301                	addi	t1,t1,0
     48a:	0901                	addi	s2,s2,0
     48c:	0000                	unimp
     48e:	0301                	addi	t1,t1,0
     490:	0901                	addi	s2,s2,0
     492:	0000                	unimp
     494:	0301                	addi	t1,t1,0
     496:	0901                	addi	s2,s2,0
     498:	0000                	unimp
     49a:	0501                	addi	a0,a0,0
     49c:	030a                	slli	t1,t1,0x2
     49e:	0900                	addi	s0,sp,144
     4a0:	0000                	unimp
     4a2:	0501                	addi	a0,a0,0
     4a4:	0322                	slli	t1,t1,0x8
     4a6:	0900                	addi	s0,sp,144
     4a8:	0000                	unimp
     4aa:	0501                	addi	a0,a0,0
     4ac:	0611                	addi	a2,a2,4
     4ae:	00097c03          	.4byte	0x97c03
     4b2:	0100                	addi	s0,sp,128
     4b4:	1505                	addi	a0,a0,-31
     4b6:	02090603          	lb	a2,32(s2)
     4ba:	0100                	addi	s0,sp,128
     4bc:	1105                	addi	sp,sp,-31
     4be:	06097a03          	.4byte	0x6097a03
     4c2:	0100                	addi	s0,sp,128
     4c4:	1505                	addi	a0,a0,-31
     4c6:	04090603          	lb	a2,64(s2)
     4ca:	0100                	addi	s0,sp,128
     4cc:	1105                	addi	sp,sp,-31
     4ce:	04097a03          	.4byte	0x4097a03
     4d2:	0100                	addi	s0,sp,128
     4d4:	1505                	addi	a0,a0,-31
     4d6:	04090603          	lb	a2,64(s2)
     4da:	0100                	addi	s0,sp,128
     4dc:	0e05                	addi	t3,t3,1
     4de:	04097e03          	.4byte	0x4097e03
     4e2:	0100                	addi	s0,sp,128
     4e4:	4405                	li	s0,1
     4e6:	06090703          	lb	a4,96(s2)
     4ea:	0100                	addi	s0,sp,128
     4ec:	2105                	addiw	sp,sp,1
     4ee:	04097c03          	.4byte	0x4097c03
     4f2:	0100                	addi	s0,sp,128
     4f4:	2705                	addiw	a4,a4,1
     4f6:	04090703          	lb	a4,64(s2)
     4fa:	0100                	addi	s0,sp,128
     4fc:	1b05                	addi	s6,s6,-31
     4fe:	04097703          	.4byte	0x4097703
     502:	0100                	addi	s0,sp,128
     504:	2205                	addiw	tp,tp,1 # 1 <_prog_start-0x7fffffff>
     506:	04097f03          	.4byte	0x4097f03
     50a:	0100                	addi	s0,sp,128
     50c:	1b05                	addi	s6,s6,-31
     50e:	0306                	slli	t1,t1,0x1
     510:	0901                	addi	s2,s2,0
     512:	0004                	.2byte	0x4
     514:	0501                	addi	a0,a0,0
     516:	0615                	addi	a2,a2,5
     518:	00090103          	lb	sp,0(s2)
     51c:	0100                	addi	s0,sp,128
     51e:	2105                	addiw	sp,sp,1
     520:	0306                	slli	t1,t1,0x1
     522:	0901                	addi	s2,s2,0
     524:	000a                	c.slli	zero,0x2
     526:	0501                	addi	a0,a0,0
     528:	0611                	addi	a2,a2,4
     52a:	08097903          	.4byte	0x8097903
     52e:	0100                	addi	s0,sp,128
     530:	1505                	addi	a0,a0,-31
     532:	02090603          	lb	a2,32(s2)
     536:	0100                	addi	s0,sp,128
     538:	2505                	addiw	a0,a0,1
     53a:	0306                	slli	t1,t1,0x1
     53c:	0902                	c.slli64	s2
     53e:	0002                	c.slli64	zero
     540:	0501                	addi	a0,a0,0
     542:	0015                	c.nop	5
     544:	0402                	c.slli64	s0
     546:	09010303          	lb	t1,144(sp)
     54a:	0004                	.2byte	0x4
     54c:	0001                	nop
     54e:	0402                	c.slli64	s0
     550:	09010303          	lb	t1,144(sp)
     554:	0000                	unimp
     556:	0001                	nop
     558:	0402                	c.slli64	s0
     55a:	09010303          	lb	t1,144(sp)
     55e:	0000                	unimp
     560:	0501                	addi	a0,a0,0
     562:	0044                	addi	s1,sp,4
     564:	0402                	c.slli64	s0
     566:	00030603          	lb	a2,0(t1)
     56a:	0009                	c.nop	2
     56c:	0100                	addi	s0,sp,128
     56e:	3c05                	addiw	s8,s8,-31
     570:	0200                	addi	s0,sp,256
     572:	0304                	addi	s1,sp,384
     574:	06090003          	lb	zero,96(s2)
     578:	0100                	addi	s0,sp,128
     57a:	2505                	addiw	a0,a0,1
     57c:	0200                	addi	s0,sp,256
     57e:	0304                	addi	s1,sp,384
     580:	08097d03          	.4byte	0x8097d03
     584:	0100                	addi	s0,sp,128
     586:	3c05                	addiw	s8,s8,-31
     588:	0200                	addi	s0,sp,256
     58a:	0304                	addi	s1,sp,384
     58c:	02090303          	lb	t1,32(s2)
     590:	0100                	addi	s0,sp,128
     592:	1905                	addi	s2,s2,-31
     594:	0200                	addi	s0,sp,256
     596:	0304                	addi	s1,sp,384
     598:	04090003          	lb	zero,64(s2)
     59c:	0100                	addi	s0,sp,128
     59e:	3605                	addiw	a2,a2,-31
     5a0:	0200                	addi	s0,sp,256
     5a2:	0304                	addi	s1,sp,384
     5a4:	0306                	slli	t1,t1,0x1
     5a6:	097d                	addi	s2,s2,31
     5a8:	0006                	c.slli	zero,0x1
     5aa:	0501                	addi	a0,a0,0
     5ac:	0025                	c.nop	9
     5ae:	0402                	c.slli64	s0
     5b0:	09000303          	lb	t1,144(zero) # 90 <_prog_start-0x7fffff70>
     5b4:	0000                	unimp
     5b6:	0501                	addi	a0,a0,0
     5b8:	0032                	c.slli	zero,0xc
     5ba:	0402                	c.slli64	s0
     5bc:	0302                	c.slli64	t1
     5be:	097f                	.2byte	0x97f
     5c0:	0004                	.2byte	0x4
     5c2:	0501                	addi	a0,a0,0
     5c4:	0021                	c.nop	8
     5c6:	0402                	c.slli64	s0
     5c8:	0302                	c.slli64	t1
     5ca:	0900                	addi	s0,sp,144
     5cc:	0000                	unimp
     5ce:	0501                	addi	a0,a0,0
     5d0:	000d                	c.nop	3
     5d2:	0402                	c.slli64	s0
     5d4:	0302                	c.slli64	t1
     5d6:	00100907          	.4byte	0x100907
     5da:	0501                	addi	a0,a0,0
     5dc:	04020027          	.4byte	0x4020027
     5e0:	0602                	c.slli64	a2
     5e2:	00090003          	lb	zero,0(s2)
     5e6:	0100                	addi	s0,sp,128
     5e8:	2905                	addiw	s2,s2,1
     5ea:	0200                	addi	s0,sp,256
     5ec:	0204                	addi	s1,sp,256
     5ee:	0306                	slli	t1,t1,0x1
     5f0:	000a0977          	.4byte	0xa0977
     5f4:	0501                	addi	a0,a0,0
     5f6:	0402001b          	addiw	zero,tp,64 # 40 <_prog_start-0x7fffffc0>
     5fa:	0302                	c.slli64	t1
     5fc:	0900                	addi	s0,sp,144
     5fe:	0000                	unimp
     600:	0501                	addi	a0,a0,0
     602:	0032                	c.slli	zero,0xc
     604:	0402                	c.slli64	s0
     606:	0302                	c.slli64	t1
     608:	097f                	.2byte	0x97f
     60a:	0006                	c.slli	zero,0x1
     60c:	0501                	addi	a0,a0,0
     60e:	0022                	c.slli	zero,0x8
     610:	0402                	c.slli64	s0
     612:	0302                	c.slli64	t1
     614:	0900                	addi	s0,sp,144
     616:	0002                	c.slli64	zero
     618:	0501                	addi	a0,a0,0
     61a:	0601                	addi	a2,a2,0
     61c:	0c090d03          	lb	s10,192(s2)
     620:	0100                	addi	s0,sp,128
     622:	1105                	addi	sp,sp,-31
     624:	0306                	slli	t1,t1,0x1
     626:	0902                	c.slli64	s2
     628:	000c                	.2byte	0xc
     62a:	0501                	addi	a0,a0,0
     62c:	0305                	addi	t1,t1,1
     62e:	0901                	addi	s2,s2,0
     630:	0000                	unimp
     632:	0301                	addi	t1,t1,0
     634:	0901                	addi	s2,s2,0
     636:	0000                	unimp
     638:	0301                	addi	t1,t1,0
     63a:	0901                	addi	s2,s2,0
     63c:	0000                	unimp
     63e:	0301                	addi	t1,t1,0
     640:	0901                	addi	s2,s2,0
     642:	0000                	unimp
     644:	0501                	addi	a0,a0,0
     646:	030a                	slli	t1,t1,0x2
     648:	0900                	addi	s0,sp,144
     64a:	0000                	unimp
     64c:	0501                	addi	a0,a0,0
     64e:	09000317          	auipc	t1,0x9000
     652:	0000                	unimp
     654:	0501                	addi	a0,a0,0
     656:	0611                	addi	a2,a2,4
     658:	00097c03          	.4byte	0x97c03
     65c:	0100                	addi	s0,sp,128
     65e:	1505                	addi	a0,a0,-31
     660:	0e090603          	lb	a2,224(s2)
     664:	0100                	addi	s0,sp,128
     666:	0e05                	addi	t3,t3,1
     668:	04097e03          	.4byte	0x4097e03
     66c:	0100                	addi	s0,sp,128
     66e:	4405                	li	s0,1
     670:	06090703          	lb	a4,96(s2)
     674:	0100                	addi	s0,sp,128
     676:	2105                	addiw	sp,sp,1
     678:	04097c03          	.4byte	0x4097c03
     67c:	0100                	addi	s0,sp,128
     67e:	2705                	addiw	a4,a4,1
     680:	04090703          	lb	a4,64(s2)
     684:	0100                	addi	s0,sp,128
     686:	2605                	addiw	a2,a2,1
     688:	04097703          	.4byte	0x4097703
     68c:	0100                	addi	s0,sp,128
     68e:	1705                	addi	a4,a4,-31
     690:	04097f03          	.4byte	0x4097f03
     694:	0100                	addi	s0,sp,128
     696:	2605                	addiw	a2,a2,1
     698:	0306                	slli	t1,t1,0x1
     69a:	0901                	addi	s2,s2,0
     69c:	0004                	.2byte	0x4
     69e:	0501                	addi	a0,a0,0
     6a0:	0615                	addi	a2,a2,5
     6a2:	00090103          	lb	sp,0(s2)
     6a6:	0100                	addi	s0,sp,128
     6a8:	2105                	addiw	sp,sp,1
     6aa:	0306                	slli	t1,t1,0x1
     6ac:	0901                	addi	s2,s2,0
     6ae:	000c                	.2byte	0xc
     6b0:	0501                	addi	a0,a0,0
     6b2:	0611                	addi	a2,a2,4
     6b4:	08097903          	.4byte	0x8097903
     6b8:	0100                	addi	s0,sp,128
     6ba:	1505                	addi	a0,a0,-31
     6bc:	02090603          	lb	a2,32(s2)
     6c0:	0100                	addi	s0,sp,128
     6c2:	2505                	addiw	a0,a0,1
     6c4:	0306                	slli	t1,t1,0x1
     6c6:	0902                	c.slli64	s2
     6c8:	0002                	c.slli64	zero
     6ca:	0501                	addi	a0,a0,0
     6cc:	0015                	c.nop	5
     6ce:	0402                	c.slli64	s0
     6d0:	09010303          	lb	t1,144(sp)
     6d4:	0004                	.2byte	0x4
     6d6:	0001                	nop
     6d8:	0402                	c.slli64	s0
     6da:	09010303          	lb	t1,144(sp)
     6de:	0000                	unimp
     6e0:	0001                	nop
     6e2:	0402                	c.slli64	s0
     6e4:	09010303          	lb	t1,144(sp)
     6e8:	0000                	unimp
     6ea:	0501                	addi	a0,a0,0
     6ec:	0044                	addi	s1,sp,4
     6ee:	0402                	c.slli64	s0
     6f0:	00030603          	lb	a2,0(t1) # 900064e <_prog_start-0x76fff9b2>
     6f4:	0009                	c.nop	2
     6f6:	0100                	addi	s0,sp,128
     6f8:	3c05                	addiw	s8,s8,-31
     6fa:	0200                	addi	s0,sp,256
     6fc:	0304                	addi	s1,sp,384
     6fe:	06090003          	lb	zero,96(s2)
     702:	0100                	addi	s0,sp,128
     704:	2505                	addiw	a0,a0,1
     706:	0200                	addi	s0,sp,256
     708:	0304                	addi	s1,sp,384
     70a:	08097d03          	.4byte	0x8097d03
     70e:	0100                	addi	s0,sp,128
     710:	3c05                	addiw	s8,s8,-31
     712:	0200                	addi	s0,sp,256
     714:	0304                	addi	s1,sp,384
     716:	02090303          	lb	t1,32(s2)
     71a:	0100                	addi	s0,sp,128
     71c:	1905                	addi	s2,s2,-31
     71e:	0200                	addi	s0,sp,256
     720:	0304                	addi	s1,sp,384
     722:	04090003          	lb	zero,64(s2)
     726:	0100                	addi	s0,sp,128
     728:	3605                	addiw	a2,a2,-31
     72a:	0200                	addi	s0,sp,256
     72c:	0304                	addi	s1,sp,384
     72e:	0306                	slli	t1,t1,0x1
     730:	097d                	addi	s2,s2,31
     732:	0006                	c.slli	zero,0x1
     734:	0501                	addi	a0,a0,0
     736:	0025                	c.nop	9
     738:	0402                	c.slli64	s0
     73a:	09000303          	lb	t1,144(zero) # 90 <_prog_start-0x7fffff70>
     73e:	0000                	unimp
     740:	0501                	addi	a0,a0,0
     742:	0032                	c.slli	zero,0xc
     744:	0402                	c.slli64	s0
     746:	0302                	c.slli64	t1
     748:	097f                	.2byte	0x97f
     74a:	0004                	.2byte	0x4
     74c:	0501                	addi	a0,a0,0
     74e:	0021                	c.nop	8
     750:	0402                	c.slli64	s0
     752:	0302                	c.slli64	t1
     754:	0900                	addi	s0,sp,144
     756:	0000                	unimp
     758:	0501                	addi	a0,a0,0
     75a:	000d                	c.nop	3
     75c:	0402                	c.slli64	s0
     75e:	0302                	c.slli64	t1
     760:	00100907          	.4byte	0x100907
     764:	0501                	addi	a0,a0,0
     766:	04020027          	.4byte	0x4020027
     76a:	0602                	c.slli64	a2
     76c:	00090003          	lb	zero,0(s2)
     770:	0100                	addi	s0,sp,128
     772:	3605                	addiw	a2,a2,-31
     774:	0200                	addi	s0,sp,256
     776:	0204                	addi	s1,sp,256
     778:	0306                	slli	t1,t1,0x1
     77a:	000a0977          	.4byte	0xa0977
     77e:	0501                	addi	a0,a0,0
     780:	0026                	c.slli	zero,0x9
     782:	0402                	c.slli64	s0
     784:	0302                	c.slli64	t1
     786:	0900                	addi	s0,sp,144
     788:	0000                	unimp
     78a:	0501                	addi	a0,a0,0
     78c:	0025                	c.nop	9
     78e:	0402                	c.slli64	s0
     790:	0302                	c.slli64	t1
     792:	097f                	.2byte	0x97f
     794:	0006                	c.slli	zero,0x1
     796:	0501                	addi	a0,a0,0
     798:	04020017          	auipc	zero,0x4020
     79c:	0302                	c.slli64	t1
     79e:	0900                	addi	s0,sp,144
     7a0:	0002                	c.slli64	zero
     7a2:	0501                	addi	a0,a0,0
     7a4:	0601                	addi	a2,a2,0
     7a6:	0c090d03          	lb	s10,192(s2)
     7aa:	0100                	addi	s0,sp,128
     7ac:	1105                	addi	sp,sp,-31
     7ae:	0306                	slli	t1,t1,0x1
     7b0:	0902                	c.slli64	s2
     7b2:	000c                	.2byte	0xc
     7b4:	0501                	addi	a0,a0,0
     7b6:	0305                	addi	t1,t1,1
     7b8:	0901                	addi	s2,s2,0
     7ba:	0000                	unimp
     7bc:	0301                	addi	t1,t1,0
     7be:	0901                	addi	s2,s2,0
     7c0:	0000                	unimp
     7c2:	0301                	addi	t1,t1,0
     7c4:	0901                	addi	s2,s2,0
     7c6:	0000                	unimp
     7c8:	0301                	addi	t1,t1,0
     7ca:	0901                	addi	s2,s2,0
     7cc:	0000                	unimp
     7ce:	0501                	addi	a0,a0,0
     7d0:	030a                	slli	t1,t1,0x2
     7d2:	0900                	addi	s0,sp,144
     7d4:	0000                	unimp
     7d6:	0501                	addi	a0,a0,0
     7d8:	09000317          	auipc	t1,0x9000
     7dc:	0000                	unimp
     7de:	0501                	addi	a0,a0,0
     7e0:	0611                	addi	a2,a2,4
     7e2:	00097c03          	.4byte	0x97c03
     7e6:	0100                	addi	s0,sp,128
     7e8:	1505                	addi	a0,a0,-31
     7ea:	0c090603          	lb	a2,192(s2)
     7ee:	0100                	addi	s0,sp,128
     7f0:	0e05                	addi	t3,t3,1
     7f2:	04097e03          	.4byte	0x4097e03
     7f6:	0100                	addi	s0,sp,128
     7f8:	4405                	li	s0,1
     7fa:	06090703          	lb	a4,96(s2)
     7fe:	0100                	addi	s0,sp,128
     800:	2105                	addiw	sp,sp,1
     802:	04097c03          	.4byte	0x4097c03
     806:	0100                	addi	s0,sp,128
     808:	2705                	addiw	a4,a4,1
     80a:	04090703          	lb	a4,64(s2)
     80e:	0100                	addi	s0,sp,128
     810:	2605                	addiw	a2,a2,1
     812:	04097703          	.4byte	0x4097703
     816:	0100                	addi	s0,sp,128
     818:	0306                	slli	t1,t1,0x1
     81a:	0900                	addi	s0,sp,144
     81c:	0004                	.2byte	0x4
     81e:	0501                	addi	a0,a0,0
     820:	0615                	addi	a2,a2,5
     822:	00090103          	lb	sp,0(s2)
     826:	0100                	addi	s0,sp,128
     828:	2105                	addiw	sp,sp,1
     82a:	0306                	slli	t1,t1,0x1
     82c:	0901                	addi	s2,s2,0
     82e:	000c                	.2byte	0xc
     830:	0501                	addi	a0,a0,0
     832:	0611                	addi	a2,a2,4
     834:	08097903          	.4byte	0x8097903
     838:	0100                	addi	s0,sp,128
     83a:	1505                	addi	a0,a0,-31
     83c:	02090603          	lb	a2,32(s2)
     840:	0100                	addi	s0,sp,128
     842:	2505                	addiw	a0,a0,1
     844:	0306                	slli	t1,t1,0x1
     846:	0902                	c.slli64	s2
     848:	0002                	c.slli64	zero
     84a:	0501                	addi	a0,a0,0
     84c:	0015                	c.nop	5
     84e:	0402                	c.slli64	s0
     850:	09010303          	lb	t1,144(sp)
     854:	0004                	.2byte	0x4
     856:	0001                	nop
     858:	0402                	c.slli64	s0
     85a:	09010303          	lb	t1,144(sp)
     85e:	0000                	unimp
     860:	0001                	nop
     862:	0402                	c.slli64	s0
     864:	09010303          	lb	t1,144(sp)
     868:	0000                	unimp
     86a:	0501                	addi	a0,a0,0
     86c:	0044                	addi	s1,sp,4
     86e:	0402                	c.slli64	s0
     870:	00030603          	lb	a2,0(t1) # 90007d8 <_prog_start-0x76fff828>
     874:	0009                	c.nop	2
     876:	0100                	addi	s0,sp,128
     878:	3c05                	addiw	s8,s8,-31
     87a:	0200                	addi	s0,sp,256
     87c:	0304                	addi	s1,sp,384
     87e:	06090003          	lb	zero,96(s2)
     882:	0100                	addi	s0,sp,128
     884:	2505                	addiw	a0,a0,1
     886:	0200                	addi	s0,sp,256
     888:	0304                	addi	s1,sp,384
     88a:	08097d03          	.4byte	0x8097d03
     88e:	0100                	addi	s0,sp,128
     890:	3c05                	addiw	s8,s8,-31
     892:	0200                	addi	s0,sp,256
     894:	0304                	addi	s1,sp,384
     896:	02090303          	lb	t1,32(s2)
     89a:	0100                	addi	s0,sp,128
     89c:	1905                	addi	s2,s2,-31
     89e:	0200                	addi	s0,sp,256
     8a0:	0304                	addi	s1,sp,384
     8a2:	04090003          	lb	zero,64(s2)
     8a6:	0100                	addi	s0,sp,128
     8a8:	3605                	addiw	a2,a2,-31
     8aa:	0200                	addi	s0,sp,256
     8ac:	0304                	addi	s1,sp,384
     8ae:	0306                	slli	t1,t1,0x1
     8b0:	097d                	addi	s2,s2,31
     8b2:	0006                	c.slli	zero,0x1
     8b4:	0501                	addi	a0,a0,0
     8b6:	0025                	c.nop	9
     8b8:	0402                	c.slli64	s0
     8ba:	09000303          	lb	t1,144(zero) # 90 <_prog_start-0x7fffff70>
     8be:	0000                	unimp
     8c0:	0501                	addi	a0,a0,0
     8c2:	0032                	c.slli	zero,0xc
     8c4:	0402                	c.slli64	s0
     8c6:	0302                	c.slli64	t1
     8c8:	097f                	.2byte	0x97f
     8ca:	0004                	.2byte	0x4
     8cc:	0501                	addi	a0,a0,0
     8ce:	0021                	c.nop	8
     8d0:	0402                	c.slli64	s0
     8d2:	0302                	c.slli64	t1
     8d4:	0900                	addi	s0,sp,144
     8d6:	0000                	unimp
     8d8:	0501                	addi	a0,a0,0
     8da:	000d                	c.nop	3
     8dc:	0402                	c.slli64	s0
     8de:	0302                	c.slli64	t1
     8e0:	00100907          	.4byte	0x100907
     8e4:	0501                	addi	a0,a0,0
     8e6:	04020027          	.4byte	0x4020027
     8ea:	0602                	c.slli64	a2
     8ec:	00090003          	lb	zero,0(s2)
     8f0:	0100                	addi	s0,sp,128
     8f2:	3405                	addiw	s0,s0,-31
     8f4:	0200                	addi	s0,sp,256
     8f6:	0204                	addi	s1,sp,256
     8f8:	0306                	slli	t1,t1,0x1
     8fa:	000a0977          	.4byte	0xa0977
     8fe:	0501                	addi	a0,a0,0
     900:	0026                	c.slli	zero,0x9
     902:	0402                	c.slli64	s0
     904:	0302                	c.slli64	t1
     906:	0900                	addi	s0,sp,144
     908:	0000                	unimp
     90a:	0501                	addi	a0,a0,0
     90c:	0025                	c.nop	9
     90e:	0402                	c.slli64	s0
     910:	0302                	c.slli64	t1
     912:	097f                	.2byte	0x97f
     914:	0006                	c.slli	zero,0x1
     916:	0501                	addi	a0,a0,0
     918:	04020017          	auipc	zero,0x4020
     91c:	0302                	c.slli64	t1
     91e:	0900                	addi	s0,sp,144
     920:	0002                	c.slli64	zero
     922:	0501                	addi	a0,a0,0
     924:	0601                	addi	a2,a2,0
     926:	0c090d03          	lb	s10,192(s2)
     92a:	0100                	addi	s0,sp,128
     92c:	0a09                	addi	s4,s4,2
     92e:	0000                	unimp
     930:	0101                	addi	sp,sp,0
     932:	2005                	.2byte	0x2005
     934:	0900                	addi	s0,sp,144
     936:	b402                	fsd	ft0,40(sp)
     938:	00800003          	lb	zero,8(zero) # 8 <_prog_start-0x7ffffff8>
     93c:	0000                	unimp
     93e:	0300                	addi	s0,sp,384
     940:	050100f3          	.4byte	0x50100f3
     944:	0305                	addi	t1,t1,1
     946:	0902                	c.slli64	s2
     948:	0000                	unimp
     94a:	0501                	addi	a0,a0,0
     94c:	0620                	addi	s0,sp,776
     94e:	00097e03          	.4byte	0x97e03
     952:	0100                	addi	s0,sp,128
     954:	2205                	addiw	tp,tp,1 # 1 <_prog_start-0x7fffffff>
     956:	04090203          	lb	tp,64(s2)
     95a:	0100                	addi	s0,sp,128
     95c:	2005                	.2byte	0x2005
     95e:	06097e03          	.4byte	0x6097e03
     962:	0100                	addi	s0,sp,128
     964:	2205                	addiw	tp,tp,1 # 1 <_prog_start-0x7fffffff>
     966:	14090203          	lb	tp,320(s2)
     96a:	0100                	addi	s0,sp,128
     96c:	0505                	addi	a0,a0,1
     96e:	0306                	slli	t1,t1,0x1
     970:	0902                	c.slli64	s2
     972:	0002                	c.slli64	zero
     974:	0301                	addi	t1,t1,0
     976:	0901                	addi	s2,s2,0
     978:	0000                	unimp
     97a:	0301                	addi	t1,t1,0
     97c:	0902                	c.slli64	s2
     97e:	0000                	unimp
     980:	0301                	addi	t1,t1,0
     982:	0901                	addi	s2,s2,0
     984:	0000                	unimp
     986:	0301                	addi	t1,t1,0
     988:	0902                	c.slli64	s2
     98a:	0000                	unimp
     98c:	0301                	addi	t1,t1,0
     98e:	00000903          	lb	s2,0(zero) # 0 <_prog_start-0x80000000>
     992:	0301                	addi	t1,t1,0
     994:	00000903          	lb	s2,0(zero) # 0 <_prog_start-0x80000000>
     998:	0301                	addi	t1,t1,0
     99a:	0901                	addi	s2,s2,0
     99c:	0000                	unimp
     99e:	0301                	addi	t1,t1,0
     9a0:	0901                	addi	s2,s2,0
     9a2:	0000                	unimp
     9a4:	0301                	addi	t1,t1,0
     9a6:	0901                	addi	s2,s2,0
     9a8:	0000                	unimp
     9aa:	0301                	addi	t1,t1,0
     9ac:	0902                	c.slli64	s2
     9ae:	0000                	unimp
     9b0:	0301                	addi	t1,t1,0
     9b2:	0901                	addi	s2,s2,0
     9b4:	0000                	unimp
     9b6:	0301                	addi	t1,t1,0
     9b8:	0902                	c.slli64	s2
     9ba:	0000                	unimp
     9bc:	0501                	addi	a0,a0,0
     9be:	030a                	slli	t1,t1,0x2
     9c0:	0900                	addi	s0,sp,144
     9c2:	0000                	unimp
     9c4:	0501                	addi	a0,a0,0
     9c6:	09000317          	auipc	t1,0x9000
     9ca:	0000                	unimp
     9cc:	0501                	addi	a0,a0,0
     9ce:	0622                	slli	a2,a2,0x8
     9d0:	00096a03          	lwu	s4,0(s2)
     9d4:	0100                	addi	s0,sp,128
     9d6:	1705                	addi	a4,a4,-31
     9d8:	04091603          	lh	a2,64(s2)
     9dc:	0100                	addi	s0,sp,128
     9de:	0905                	addi	s2,s2,1
     9e0:	0200                	addi	s0,sp,256
     9e2:	0304                	addi	s1,sp,384
     9e4:	0306                	slli	t1,t1,0x1
     9e6:	0901                	addi	s2,s2,0
     9e8:	0004                	.2byte	0x4
     9ea:	0501                	addi	a0,a0,0
     9ec:	0012                	c.slli	zero,0x4
     9ee:	0402                	c.slli64	s0
     9f0:	00030603          	lb	a2,0(t1) # 90009c6 <_prog_start-0x76fff63a>
     9f4:	0009                	c.nop	2
     9f6:	0100                	addi	s0,sp,128
     9f8:	3205                	addiw	tp,tp,-31 # ffffffffffffffe1 <kprintf+0xffffffff7ffffabd>
     9fa:	0200                	addi	s0,sp,256
     9fc:	0304                	addi	s1,sp,384
     9fe:	0306                	slli	t1,t1,0x1
     a00:	097f                	.2byte	0x97f
     a02:	0004                	.2byte	0x4
     a04:	0501                	addi	a0,a0,0
     a06:	04020017          	auipc	zero,0x4020
     a0a:	09000303          	lb	t1,144(zero) # 90 <_prog_start-0x7fffff70>
     a0e:	0000                	unimp
     a10:	0501                	addi	a0,a0,0
     a12:	0615                	addi	a2,a2,5
     a14:	0a090503          	lb	a0,160(s2)
     a18:	0100                	addi	s0,sp,128
     a1a:	02090103          	lb	sp,32(s2)
     a1e:	0100                	addi	s0,sp,128
     a20:	02090103          	lb	sp,32(s2)
     a24:	0100                	addi	s0,sp,128
     a26:	1705                	addi	a4,a4,-31
     a28:	02097c03          	.4byte	0x2097c03
     a2c:	0100                	addi	s0,sp,128
     a2e:	0905                	addi	s2,s2,1
     a30:	0200                	addi	s0,sp,256
     a32:	0304                	addi	s1,sp,384
     a34:	0306                	slli	t1,t1,0x1
     a36:	0901                	addi	s2,s2,0
     a38:	0004                	.2byte	0x4
     a3a:	0501                	addi	a0,a0,0
     a3c:	0015                	c.nop	5
     a3e:	0402                	c.slli64	s0
     a40:	00030603          	lb	a2,0(t1)
     a44:	0409                	addi	s0,s0,2
     a46:	0100                	addi	s0,sp,128
     a48:	0905                	addi	s2,s2,1
     a4a:	0200                	addi	s0,sp,256
     a4c:	0304                	addi	s1,sp,384
     a4e:	0306                	slli	t1,t1,0x1
     a50:	0901                	addi	s2,s2,0
     a52:	0004                	.2byte	0x4
     a54:	0501                	addi	a0,a0,0
     a56:	0015                	c.nop	5
     a58:	0402                	c.slli64	s0
     a5a:	00030603          	lb	a2,0(t1)
     a5e:	0009                	c.nop	2
     a60:	0100                	addi	s0,sp,128
     a62:	0905                	addi	s2,s2,1
     a64:	0200                	addi	s0,sp,256
     a66:	0304                	addi	s1,sp,384
     a68:	0306                	slli	t1,t1,0x1
     a6a:	0901                	addi	s2,s2,0
     a6c:	0008                	.2byte	0x8
     a6e:	0501                	addi	a0,a0,0
     a70:	0015                	c.nop	5
     a72:	0402                	c.slli64	s0
     a74:	00030603          	lb	a2,0(t1)
     a78:	0009                	c.nop	2
     a7a:	0100                	addi	s0,sp,128
     a7c:	0200                	addi	s0,sp,256
     a7e:	0304                	addi	s1,sp,384
     a80:	04090103          	lb	sp,64(s2)
     a84:	0100                	addi	s0,sp,128
     a86:	0200                	addi	s0,sp,256
     a88:	0304                	addi	s1,sp,384
     a8a:	04097f03          	.4byte	0x4097f03
     a8e:	0100                	addi	s0,sp,128
     a90:	0905                	addi	s2,s2,1
     a92:	0200                	addi	s0,sp,256
     a94:	0304                	addi	s1,sp,384
     a96:	0306                	slli	t1,t1,0x1
     a98:	0901                	addi	s2,s2,0
     a9a:	0004                	.2byte	0x4
     a9c:	0501                	addi	a0,a0,0
     a9e:	0015                	c.nop	5
     aa0:	0402                	c.slli64	s0
     aa2:	00030603          	lb	a2,0(t1)
     aa6:	0009                	c.nop	2
     aa8:	0100                	addi	s0,sp,128
     aaa:	3305                	addiw	t1,t1,-31
     aac:	0200                	addi	s0,sp,256
     aae:	0304                	addi	s1,sp,384
     ab0:	0306                	slli	t1,t1,0x1
     ab2:	097c                	addi	a5,sp,156
     ab4:	0004                	.2byte	0x4
     ab6:	0501                	addi	a0,a0,0
     ab8:	04020017          	auipc	zero,0x4020
     abc:	09000303          	lb	t1,144(zero) # 90 <_prog_start-0x7fffff70>
     ac0:	0000                	unimp
     ac2:	0601                	addi	a2,a2,0
     ac4:	06090703          	lb	a4,96(s2)
     ac8:	0100                	addi	s0,sp,128
     aca:	0905                	addi	s2,s2,1
     acc:	0200                	addi	s0,sp,256
     ace:	0304                	addi	s1,sp,384
     ad0:	0306                	slli	t1,t1,0x1
     ad2:	0901                	addi	s2,s2,0
     ad4:	000c                	.2byte	0xc
     ad6:	0501                	addi	a0,a0,0
     ad8:	04020013          	addi	zero,tp,64 # 40 <_prog_start-0x7fffffc0>
     adc:	00030603          	lb	a2,0(t1)
     ae0:	0009                	c.nop	2
     ae2:	0100                	addi	s0,sp,128
     ae4:	2805                	addiw	a6,a6,1
     ae6:	0200                	addi	s0,sp,256
     ae8:	0304                	addi	s1,sp,384
     aea:	0306                	slli	t1,t1,0x1
     aec:	097f                	.2byte	0x97f
     aee:	0004                	.2byte	0x4
     af0:	0501                	addi	a0,a0,0
     af2:	04020017          	auipc	zero,0x4020
     af6:	09000303          	lb	t1,144(zero) # 90 <_prog_start-0x7fffff70>
     afa:	0000                	unimp
     afc:	0501                	addi	a0,a0,0
     afe:	0305                	addi	t1,t1,1
     b00:	0904                	addi	s1,sp,144
     b02:	0006                	c.slli	zero,0x1
     b04:	0501                	addi	a0,a0,0
     b06:	0900030f          	.4byte	0x900030f
     b0a:	0000                	unimp
     b0c:	0301                	addi	t1,t1,0
     b0e:	0900                	addi	s0,sp,144
     b10:	0000                	unimp
     b12:	0301                	addi	t1,t1,0
     b14:	0900                	addi	s0,sp,144
     b16:	0004                	.2byte	0x4
     b18:	0501                	addi	a0,a0,0
     b1a:	0305                	addi	t1,t1,1
     b1c:	0901                	addi	s2,s2,0
     b1e:	0000                	unimp
     b20:	0501                	addi	a0,a0,0
     b22:	0312                	slli	t1,t1,0x4
     b24:	0900                	addi	s0,sp,144
     b26:	0000                	unimp
     b28:	0301                	addi	t1,t1,0
     b2a:	0900                	addi	s0,sp,144
     b2c:	0000                	unimp
     b2e:	0301                	addi	t1,t1,0
     b30:	0900                	addi	s0,sp,144
     b32:	0004                	.2byte	0x4
     b34:	0501                	addi	a0,a0,0
     b36:	0305                	addi	t1,t1,1
     b38:	0901                	addi	s2,s2,0
     b3a:	0000                	unimp
     b3c:	0301                	addi	t1,t1,0
     b3e:	0901                	addi	s2,s2,0
     b40:	000e                	c.slli	zero,0x3
     b42:	0501                	addi	a0,a0,0
     b44:	030d                	addi	t1,t1,3
     b46:	0900                	addi	s0,sp,144
     b48:	0000                	unimp
     b4a:	0301                	addi	t1,t1,0
     b4c:	0900                	addi	s0,sp,144
     b4e:	0000                	unimp
     b50:	0301                	addi	t1,t1,0
     b52:	0900                	addi	s0,sp,144
     b54:	0004                	.2byte	0x4
     b56:	0501                	addi	a0,a0,0
     b58:	0305                	addi	t1,t1,1
     b5a:	0901                	addi	s2,s2,0
     b5c:	0000                	unimp
     b5e:	0501                	addi	a0,a0,0
     b60:	0311                	addi	t1,t1,4
     b62:	0900                	addi	s0,sp,144
     b64:	0000                	unimp
     b66:	0301                	addi	t1,t1,0
     b68:	0900                	addi	s0,sp,144
     b6a:	0000                	unimp
     b6c:	0301                	addi	t1,t1,0
     b6e:	0900                	addi	s0,sp,144
     b70:	0004                	.2byte	0x4
     b72:	0501                	addi	a0,a0,0
     b74:	0305                	addi	t1,t1,1
     b76:	0901                	addi	s2,s2,0
     b78:	0000                	unimp
     b7a:	0601                	addi	a2,a2,0
     b7c:	00090303          	lb	t1,0(s2)
     b80:	0100                	addi	s0,sp,128
     b82:	0e05                	addi	t3,t3,1
     b84:	14097e03          	.4byte	0x14097e03
     b88:	0100                	addi	s0,sp,128
     b8a:	0505                	addi	a0,a0,1
     b8c:	04090303          	lb	t1,64(s2)
     b90:	0100                	addi	s0,sp,128
     b92:	0b05                	addi	s6,s6,1
     b94:	0e097c03          	.4byte	0xe097c03
     b98:	0100                	addi	s0,sp,128
     b9a:	0505                	addi	a0,a0,1
     b9c:	0306                	slli	t1,t1,0x1
     b9e:	0901                	addi	s2,s2,0
     ba0:	0004                	.2byte	0x4
     ba2:	0301                	addi	t1,t1,0
     ba4:	0902                	c.slli64	s2
     ba6:	0000                	unimp
     ba8:	0301                	addi	t1,t1,0
     baa:	0901                	addi	s2,s2,0
     bac:	0000                	unimp
     bae:	0301                	addi	t1,t1,0
     bb0:	0901                	addi	s2,s2,0
     bb2:	0000                	unimp
     bb4:	0301                	addi	t1,t1,0
     bb6:	0904                	addi	s1,sp,144
     bb8:	000e                	c.slli	zero,0x3
     bba:	0501                	addi	a0,a0,0
     bbc:	0900030f          	.4byte	0x900030f
     bc0:	0000                	unimp
     bc2:	0301                	addi	t1,t1,0
     bc4:	0900                	addi	s0,sp,144
     bc6:	0000                	unimp
     bc8:	0301                	addi	t1,t1,0
     bca:	0900                	addi	s0,sp,144
     bcc:	0004                	.2byte	0x4
     bce:	0501                	addi	a0,a0,0
     bd0:	0305                	addi	t1,t1,1
     bd2:	0901                	addi	s2,s2,0
     bd4:	0000                	unimp
     bd6:	0501                	addi	a0,a0,0
     bd8:	061f 0003 0009      	.byte	0x1f, 0x06, 0x03, 0x00, 0x09, 0x00
     bde:	0100                	addi	s0,sp,128
     be0:	0505                	addi	a0,a0,1
     be2:	0306                	slli	t1,t1,0x1
     be4:	0901                	addi	s2,s2,0
     be6:	0008                	.2byte	0x8
     be8:	0501                	addi	a0,a0,0
     bea:	061f 0003 0009      	.byte	0x1f, 0x06, 0x03, 0x00, 0x09, 0x00
     bf0:	0100                	addi	s0,sp,128
     bf2:	0505                	addi	a0,a0,1
     bf4:	0306                	slli	t1,t1,0x1
     bf6:	0901                	addi	s2,s2,0
     bf8:	0002                	c.slli64	zero
     bfa:	0501                	addi	a0,a0,0
     bfc:	061f 0003 0009      	.byte	0x1f, 0x06, 0x03, 0x00, 0x09, 0x00
     c02:	0100                	addi	s0,sp,128
     c04:	0505                	addi	a0,a0,1
     c06:	0306                	slli	t1,t1,0x1
     c08:	0901                	addi	s2,s2,0
     c0a:	0002                	c.slli64	zero
     c0c:	0301                	addi	t1,t1,0
     c0e:	0901                	addi	s2,s2,0
     c10:	0004                	.2byte	0x4
     c12:	0501                	addi	a0,a0,0
     c14:	030d                	addi	t1,t1,3
     c16:	0900                	addi	s0,sp,144
     c18:	0000                	unimp
     c1a:	0301                	addi	t1,t1,0
     c1c:	0900                	addi	s0,sp,144
     c1e:	0000                	unimp
     c20:	0301                	addi	t1,t1,0
     c22:	0900                	addi	s0,sp,144
     c24:	0004                	.2byte	0x4
     c26:	0501                	addi	a0,a0,0
     c28:	0305                	addi	t1,t1,1
     c2a:	0901                	addi	s2,s2,0
     c2c:	0000                	unimp
     c2e:	0301                	addi	t1,t1,0
     c30:	0902                	c.slli64	s2
     c32:	0000                	unimp
     c34:	0301                	addi	t1,t1,0
     c36:	0902                	c.slli64	s2
     c38:	000e                	c.slli	zero,0x3
     c3a:	0501                	addi	a0,a0,0
     c3c:	030a                	slli	t1,t1,0x2
     c3e:	0900                	addi	s0,sp,144
     c40:	0000                	unimp
     c42:	0501                	addi	a0,a0,0
     c44:	09000317          	auipc	t1,0x9000
     c48:	0000                	unimp
     c4a:	0501                	addi	a0,a0,0
     c4c:	0605                	addi	a2,a2,1
     c4e:	04097e03          	.4byte	0x4097e03
     c52:	0100                	addi	s0,sp,128
     c54:	0d05                	addi	s10,s10,1
     c56:	04090303          	lb	t1,64(s2)
     c5a:	0100                	addi	s0,sp,128
     c5c:	1705                	addi	a4,a4,-31
     c5e:	04097f03          	.4byte	0x4097f03
     c62:	0100                	addi	s0,sp,128
     c64:	0905                	addi	s2,s2,1
     c66:	0200                	addi	s0,sp,256
     c68:	0304                	addi	s1,sp,384
     c6a:	0306                	slli	t1,t1,0x1
     c6c:	0901                	addi	s2,s2,0
     c6e:	0004                	.2byte	0x4
     c70:	0501                	addi	a0,a0,0
     c72:	0015                	c.nop	5
     c74:	0402                	c.slli64	s0
     c76:	00030603          	lb	a2,0(t1) # 9000c44 <_prog_start-0x76fff3bc>
     c7a:	0009                	c.nop	2
     c7c:	0100                	addi	s0,sp,128
     c7e:	1705                	addi	a4,a4,-31
     c80:	0200                	addi	s0,sp,256
     c82:	0304                	addi	s1,sp,384
     c84:	04097f03          	.4byte	0x4097f03
     c88:	0100                	addi	s0,sp,128
     c8a:	0d05                	addi	s10,s10,1
     c8c:	0200                	addi	s0,sp,256
     c8e:	0304                	addi	s1,sp,384
     c90:	02090103          	lb	sp,32(s2)
     c94:	0100                	addi	s0,sp,128
     c96:	2705                	addiw	a4,a4,1
     c98:	0200                	addi	s0,sp,256
     c9a:	0304                	addi	s1,sp,384
     c9c:	0306                	slli	t1,t1,0x1
     c9e:	097f                	.2byte	0x97f
     ca0:	0004                	.2byte	0x4
     ca2:	0501                	addi	a0,a0,0
     ca4:	04020017          	auipc	zero,0x4020
     ca8:	09000303          	lb	t1,144(zero) # 90 <_prog_start-0x7fffff70>
     cac:	0000                	unimp
     cae:	0501                	addi	a0,a0,0
     cb0:	0305                	addi	t1,t1,1
     cb2:	00040903          	lb	s2,0(s0)
     cb6:	0501                	addi	a0,a0,0
     cb8:	0601                	addi	a2,a2,0
     cba:	00090103          	lb	sp,0(s2)
     cbe:	0100                	addi	s0,sp,128
     cc0:	1c09                	addi	s8,s8,-30
     cc2:	0000                	unimp
     cc4:	0101                	addi	sp,sp,0
     cc6:	000006f3          	.4byte	0x6f3
     cca:	0005                	c.nop	1
     ccc:	0008                	.2byte	0x8
     cce:	004a                	c.slli	zero,0x12
     cd0:	0000                	unimp
     cd2:	0101                	addi	sp,sp,0
     cd4:	fb01                	bnez	a4,be4 <_prog_start-0x7ffff41c>
     cd6:	0d0e                	slli	s10,s10,0x3
     cd8:	0100                	addi	s0,sp,128
     cda:	0101                	addi	sp,sp,0
     cdc:	0001                	nop
     cde:	0000                	unimp
     ce0:	0001                	nop
     ce2:	0100                	addi	s0,sp,128
     ce4:	0101                	addi	sp,sp,0
     ce6:	041f 0000 0000      	.byte	0x1f, 0x04, 0x00, 0x00, 0x00, 0x00
     cec:	0000013b          	addw	sp,zero,zero
     cf0:	004a                	c.slli	zero,0x12
     cf2:	0000                	unimp
     cf4:	00ad                	addi	ra,ra,11
     cf6:	0000                	unimp
     cf8:	0102                	c.slli64	sp
     cfa:	021f 060f 0131      	.byte	0x1f, 0x02, 0x0f, 0x06, 0x31, 0x01
     d00:	0000                	unimp
     d02:	3100                	fld	fs0,32(a0)
     d04:	0001                	nop
     d06:	0000                	unimp
     d08:	00000127          	.4byte	0x127
     d0c:	a500                	fsd	fs0,8(a0)
     d0e:	0001                	nop
     d10:	0100                	addi	s0,sp,128
     d12:	010c                	addi	a1,sp,128
     d14:	0000                	unimp
     d16:	1d02                	slli	s10,s10,0x20
     d18:	0001                	nop
     d1a:	0300                	addi	s0,sp,384
     d1c:	0105                	addi	sp,sp,1
     d1e:	0900                	addi	s0,sp,144
     d20:	e602                	sd	zero,264(sp)
     d22:	0004                	.2byte	0x4
     d24:	0080                	addi	s0,sp,64
     d26:	0000                	unimp
     d28:	0300                	addi	s0,sp,384
     d2a:	0205010f          	.4byte	0x205010f
     d2e:	00090103          	lb	sp,0(s2)
     d32:	0100                	addi	s0,sp,128
     d34:	00097903          	.4byte	0x97903
     d38:	0100                	addi	s0,sp,128
     d3a:	00090103          	lb	sp,0(s2)
     d3e:	0100                	addi	s0,sp,128
     d40:	1205                	addi	tp,tp,-31 # ffffffffffffffe1 <kprintf+0xffffffff7ffffabd>
     d42:	00090003          	lb	zero,0(s2)
     d46:	0100                	addi	s0,sp,128
     d48:	0c05                	addi	s8,s8,1
     d4a:	0306                	slli	t1,t1,0x1
     d4c:	0900                	addi	s0,sp,144
     d4e:	0000                	unimp
     d50:	0501                	addi	a0,a0,0
     d52:	0312                	slli	t1,t1,0x4
     d54:	0900                	addi	s0,sp,144
     d56:	0004                	.2byte	0x4
     d58:	0401                	addi	s0,s0,0
     d5a:	0502                	c.slli64	a0
     d5c:	09100303          	lb	t1,145(zero) # 91 <_prog_start-0x7fffff6f>
     d60:	0002                	c.slli64	zero
     d62:	0501                	addi	a0,a0,0
     d64:	0602                	c.slli64	a2
     d66:	04097e03          	.4byte	0x4097e03
     d6a:	0100                	addi	s0,sp,128
     d6c:	00090103          	lb	sp,0(s2)
     d70:	0100                	addi	s0,sp,128
     d72:	0305                	addi	t1,t1,1
     d74:	00090103          	lb	sp,0(s2)
     d78:	0100                	addi	s0,sp,128
     d7a:	0d05                	addi	s10,s10,1
     d7c:	06090403          	lb	s0,96(s2)
     d80:	0100                	addi	s0,sp,128
     d82:	0104                	addi	s1,sp,128
     d84:	1c05                	addi	s8,s8,-31
     d86:	04096c03          	lwu	s8,64(s2)
     d8a:	0100                	addi	s0,sp,128
     d8c:	0c05                	addi	s8,s8,1
     d8e:	0306                	slli	t1,t1,0x1
     d90:	0900                	addi	s0,sp,144
     d92:	0000                	unimp
     d94:	0501                	addi	a0,a0,0
     d96:	031c                	addi	a5,sp,384
     d98:	0900                	addi	s0,sp,144
     d9a:	0004                	.2byte	0x4
     d9c:	0501                	addi	a0,a0,0
     d9e:	0612                	slli	a2,a2,0x4
     da0:	02090003          	lb	zero,32(s2)
     da4:	0100                	addi	s0,sp,128
     da6:	0204                	addi	s1,sp,256
     da8:	0305                	addi	t1,t1,1
     daa:	0306                	slli	t1,t1,0x1
     dac:	0910                	addi	a2,sp,144
     dae:	0002                	c.slli64	zero
     db0:	0501                	addi	a0,a0,0
     db2:	0602                	c.slli64	a2
     db4:	06097e03          	.4byte	0x6097e03
     db8:	0100                	addi	s0,sp,128
     dba:	00090103          	lb	sp,0(s2)
     dbe:	0100                	addi	s0,sp,128
     dc0:	0305                	addi	t1,t1,1
     dc2:	00090103          	lb	sp,0(s2)
     dc6:	0100                	addi	s0,sp,128
     dc8:	0d05                	addi	s10,s10,1
     dca:	06090403          	lb	s0,96(s2)
     dce:	0100                	addi	s0,sp,128
     dd0:	0305                	addi	t1,t1,1
     dd2:	0306                	slli	t1,t1,0x1
     dd4:	097c                	addi	a5,sp,156
     dd6:	0004                	.2byte	0x4
     dd8:	0501                	addi	a0,a0,0
     dda:	0602                	c.slli64	a2
     ddc:	06097e03          	.4byte	0x6097e03
     de0:	0100                	addi	s0,sp,128
     de2:	00090103          	lb	sp,0(s2)
     de6:	0100                	addi	s0,sp,128
     de8:	0305                	addi	t1,t1,1
     dea:	00090103          	lb	sp,0(s2)
     dee:	0100                	addi	s0,sp,128
     df0:	0d05                	addi	s10,s10,1
     df2:	06090403          	lb	s0,96(s2)
     df6:	0100                	addi	s0,sp,128
     df8:	0104                	addi	s1,sp,128
     dfa:	0105                	addi	sp,sp,1
     dfc:	0306                	slli	t1,t1,0x1
     dfe:	0975                	addi	s2,s2,29
     e00:	0004                	.2byte	0x4
     e02:	0601                	addi	a2,a2,0
     e04:	02090303          	lb	t1,32(s2)
     e08:	0100                	addi	s0,sp,128
     e0a:	0205                	addi	tp,tp,1 # 1 <_prog_start-0x7fffffff>
     e0c:	00090103          	lb	sp,0(s2)
     e10:	0100                	addi	s0,sp,128
     e12:	00090103          	lb	sp,0(s2)
     e16:	0100                	addi	s0,sp,128
     e18:	00090103          	lb	sp,0(s2)
     e1c:	0100                	addi	s0,sp,128
     e1e:	00090203          	lb	tp,0(s2)
     e22:	0100                	addi	s0,sp,128
     e24:	0105                	addi	sp,sp,1
     e26:	0306                	slli	t1,t1,0x1
     e28:	0000097b          	.4byte	0x97b
     e2c:	0501                	addi	a0,a0,0
     e2e:	030c                	addi	a1,sp,384
     e30:	0909                	addi	s2,s2,2
     e32:	0002                	c.slli64	zero
     e34:	0501                	addi	a0,a0,0
     e36:	0301                	addi	t1,t1,0
     e38:	00040977          	.4byte	0x40977
     e3c:	0501                	addi	a0,a0,0
     e3e:	0302                	c.slli64	t1
     e40:	0905                	addi	s2,s2,1
     e42:	0002                	c.slli64	zero
     e44:	0501                	addi	a0,a0,0
     e46:	0301                	addi	t1,t1,0
     e48:	0002097b          	.4byte	0x2097b
     e4c:	0501                	addi	a0,a0,0
     e4e:	0302                	c.slli64	t1
     e50:	0905                	addi	s2,s2,1
     e52:	000c                	.2byte	0xc
     e54:	0601                	addi	a2,a2,0
     e56:	02090103          	lb	sp,32(s2)
     e5a:	0100                	addi	s0,sp,128
     e5c:	00090103          	lb	sp,0(s2)
     e60:	0100                	addi	s0,sp,128
     e62:	00090103          	lb	sp,0(s2)
     e66:	0100                	addi	s0,sp,128
     e68:	00090103          	lb	sp,0(s2)
     e6c:	0100                	addi	s0,sp,128
     e6e:	1605                	addi	a2,a2,-31
     e70:	00090003          	lb	zero,0(s2)
     e74:	0100                	addi	s0,sp,128
     e76:	0d05                	addi	s10,s10,1
     e78:	0306                	slli	t1,t1,0x1
     e7a:	0931                	addi	s2,s2,12
     e7c:	000a                	c.slli	zero,0x2
     e7e:	0401                	addi	s0,s0,0
     e80:	0502                	c.slli64	a0
     e82:	094a0303          	lb	t1,148(s4)
     e86:	0004                	.2byte	0x4
     e88:	0401                	addi	s0,s0,0
     e8a:	0501                	addi	a0,a0,0
     e8c:	0304                	addi	s1,sp,384
     e8e:	00040907          	.4byte	0x40907
     e92:	0501                	addi	a0,a0,0
     e94:	7f030603          	lb	a2,2032(t1)
     e98:	0a09                	addi	s4,s4,2
     e9a:	0100                	addi	s0,sp,128
     e9c:	0605                	addi	a2,a2,1
     e9e:	0306                	slli	t1,t1,0x1
     ea0:	0900                	addi	s0,sp,144
     ea2:	0000                	unimp
     ea4:	0501                	addi	a0,a0,0
     ea6:	0604                	addi	s1,sp,768
     ea8:	02090103          	lb	sp,32(s2)
     eac:	0100                	addi	s0,sp,128
     eae:	0505                	addi	a0,a0,1
     eb0:	18092903          	lw	s2,384(s2)
     eb4:	0100                	addi	s0,sp,128
     eb6:	0b05                	addi	s6,s6,1
     eb8:	0306                	slli	t1,t1,0x1
     eba:	0900                	addi	s0,sp,144
     ebc:	0000                	unimp
     ebe:	0401                	addi	s0,s0,0
     ec0:	0502                	c.slli64	a0
     ec2:	09500303          	lb	t1,149(zero) # 95 <_prog_start-0x7fffff6b>
     ec6:	0002                	c.slli64	zero
     ec8:	0401                	addi	s0,s0,0
     eca:	0501                	addi	a0,a0,0
     ecc:	0305                	addi	t1,t1,1
     ece:	0930                	addi	a2,sp,152
     ed0:	0004                	.2byte	0x4
     ed2:	0401                	addi	s0,s0,0
     ed4:	0502                	c.slli64	a0
     ed6:	0602                	c.slli64	a2
     ed8:	04094c03          	lbu	s8,64(s2)
     edc:	0100                	addi	s0,sp,128
     ede:	0104                	addi	s1,sp,128
     ee0:	0b05                	addi	s6,s6,1
     ee2:	0306                	slli	t1,t1,0x1
     ee4:	0934                	addi	a3,sp,152
     ee6:	0000                	unimp
     ee8:	0401                	addi	s0,s0,0
     eea:	0502                	c.slli64	a0
     eec:	0602                	c.slli64	a2
     eee:	04094e03          	lbu	t3,64(s2)
     ef2:	0100                	addi	s0,sp,128
     ef4:	00090103          	lb	sp,0(s2)
     ef8:	0100                	addi	s0,sp,128
     efa:	0305                	addi	t1,t1,1
     efc:	00090103          	lb	sp,0(s2)
     f00:	0100                	addi	s0,sp,128
     f02:	0d05                	addi	s10,s10,1
     f04:	06090403          	lb	s0,96(s2)
     f08:	0100                	addi	s0,sp,128
     f0a:	0104                	addi	s1,sp,128
     f0c:	0c05                	addi	s8,s8,1
     f0e:	0306                	slli	t1,t1,0x1
     f10:	0931                	addi	s2,s2,12
     f12:	0004                	.2byte	0x4
     f14:	0501                	addi	a0,a0,0
     f16:	030e                	slli	t1,t1,0x3
     f18:	097e                	slli	s2,s2,0x1f
     f1a:	0002                	c.slli64	zero
     f1c:	0501                	addi	a0,a0,0
     f1e:	0616                	slli	a2,a2,0x5
     f20:	02095203          	lhu	tp,32(s2)
     f24:	0100                	addi	s0,sp,128
     f26:	0c05                	addi	s8,s8,1
     f28:	0306                	slli	t1,t1,0x1
     f2a:	0900                	addi	s0,sp,144
     f2c:	0000                	unimp
     f2e:	0501                	addi	a0,a0,0
     f30:	0312                	slli	t1,t1,0x4
     f32:	0900                	addi	s0,sp,144
     f34:	0004                	.2byte	0x4
     f36:	0501                	addi	a0,a0,0
     f38:	0316                	slli	t1,t1,0x5
     f3a:	0900                	addi	s0,sp,144
     f3c:	0002                	c.slli64	zero
     f3e:	0501                	addi	a0,a0,0
     f40:	0301                	addi	t1,t1,0
     f42:	0938                	addi	a4,sp,152
     f44:	0004                	.2byte	0x4
     f46:	0501                	addi	a0,a0,0
     f48:	0605                	addi	a2,a2,1
     f4a:	04095f03          	lhu	t5,64(s2)
     f4e:	0100                	addi	s0,sp,128
     f50:	00090103          	lb	sp,0(s2)
     f54:	0100                	addi	s0,sp,128
     f56:	00090103          	lb	sp,0(s2)
     f5a:	0100                	addi	s0,sp,128
     f5c:	0605                	addi	a2,a2,1
     f5e:	00090403          	lb	s0,0(s2)
     f62:	0100                	addi	s0,sp,128
     f64:	0a05                	addi	s4,s4,1
     f66:	0306                	slli	t1,t1,0x1
     f68:	0900                	addi	s0,sp,144
     f6a:	0000                	unimp
     f6c:	0501                	addi	a0,a0,0
     f6e:	0316                	slli	t1,t1,0x5
     f70:	0901                	addi	s2,s2,0
     f72:	0002                	c.slli64	zero
     f74:	0501                	addi	a0,a0,0
     f76:	030a                	slli	t1,t1,0x2
     f78:	097f                	.2byte	0x97f
     f7a:	0002                	c.slli64	zero
     f7c:	0501                	addi	a0,a0,0
     f7e:	0308                	addi	a0,sp,384
     f80:	0900                	addi	s0,sp,144
     f82:	0006                	c.slli	zero,0x1
     f84:	0501                	addi	a0,a0,0
     f86:	0606                	slli	a2,a2,0x1
     f88:	04090103          	lb	sp,64(s2)
     f8c:	0100                	addi	s0,sp,128
     f8e:	1605                	addi	a2,a2,-31
     f90:	0306                	slli	t1,t1,0x1
     f92:	0900                	addi	s0,sp,144
     f94:	0000                	unimp
     f96:	0501                	addi	a0,a0,0
     f98:	0306                	slli	t1,t1,0x1
     f9a:	0905                	addi	s2,s2,1
     f9c:	0002                	c.slli64	zero
     f9e:	0401                	addi	s0,s0,0
     fa0:	0502                	c.slli64	a0
     fa2:	09580303          	lb	t1,149(a6)
     fa6:	0002                	c.slli64	zero
     fa8:	0401                	addi	s0,s0,0
     faa:	0501                	addi	a0,a0,0
     fac:	030e                	slli	t1,t1,0x3
     fae:	0925                	addi	s2,s2,9
     fb0:	0004                	.2byte	0x4
     fb2:	0501                	addi	a0,a0,0
     fb4:	0606                	slli	a2,a2,0x1
     fb6:	02090103          	lb	sp,32(s2)
     fba:	0100                	addi	s0,sp,128
     fbc:	00090103          	lb	sp,0(s2)
     fc0:	0100                	addi	s0,sp,128
     fc2:	0d05                	addi	s10,s10,1
     fc4:	0306                	slli	t1,t1,0x1
     fc6:	0900                	addi	s0,sp,144
     fc8:	0000                	unimp
     fca:	0501                	addi	a0,a0,0
     fcc:	0319                	addi	t1,t1,6
     fce:	0901                	addi	s2,s2,0
     fd0:	0004                	.2byte	0x4
     fd2:	0501                	addi	a0,a0,0
     fd4:	0606                	slli	a2,a2,0x1
     fd6:	04090003          	lb	zero,64(s2)
     fda:	0100                	addi	s0,sp,128
     fdc:	0200                	addi	s0,sp,256
     fde:	0104                	addi	s1,sp,128
     fe0:	0306                	slli	t1,t1,0x1
     fe2:	0900                	addi	s0,sp,144
     fe4:	0008                	.2byte	0x8
     fe6:	0401                	addi	s0,s0,0
     fe8:	0502                	c.slli64	a0
     fea:	0602                	c.slli64	a2
     fec:	04095603          	lhu	a2,64(s2)
     ff0:	0100                	addi	s0,sp,128
     ff2:	00090103          	lb	sp,0(s2)
     ff6:	0100                	addi	s0,sp,128
     ff8:	0305                	addi	t1,t1,1
     ffa:	00090103          	lb	sp,0(s2)
     ffe:	0100                	addi	s0,sp,128
    1000:	0d05                	addi	s10,s10,1
    1002:	06090403          	lb	s0,96(s2)
    1006:	0100                	addi	s0,sp,128
    1008:	0104                	addi	s1,sp,128
    100a:	1605                	addi	a2,a2,-31
    100c:	0200                	addi	s0,sp,256
    100e:	0404                	addi	s1,sp,512
    1010:	04092103          	lw	sp,64(s2)
    1014:	0100                	addi	s0,sp,128
    1016:	0e05                	addi	t3,t3,1
    1018:	0200                	addi	s0,sp,256
    101a:	0404                	addi	s1,sp,512
    101c:	02090003          	lb	zero,32(s2)
    1020:	0100                	addi	s0,sp,128
    1022:	0505                	addi	a0,a0,1
    1024:	06090803          	lb	a6,96(s2)
    1028:	0100                	addi	s0,sp,128
    102a:	0205                	addi	tp,tp,1 # 1 <_prog_start-0x7fffffff>
    102c:	04094203          	lbu	tp,64(s2)
    1030:	0100                	addi	s0,sp,128
    1032:	00090103          	lb	sp,0(s2)
    1036:	0100                	addi	s0,sp,128
    1038:	1205                	addi	tp,tp,-31 # ffffffffffffffe1 <kprintf+0xffffffff7ffffabd>
    103a:	00090003          	lb	zero,0(s2)
    103e:	0100                	addi	s0,sp,128
    1040:	0505                	addi	a0,a0,1
    1042:	0306                	slli	t1,t1,0x1
    1044:	093d                	addi	s2,s2,15
    1046:	0000                	unimp
    1048:	0501                	addi	a0,a0,0
    104a:	030c                	addi	a1,sp,384
    104c:	00040943          	fmadd.s	fs2,fs0,ft0,ft0,rne
    1050:	0501                	addi	a0,a0,0
    1052:	0312                	slli	t1,t1,0x4
    1054:	0900                	addi	s0,sp,144
    1056:	0004                	.2byte	0x4
    1058:	0401                	addi	s0,s0,0
    105a:	0502                	c.slli64	a0
    105c:	09100303          	lb	t1,145(zero) # 91 <_prog_start-0x7fffff6f>
    1060:	0002                	c.slli64	zero
    1062:	0501                	addi	a0,a0,0
    1064:	0602                	c.slli64	a2
    1066:	04097e03          	.4byte	0x4097e03
    106a:	0100                	addi	s0,sp,128
    106c:	00090103          	lb	sp,0(s2)
    1070:	0100                	addi	s0,sp,128
    1072:	0305                	addi	t1,t1,1
    1074:	00090103          	lb	sp,0(s2)
    1078:	0100                	addi	s0,sp,128
    107a:	0d05                	addi	s10,s10,1
    107c:	06090403          	lb	s0,96(s2)
    1080:	0100                	addi	s0,sp,128
    1082:	0104                	addi	s1,sp,128
    1084:	1c05                	addi	s8,s8,-31
    1086:	04096c03          	lwu	s8,64(s2)
    108a:	0100                	addi	s0,sp,128
    108c:	0c05                	addi	s8,s8,1
    108e:	0306                	slli	t1,t1,0x1
    1090:	0900                	addi	s0,sp,144
    1092:	0000                	unimp
    1094:	0501                	addi	a0,a0,0
    1096:	031c                	addi	a5,sp,384
    1098:	0900                	addi	s0,sp,144
    109a:	0004                	.2byte	0x4
    109c:	0501                	addi	a0,a0,0
    109e:	0612                	slli	a2,a2,0x4
    10a0:	02090003          	lb	zero,32(s2)
    10a4:	0100                	addi	s0,sp,128
    10a6:	0505                	addi	a0,a0,1
    10a8:	04091903          	lh	s2,64(s2)
    10ac:	0100                	addi	s0,sp,128
    10ae:	00090103          	lb	sp,0(s2)
    10b2:	0100                	addi	s0,sp,128
    10b4:	0705                	addi	a4,a4,1
    10b6:	0306                	slli	t1,t1,0x1
    10b8:	0900                	addi	s0,sp,144
    10ba:	0000                	unimp
    10bc:	0501                	addi	a0,a0,0
    10be:	0328                	addi	a0,sp,392
    10c0:	0902                	c.slli64	s2
    10c2:	0002                	c.slli64	zero
    10c4:	0501                	addi	a0,a0,0
    10c6:	097e0307          	.4byte	0x97e0307
    10ca:	0004                	.2byte	0x4
    10cc:	0501                	addi	a0,a0,0
    10ce:	0605                	addi	a2,a2,1
    10d0:	04090103          	lb	sp,64(s2)
    10d4:	0100                	addi	s0,sp,128
    10d6:	00090103          	lb	sp,0(s2)
    10da:	0100                	addi	s0,sp,128
    10dc:	0a05                	addi	s4,s4,1
    10de:	00090003          	lb	zero,0(s2)
    10e2:	0100                	addi	s0,sp,128
    10e4:	1705                	addi	a4,a4,-31
    10e6:	00090003          	lb	zero,0(s2)
    10ea:	0100                	addi	s0,sp,128
    10ec:	2305                	addiw	t1,t1,1
    10ee:	00090003          	lb	zero,0(s2)
    10f2:	0100                	addi	s0,sp,128
    10f4:	1f05                	addi	t5,t5,-31
    10f6:	00090003          	lb	zero,0(s2)
    10fa:	0100                	addi	s0,sp,128
    10fc:	1705                	addi	a4,a4,-31
    10fe:	00090003          	lb	zero,0(s2)
    1102:	0100                	addi	s0,sp,128
    1104:	2305                	addiw	t1,t1,1
    1106:	00090003          	lb	zero,0(s2)
    110a:	0100                	addi	s0,sp,128
    110c:	1f05                	addi	t5,t5,-31
    110e:	00090003          	lb	zero,0(s2)
    1112:	0100                	addi	s0,sp,128
    1114:	1705                	addi	a4,a4,-31
    1116:	00090003          	lb	zero,0(s2)
    111a:	0100                	addi	s0,sp,128
    111c:	2305                	addiw	t1,t1,1
    111e:	00090003          	lb	zero,0(s2)
    1122:	0100                	addi	s0,sp,128
    1124:	0705                	addi	a4,a4,1
    1126:	0306                	slli	t1,t1,0x1
    1128:	097e                	slli	s2,s2,0x1f
    112a:	0000                	unimp
    112c:	0501                	addi	a0,a0,0
    112e:	0328                	addi	a0,sp,392
    1130:	0902                	c.slli64	s2
    1132:	0004                	.2byte	0x4
    1134:	0501                	addi	a0,a0,0
    1136:	061f 0003 0209      	.byte	0x1f, 0x06, 0x03, 0x00, 0x09, 0x02
    113c:	0100                	addi	s0,sp,128
    113e:	1705                	addi	a4,a4,-31
    1140:	00090003          	lb	zero,0(s2)
    1144:	0100                	addi	s0,sp,128
    1146:	2305                	addiw	t1,t1,1
    1148:	00090003          	lb	zero,0(s2)
    114c:	0100                	addi	s0,sp,128
    114e:	2805                	addiw	a6,a6,1
    1150:	0306                	slli	t1,t1,0x1
    1152:	0900                	addi	s0,sp,144
    1154:	0000                	unimp
    1156:	0501                	addi	a0,a0,0
    1158:	061f 0003 0209      	.byte	0x1f, 0x06, 0x03, 0x00, 0x09, 0x02
    115e:	0100                	addi	s0,sp,128
    1160:	1705                	addi	a4,a4,-31
    1162:	00090003          	lb	zero,0(s2)
    1166:	0100                	addi	s0,sp,128
    1168:	2305                	addiw	t1,t1,1
    116a:	00090003          	lb	zero,0(s2)
    116e:	0100                	addi	s0,sp,128
    1170:	2805                	addiw	a6,a6,1
    1172:	0306                	slli	t1,t1,0x1
    1174:	0900                	addi	s0,sp,144
    1176:	0000                	unimp
    1178:	0501                	addi	a0,a0,0
    117a:	061f 0003 0209      	.byte	0x1f, 0x06, 0x03, 0x00, 0x09, 0x02
    1180:	0100                	addi	s0,sp,128
    1182:	1705                	addi	a4,a4,-31
    1184:	00090003          	lb	zero,0(s2)
    1188:	0100                	addi	s0,sp,128
    118a:	2305                	addiw	t1,t1,1
    118c:	00090003          	lb	zero,0(s2)
    1190:	0100                	addi	s0,sp,128
    1192:	2805                	addiw	a6,a6,1
    1194:	0306                	slli	t1,t1,0x1
    1196:	0900                	addi	s0,sp,144
    1198:	0000                	unimp
    119a:	0501                	addi	a0,a0,0
    119c:	061f 0003 0209      	.byte	0x1f, 0x06, 0x03, 0x00, 0x09, 0x02
    11a2:	0100                	addi	s0,sp,128
    11a4:	1705                	addi	a4,a4,-31
    11a6:	00090003          	lb	zero,0(s2)
    11aa:	0100                	addi	s0,sp,128
    11ac:	2305                	addiw	t1,t1,1
    11ae:	00090003          	lb	zero,0(s2)
    11b2:	0100                	addi	s0,sp,128
    11b4:	2805                	addiw	a6,a6,1
    11b6:	0306                	slli	t1,t1,0x1
    11b8:	0900                	addi	s0,sp,144
    11ba:	0000                	unimp
    11bc:	0501                	addi	a0,a0,0
    11be:	061f 0003 0209      	.byte	0x1f, 0x06, 0x03, 0x00, 0x09, 0x02
    11c4:	0100                	addi	s0,sp,128
    11c6:	1705                	addi	a4,a4,-31
    11c8:	00090003          	lb	zero,0(s2)
    11cc:	0100                	addi	s0,sp,128
    11ce:	2305                	addiw	t1,t1,1
    11d0:	00090003          	lb	zero,0(s2)
    11d4:	0100                	addi	s0,sp,128
    11d6:	2805                	addiw	a6,a6,1
    11d8:	0306                	slli	t1,t1,0x1
    11da:	0900                	addi	s0,sp,144
    11dc:	0000                	unimp
    11de:	0501                	addi	a0,a0,0
    11e0:	061f 0003 0209      	.byte	0x1f, 0x06, 0x03, 0x00, 0x09, 0x02
    11e6:	0100                	addi	s0,sp,128
    11e8:	1705                	addi	a4,a4,-31
    11ea:	00090003          	lb	zero,0(s2)
    11ee:	0100                	addi	s0,sp,128
    11f0:	0505                	addi	a0,a0,1
    11f2:	00090103          	lb	sp,0(s2)
    11f6:	0100                	addi	s0,sp,128
    11f8:	0805                	addi	a6,a6,1
    11fa:	0306                	slli	t1,t1,0x1
    11fc:	0900                	addi	s0,sp,144
    11fe:	0000                	unimp
    1200:	0401                	addi	s0,s0,0
    1202:	0502                	c.slli64	a0
    1204:	09730303          	lb	t1,151(t1)
    1208:	0004                	.2byte	0x4
    120a:	0501                	addi	a0,a0,0
    120c:	0602                	c.slli64	a2
    120e:	08097e03          	.4byte	0x8097e03
    1212:	0100                	addi	s0,sp,128
    1214:	00090103          	lb	sp,0(s2)
    1218:	0100                	addi	s0,sp,128
    121a:	0305                	addi	t1,t1,1
    121c:	00090103          	lb	sp,0(s2)
    1220:	0100                	addi	s0,sp,128
    1222:	0d05                	addi	s10,s10,1
    1224:	06090403          	lb	s0,96(s2)
    1228:	0100                	addi	s0,sp,128
    122a:	0104                	addi	s1,sp,128
    122c:	0505                	addi	a0,a0,1
    122e:	0200                	addi	s0,sp,256
    1230:	0104                	addi	s1,sp,128
    1232:	06091503          	lh	a0,96(s2)
    1236:	0100                	addi	s0,sp,128
    1238:	0200                	addi	s0,sp,256
    123a:	0104                	addi	s1,sp,128
    123c:	00090103          	lb	sp,0(s2)
    1240:	0100                	addi	s0,sp,128
    1242:	0d05                	addi	s10,s10,1
    1244:	0200                	addi	s0,sp,256
    1246:	0104                	addi	s1,sp,128
    1248:	0306                	slli	t1,t1,0x1
    124a:	097f                	.2byte	0x97f
    124c:	0000                	unimp
    124e:	0501                	addi	a0,a0,0
    1250:	060a                	slli	a2,a2,0x2
    1252:	04091d03          	lh	s10,64(s2)
    1256:	0100                	addi	s0,sp,128
    1258:	0d05                	addi	s10,s10,1
    125a:	0306                	slli	t1,t1,0x1
    125c:	0900                	addi	s0,sp,144
    125e:	0000                	unimp
    1260:	0501                	addi	a0,a0,0
    1262:	030e                	slli	t1,t1,0x3
    1264:	0901                	addi	s2,s2,0
    1266:	0004                	.2byte	0x4
    1268:	0401                	addi	s0,s0,0
    126a:	0502                	c.slli64	a0
    126c:	0602                	c.slli64	a2
    126e:	04094703          	lbu	a4,64(s2)
    1272:	0100                	addi	s0,sp,128
    1274:	00090103          	lb	sp,0(s2)
    1278:	0100                	addi	s0,sp,128
    127a:	0305                	addi	t1,t1,1
    127c:	00090103          	lb	sp,0(s2)
    1280:	0100                	addi	s0,sp,128
    1282:	0d05                	addi	s10,s10,1
    1284:	06090403          	lb	s0,96(s2)
    1288:	0100                	addi	s0,sp,128
    128a:	0205                	addi	tp,tp,1 # 1 <_prog_start-0x7fffffff>
    128c:	04097a03          	.4byte	0x4097a03
    1290:	0100                	addi	s0,sp,128
    1292:	00090103          	lb	sp,0(s2)
    1296:	0100                	addi	s0,sp,128
    1298:	0305                	addi	t1,t1,1
    129a:	00090103          	lb	sp,0(s2)
    129e:	0100                	addi	s0,sp,128
    12a0:	0d05                	addi	s10,s10,1
    12a2:	06090403          	lb	s0,96(s2)
    12a6:	0100                	addi	s0,sp,128
    12a8:	0104                	addi	s1,sp,128
    12aa:	1505                	addi	a0,a0,-31
    12ac:	0306                	slli	t1,t1,0x1
    12ae:	0008090f          	.4byte	0x8090f
    12b2:	0501                	addi	a0,a0,0
    12b4:	030d                	addi	t1,t1,3
    12b6:	097e                	slli	s2,s2,0x1f
    12b8:	0002                	c.slli64	zero
    12ba:	0501                	addi	a0,a0,0
    12bc:	0619                	addi	a2,a2,6
    12be:	02090103          	lb	sp,32(s2)
    12c2:	0100                	addi	s0,sp,128
    12c4:	2305                	addiw	t1,t1,1
    12c6:	0200                	addi	s0,sp,256
    12c8:	0304                	addi	s1,sp,384
    12ca:	04090003          	lb	zero,64(s2)
    12ce:	0100                	addi	s0,sp,128
    12d0:	2805                	addiw	a6,a6,1
    12d2:	0200                	addi	s0,sp,256
    12d4:	0304                	addi	s1,sp,384
    12d6:	0306                	slli	t1,t1,0x1
    12d8:	0900                	addi	s0,sp,144
    12da:	0000                	unimp
    12dc:	0501                	addi	a0,a0,0
    12de:	0019                	c.nop	6
    12e0:	0402                	c.slli64	s0
    12e2:	09000303          	lb	t1,144(zero) # 90 <_prog_start-0x7fffff70>
    12e6:	0006                	c.slli	zero,0x1
    12e8:	0501                	addi	a0,a0,0
    12ea:	0028                	addi	a0,sp,8
    12ec:	0402                	c.slli64	s0
    12ee:	09000303          	lb	t1,144(zero) # 90 <_prog_start-0x7fffff70>
    12f2:	0002                	c.slli64	zero
    12f4:	0501                	addi	a0,a0,0
    12f6:	001f 0402 0603      	.byte	0x1f, 0x00, 0x02, 0x04, 0x03, 0x06
    12fc:	04090003          	lb	zero,64(s2)
    1300:	0100                	addi	s0,sp,128
    1302:	1905                	addi	s2,s2,-31
    1304:	0200                	addi	s0,sp,256
    1306:	0304                	addi	s1,sp,384
    1308:	00090003          	lb	zero,0(s2)
    130c:	0100                	addi	s0,sp,128
    130e:	0605                	addi	a2,a2,1
    1310:	04090103          	lb	sp,64(s2)
    1314:	0100                	addi	s0,sp,128
    1316:	1505                	addi	a0,a0,-31
    1318:	0306                	slli	t1,t1,0x1
    131a:	0900                	addi	s0,sp,144
    131c:	0000                	unimp
    131e:	0501                	addi	a0,a0,0
    1320:	0311                	addi	t1,t1,4
    1322:	0900                	addi	s0,sp,144
    1324:	0004                	.2byte	0x4
    1326:	0501                	addi	a0,a0,0
    1328:	0900030b          	.4byte	0x900030b
    132c:	0004                	.2byte	0x4
    132e:	0501                	addi	a0,a0,0
    1330:	0606                	slli	a2,a2,0x1
    1332:	04090103          	lb	sp,64(s2)
    1336:	0100                	addi	s0,sp,128
    1338:	0805                	addi	a6,a6,1
    133a:	0306                	slli	t1,t1,0x1
    133c:	0900                	addi	s0,sp,144
    133e:	0000                	unimp
    1340:	0501                	addi	a0,a0,0
    1342:	060d                	addi	a2,a2,3
    1344:	04097d03          	.4byte	0x4097d03
    1348:	0100                	addi	s0,sp,128
    134a:	0805                	addi	a6,a6,1
    134c:	0306                	slli	t1,t1,0x1
    134e:	00040903          	lb	s2,0(s0)
    1352:	0501                	addi	a0,a0,0
    1354:	0316                	slli	t1,t1,0x5
    1356:	0004090f          	.4byte	0x4090f
    135a:	0401                	addi	s0,s0,0
    135c:	0502                	c.slli64	a0
    135e:	095d0303          	lb	t1,149(s10)
    1362:	0008                	.2byte	0x8
    1364:	0501                	addi	a0,a0,0
    1366:	0602                	c.slli64	a2
    1368:	04097e03          	.4byte	0x4097e03
    136c:	0100                	addi	s0,sp,128
    136e:	00090103          	lb	sp,0(s2)
    1372:	0100                	addi	s0,sp,128
    1374:	0305                	addi	t1,t1,1
    1376:	00090103          	lb	sp,0(s2)
    137a:	0100                	addi	s0,sp,128
    137c:	0d05                	addi	s10,s10,1
    137e:	06090403          	lb	s0,96(s2)
    1382:	0100                	addi	s0,sp,128
    1384:	0104                	addi	s1,sp,128
    1386:	2105                	addiw	sp,sp,1
    1388:	0200                	addi	s0,sp,256
    138a:	0304                	addi	s1,sp,384
    138c:	04091203          	lh	tp,64(s2)
    1390:	0100                	addi	s0,sp,128
    1392:	1a05                	addi	s4,s4,-31
    1394:	0200                	addi	s0,sp,256
    1396:	0304                	addi	s1,sp,384
    1398:	00090003          	lb	zero,0(s2)
    139c:	0100                	addi	s0,sp,128
    139e:	1605                	addi	a2,a2,-31
    13a0:	0200                	addi	s0,sp,256
    13a2:	0304                	addi	s1,sp,384
    13a4:	0306                	slli	t1,t1,0x1
    13a6:	0900                	addi	s0,sp,144
    13a8:	0000                	unimp
    13aa:	0501                	addi	a0,a0,0
    13ac:	001a                	c.slli	zero,0x6
    13ae:	0402                	c.slli64	s0
    13b0:	09000303          	lb	t1,144(zero) # 90 <_prog_start-0x7fffff70>
    13b4:	0004                	.2byte	0x4
    13b6:	0901                	addi	s2,s2,0
    13b8:	0006                	c.slli	zero,0x1
    13ba:	0100                	addi	s0,sp,128
    13bc:	01              	Address 0x00000000000013bc is out of bounds.


Disassembly of section .debug_line_str:

0000000000000000 <.debug_line_str>:
   0:	6d6f682f          	.4byte	0x6d6f682f
   4:	2f65                	addiw	t5,t5,25
   6:	6962                	ld	s2,24(sp)
   8:	686e                	ld	a6,216(sp)
   a:	7565696b          	.4byte	0x7565696b
   e:	6f64                	ld	s1,216(a4)
  10:	726f572f          	.4byte	0x726f572f
  14:	6170736b          	.4byte	0x6170736b
  18:	4e2f6563          	bltu	t5,sp,502 <_prog_start-0x7ffffafe>
  1c:	7765                	lui	a4,0xffff9
  1e:	7246                	ld	tp,112(sp)
  20:	6d61                	lui	s10,0x18
  22:	7765                	lui	a4,0xffff9
  24:	2f6b726f          	jal	tp,b731a <_prog_start-0x7ff48ce6>
  28:	7266                	ld	tp,120(sp)
  2a:	6d61                	lui	s10,0x18
  2c:	7765                	lui	a4,0xffff9
  2e:	2f6b726f          	jal	tp,b7324 <_prog_start-0x7ff48cdc>
  32:	632f7773          	csrrci	a4,0x632,30
  36:	32766e6f          	jal	t3,66b5c <_prog_start-0x7ff994a4>
  3a:	0064                	addi	s1,sp,12
  3c:	30747263          	bgeu	s0,t2,340 <_prog_start-0x7ffffcc0>
  40:	532e                	lw	t1,232(sp)
  42:	6d00                	ld	s0,24(a0)
  44:	6961                	lui	s2,0x18
  46:	2e6e                	fld	ft8,216(sp)
  48:	682f0063          	beq	t5,sp,6c8 <_prog_start-0x7ffff938>
  4c:	2f656d6f          	jal	s10,56342 <_prog_start-0x7ffa9cbe>
  50:	6962                	ld	s2,24(sp)
  52:	686e                	ld	a6,216(sp)
  54:	7565696b          	.4byte	0x7565696b
  58:	6f64                	ld	s1,216(a4)
  5a:	726f572f          	.4byte	0x726f572f
  5e:	6170736b          	.4byte	0x6170736b
  62:	4e2f6563          	bltu	t5,sp,54c <_prog_start-0x7ffffab4>
  66:	7765                	lui	a4,0xffff9
  68:	7246                	ld	tp,112(sp)
  6a:	6d61                	lui	s10,0x18
  6c:	7765                	lui	a4,0xffff9
  6e:	2f6b726f          	jal	tp,b7364 <_prog_start-0x7ff48c9c>
  72:	632e                	ld	t1,200(sp)
  74:	61646e6f          	jal	t3,4668a <_prog_start-0x7ffb9976>
  78:	652d                	lui	a0,0xb
  7a:	766e                	ld	a2,248(sp)
  7c:	7369722f          	.4byte	0x7369722f
  80:	742d7663          	bgeu	s10,sp,7cc <_prog_start-0x7ffff834>
  84:	736c6f6f          	jal	t5,c67ba <_prog_start-0x7ff39846>
  88:	7369722f          	.4byte	0x7369722f
  8c:	34367663          	bgeu	a2,gp,3d8 <_prog_start-0x7ffffc28>
  90:	752d                	lui	a0,0xfffeb
  92:	6b6e                	ld	s6,216(sp)
  94:	6f6e                	ld	t5,216(sp)
  96:	652d6e77          	.4byte	0x652d6e77
  9a:	666c                	ld	a1,200(a2)
  9c:	636e692f          	.4byte	0x636e692f
  a0:	756c                	ld	a1,232(a0)
  a2:	6564                	ld	s1,200(a0)
  a4:	63616d2f          	.4byte	0x63616d2f
  a8:	6968                	ld	a0,208(a0)
  aa:	656e                	ld	a0,216(sp)
  ac:	2f00                	fld	fs0,24(a4)
  ae:	6f68                	ld	a0,216(a4)
  b0:	656d                	lui	a0,0x1b
  b2:	6e69622f          	.4byte	0x6e69622f
  b6:	6b68                	ld	a0,208(a4)
  b8:	6569                	lui	a0,0x1a
  ba:	6475                	lui	s0,0x1d
  bc:	6f572f6f          	jal	t5,72fb0 <_prog_start-0x7ff8d050>
  c0:	6b72                	ld	s6,280(sp)
  c2:	63617073          	csrci	0x636,2
  c6:	2f65                	addiw	t5,t5,25
  c8:	654e                	ld	a0,208(sp)
  ca:	61724677          	.4byte	0x61724677
  ce:	656d                	lui	a0,0x1b
  d0:	6b726f77          	.4byte	0x6b726f77
  d4:	6f632e2f          	.4byte	0x6f632e2f
  d8:	646e                	ld	s0,216(sp)
  da:	2d61                	addiw	s10,s10,24 # 18018 <_prog_start-0x7ffe7fe8>
  dc:	6e65                	lui	t3,0x19
  de:	2f76                	fld	ft10,344(sp)
  e0:	6972                	ld	s2,280(sp)
  e2:	2d766373          	csrrsi	t1,0x2d7,12
  e6:	6f74                	ld	a3,216(a4)
  e8:	2f736c6f          	jal	s8,36bde <_prog_start-0x7ffc9422>
  ec:	6972                	ld	s2,280(sp)
  ee:	36766373          	csrrsi	t1,0x367,12
  f2:	2d34                	fld	fa3,88(a0)
  f4:	6e75                	lui	t3,0x1d
  f6:	776f6e6b          	.4byte	0x776f6e6b
  fa:	2d6e                	fld	fs10,216(sp)
  fc:	6c65                	lui	s8,0x19
  fe:	2f66                	fld	ft10,88(sp)
 100:	6e69                	lui	t3,0x1a
 102:	64756c63          	bltu	a0,t2,75a <_prog_start-0x7ffff8a6>
 106:	2f65                	addiw	t5,t5,25
 108:	00737973          	csrrci	s2,0x7,6
 10c:	645f 6665 7561      	.byte	0x5f, 0x64, 0x65, 0x66, 0x61, 0x75
 112:	746c                	ld	a1,232(s0)
 114:	745f 7079 7365      	.byte	0x5f, 0x74, 0x79, 0x70, 0x65, 0x73
 11a:	682e                	ld	a6,200(sp)
 11c:	5f00                	lw	s0,56(a4)
 11e:	69647473          	csrrci	s0,0x696,8
 122:	746e                	ld	s0,248(sp)
 124:	682e                	ld	a6,200(sp)
 126:	6b00                	ld	s0,16(a4)
 128:	7270                	ld	a2,224(a2)
 12a:	6e69                	lui	t3,0x1a
 12c:	6674                	ld	a3,200(a2)
 12e:	682e                	ld	a6,200(sp)
 130:	6b00                	ld	s0,16(a4)
 132:	7270                	ld	a2,224(a2)
 134:	6e69                	lui	t3,0x1a
 136:	6674                	ld	a3,200(a2)
 138:	632e                	ld	t1,200(sp)
 13a:	2f00                	fld	fs0,24(a4)
 13c:	6f68                	ld	a0,216(a4)
 13e:	656d                	lui	a0,0x1b
 140:	6e69622f          	.4byte	0x6e69622f
 144:	6b68                	ld	a0,208(a4)
 146:	6569                	lui	a0,0x1a
 148:	6475                	lui	s0,0x1d
 14a:	6f572f6f          	jal	t5,7303e <_prog_start-0x7ff8cfc2>
 14e:	6b72                	ld	s6,280(sp)
 150:	63617073          	csrci	0x636,2
 154:	2f65                	addiw	t5,t5,25
 156:	654e                	ld	a0,208(sp)
 158:	61724677          	.4byte	0x61724677
 15c:	656d                	lui	a0,0x1b
 15e:	6b726f77          	.4byte	0x6b726f77
 162:	6f632e2f          	.4byte	0x6f632e2f
 166:	646e                	ld	s0,216(sp)
 168:	2d61                	addiw	s10,s10,24
 16a:	6e65                	lui	t3,0x19
 16c:	2f76                	fld	ft10,344(sp)
 16e:	6972                	ld	s2,280(sp)
 170:	2d766373          	csrrsi	t1,0x2d7,12
 174:	6f74                	ld	a3,216(a4)
 176:	2f736c6f          	jal	s8,36c6c <_prog_start-0x7ffc9394>
 17a:	696c                	ld	a1,208(a0)
 17c:	2f62                	fld	ft10,24(sp)
 17e:	2f636367          	.4byte	0x2f636367
 182:	6972                	ld	s2,280(sp)
 184:	36766373          	csrrsi	t1,0x367,12
 188:	2d34                	fld	fa3,88(a0)
 18a:	6e75                	lui	t3,0x1d
 18c:	776f6e6b          	.4byte	0x776f6e6b
 190:	2d6e                	fld	fs10,216(sp)
 192:	6c65                	lui	s8,0x19
 194:	2f66                	fld	ft10,88(sp)
 196:	3231                	addiw	tp,tp,-20 # ffffffffffffffec <kprintf+0xffffffff7ffffac8>
 198:	322e                	fld	ft4,232(sp)
 19a:	302e                	fld	ft0,232(sp)
 19c:	636e692f          	.4byte	0x636e692f
 1a0:	756c                	ld	a1,232(a0)
 1a2:	6564                	ld	s1,200(a0)
 1a4:	7300                	ld	s0,32(a4)
 1a6:	6474                	ld	a3,200(s0)
 1a8:	7261                	lui	tp,0xffff8
 1aa:	00682e67          	.4byte	0x682e67

Disassembly of section .debug_info:

0000000000000000 <.debug_info>:
   0:	0025                	c.nop	9
   2:	0000                	unimp
   4:	0005                	c.nop	1
   6:	0801                	addi	a6,a6,0
   8:	0000                	unimp
   a:	0000                	unimp
   c:	0001                	nop
   e:	0000                	unimp
  10:	0000                	unimp
  12:	0000                	unimp
  14:	0080                	addi	s0,sp,64
  16:	0000                	unimp
  18:	e400                	sd	s0,8(s0)
  1a:	0001                	nop
  1c:	0000                	unimp
  1e:	0700                	addi	s0,sp,896
  20:	0000                	unimp
  22:	4300                	lw	s0,0(a4)
  24:	0000                	unimp
  26:	0100                	addi	s0,sp,128
  28:	5380                	lw	s0,32(a5)
  2a:	0008                	.2byte	0x8
  2c:	0500                	addi	s0,sp,640
  2e:	0100                	addi	s0,sp,128
  30:	1408                	addi	a0,sp,544
  32:	0000                	unimp
  34:	0f00                	addi	s0,sp,912
  36:	0150                	addi	a2,sp,132
  38:	0000                	unimp
  3a:	431d                	li	t1,7
  3c:	0000                	unimp
  3e:	0000                	unimp
  40:	0000                	unimp
  42:	0500                	addi	s0,sp,640
  44:	00000007          	.4byte	0x7
  48:	0000                	unimp
  4a:	0000                	unimp
  4c:	0000                	unimp
  4e:	5800                	lw	s0,48(s0)
  50:	0001                	nop
  52:	0600                	addi	s0,sp,768
  54:	0601                	addi	a2,a2,0
  56:	007e                	c.slli	zero,0x1f
  58:	0000                	unimp
  5a:	00005a07          	.4byte	0x5a07
  5e:	0200                	addi	s0,sp,256
  60:	003d182b          	.4byte	0x3d182b
  64:	0000                	unimp
  66:	0106                	slli	sp,sp,0x1
  68:	7c08                	ld	a0,56(s0)
  6a:	0000                	unimp
  6c:	0600                	addi	s0,sp,768
  6e:	0502                	c.slli64	a0
  70:	0115                	addi	sp,sp,5
  72:	0000                	unimp
  74:	0206                	slli	tp,tp,0x1
  76:	0000a807          	flw	fa6,0(ra)
  7a:	1000                	addi	s0,sp,32
  7c:	0504                	addi	s1,sp,640
  7e:	6e69                	lui	t3,0x1a
  80:	0074                	addi	a3,sp,12
  82:	0000bb07          	fld	fs6,0(ra)
  86:	0200                	addi	s0,sp,256
  88:	0065194f          	fnmadd.s	fs2,fa0,ft6,ft0,rtz
  8c:	0000                	unimp
  8e:	0406                	slli	s0,s0,0x1
  90:	00009b07          	.4byte	0x9b07
  94:	0600                	addi	s0,sp,768
  96:	0508                	addi	a0,sp,640
  98:	0135                	addi	sp,sp,13
  9a:	0000                	unimp
  9c:	00011f07          	.4byte	0x11f07
  a0:	0200                	addi	s0,sp,256
  a2:	1969                	addi	s2,s2,-6 # 17ffa <_prog_start-0x7ffe8006>
  a4:	007f                	.2byte	0x7f
  a6:	0000                	unimp
  a8:	0806                	slli	a6,a6,0x1
  aa:	00009607          	.4byte	0x9607
  ae:	0700                	addi	s0,sp,896
  b0:	005c                	addi	a5,sp,4
  b2:	0000                	unimp
  b4:	31131803          	lh	a6,785(t1)
  b8:	0000                	unimp
  ba:	0700                	addi	s0,sp,896
  bc:	00bd                	addi	ra,ra,15
  be:	0000                	unimp
  c0:	59143003          	ld	zero,1425(s0) # 1d591 <_prog_start-0x7ffe2a6f>
  c4:	0000                	unimp
  c6:	1100                	addi	s0,sp,160
  c8:	0092                	slli	ra,ra,0x4
  ca:	0000                	unimp
  cc:	00012107          	flw	ft2,0(sp)
  d0:	0300                	addi	s0,sp,384
  d2:	143c                	addi	a5,sp,552
  d4:	00000073          	ecall
  d8:	3004                	fld	fs1,32(s0)
  da:	0001                	nop
  dc:	0400                	addi	s0,sp,512
  de:	00c42213          	slti	tp,s0,12
  e2:	0000                	unimp
  e4:	0000                	unimp
  e6:	6400                	ld	s0,8(s0)
  e8:	9e09                	subw	a2,a2,a0
  ea:	0000                	unimp
  ec:	0e00                	addi	s0,sp,784
  ee:	000000bf 00008a04 	.8byte	0x8a04000000bf
  f6:	0100                	addi	s0,sp,128
  f8:	00c42207          	flw	ft4,12(s0)
  fc:	0000                	unimp
  fe:	0000                	unimp
 100:	0200                	addi	s0,sp,256
 102:	6a12                	ld	s4,256(sp)
 104:	0000                	unimp
 106:	0400                	addi	s0,sp,512
 108:	00ec0d27          	.4byte	0xec0d27
 10c:	0000                	unimp
 10e:	0000ec13          	ori	s8,ra,0
 112:	1400                	addi	s0,sp,544
 114:	0900                	addi	s0,sp,144
 116:	00f8                	addi	a4,sp,76
 118:	0000                	unimp
 11a:	0106                	slli	sp,sp,0x1
 11c:	8508                	.2byte	0x8508
 11e:	0000                	unimp
 120:	0e00                	addi	s0,sp,784
 122:	00f1                	addi	ra,ra,28
 124:	0000                	unimp
 126:	e115                	bnez	a0,14a <_prog_start-0x7ffffeb6>
 128:	0000                	unimp
 12a:	0100                	addi	s0,sp,128
 12c:	0574                	addi	a3,sp,652
 12e:	0052                	c.slli	zero,0x14
 130:	0000                	unimp
 132:	03b4                	addi	a3,sp,456
 134:	8000                	.2byte	0x8000
 136:	0000                	unimp
 138:	0000                	unimp
 13a:	0132                	slli	sp,sp,0xc
 13c:	0000                	unimp
 13e:	0000                	unimp
 140:	0000                	unimp
 142:	9c01                	subw	s0,s0,s0
 144:	00000417          	auipc	s0,0x0
 148:	ee0a                	sd	sp,280(sp)
 14a:	0000                	unimp
 14c:	7400                	ld	s0,40(s0)
 14e:	520e                	lw	tp,224(sp)
 150:	0000                	unimp
 152:	0c00                	addi	s0,sp,528
 154:	0000                	unimp
 156:	1600                	addi	s0,sp,800
 158:	7261                	lui	tp,0xffff8
 15a:	0076                	c.slli	zero,0x1d
 15c:	7401                	lui	s0,0xfffe0
 15e:	0004171b          	slliw	a4,s0,0x0
 162:	3600                	fld	fs0,40(a2)
 164:	0000                	unimp
 166:	0300                	addi	s0,sp,384
 168:	00e6                	slli	ra,ra,0x19
 16a:	0000                	unimp
 16c:	0e78                	addi	a4,sp,796
 16e:	000000a3          	sb	zero,1(zero) # 1 <_prog_start-0x7fffffff>
 172:	0060                	addi	s0,sp,12
 174:	0000                	unimp
 176:	00006403          	lwu	s0,0(zero) # 0 <_prog_start-0x80000000>
 17a:	7800                	ld	s0,48(s0)
 17c:	0000a317          	auipc	t1,0xa
 180:	8700                	.2byte	0x8700
 182:	0000                	unimp
 184:	0300                	addi	s0,sp,384
 186:	01e1                	addi	gp,gp,24
 188:	0000                	unimp
 18a:	0e79                	addi	t3,t3,30 # 1a01e <_prog_start-0x7ffe5fe2>
 18c:	000000a3          	sb	zero,1(zero) # 1 <_prog_start-0x7fffffff>
 190:	00ae                	slli	ra,ra,0xb
 192:	0000                	unimp
 194:	00004f03          	lbu	t5,0(zero) # 0 <_prog_start-0x80000000>
 198:	7b00                	ld	s0,48(a4)
 19a:	a30e                	fsd	ft3,384(sp)
 19c:	0000                	unimp
 19e:	ed00                	sd	s0,24(a0)
 1a0:	0000                	unimp
 1a2:	0300                	addi	s0,sp,384
 1a4:	0072                	c.slli	zero,0x1c
 1a6:	0000                	unimp
 1a8:	00a31a7b          	.4byte	0xa31a7b
 1ac:	0000                	unimp
 1ae:	0101                	addi	sp,sp,0
 1b0:	0000                	unimp
 1b2:	0001de03          	lhu	t3,0(gp)
 1b6:	7c00                	ld	s0,56(s0)
 1b8:	a30e                	fsd	ft3,384(sp)
 1ba:	0000                	unimp
 1bc:	1500                	addi	s0,sp,672
 1be:	0001                	nop
 1c0:	1700                	addi	s0,sp,928
 1c2:	01007063          	bgeu	zero,a6,1c2 <_prog_start-0x7ffffe3e>
 1c6:	0e7e                	slli	t3,t3,0x1f
 1c8:	0421                	addi	s0,s0,8 # fffffffffffe0008 <kprintf+0xffffffff7ffdfae4>
 1ca:	0000                	unimp
 1cc:	0000                	unimp
 1ce:	7000                	ld	s0,32(s0)
 1d0:	0e18                	addi	a4,sp,784
 1d2:	0001                	nop
 1d4:	0100                	addi	s0,sp,128
 1d6:	0d81                	addi	s11,s11,0
 1d8:	0426                	slli	s0,s0,0x9
 1da:	0000                	unimp
 1dc:	77d09103          	lh	sp,1917(ra)
 1e0:	f304                	sd	s1,32(a4)
 1e2:	0000                	unimp
 1e4:	0100                	addi	s0,sp,128
 1e6:	0e84                	addi	s1,sp,848
 1e8:	0421                	addi	s0,s0,8
 1ea:	0000                	unimp
 1ec:	0000                	unimp
 1ee:	4000                	lw	s0,0(s0)
 1f0:	c604                	sw	s1,8(a2)
 1f2:	0000                	unimp
 1f4:	0100                	addi	s0,sp,128
 1f6:	0e85                	addi	t4,t4,1
 1f8:	0421                	addi	s0,s0,8
 1fa:	0000                	unimp
 1fc:	1000                	addi	s0,sp,32
 1fe:	4000                	lw	s0,0(s0)
 200:	cf04                	sw	s1,24(a4)
 202:	0000                	unimp
 204:	0100                	addi	s0,sp,128
 206:	0e86                	slli	t4,t4,0x1
 208:	0421                	addi	s0,s0,8
 20a:	0000                	unimp
 20c:	2000                	fld	fs0,0(s0)
 20e:	4000                	lw	s0,0(s0)
 210:	d804                	sw	s1,48(s0)
 212:	0000                	unimp
 214:	0100                	addi	s0,sp,128
 216:	04210e87          	.4byte	0x4210e87
 21a:	0000                	unimp
 21c:	3000                	fld	fs0,32(s0)
 21e:	4000                	lw	s0,0(s0)
 220:	9004                	.2byte	0x9004
 222:	0000                	unimp
 224:	0100                	addi	s0,sp,128
 226:	0e89                	addi	t4,t4,2
 228:	0421                	addi	s0,s0,8
 22a:	0000                	unimp
 22c:	0000                	unimp
 22e:	7000                	ld	s0,32(s0)
 230:	d704                	sw	s1,40(a4)
 232:	0001                	nop
 234:	0100                	addi	s0,sp,128
 236:	0e8a                	slli	t4,t4,0x2
 238:	0421                	addi	s0,s0,8
 23a:	0000                	unimp
 23c:	5000                	lw	s0,32(s0)
 23e:	7000                	ld	s0,32(s0)
 240:	0006790b          	.4byte	0x6790b
 244:	2e00                	fld	fs0,24(a2)
 246:	0002                	c.slli64	zero
 248:	0200                	addi	s0,sp,256
 24a:	0069                	c.nop	26
 24c:	0e8c                	addi	a1,sp,848
 24e:	0052                	c.slli	zero,0x14
 250:	0000                	unimp
 252:	0129                	addi	sp,sp,10
 254:	0000                	unimp
 256:	0b00                	addi	s0,sp,400
 258:	069c                	addi	a5,sp,832
 25a:	0000                	unimp
 25c:	0245                	addi	tp,tp,17 # ffffffffffff8011 <kprintf+0xffffffff7fff7aed>
 25e:	0000                	unimp
 260:	6902                	ld	s2,0(sp)
 262:	8f00                	.2byte	0x8f00
 264:	520e                	lw	tp,224(sp)
 266:	0000                	unimp
 268:	7000                	ld	s0,32(s0)
 26a:	0001                	nop
 26c:	0000                	unimp
 26e:	0006bf0b          	.4byte	0x6bf0b
 272:	5c00                	lw	s0,56(s0)
 274:	0002                	c.slli64	zero
 276:	0200                	addi	s0,sp,256
 278:	0069                	c.nop	26
 27a:	0e96                	slli	t4,t4,0x5
 27c:	0052                	c.slli	zero,0x14
 27e:	0000                	unimp
 280:	000001a3          	sb	zero,3(zero) # 3 <_prog_start-0x7ffffffd>
 284:	0800                	addi	s0,sp,16
 286:	0430                	addi	a2,sp,520
 288:	8000                	.2byte	0x8000
 28a:	0000                	unimp
 28c:	0000                	unimp
 28e:	0004                	.2byte	0x4
 290:	0000                	unimp
 292:	0000                	unimp
 294:	0000                	unimp
 296:	0281                	addi	t0,t0,0
 298:	0000                	unimp
 29a:	00012a03          	lw	s4,0(sp)
 29e:	9a00                	.2byte	0x9a00
 2a0:	00007f0f          	.4byte	0x7f0f
 2a4:	d600                	sw	s0,40(a2)
 2a6:	0001                	nop
 2a8:	0000                	unimp
 2aa:	3408                	fld	fa0,40(s0)
 2ac:	0004                	.2byte	0x4
 2ae:	0080                	addi	s0,sp,64
 2b0:	0000                	unimp
 2b2:	0400                	addi	s0,sp,512
 2b4:	0000                	unimp
 2b6:	0000                	unimp
 2b8:	0000                	unimp
 2ba:	a600                	fsd	fs0,8(a2)
 2bc:	0002                	c.slli64	zero
 2be:	0300                	addi	s0,sp,384
 2c0:	012a                	slli	sp,sp,0xa
 2c2:	0000                	unimp
 2c4:	007f129b          	slliw	t0,t5,0x7
 2c8:	0000                	unimp
 2ca:	00ed                	addi	ra,ra,27
 2cc:	0000                	unimp
 2ce:	0800                	addi	s0,sp,16
 2d0:	0446                	slli	s0,s0,0x11
 2d2:	8000                	.2byte	0x8000
 2d4:	0000                	unimp
 2d6:	0000                	unimp
 2d8:	0004                	.2byte	0x4
 2da:	0000                	unimp
 2dc:	0000                	unimp
 2de:	0000                	unimp
 2e0:	000002cb          	fnmsub.s	ft5,ft0,ft0,ft0,rne
 2e4:	00012a03          	lw	s4,0(sp)
 2e8:	9d00                	.2byte	0x9d00
 2ea:	7f0d                	lui	t5,0xfffe3
 2ec:	0000                	unimp
 2ee:	ea00                	sd	s0,16(a2)
 2f0:	0001                	nop
 2f2:	0000                	unimp
 2f4:	4a08                	lw	a0,16(a2)
 2f6:	0004                	.2byte	0x4
 2f8:	0080                	addi	s0,sp,64
 2fa:	0000                	unimp
 2fc:	0400                	addi	s0,sp,512
 2fe:	0000                	unimp
 300:	0000                	unimp
 302:	0000                	unimp
 304:	f000                	sd	s0,32(s0)
 306:	0002                	c.slli64	zero
 308:	0300                	addi	s0,sp,384
 30a:	012a                	slli	sp,sp,0xa
 30c:	0000                	unimp
 30e:	119e                	slli	gp,gp,0x27
 310:	007f                	.2byte	0x7f
 312:	0000                	unimp
 314:	0101                	addi	sp,sp,0
 316:	0000                	unimp
 318:	0800                	addi	s0,sp,16
 31a:	0486                	slli	s1,s1,0x1
 31c:	8000                	.2byte	0x8000
 31e:	0000                	unimp
 320:	0000                	unimp
 322:	0004                	.2byte	0x4
 324:	0000                	unimp
 326:	0000                	unimp
 328:	0000                	unimp
 32a:	0315                	addi	t1,t1,5 # a181 <_prog_start-0x7fff5e7f>
 32c:	0000                	unimp
 32e:	00012a03          	lw	s4,0(sp)
 332:	a800                	fsd	fs0,16(s0)
 334:	00007f0f          	.4byte	0x7f0f
 338:	fe00                	sd	s0,56(a2)
 33a:	0001                	nop
 33c:	0000                	unimp
 33e:	9a08                	.2byte	0x9a08
 340:	0004                	.2byte	0x4
 342:	0080                	addi	s0,sp,64
 344:	0000                	unimp
 346:	0400                	addi	s0,sp,512
 348:	0000                	unimp
 34a:	0000                	unimp
 34c:	0000                	unimp
 34e:	3a00                	fld	fs0,48(a2)
 350:	03000003          	lb	zero,48(zero) # 30 <_prog_start-0x7fffffd0>
 354:	012a                	slli	sp,sp,0xa
 356:	0000                	unimp
 358:	0dad                	addi	s11,s11,11
 35a:	007f                	.2byte	0x7f
 35c:	0000                	unimp
 35e:	0212                	slli	tp,tp,0x4
 360:	0000                	unimp
 362:	0b00                	addi	s0,sp,400
 364:	06e2                	slli	a3,a3,0x18
 366:	0000                	unimp
 368:	0351                	addi	t1,t1,20
 36a:	0000                	unimp
 36c:	6902                	ld	s2,0(sp)
 36e:	b200                	fsd	fs0,32(a2)
 370:	520e                	lw	tp,224(sp)
 372:	0000                	unimp
 374:	2600                	fld	fs0,8(a2)
 376:	0002                	c.slli64	zero
 378:	0000                	unimp
 37a:	460c                	lw	a1,8(a2)
 37c:	0004                	.2byte	0x4
 37e:	0080                	addi	s0,sp,64
 380:	0000                	unimp
 382:	8700                	.2byte	0x8700
 384:	79000007          	.4byte	0x79000007
 388:	05000003          	lb	zero,80(zero) # 50 <_prog_start-0x7fffffb0>
 38c:	5a01                	li	s4,-32
 38e:	244a4c03          	lbu	s8,580(s4)
 392:	0105                	addi	sp,sp,1
 394:	0072025b          	.4byte	0x72025b
 398:	0105                	addi	sp,sp,1
 39a:	055c                	addi	a5,sp,644
 39c:	000c                	.2byte	0xc
 39e:	0050                	addi	a2,sp,4
 3a0:	0070                	addi	a2,sp,12
 3a2:	620c                	ld	a1,0(a2)
 3a4:	0004                	.2byte	0x4
 3a6:	0080                	addi	s0,sp,64
 3a8:	0000                	unimp
 3aa:	d900                	sw	s0,48(a0)
 3ac:	0000                	unimp
 3ae:	a400                	fsd	fs0,8(s0)
 3b0:	05000003          	lb	zero,80(zero) # 50 <_prog_start-0x7fffffb0>
 3b4:	5a01                	li	s4,-32
 3b6:	0309                	addi	t1,t1,2
 3b8:	06e8                	addi	a0,sp,844
 3ba:	8000                	.2byte	0x8000
 3bc:	0000                	unimp
 3be:	0000                	unimp
 3c0:	0105                	addi	sp,sp,1
 3c2:	8008025b          	.4byte	0x8008025b
 3c6:	0105                	addi	sp,sp,1
 3c8:	025c                	addi	a5,sp,260
 3ca:	2008                	fld	fa0,0(s0)
 3cc:	0c00                	addi	s0,sp,528
 3ce:	0474                	addi	a3,sp,524
 3d0:	8000                	.2byte	0x8000
 3d2:	0000                	unimp
 3d4:	0000                	unimp
 3d6:	00d9                	addi	ra,ra,22
 3d8:	0000                	unimp
 3da:	03c9                	addi	t2,t2,18
 3dc:	0000                	unimp
 3de:	0105                	addi	sp,sp,1
 3e0:	095a                	slli	s2,s2,0x16
 3e2:	00071803          	lh	a6,0(a4) # ffffffffffff9000 <kprintf+0xffffffff7fff8adc>
 3e6:	0080                	addi	s0,sp,64
 3e8:	0000                	unimp
 3ea:	0500                	addi	s0,sp,640
 3ec:	5b01                	li	s6,-32
 3ee:	7902                	ld	s2,32(sp)
 3f0:	0000                	unimp
 3f2:	860c                	.2byte	0x860c
 3f4:	0004                	.2byte	0x4
 3f6:	0080                	addi	s0,sp,64
 3f8:	0000                	unimp
 3fa:	d900                	sw	s0,48(a0)
 3fc:	0000                	unimp
 3fe:	ee00                	sd	s0,24(a2)
 400:	05000003          	lb	zero,80(zero) # 50 <_prog_start-0x7fffffb0>
 404:	5a01                	li	s4,-32
 406:	0309                	addi	t1,t1,2
 408:	0730                	addi	a2,sp,904
 40a:	8000                	.2byte	0x8000
 40c:	0000                	unimp
 40e:	0000                	unimp
 410:	0105                	addi	sp,sp,1
 412:	0078025b          	.4byte	0x78025b
 416:	1900                	addi	s0,sp,176
 418:	049a                	slli	s1,s1,0x6
 41a:	8000                	.2byte	0x8000
 41c:	0000                	unimp
 41e:	0000                	unimp
 420:	000006b3          	add	a3,zero,zero
 424:	ac1a                	fsd	ft6,24(sp)
 426:	0004                	.2byte	0x4
 428:	0080                	addi	s0,sp,64
 42a:	0000                	unimp
 42c:	d900                	sw	s0,48(a0)
 42e:	0000                	unimp
 430:	0500                	addi	s0,sp,640
 432:	5a01                	li	s4,-32
 434:	0309                	addi	t1,t1,2
 436:	0758                	addi	a4,sp,900
 438:	8000                	.2byte	0x8000
 43a:	0000                	unimp
 43c:	0000                	unimp
 43e:	0000                	unimp
 440:	1c09                	addi	s8,s8,-30 # 18fe2 <_prog_start-0x7ffe701e>
 442:	0004                	.2byte	0x4
 444:	0900                	addi	s0,sp,144
 446:	00f1                	addi	ra,ra,28
 448:	0000                	unimp
 44a:	8609                	srai	a2,a2,0x2
 44c:	0000                	unimp
 44e:	1b00                	addi	s0,sp,432
 450:	0086                	slli	ra,ra,0x1
 452:	0000                	unimp
 454:	00000437          	lui	s0,0x0
 458:	7f1c                	ld	a5,56(a4)
 45a:	0000                	unimp
 45c:	ff00                	sd	s0,56(a4)
 45e:	470d0003          	lb	zero,1136(s10)
 462:	0001                	nop
 464:	6100                	ld	s0,0(a0)
 466:	031c                	addi	a5,sp,384
 468:	8000                	.2byte	0x8000
 46a:	0000                	unimp
 46c:	0000                	unimp
 46e:	0098                	addi	a4,sp,64
 470:	0000                	unimp
 472:	0000                	unimp
 474:	0000                	unimp
 476:	9c01                	subw	s0,s0,s0
 478:	0000050b          	.4byte	0x50b
 47c:	0e04                	addi	s1,sp,784
 47e:	0001                	nop
 480:	0100                	addi	s0,sp,128
 482:	0e62                	slli	t3,t3,0x18
 484:	0421                	addi	s0,s0,8 # 8 <_prog_start-0x7ffffff8>
 486:	0000                	unimp
 488:	3000                	fld	fs0,32(s0)
 48a:	4000                	lw	s0,0(s0)
 48c:	9004                	.2byte	0x9004
 48e:	0000                	unimp
 490:	0100                	addi	s0,sp,128
 492:	04210e63          	beq	sp,sp,4ee <_prog_start-0x7ffffb12>
 496:	0000                	unimp
 498:	0000                	unimp
 49a:	7000                	ld	s0,32(s0)
 49c:	d704                	sw	s1,40(a4)
 49e:	0001                	nop
 4a0:	0100                	addi	s0,sp,128
 4a2:	0e64                	addi	s1,sp,796
 4a4:	0421                	addi	s0,s0,8
 4a6:	0000                	unimp
 4a8:	5000                	lw	s0,32(s0)
 4aa:	7000                	ld	s0,32(s0)
 4ac:	4101                	li	sp,0
 4ae:	0005                	c.nop	1
 4b0:	0200                	addi	s0,sp,256
 4b2:	0079                	c.nop	30
 4b4:	0e65                	addi	t3,t3,25
 4b6:	0052                	c.slli	zero,0x14
 4b8:	0000                	unimp
 4ba:	0254                	addi	a3,sp,260
 4bc:	0000                	unimp
 4be:	7501                	lui	a0,0xfffe0
 4c0:	0005                	c.nop	1
 4c2:	0200                	addi	s0,sp,256
 4c4:	0078                	addi	a4,sp,12
 4c6:	1266                	slli	tp,tp,0x39
 4c8:	0052                	c.slli	zero,0x14
 4ca:	0000                	unimp
 4cc:	027c                	addi	a5,sp,268
 4ce:	0000                	unimp
 4d0:	a901                	j	8e0 <_prog_start-0x7ffff720>
 4d2:	0005                	c.nop	1
 4d4:	0200                	addi	s0,sp,256
 4d6:	006d7573          	csrrci	a0,0x6,26
 4da:	00861567          	.4byte	0x861567
 4de:	0000                	unimp
 4e0:	02ba                	slli	t0,t0,0xe
 4e2:	0000                	unimp
 4e4:	ee01                	bnez	a2,4fc <_prog_start-0x7ffffb04>
 4e6:	0005                	c.nop	1
 4e8:	0200                	addi	s0,sp,256
 4ea:	6800796b          	.4byte	0x6800796b
 4ee:	5216                	lw	tp,100(sp)
 4f0:	0000                	unimp
 4f2:	f500                	sd	s0,40(a0)
 4f4:	0002                	c.slli64	zero
 4f6:	0100                	addi	s0,sp,128
 4f8:	0622                	slli	a2,a2,0x8
 4fa:	0000                	unimp
 4fc:	6b02                	ld	s6,0(sp)
 4fe:	0078                	addi	a4,sp,12
 500:	1a69                	addi	s4,s4,-6
 502:	0052                	c.slli	zero,0x14
 504:	0000                	unimp
 506:	03a1                	addi	t2,t2,8
 508:	0000                	unimp
 50a:	4501                	li	a0,0
 50c:	0006                	c.slli	zero,0x1
 50e:	0300                	addi	s0,sp,384
 510:	01ec                	addi	a1,sp,204
 512:	0000                	unimp
 514:	196a                	slli	s2,s2,0x3a
 516:	0052                	c.slli	zero,0x14
 518:	0000                	unimp
 51a:	03ea                	slli	t2,t2,0x1a
 51c:	0000                	unimp
 51e:	0001e703          	lwu	a4,0(gp)
 522:	6b00                	ld	s0,16(a4)
 524:	5219                	li	tp,-26
 526:	0000                	unimp
 528:	5300                	lw	s0,32(a4)
 52a:	0004                	.2byte	0x4
	...
 534:	3e0d                	addiw	t3,t3,-29
 536:	0001                	nop
 538:	4e00                	lw	s0,24(a2)
 53a:	027c                	addi	a5,sp,268
 53c:	8000                	.2byte	0x8000
 53e:	0000                	unimp
 540:	0000                	unimp
 542:	00a0                	addi	s0,sp,72
 544:	0000                	unimp
 546:	0000                	unimp
 548:	0000                	unimp
 54a:	9c01                	subw	s0,s0,s0
 54c:	05df 0000 0e04      	.byte	0xdf, 0x05, 0x00, 0x00, 0x04, 0x0e
 552:	0001                	nop
 554:	0100                	addi	s0,sp,128
 556:	04210e4f          	.4byte	0x4210e4f
 55a:	0000                	unimp
 55c:	2000                	fld	fs0,0(s0)
 55e:	4000                	lw	s0,0(s0)
 560:	9004                	.2byte	0x9004
 562:	0000                	unimp
 564:	0100                	addi	s0,sp,128
 566:	0e50                	addi	a2,sp,788
 568:	0421                	addi	s0,s0,8
 56a:	0000                	unimp
 56c:	0000                	unimp
 56e:	7000                	ld	s0,32(s0)
 570:	d704                	sw	s1,40(a4)
 572:	0001                	nop
 574:	0100                	addi	s0,sp,128
 576:	0e51                	addi	t3,t3,20
 578:	0421                	addi	s0,s0,8
 57a:	0000                	unimp
 57c:	5000                	lw	s0,32(s0)
 57e:	7000                	ld	s0,32(s0)
 580:	f801                	bnez	s0,490 <_prog_start-0x7ffffb70>
 582:	02000003          	lb	zero,32(zero) # 20 <_prog_start-0x7fffffe0>
 586:	0079                	c.nop	30
 588:	0e52                	slli	t3,t3,0x14
 58a:	0052                	c.slli	zero,0x14
 58c:	0000                	unimp
 58e:	0000048b          	.4byte	0x48b
 592:	2c01                	sext.w	s8,s8
 594:	0004                	.2byte	0x4
 596:	0200                	addi	s0,sp,256
 598:	0078                	addi	a4,sp,12
 59a:	00521253          	fadd.s	ft4,ft4,ft5,rtz
 59e:	0000                	unimp
 5a0:	000004b3          	add	s1,zero,zero
 5a4:	7101                	addi	sp,sp,-512
 5a6:	0004                	.2byte	0x4
 5a8:	0200                	addi	s0,sp,256
 5aa:	006d7573          	csrrci	a0,0x6,26
 5ae:	1554                	addi	a3,sp,676
 5b0:	0086                	slli	ra,ra,0x1
 5b2:	0000                	unimp
 5b4:	04f1                	addi	s1,s1,28 # 7000501c <_prog_start-0xfffafe4>
 5b6:	0000                	unimp
 5b8:	b601                	j	b8 <_prog_start-0x7fffff48>
 5ba:	0004                	.2byte	0x4
 5bc:	0200                	addi	s0,sp,256
 5be:	5500796b          	.4byte	0x5500796b
 5c2:	5216                	lw	tp,100(sp)
 5c4:	0000                	unimp
 5c6:	2c00                	fld	fs0,24(s0)
 5c8:	0005                	c.nop	1
 5ca:	0100                	addi	s0,sp,128
 5cc:	04ea                	slli	s1,s1,0x1a
 5ce:	0000                	unimp
 5d0:	6b02                	ld	s6,0(sp)
 5d2:	0078                	addi	a4,sp,12
 5d4:	1a56                	slli	s4,s4,0x35
 5d6:	0052                	c.slli	zero,0x14
 5d8:	0000                	unimp
 5da:	05d8                	addi	a4,sp,708
 5dc:	0000                	unimp
 5de:	0d01                	addi	s10,s10,0
 5e0:	0005                	c.nop	1
 5e2:	0300                	addi	s0,sp,384
 5e4:	01ec                	addi	a1,sp,204
 5e6:	0000                	unimp
 5e8:	00521957          	.4byte	0x521957
 5ec:	0000                	unimp
 5ee:	0621                	addi	a2,a2,8
 5f0:	0000                	unimp
 5f2:	0001e703          	lwu	a4,0(gp)
 5f6:	5800                	lw	s0,48(s0)
 5f8:	5219                	li	tp,-26
 5fa:	0000                	unimp
 5fc:	8a00                	.2byte	0x8a00
 5fe:	0006                	c.slli	zero,0x1
	...
 608:	050d                	addi	a0,a0,3 # fffffffffffe0003 <kprintf+0xffffffff7ffdfadf>
 60a:	0001                	nop
 60c:	3b00                	fld	fs0,48(a4)
 60e:	01d8                	addi	a4,sp,196
 610:	8000                	.2byte	0x8000
 612:	0000                	unimp
 614:	0000                	unimp
 616:	00a4                	addi	s1,sp,72
 618:	0000                	unimp
 61a:	0000                	unimp
 61c:	0000                	unimp
 61e:	9c01                	subw	s0,s0,s0
 620:	000006b3          	add	a3,zero,zero
 624:	0e04                	addi	s1,sp,784
 626:	0001                	nop
 628:	0100                	addi	s0,sp,128
 62a:	0e3c                	addi	a5,sp,792
 62c:	0421                	addi	s0,s0,8
 62e:	0000                	unimp
 630:	1000                	addi	s0,sp,32
 632:	4000                	lw	s0,0(s0)
 634:	9004                	.2byte	0x9004
 636:	0000                	unimp
 638:	0100                	addi	s0,sp,128
 63a:	0e3d                	addi	t3,t3,15
 63c:	0421                	addi	s0,s0,8
 63e:	0000                	unimp
 640:	0000                	unimp
 642:	7000                	ld	s0,32(s0)
 644:	d704                	sw	s1,40(a4)
 646:	0001                	nop
 648:	0100                	addi	s0,sp,128
 64a:	0e3e                	slli	t3,t3,0xf
 64c:	0421                	addi	s0,s0,8
 64e:	0000                	unimp
 650:	5000                	lw	s0,32(s0)
 652:	7000                	ld	s0,32(s0)
 654:	4901                	li	s2,0
 656:	0002                	c.slli64	zero
 658:	0200                	addi	s0,sp,256
 65a:	0079                	c.nop	30
 65c:	00520e3f 06c20000 	.8byte	0x6c2000000520e3f
 664:	0000                	unimp
 666:	9f01                	subw	a4,a4,s0
 668:	0002                	c.slli64	zero
 66a:	0200                	addi	s0,sp,256
 66c:	0078                	addi	a4,sp,12
 66e:	1240                	addi	s0,sp,292
 670:	0052                	c.slli	zero,0x14
 672:	0000                	unimp
 674:	06ea                	slli	a3,a3,0x1a
 676:	0000                	unimp
 678:	0601                	addi	a2,a2,0
 67a:	02000003          	lb	zero,32(zero) # 20 <_prog_start-0x7fffffe0>
 67e:	006d7573          	csrrci	a0,0x6,26
 682:	1541                	addi	a0,a0,-16
 684:	0086                	slli	ra,ra,0x1
 686:	0000                	unimp
 688:	00000727          	.4byte	0x727
 68c:	6d01                	.2byte	0x6d01
 68e:	02000003          	lb	zero,32(zero) # 20 <_prog_start-0x7fffffe0>
 692:	4200796b          	.4byte	0x4200796b
 696:	5216                	lw	tp,100(sp)
 698:	0000                	unimp
 69a:	6200                	ld	s0,0(a2)
 69c:	01000007          	.4byte	0x1000007
 6a0:	03a1                	addi	t2,t2,8
 6a2:	0000                	unimp
 6a4:	6b02                	ld	s6,0(sp)
 6a6:	0078                	addi	a4,sp,12
 6a8:	00521a43          	fmadd.s	fs4,ft4,ft5,ft0,rtz
 6ac:	0000                	unimp
 6ae:	080e                	slli	a6,a6,0x3
 6b0:	0000                	unimp
 6b2:	c401                	beqz	s0,6ba <_prog_start-0x7ffff946>
 6b4:	03000003          	lb	zero,48(zero) # 30 <_prog_start-0x7fffffd0>
 6b8:	01ec                	addi	a1,sp,204
 6ba:	0000                	unimp
 6bc:	1944                	addi	s1,sp,180
 6be:	0052                	c.slli	zero,0x14
 6c0:	0000                	unimp
 6c2:	00000857          	.4byte	0x857
 6c6:	0001e703          	lwu	a4,0(gp)
 6ca:	4500                	lw	s0,8(a0)
 6cc:	5219                	li	tp,-26
 6ce:	0000                	unimp
 6d0:	c000                	sw	s0,0(s0)
 6d2:	0008                	.2byte	0x8
	...
 6dc:	fc0d                	bnez	s0,616 <_prog_start-0x7ffff9ea>
 6de:	0000                	unimp
 6e0:	2800                	fld	fs0,16(s0)
 6e2:	013c                	addi	a5,sp,136
 6e4:	8000                	.2byte	0x8000
 6e6:	0000                	unimp
 6e8:	0000                	unimp
 6ea:	009c                	addi	a5,sp,64
 6ec:	0000                	unimp
 6ee:	0000                	unimp
 6f0:	0000                	unimp
 6f2:	9c01                	subw	s0,s0,s0
 6f4:	00000787          	.4byte	0x787
 6f8:	0e04                	addi	s1,sp,784
 6fa:	0001                	nop
 6fc:	0100                	addi	s0,sp,128
 6fe:	0e29                	addi	t3,t3,10
 700:	0421                	addi	s0,s0,8
 702:	0000                	unimp
 704:	0000                	unimp
 706:	4000                	lw	s0,0(s0)
 708:	9004                	.2byte	0x9004
 70a:	0000                	unimp
 70c:	0100                	addi	s0,sp,128
 70e:	0e2a                	slli	t3,t3,0xa
 710:	0421                	addi	s0,s0,8
 712:	0000                	unimp
 714:	0000                	unimp
 716:	7000                	ld	s0,32(s0)
 718:	d704                	sw	s1,40(a4)
 71a:	0001                	nop
 71c:	0100                	addi	s0,sp,128
 71e:	04210e2b          	.4byte	0x4210e2b
 722:	0000                	unimp
 724:	5000                	lw	s0,32(s0)
 726:	7000                	ld	s0,32(s0)
 728:	0001                	nop
 72a:	0001                	nop
 72c:	0200                	addi	s0,sp,256
 72e:	0079                	c.nop	30
 730:	0e2c                	addi	a1,sp,792
 732:	0052                	c.slli	zero,0x14
 734:	0000                	unimp
 736:	08f8                	addi	a4,sp,92
 738:	0000                	unimp
 73a:	3401                	addiw	s0,s0,-32
 73c:	0001                	nop
 73e:	0200                	addi	s0,sp,256
 740:	0078                	addi	a4,sp,12
 742:	122d                	addi	tp,tp,-21 # ffffffffffffffeb <kprintf+0xffffffff7ffffac7>
 744:	0052                	c.slli	zero,0x14
 746:	0000                	unimp
 748:	0920                	addi	s0,sp,152
 74a:	0000                	unimp
 74c:	7901                	lui	s2,0xfffe0
 74e:	0001                	nop
 750:	0200                	addi	s0,sp,256
 752:	006d7573          	csrrci	a0,0x6,26
 756:	152e                	slli	a0,a0,0x2b
 758:	0086                	slli	ra,ra,0x1
 75a:	0000                	unimp
 75c:	095d                	addi	s2,s2,23 # fffffffffffe0017 <kprintf+0xffffffff7ffdfaf3>
 75e:	0000                	unimp
 760:	be01                	j	270 <_prog_start-0x7ffffd90>
 762:	0001                	nop
 764:	0200                	addi	s0,sp,256
 766:	2f00796b          	.4byte	0x2f00796b
 76a:	5216                	lw	tp,100(sp)
 76c:	0000                	unimp
 76e:	9800                	.2byte	0x9800
 770:	0009                	c.nop	2
 772:	0100                	addi	s0,sp,128
 774:	01f2                	slli	gp,gp,0x1c
 776:	0000                	unimp
 778:	6b02                	ld	s6,0(sp)
 77a:	0078                	addi	a4,sp,12
 77c:	1a30                	addi	a2,sp,312
 77e:	0052                	c.slli	zero,0x14
 780:	0000                	unimp
 782:	0a44                	addi	s1,sp,276
 784:	0000                	unimp
 786:	1501                	addi	a0,a0,-32
 788:	0002                	c.slli64	zero
 78a:	0300                	addi	s0,sp,384
 78c:	01ec                	addi	a1,sp,204
 78e:	0000                	unimp
 790:	1931                	addi	s2,s2,-20
 792:	0052                	c.slli	zero,0x14
 794:	0000                	unimp
 796:	0a8d                	addi	s5,s5,3
 798:	0000                	unimp
 79a:	0001e703          	lwu	a4,0(gp)
 79e:	3200                	fld	fs0,32(a2)
 7a0:	5219                	li	tp,-26
 7a2:	0000                	unimp
 7a4:	f600                	sd	s0,40(a2)
 7a6:	000a                	c.slli	zero,0x2
	...
 7b0:	3c1d                	addiw	s8,s8,-25
 7b2:	0000                	unimp
 7b4:	0100                	addi	s0,sp,128
 7b6:	0618                	addi	a4,sp,768
 7b8:	00d4                	addi	a3,sp,68
 7ba:	8000                	.2byte	0x8000
 7bc:	0000                	unimp
 7be:	0000                	unimp
 7c0:	0068                	addi	a0,sp,12
 7c2:	0000                	unimp
 7c4:	0000                	unimp
 7c6:	0000                	unimp
 7c8:	9c01                	subw	s0,s0,s0
 7ca:	900a                	c.add	zero,sp
 7cc:	0000                	unimp
 7ce:	1800                	addi	s0,sp,48
 7d0:	2116                	fld	ft2,320(sp)
 7d2:	0004                	.2byte	0x4
 7d4:	2e00                	fld	fs0,24(a2)
 7d6:	0a00000b          	.4byte	0xa00000b
 7da:	010e                	slli	sp,sp,0x3
 7dc:	0000                	unimp
 7de:	2618                	fld	fa4,8(a2)
 7e0:	0421                	addi	s0,s0,8
 7e2:	0000                	unimp
 7e4:	0b58                	addi	a4,sp,404
 7e6:	0000                	unimp
 7e8:	d70a                	sw	sp,172(sp)
 7ea:	0001                	nop
 7ec:	1800                	addi	s0,sp,48
 7ee:	00042137          	lui	sp,0x42
 7f2:	7f00                	ld	s0,56(a4)
 7f4:	0100000b          	.4byte	0x100000b
 7f8:	000c                	.2byte	0xc
 7fa:	0000                	unimp
 7fc:	7902                	ld	s2,32(sp)
 7fe:	1900                	addi	s0,sp,176
 800:	520e                	lw	tp,224(sp)
 802:	0000                	unimp
 804:	a900                	fsd	fs0,16(a0)
 806:	0100000b          	.4byte	0x100000b
 80a:	0040                	addi	s0,sp,4
 80c:	0000                	unimp
 80e:	7802                	ld	a6,32(sp)
 810:	1a00                	addi	s0,sp,304
 812:	5212                	lw	tp,36(sp)
 814:	0000                	unimp
 816:	d100                	sw	s0,32(a0)
 818:	0100000b          	.4byte	0x100000b
 81c:	00000063          	beqz	zero,81c <_prog_start-0x7ffff7e4>
 820:	7302                	ld	t1,32(sp)
 822:	6d75                	lui	s10,0x1d
 824:	1b00                	addi	s0,sp,432
 826:	8615                	srai	a2,a2,0x5
 828:	0000                	unimp
 82a:	0e00                	addi	s0,sp,784
 82c:	000c                	.2byte	0xc
 82e:	0100                	addi	s0,sp,128
 830:	0086                	slli	ra,ra,0x1
 832:	0000                	unimp
 834:	6b02                	ld	s6,0(sp)
 836:	0079                	c.nop	30
 838:	161c                	addi	a5,sp,800
 83a:	0052                	c.slli	zero,0x14
 83c:	0000                	unimp
 83e:	0c49                	addi	s8,s8,18
 840:	0000                	unimp
 842:	ba01                	j	152 <_prog_start-0x7ffffeae>
 844:	0000                	unimp
 846:	0200                	addi	s0,sp,256
 848:	1d00786b          	.4byte	0x1d00786b
 84c:	521a                	lw	tp,164(sp)
 84e:	0000                	unimp
 850:	b300                	fsd	fs0,32(a4)
 852:	000c                	.2byte	0xc
 854:	0100                	addi	s0,sp,128
 856:	00dd                	addi	ra,ra,23
 858:	0000                	unimp
 85a:	0001ec03          	lwu	s8,0(gp)
 85e:	1e00                	addi	s0,sp,816
 860:	5219                	li	tp,-26
 862:	0000                	unimp
 864:	0100                	addi	s0,sp,128
 866:	000d                	c.nop	3
 868:	0300                	addi	s0,sp,384
 86a:	000001e7          	jalr	gp,zero # 0 <_prog_start-0x80000000>
 86e:	191f 0052 0000      	.byte	0x1f, 0x19, 0x52, 0x00, 0x00, 0x00
 874:	00000d3f 00000000 	.8byte	0xd3f
 87c:	0000                	unimp
 87e:	0000                	unimp
 880:	0482                	c.slli64	s1
 882:	0000                	unimp
 884:	0005                	c.nop	1
 886:	0801                	addi	a6,a6,0
 888:	01a4                	addi	s1,sp,200
 88a:	0000                	unimp
 88c:	00015017          	auipc	zero,0x15
 890:	1d00                	addi	s0,sp,688
 892:	0131                	addi	sp,sp,12 # 4200c <_prog_start-0x7ffbdff4>
 894:	0000                	unimp
 896:	0000                	unimp
 898:	0000                	unimp
 89a:	04e6                	slli	s1,s1,0x19
 89c:	8000                	.2byte	0x8000
 89e:	0000                	unimp
 8a0:	0000                	unimp
 8a2:	01c0                	addi	s0,sp,196
 8a4:	0000                	unimp
 8a6:	0000                	unimp
 8a8:	0000                	unimp
 8aa:	0cc6                	slli	s9,s9,0x11
 8ac:	0000                	unimp
 8ae:	0802                	c.slli64	a6
 8b0:	00009607          	.4byte	0x9607
 8b4:	0600                	addi	s0,sp,768
 8b6:	021d                	addi	tp,tp,7 # 7 <_prog_start-0x7ffffff9>
 8b8:	0000                	unimp
 8ba:	411b2803          	lw	a6,1041(s6)
 8be:	0000                	unimp
 8c0:	1800                	addi	s0,sp,48
 8c2:	f908                	sd	a0,48(a0)
 8c4:	0001                	nop
 8c6:	0600                	addi	s0,sp,768
 8c8:	0224                	addi	s1,sp,264
 8ca:	0000                	unimp
 8cc:	35186303          	lwu	t1,849(a6)
 8d0:	0000                	unimp
 8d2:	0200                	addi	s0,sp,256
 8d4:	0601                	addi	a2,a2,0
 8d6:	007e                	c.slli	zero,0x1f
 8d8:	0000                	unimp
 8da:	0102                	c.slli64	sp
 8dc:	7c08                	ld	a0,56(s0)
 8de:	0000                	unimp
 8e0:	0200                	addi	s0,sp,256
 8e2:	0502                	c.slli64	a0
 8e4:	0115                	addi	sp,sp,5
 8e6:	0000                	unimp
 8e8:	0202                	c.slli64	tp
 8ea:	0000a807          	flw	fa6,0(ra)
 8ee:	0600                	addi	s0,sp,768
 8f0:	0000020b          	.4byte	0x20b
 8f4:	4d04                	lw	s1,24(a0)
 8f6:	7b18                	ld	a4,48(a4)
 8f8:	0000                	unimp
 8fa:	1900                	addi	s0,sp,176
 8fc:	0504                	addi	s1,sp,640
 8fe:	6e69                	lui	t3,0x1a
 900:	0074                	addi	a3,sp,12
 902:	bb06                	fsd	ft1,432(sp)
 904:	0000                	unimp
 906:	0400                	addi	s0,sp,512
 908:	008e194f          	fnmadd.s	fs2,ft8,fs0,ft0,rtz
 90c:	0000                	unimp
 90e:	0402                	c.slli64	s0
 910:	00009b07          	.4byte	0x9b07
 914:	0200                	addi	s0,sp,256
 916:	0508                	addi	a0,sp,640
 918:	0135                	addi	sp,sp,13
 91a:	0000                	unimp
 91c:	0d06                	slli	s10,s10,0x1
 91e:	0002                	c.slli64	zero
 920:	0500                	addi	s0,sp,640
 922:	132c                	addi	a1,sp,424
 924:	0000006f          	j	924 <_prog_start-0x7ffff6dc>
 928:	bd06                	fsd	ft1,184(sp)
 92a:	0000                	unimp
 92c:	0500                	addi	s0,sp,640
 92e:	1430                	addi	a2,sp,552
 930:	0082                	c.slli64	ra
 932:	0000                	unimp
 934:	a81a                	fsd	ft6,16(sp)
 936:	0000                	unimp
 938:	1b00                	addi	s0,sp,432
 93a:	0130                	addi	a2,sp,136
 93c:	0000                	unimp
 93e:	1302                	slli	t1,t1,0x20
 940:	ce22                	sw	s0,28(sp)
 942:	0000                	unimp
 944:	0000                	unimp
 946:	0000                	unimp
 948:	0c64                	addi	s1,sp,540
 94a:	00b4                	addi	a3,sp,72
 94c:	0000                	unimp
 94e:	c90d                	beqz	a0,980 <_prog_start-0x7ffff680>
 950:	0000                	unimp
 952:	0e00                	addi	s0,sp,784
 954:	006a                	c.slli	zero,0x1a
 956:	0000                	unimp
 958:	2416                	fld	fs0,320(sp)
 95a:	0005                	c.nop	1
 95c:	0080                	addi	s0,sp,64
 95e:	0000                	unimp
 960:	8200                	.2byte	0x8200
 962:	0001                	nop
 964:	0000                	unimp
 966:	0000                	unimp
 968:	0100                	addi	s0,sp,128
 96a:	399c                	fld	fa5,48(a1)
 96c:	0f000003          	lb	zero,240(zero) # f0 <_prog_start-0x7fffff10>
 970:	6d66                	ld	s10,88(sp)
 972:	0074                	addi	a3,sp,12
 974:	1a16                	slli	s4,s4,0x25
 976:	0339                	addi	t1,t1,14
 978:	0000                	unimp
 97a:	0d88                	addi	a0,sp,720
 97c:	0000                	unimp
 97e:	101c                	addi	a5,sp,32
 980:	6c76                	ld	s8,344(sp)
 982:	1800                	addi	s0,sp,48
 984:	00000047          	fmsub.s	ft0,ft0,ft0,ft0,rne
 988:	7ef89103          	lh	sp,2031(a7) # 17ef <_prog_start-0x7fffe811>
 98c:	2c11                	addiw	s8,s8,4
 98e:	0002                	c.slli64	zero
 990:	0700                	addi	s0,sp,896
 992:	034a                	slli	t1,t1,0x12
 994:	0000                	unimp
 996:	00000dd7          	.4byte	0xdd7
 99a:	151d                	addi	a0,a0,-25
 99c:	0002                	c.slli64	zero
 99e:	0100                	addi	s0,sp,128
 9a0:	1219                	addi	tp,tp,-26 # ffffffffffffffe6 <kprintf+0xffffffff7ffffac2>
 9a2:	034a                	slli	t1,t1,0x12
 9a4:	0000                	unimp
 9a6:	1100                	addi	s0,sp,160
 9a8:	01f1                	addi	gp,gp,28
 9aa:	0000                	unimp
 9ac:	00034a1b          	.4byte	0x34a1b
 9b0:	8500                	.2byte	0x8500
 9b2:	000e                	c.slli	zero,0x3
 9b4:	0500                	addi	s0,sp,640
 9b6:	071a0063          	beq	s4,a7,a16 <_prog_start-0x7ffff5ea>
 9ba:	033e                	slli	t1,t1,0xf
 9bc:	0000                	unimp
 9be:	00000f33          	add	t5,zero,zero
 9c2:	570a                	lw	a4,160(sp)
 9c4:	0b000007          	.4byte	0xb000007
 9c8:	05000003          	lb	zero,80(zero) # 50 <_prog_start-0x7fffffb0>
 9cc:	006e                	c.slli	zero,0x1b
 9ce:	1324                	addi	s1,sp,424
 9d0:	002e                	c.slli	zero,0xb
 9d2:	0000                	unimp
 9d4:	0f6d                	addi	t5,t5,27 # fffffffffffe301b <kprintf+0xffffffff7ffe2af7>
 9d6:	0000                	unimp
 9d8:	6310                	ld	a2,0(a4)
 9da:	2600                	fld	fs0,8(a2)
 9dc:	0351                	addi	t1,t1,20
 9de:	0000                	unimp
 9e0:	7f809103          	lh	sp,2040(ra)
 9e4:	4b0a                	lw	s6,128(sp)
 9e6:	0008                	.2byte	0x8
 9e8:	7800                	ld	s0,48(s0)
 9ea:	0001                	nop
 9ec:	0900                	addi	s0,sp,144
 9ee:	0069                	c.nop	26
 9f0:	2701                	sext.w	a4,a4
 9f2:	7b0e                	ld	s6,224(sp)
 9f4:	0000                	unimp
 9f6:	0000                	unimp
 9f8:	5a12                	lw	s4,36(sp)
 9fa:	0006                	c.slli	zero,0x1
 9fc:	0080                	addi	s0,sp,64
 9fe:	0000                	unimp
 a00:	1400                	addi	s0,sp,544
 a02:	0000                	unimp
 a04:	0000                	unimp
 a06:	0000                	unimp
 a08:	9b00                	.2byte	0x9b00
 a0a:	0001                	nop
 a0c:	0500                	addi	s0,sp,640
 a0e:	0069                	c.nop	26
 a10:	0f2d                	addi	t5,t5,11
 a12:	0000007b          	.4byte	0x7b
 a16:	0fc5                	addi	t6,t6,17
 a18:	0000                	unimp
 a1a:	1200                	addi	s0,sp,288
 a1c:	068e                	slli	a3,a3,0x3
 a1e:	8000                	.2byte	0x8000
 a20:	0000                	unimp
 a22:	0000                	unimp
 a24:	0018                	.2byte	0x18
 a26:	0000                	unimp
 a28:	0000                	unimp
 a2a:	0000                	unimp
 a2c:	01e9                	addi	gp,gp,26
 a2e:	0000                	unimp
 a30:	6905                	lui	s2,0x1
 a32:	3100                	fld	fs0,32(a0)
 a34:	7b0e                	ld	s6,224(sp)
 a36:	0000                	unimp
 a38:	f600                	sd	s0,40(a2)
 a3a:	0700000f          	fence	orw,unknown
 a3e:	045c                	addi	a5,sp,516
 a40:	0000                	unimp
 a42:	068e                	slli	a3,a3,0x3
 a44:	8000                	.2byte	0x8000
 a46:	0000                	unimp
 a48:	0000                	unimp
 a4a:	000e                	c.slli	zero,0x3
 a4c:	0000                	unimp
 a4e:	0000                	unimp
 a50:	0000                	unimp
 a52:	2531                	addiw	a0,a0,12
 a54:	00046503          	lwu	a0,0(s0)
 a58:	0400                	addi	s0,sp,512
 a5a:	0000046f          	jal	s0,a5a <_prog_start-0x7ffff5a6>
 a5e:	7a01                	lui	s4,0xfffe0
 a60:	0004                	.2byte	0x4
 a62:	1200                	addi	s0,sp,288
 a64:	0010                	.2byte	0x10
 a66:	0000                	unimp
 a68:	0a00                	addi	s0,sp,272
 a6a:	000007bf 0000024d 	.8byte	0x24d000007bf
 a72:	6e05                	lui	t3,0x1
 a74:	3700                	fld	fs0,40(a4)
 a76:	00002e13          	slti	t3,zero,0
 a7a:	2600                	fld	fs0,8(a2)
 a7c:	0010                	.2byte	0x10
 a7e:	0500                	addi	s0,sp,640
 a80:	0069                	c.nop	26
 a82:	0a38                	addi	a4,sp,280
 a84:	0095                	addi	ra,ra,5
 a86:	0000                	unimp
 a88:	1060                	addi	s0,sp,44
 a8a:	0000                	unimp
 a8c:	e208                	sd	a0,0(a2)
 a8e:	05000007          	.4byte	0x5000007
 a92:	0064                	addi	s1,sp,12
 a94:	0b41                	addi	s6,s6,16
 a96:	0095                	addi	ra,ra,5
 a98:	0000                	unimp
 a9a:	1074                	addi	a3,sp,44
 a9c:	0000                	unimp
 a9e:	00045c13          	srli	s8,s0,0x0
 aa2:	ae00                	fsd	fs0,24(a2)
 aa4:	0005                	c.nop	1
 aa6:	0080                	addi	s0,sp,64
 aa8:	0000                	unimp
 aaa:	0500                	addi	s0,sp,640
 aac:	0008                	.2byte	0x8
 aae:	4300                	lw	s0,0(a4)
 ab0:	0306                	slli	t1,t1,0x1
 ab2:	0465                	addi	s0,s0,25
 ab4:	0000                	unimp
 ab6:	0508                	addi	a0,sp,640
 ab8:	0008                	.2byte	0x8
 aba:	0400                	addi	s0,sp,512
 abc:	0000046f          	jal	s0,abc <_prog_start-0x7ffff544>
 ac0:	7a01                	lui	s4,0xfffe0
 ac2:	0004                	.2byte	0x4
 ac4:	8800                	.2byte	0x8800
 ac6:	0010                	.2byte	0x10
 ac8:	0000                	unimp
 aca:	0000                	unimp
 acc:	1400                	addi	s0,sp,544
 ace:	045c                	addi	a5,sp,516
 ad0:	0000                	unimp
 ad2:	0574                	addi	a3,sp,652
 ad4:	8000                	.2byte	0x8000
 ad6:	0000                	unimp
 ad8:	0000                	unimp
 ada:	0000078b          	.4byte	0x78b
 ade:	0002854b          	fnmsub.s	fa0,ft5,ft0,ft0,rne
 ae2:	0b00                	addi	s0,sp,400
 ae4:	0465                	addi	s0,s0,25
 ae6:	0000                	unimp
 ae8:	109c                	addi	a5,sp,96
 aea:	0000                	unimp
 aec:	8b08                	.2byte	0x8b08
 aee:	01000007          	.4byte	0x1000007
 af2:	0000046f          	jal	s0,af2 <_prog_start-0x7ffff50e>
 af6:	10b0                	addi	a2,sp,104
 af8:	0000                	unimp
 afa:	7a01                	lui	s4,0xfffe0
 afc:	0004                	.2byte	0x4
 afe:	c700                	sw	s0,8(a4)
 b00:	0010                	.2byte	0x10
 b02:	0000                	unimp
 b04:	1400                	addi	s0,sp,544
 b06:	043a                	slli	s0,s0,0xe
 b08:	0000                	unimp
 b0a:	05de                	slli	a1,a1,0x17
 b0c:	8000                	.2byte	0x8000
 b0e:	0000                	unimp
 b10:	0000                	unimp
 b12:	0828                	addi	a0,sp,24
 b14:	0000                	unimp
 b16:	df48                	sw	a0,60(a4)
 b18:	0002                	c.slli64	zero
 b1a:	0b00                	addi	s0,sp,400
 b1c:	00000447          	fmsub.s	fs0,ft0,ft0,ft0,rne
 b20:	000010db          	.4byte	0x10db
 b24:	2808                	fld	fa0,16(s0)
 b26:	0008                	.2byte	0x8
 b28:	0100                	addi	s0,sp,128
 b2a:	0451                	addi	s0,s0,20
 b2c:	0000                	unimp
 b2e:	000010ef          	jal	ra,1b2e <_prog_start-0x7fffe4d2>
 b32:	00045c07          	.4byte	0x45c07
 b36:	e800                	sd	s0,16(s0)
 b38:	0005                	c.nop	1
 b3a:	0080                	addi	s0,sp,64
 b3c:	0000                	unimp
 b3e:	0e00                	addi	s0,sp,784
 b40:	0000                	unimp
 b42:	0000                	unimp
 b44:	0000                	unimp
 b46:	0c00                	addi	s0,sp,528
 b48:	04650303          	lb	t1,70(a0)
 b4c:	0000                	unimp
 b4e:	6f04                	ld	s1,24(a4)
 b50:	0004                	.2byte	0x4
 b52:	0100                	addi	s0,sp,128
 b54:	047a                	slli	s0,s0,0x1e
 b56:	0000                	unimp
 b58:	1116                	slli	sp,sp,0x25
 b5a:	0000                	unimp
 b5c:	0000                	unimp
 b5e:	0700                	addi	s0,sp,896
 b60:	045c                	addi	a5,sp,516
 b62:	0000                	unimp
 b64:	061e                	slli	a2,a2,0x7
 b66:	8000                	.2byte	0x8000
 b68:	0000                	unimp
 b6a:	0000                	unimp
 b6c:	0014                	.2byte	0x14
 b6e:	0000                	unimp
 b70:	0000                	unimp
 b72:	0000                	unimp
 b74:	0629                	addi	a2,a2,10
 b76:	00046503          	lwu	a0,0(s0)
 b7a:	0400                	addi	s0,sp,512
 b7c:	0000046f          	jal	s0,b7c <_prog_start-0x7ffff484>
 b80:	7a01                	lui	s4,0xfffe0
 b82:	0004                	.2byte	0x4
 b84:	2a00                	fld	fs0,16(a2)
 b86:	0011                	c.nop	4
 b88:	0000                	unimp
 b8a:	1300                	addi	s0,sp,416
 b8c:	045c                	addi	a5,sp,516
 b8e:	0000                	unimp
 b90:	054a                	slli	a0,a0,0x12
 b92:	8000                	.2byte	0x8000
 b94:	0000                	unimp
 b96:	0000                	unimp
 b98:	0734                	addi	a3,sp,904
 b9a:	0000                	unimp
 b9c:	0454                	addi	a3,sp,516
 b9e:	00046503          	lwu	a0,0(s0)
 ba2:	0800                	addi	s0,sp,16
 ba4:	0734                	addi	a3,sp,904
 ba6:	0000                	unimp
 ba8:	6f04                	ld	s1,24(a4)
 baa:	0004                	.2byte	0x4
 bac:	0100                	addi	s0,sp,128
 bae:	047a                	slli	s0,s0,0x1e
 bb0:	0000                	unimp
 bb2:	113e                	slli	sp,sp,0x2f
 bb4:	0000                	unimp
 bb6:	0000                	unimp
 bb8:	0c00                	addi	s0,sp,528
 bba:	0345                	addi	t1,t1,17
 bbc:	0000                	unimp
 bbe:	0102                	c.slli64	sp
 bc0:	8508                	.2byte	0x8508
 bc2:	0000                	unimp
 bc4:	0d00                	addi	s0,sp,656
 bc6:	033e                	slli	t1,t1,0xf
 bc8:	0000                	unimp
 bca:	0102                	c.slli64	sp
 bcc:	4302                	lw	t1,0(sp)
 bce:	0002                	c.slli64	zero
 bd0:	1e00                	addi	s0,sp,816
 bd2:	033e                	slli	t1,t1,0xf
 bd4:	0000                	unimp
 bd6:	0361                	addi	t1,t1,24
 bd8:	0000                	unimp
 bda:	2e1f 0000 3f00      	.byte	0x1f, 0x2e, 0x00, 0x00, 0x00, 0x3f
 be0:	0e00                	addi	s0,sp,784
 be2:	00000237          	lui	tp,0x0
 be6:	0004e60f          	.4byte	0x4e60f
 bea:	0080                	addi	s0,sp,64
 bec:	0000                	unimp
 bee:	3e00                	fld	fs0,56(a2)
 bf0:	0000                	unimp
 bf2:	0000                	unimp
 bf4:	0000                	unimp
 bf6:	0100                	addi	s0,sp,128
 bf8:	3a9c                	fld	fa5,48(a3)
 bfa:	0004                	.2byte	0x4
 bfc:	0f00                	addi	s0,sp,912
 bfe:	180f0073          	.4byte	0x180f0073
 c02:	0339                	addi	t1,t1,14
 c04:	0000                	unimp
 c06:	1165                	addi	sp,sp,-7
 c08:	0000                	unimp
 c0a:	3a15                	addiw	s4,s4,-27 # fffffffffffdffe5 <kprintf+0xffffffff7ffdfac1>
 c0c:	0004                	.2byte	0x4
 c0e:	e600                	sd	s0,8(a2)
 c10:	0004                	.2byte	0x4
 c12:	0080                	addi	s0,sp,64
 c14:	0000                	unimp
 c16:	1c00                	addi	s0,sp,560
 c18:	0000                	unimp
 c1a:	0000                	unimp
 c1c:	0000                	unimp
 c1e:	1100                	addi	s0,sp,160
 c20:	03e2                	slli	t2,t2,0x18
 c22:	0000                	unimp
 c24:	0004470b          	.4byte	0x4470b
 c28:	8f00                	.2byte	0x8f00
 c2a:	0011                	c.nop	4
 c2c:	0100                	addi	s0,sp,128
 c2e:	0451                	addi	s0,s0,20
 c30:	0000                	unimp
 c32:	000011a3          	sh	zero,3(zero) # 3 <_prog_start-0x7ffffffd>
 c36:	00045c07          	.4byte	0x45c07
 c3a:	ec00                	sd	s0,24(s0)
 c3c:	0004                	.2byte	0x4
 c3e:	0080                	addi	s0,sp,64
 c40:	0000                	unimp
 c42:	0e00                	addi	s0,sp,784
 c44:	0000                	unimp
 c46:	0000                	unimp
 c48:	0000                	unimp
 c4a:	0c00                	addi	s0,sp,528
 c4c:	04650303          	lb	t1,70(a0)
 c50:	0000                	unimp
 c52:	6f04                	ld	s1,24(a4)
 c54:	0004                	.2byte	0x4
 c56:	0100                	addi	s0,sp,128
 c58:	047a                	slli	s0,s0,0x1e
 c5a:	0000                	unimp
 c5c:	11ca                	slli	gp,gp,0x32
 c5e:	0000                	unimp
 c60:	0000                	unimp
 c62:	5c15                	li	s8,-27
 c64:	0004                	.2byte	0x4
 c66:	0200                	addi	s0,sp,256
 c68:	0005                	c.nop	1
 c6a:	0080                	addi	s0,sp,64
 c6c:	0000                	unimp
 c6e:	1000                	addi	s0,sp,32
 c70:	0000                	unimp
 c72:	0000                	unimp
 c74:	0000                	unimp
 c76:	1200                	addi	s0,sp,288
 c78:	0410                	addi	a2,sp,512
 c7a:	0000                	unimp
 c7c:	00046503          	lwu	a0,0(s0)
 c80:	0400                	addi	s0,sp,512
 c82:	0000046f          	jal	s0,c82 <_prog_start-0x7ffff37e>
 c86:	7a01                	lui	s4,0xfffe0
 c88:	0004                	.2byte	0x4
 c8a:	de00                	sw	s0,56(a2)
 c8c:	0011                	c.nop	4
 c8e:	0000                	unimp
 c90:	00045c07          	.4byte	0x45c07
 c94:	1200                	addi	s0,sp,288
 c96:	0005                	c.nop	1
 c98:	0080                	addi	s0,sp,64
 c9a:	0000                	unimp
 c9c:	1000                	addi	s0,sp,32
 c9e:	0000                	unimp
 ca0:	0000                	unimp
 ca2:	0000                	unimp
 ca4:	1300                	addi	s0,sp,416
 ca6:	0302                	c.slli64	t1
 ca8:	0465                	addi	s0,s0,25
 caa:	0000                	unimp
 cac:	6f04                	ld	s1,24(a4)
 cae:	0004                	.2byte	0x4
 cb0:	2000                	fld	fs0,0(s0)
 cb2:	047a                	slli	s0,s0,0x1e
 cb4:	0000                	unimp
 cb6:	5f01                	li	t5,-32
 cb8:	0000                	unimp
 cba:	3621                	addiw	a2,a2,-24
 cbc:	0002                	c.slli64	zero
 cbe:	0100                	addi	s0,sp,128
 cc0:	1408                	addi	a0,sp,544
 cc2:	00045c03          	lhu	s8,0(s0)
 cc6:	1600                	addi	s0,sp,800
 cc8:	08010073          	.4byte	0x8010073
 ccc:	00033927          	fsd	ft0,18(t1)
 cd0:	0900                	addi	s0,sp,144
 cd2:	0a010063          	beqz	sp,d72 <_prog_start-0x7ffff28e>
 cd6:	00033e07          	fld	ft8,0(t1)
 cda:	0000                	unimp
 cdc:	3d22                	fld	fs10,40(sp)
 cde:	0002                	c.slli64	zero
 ce0:	0200                	addi	s0,sp,256
 ce2:	1415                	addi	s0,s0,-27
 ce4:	00631603          	lh	a2,6(t1)
 ce8:	1502                	slli	a0,a0,0x20
 cea:	3e1f 0003 0900      	.byte	0x1f, 0x3e, 0x03, 0x00, 0x00, 0x09
 cf0:	7874                	ld	a3,240(s0)
 cf2:	0200                	addi	s0,sp,256
 cf4:	00c91517          	auipc	a0,0xc91
 cf8:	0000                	unimp
 cfa:	7209                	lui	tp,0xfffe2
 cfc:	0200                	addi	s0,sp,256
 cfe:	0a19                	addi	s4,s4,6 # fffffffffffe0006 <kprintf+0xffffffff7ffdfae2>
 d00:	009c                	addi	a5,sp,64
 d02:	0000                	unimp
	...

Disassembly of section .debug_abbrev:

0000000000000000 <.debug_abbrev>:
   0:	1101                	addi	sp,sp,-32
   2:	1000                	addi	s0,sp,32
   4:	12011117          	auipc	sp,0x12011
   8:	1b0e030f          	.4byte	0x1b0e030f
   c:	250e                	fld	fa0,192(sp)
   e:	130e                	slli	t1,t1,0x23
  10:	0005                	c.nop	1
  12:	0000                	unimp
  14:	0b01                	addi	s6,s6,0
  16:	5501                	li	a0,-32
  18:	02000017          	auipc	zero,0x2000
  1c:	0034                	addi	a3,sp,8
  1e:	213a0803          	lb	a6,531(s4)
  22:	3b01                	addiw	s6,s6,-32
  24:	490b390b          	.4byte	0x490b390b
  28:	00170213          	addi	tp,a4,1
  2c:	0300                	addi	s0,sp,384
  2e:	0034                	addi	a3,sp,8
  30:	213a0e03          	lb	t3,531(s4)
  34:	3b01                	addiw	s6,s6,-32
  36:	490b390b          	.4byte	0x490b390b
  3a:	00170213          	addi	tp,a4,1
  3e:	0400                	addi	s0,sp,512
  40:	0034                	addi	a3,sp,8
  42:	0b3a0e03          	lb	t3,179(s4)
  46:	0b390b3b          	.4byte	0xb390b3b
  4a:	1349                	addi	t1,t1,-14
  4c:	061c                	addi	a5,sp,768
  4e:	0000                	unimp
  50:	4905                	li	s2,1
  52:	0200                	addi	s0,sp,256
  54:	7e18                	ld	a4,56(a2)
  56:	0018                	.2byte	0x18
  58:	0600                	addi	s0,sp,768
  5a:	0024                	addi	s1,sp,8
  5c:	0b3e0b0b          	.4byte	0xb3e0b0b
  60:	00000e03          	lb	t3,0(zero) # 0 <_prog_start-0x80000000>
  64:	03001607          	.4byte	0x3001607
  68:	3a0e                	fld	fs4,224(sp)
  6a:	390b3b0b          	.4byte	0x390b3b0b
  6e:	0013490b          	.4byte	0x13490b
  72:	0800                	addi	s0,sp,16
  74:	0111010b          	.4byte	0x111010b
  78:	0712                	slli	a4,a4,0x4
  7a:	1301                	addi	t1,t1,-32
  7c:	0000                	unimp
  7e:	0f09                	addi	t5,t5,2
  80:	0b00                	addi	s0,sp,400
  82:	0821                	addi	a6,a6,8
  84:	1349                	addi	t1,t1,-14
  86:	0000                	unimp
  88:	050a                	slli	a0,a0,0x2
  8a:	0300                	addi	s0,sp,384
  8c:	3a0e                	fld	fs4,224(sp)
  8e:	0121                	addi	sp,sp,8 # 1201100c <_prog_start-0x6dfeeff4>
  90:	0b390b3b          	.4byte	0xb390b3b
  94:	1349                	addi	t1,t1,-14
  96:	1702                	slli	a4,a4,0x20
  98:	0000                	unimp
  9a:	55010b0b          	.4byte	0x55010b0b
  9e:	00130117          	auipc	sp,0x130
  a2:	0c00                	addi	s0,sp,528
  a4:	0148                	addi	a0,sp,132
  a6:	017d                	addi	sp,sp,31 # 1300bd <_prog_start-0x7fecff43>
  a8:	137f                	.2byte	0x137f
  aa:	1301                	addi	t1,t1,-32
  ac:	0000                	unimp
  ae:	2e0d                	addiw	t3,t3,3 # 1003 <_prog_start-0x7fffeffd>
  b0:	3f01                	addiw	t5,t5,-32
  b2:	0319                	addi	t1,t1,6
  b4:	3a0e                	fld	fs4,224(sp)
  b6:	0121                	addi	sp,sp,8
  b8:	21390b3b          	.4byte	0x21390b3b
  bc:	1106                	slli	sp,sp,0x21
  be:	1201                	addi	tp,tp,-32 # fffffffffffe1fe0 <kprintf+0xffffffff7ffe1abc>
  c0:	7a184007          	.4byte	0x7a184007
  c4:	0119                	addi	sp,sp,6
  c6:	0e000013          	li	zero,224
  ca:	0026                	c.slli	zero,0x9
  cc:	1349                	addi	t1,t1,-14
  ce:	0000                	unimp
  d0:	2501110f          	.4byte	0x2501110f
  d4:	130e                	slli	t1,t1,0x23
  d6:	1b1f030b          	.4byte	0x1b1f030b
  da:	551f 1117 1001      	.byte	0x1f, 0x55, 0x17, 0x11, 0x01, 0x10
  e0:	10000017          	auipc	zero,0x10000
  e4:	0024                	addi	s1,sp,8
  e6:	0b3e0b0b          	.4byte	0xb3e0b0b
  ea:	00000803          	lb	a6,0(zero) # 0 <_prog_start-0x80000000>
  ee:	3511                	addiw	a0,a0,-28 # c91cd8 <_prog_start-0x7f36e328>
  f0:	4900                	lw	s0,16(a0)
  f2:	12000013          	li	zero,288
  f6:	012e                	slli	sp,sp,0xb
  f8:	0e03193f 0b3b0b3a 	.8byte	0xb3b0b3a0e03193f
 100:	0b39                	addi	s6,s6,14
 102:	193c1927          	.4byte	0x193c1927
 106:	1301                	addi	t1,t1,-32
 108:	0000                	unimp
 10a:	49000513          	li	a0,1168
 10e:	14000013          	li	zero,320
 112:	0018                	.2byte	0x18
 114:	0000                	unimp
 116:	2e15                	addiw	t3,t3,5
 118:	3f01                	addiw	t5,t5,-32
 11a:	0319                	addi	t1,t1,6
 11c:	3a0e                	fld	fs4,224(sp)
 11e:	390b3b0b          	.4byte	0x390b3b0b
 122:	4919270b          	.4byte	0x4919270b
 126:	12011113          	.4byte	0x12011113
 12a:	7a184007          	.4byte	0x7a184007
 12e:	0119                	addi	sp,sp,6
 130:	16000013          	li	zero,352
 134:	0005                	c.nop	1
 136:	0b3a0803          	lb	a6,179(s4)
 13a:	0b390b3b          	.4byte	0xb390b3b
 13e:	1349                	addi	t1,t1,-14
 140:	1702                	slli	a4,a4,0x20
 142:	0000                	unimp
 144:	03003417          	auipc	s0,0x3003
 148:	3a08                	fld	fa0,48(a2)
 14a:	390b3b0b          	.4byte	0x390b3b0b
 14e:	1c13490b          	.4byte	0x1c13490b
 152:	0006                	c.slli	zero,0x1
 154:	1800                	addi	s0,sp,48
 156:	0034                	addi	a3,sp,8
 158:	0b3a0e03          	lb	t3,179(s4)
 15c:	0b390b3b          	.4byte	0xb390b3b
 160:	1349                	addi	t1,t1,-14
 162:	1802                	slli	a6,a6,0x20
 164:	0000                	unimp
 166:	4819                	li	a6,6
 168:	7d00                	ld	s0,56(a0)
 16a:	7f01                	lui	t5,0xfffe0
 16c:	1a000013          	li	zero,416
 170:	0148                	addi	a0,sp,132
 172:	017d                	addi	sp,sp,31
 174:	137f                	.2byte	0x137f
 176:	0000                	unimp
 178:	4901011b          	addiw	sp,sp,1168
 17c:	00130113          	addi	sp,t1,1
 180:	1c00                	addi	s0,sp,560
 182:	0021                	c.nop	8
 184:	1349                	addi	t1,t1,-14
 186:	0000052f          	.4byte	0x52f
 18a:	2e1d                	addiw	t3,t3,7
 18c:	3f01                	addiw	t5,t5,-32 # fffffffffffdffe0 <kprintf+0xffffffff7ffdfabc>
 18e:	0319                	addi	t1,t1,6
 190:	3a0e                	fld	fs4,224(sp)
 192:	390b3b0b          	.4byte	0x390b3b0b
 196:	1119270b          	.4byte	0x1119270b
 19a:	1201                	addi	tp,tp,-32 # ffffffffffffffe0 <kprintf+0xffffffff7ffffabc>
 19c:	7a184007          	.4byte	0x7a184007
 1a0:	0019                	c.nop	6
 1a2:	0000                	unimp
 1a4:	3401                	addiw	s0,s0,-32 # 3003124 <_prog_start-0x7cffcedc>
 1a6:	3100                	fld	fs0,32(a0)
 1a8:	00170213          	addi	tp,a4,1
 1ac:	0200                	addi	s0,sp,256
 1ae:	0024                	addi	s1,sp,8
 1b0:	0b3e0b0b          	.4byte	0xb3e0b0b
 1b4:	00000e03          	lb	t3,0(zero) # 0 <_prog_start-0x80000000>
 1b8:	31000503          	lb	a0,784(zero) # 310 <_prog_start-0x7ffffcf0>
 1bc:	04000013          	li	zero,64
 1c0:	0034                	addi	a3,sp,8
 1c2:	1331                	addi	t1,t1,-20
 1c4:	0000                	unimp
 1c6:	3405                	addiw	s0,s0,-31
 1c8:	0300                	addi	s0,sp,384
 1ca:	3a08                	fld	fa0,48(a2)
 1cc:	0121                	addi	sp,sp,8
 1ce:	0b390b3b          	.4byte	0xb390b3b
 1d2:	1349                	addi	t1,t1,-14
 1d4:	1702                	slli	a4,a4,0x20
 1d6:	0000                	unimp
 1d8:	1606                	slli	a2,a2,0x21
 1da:	0300                	addi	s0,sp,384
 1dc:	3a0e                	fld	fs4,224(sp)
 1de:	390b3b0b          	.4byte	0x390b3b0b
 1e2:	0013490b          	.4byte	0x13490b
 1e6:	0700                	addi	s0,sp,896
 1e8:	011d                	addi	sp,sp,7
 1ea:	1331                	addi	t1,t1,-20
 1ec:	0111                	addi	sp,sp,4
 1ee:	0712                	slli	a4,a4,0x4
 1f0:	2158                	fld	fa4,128(a0)
 1f2:	5901                	li	s2,-32
 1f4:	000b570b          	.4byte	0xb570b
 1f8:	0800                	addi	s0,sp,16
 1fa:	1755010b          	.4byte	0x1755010b
 1fe:	0000                	unimp
 200:	3409                	addiw	s0,s0,-30
 202:	0300                	addi	s0,sp,384
 204:	3a08                	fld	fa0,48(a2)
 206:	390b3b0b          	.4byte	0x390b3b0b
 20a:	0013490b          	.4byte	0x13490b
 20e:	0a00                	addi	s0,sp,272
 210:	1755010b          	.4byte	0x1755010b
 214:	1301                	addi	t1,t1,-32
 216:	0000                	unimp
 218:	3100050b          	.4byte	0x3100050b
 21c:	00170213          	addi	tp,a4,1
 220:	0c00                	addi	s0,sp,528
 222:	210b000f          	.4byte	0x210b000f
 226:	4908                	lw	a0,16(a0)
 228:	0d000013          	li	zero,208
 22c:	0026                	c.slli	zero,0x9
 22e:	1349                	addi	t1,t1,-14
 230:	0000                	unimp
 232:	2e0e                	fld	ft8,192(sp)
 234:	3f01                	addiw	t5,t5,-32
 236:	0319                	addi	t1,t1,6
 238:	3a0e                	fld	fs4,224(sp)
 23a:	0121                	addi	sp,sp,8
 23c:	21390b3b          	.4byte	0x21390b3b
 240:	2706                	fld	fa4,64(sp)
 242:	1119                	addi	sp,sp,-26
 244:	1201                	addi	tp,tp,-32 # ffffffffffffffe0 <kprintf+0xffffffff7ffffabc>
 246:	7a184007          	.4byte	0x7a184007
 24a:	0119                	addi	sp,sp,6
 24c:	0f000013          	li	zero,240
 250:	0005                	c.nop	1
 252:	213a0803          	lb	a6,531(s4)
 256:	3b01                	addiw	s6,s6,-32
 258:	490b390b          	.4byte	0x490b390b
 25c:	00170213          	addi	tp,a4,1
 260:	1000                	addi	s0,sp,32
 262:	0034                	addi	a3,sp,8
 264:	213a0803          	lb	a6,531(s4)
 268:	3b01                	addiw	s6,s6,-32
 26a:	0a21390b          	.4byte	0xa21390b
 26e:	1349                	addi	t1,t1,-14
 270:	1802                	slli	a6,a6,0x20
 272:	0000                	unimp
 274:	3411                	addiw	s0,s0,-28
 276:	0300                	addi	s0,sp,384
 278:	3a0e                	fld	fs4,224(sp)
 27a:	0121                	addi	sp,sp,8
 27c:	3919213b          	.4byte	0x3919213b
 280:	0213490b          	.4byte	0x213490b
 284:	12000017          	auipc	zero,0x12000
 288:	0111010b          	.4byte	0x111010b
 28c:	0712                	slli	a4,a4,0x4
 28e:	1301                	addi	t1,t1,-32
 290:	0000                	unimp
 292:	31011d13          	.4byte	0x31011d13
 296:	55015213          	.4byte	0x55015213
 29a:	01215817          	auipc	a6,0x1215
 29e:	0b59                	addi	s6,s6,22
 2a0:	00000b57          	.4byte	0xb57
 2a4:	1d14                	addi	a3,sp,688
 2a6:	3101                	addiw	sp,sp,-32
 2a8:	55015213          	.4byte	0x55015213
 2ac:	01215817          	auipc	a6,0x1215
 2b0:	0b59                	addi	s6,s6,22
 2b2:	01052157          	.4byte	0x1052157
 2b6:	15000013          	li	zero,336
 2ba:	011d                	addi	sp,sp,7
 2bc:	1331                	addi	t1,t1,-20
 2be:	0111                	addi	sp,sp,4
 2c0:	0712                	slli	a4,a4,0x4
 2c2:	2158                	fld	fa4,128(a0)
 2c4:	5901                	li	s2,-32
 2c6:	0221570b          	.4byte	0x221570b
 2ca:	1301                	addi	t1,t1,-32
 2cc:	0000                	unimp
 2ce:	0516                	slli	a0,a0,0x5
 2d0:	0300                	addi	s0,sp,384
 2d2:	3a08                	fld	fa0,48(a2)
 2d4:	390b3b0b          	.4byte	0x390b3b0b
 2d8:	0013490b          	.4byte	0x13490b
 2dc:	1700                	addi	s0,sp,928
 2de:	0111                	addi	sp,sp,4
 2e0:	0e25                	addi	t3,t3,9
 2e2:	1f030b13          	addi	s6,t1,496
 2e6:	01111f1b          	slliw	t5,sp,0x11
 2ea:	0712                	slli	a4,a4,0x4
 2ec:	1710                	addi	a2,sp,928
 2ee:	0000                	unimp
 2f0:	0f18                	addi	a4,sp,912
 2f2:	0b00                	addi	s0,sp,400
 2f4:	000e030b          	.4byte	0xe030b
 2f8:	1900                	addi	s0,sp,176
 2fa:	0024                	addi	s1,sp,8
 2fc:	0b3e0b0b          	.4byte	0xb3e0b0b
 300:	00000803          	lb	a6,0(zero) # 0 <_prog_start-0x80000000>
 304:	351a                	fld	fa0,416(sp)
 306:	4900                	lw	s0,16(a0)
 308:	1b000013          	li	zero,432
 30c:	0034                	addi	a3,sp,8
 30e:	0b3a0e03          	lb	t3,179(s4)
 312:	0b390b3b          	.4byte	0xb390b3b
 316:	1349                	addi	t1,t1,-14
 318:	061c                	addi	a5,sp,768
 31a:	0000                	unimp
 31c:	181c                	addi	a5,sp,48
 31e:	0000                	unimp
 320:	1d00                	addi	s0,sp,688
 322:	0034                	addi	a3,sp,8
 324:	0b3a0e03          	lb	t3,179(s4)
 328:	0b390b3b          	.4byte	0xb390b3b
 32c:	1349                	addi	t1,t1,-14
 32e:	0b1c                	addi	a5,sp,400
 330:	0000                	unimp
 332:	011e                	slli	sp,sp,0x7
 334:	4901                	li	s2,0
 336:	00130113          	addi	sp,t1,1
 33a:	1f00                	addi	s0,sp,944
 33c:	0021                	c.nop	8
 33e:	1349                	addi	t1,t1,-14
 340:	00000b2f          	.4byte	0xb2f
 344:	3420                	fld	fs0,104(s0)
 346:	3100                	fld	fs0,32(a0)
 348:	00180213          	addi	tp,a6,1 # 12152ad <_prog_start-0x7edead53>
 34c:	2100                	fld	fs0,0(a0)
 34e:	012e                	slli	sp,sp,0xb
 350:	0b3a0e03          	lb	t3,179(s4)
 354:	0b390b3b          	.4byte	0xb390b3b
 358:	0b201927          	.4byte	0xb201927
 35c:	1301                	addi	t1,t1,-32
 35e:	0000                	unimp
 360:	2e22                	fld	ft8,8(sp)
 362:	0301                	addi	t1,t1,0
 364:	3a0e                	fld	fs4,224(sp)
 366:	390b3b0b          	.4byte	0x390b3b0b
 36a:	2019270b          	.4byte	0x2019270b
 36e:	0000000b          	.4byte	0xb

Disassembly of section .debug_aranges:

0000000000000000 <.debug_aranges>:
   0:	002c                	addi	a1,sp,8
   2:	0000                	unimp
   4:	0002                	c.slli64	zero
   6:	0000                	unimp
   8:	0000                	unimp
   a:	0008                	.2byte	0x8
   c:	0000                	unimp
   e:	0000                	unimp
  10:	0000                	unimp
  12:	8000                	.2byte	0x8000
  14:	0000                	unimp
  16:	0000                	unimp
  18:	00d4                	addi	a3,sp,68
	...
  2e:	0000                	unimp
  30:	003c                	addi	a5,sp,8
  32:	0000                	unimp
  34:	0002                	c.slli64	zero
  36:	0029                	c.nop	10
  38:	0000                	unimp
  3a:	0008                	.2byte	0x8
  3c:	0000                	unimp
  3e:	0000                	unimp
  40:	00d4                	addi	a3,sp,68
  42:	8000                	.2byte	0x8000
  44:	0000                	unimp
  46:	0000                	unimp
  48:	02e0                	addi	s0,sp,332
  4a:	0000                	unimp
  4c:	0000                	unimp
  4e:	0000                	unimp
  50:	03b4                	addi	a3,sp,456
  52:	8000                	.2byte	0x8000
  54:	0000                	unimp
  56:	0000                	unimp
  58:	0132                	slli	sp,sp,0xc
	...
  6e:	0000                	unimp
  70:	002c                	addi	a1,sp,8
  72:	0000                	unimp
  74:	0002                	c.slli64	zero
  76:	0880                	addi	s0,sp,80
  78:	0000                	unimp
  7a:	0008                	.2byte	0x8
  7c:	0000                	unimp
  7e:	0000                	unimp
  80:	04e6                	slli	s1,s1,0x19
  82:	8000                	.2byte	0x8000
  84:	0000                	unimp
  86:	0000                	unimp
  88:	01c0                	addi	s0,sp,196
	...

Disassembly of section .debug_str:

0000000000000000 <.debug_str>:
   0:	30747263          	bgeu	s0,t2,304 <_prog_start-0x7ffffcfc>
   4:	532e                	lw	t1,232(sp)
   6:	2f00                	fld	fs0,24(a4)
   8:	6f68                	ld	a0,216(a4)
   a:	656d                	lui	a0,0x1b
   c:	6e69622f          	.4byte	0x6e69622f
  10:	6b68                	ld	a0,208(a4)
  12:	6569                	lui	a0,0x1a
  14:	6475                	lui	s0,0x1d
  16:	6f572f6f          	jal	t5,72f0a <_prog_start-0x7ff8d0f6>
  1a:	6b72                	ld	s6,280(sp)
  1c:	63617073          	csrci	0x636,2
  20:	2f65                	addiw	t5,t5,25
  22:	654e                	ld	a0,208(sp)
  24:	61724677          	.4byte	0x61724677
  28:	656d                	lui	a0,0x1b
  2a:	6b726f77          	.4byte	0x6b726f77
  2e:	6172662f          	.4byte	0x6172662f
  32:	656d                	lui	a0,0x1b
  34:	6b726f77          	.4byte	0x6b726f77
  38:	2f77732f          	.4byte	0x2f77732f
  3c:	766e6f63          	bltu	t3,t1,7ba <_prog_start-0x7ffff846>
  40:	6432                	ld	s0,264(sp)
  42:	4700                	lw	s0,8(a4)
  44:	554e                	lw	a0,240(sp)
  46:	4120                	lw	s0,64(a0)
  48:	2e322053          	.4byte	0x2e322053
  4c:	69003933          	.4byte	0x69003933
  50:	746e                	ld	s0,248(sp)
  52:	5f72                	lw	t5,60(sp)
  54:	72617473          	csrrci	s0,mhpmevent6h,2
  58:	0074                	addi	a3,sp,12
  5a:	5f5f 6975 746e      	.byte	0x5f, 0x5f, 0x75, 0x69, 0x6e, 0x74
  60:	5f38                	lw	a4,120(a4)
  62:	0074                	addi	a3,sp,12
  64:	5f74                	lw	a3,124(a4)
  66:	6e65                	lui	t3,0x19
  68:	0064                	addi	s1,sp,12
  6a:	6972706b          	.4byte	0x6972706b
  6e:	746e                	ld	s0,248(sp)
  70:	0066                	c.slli	zero,0x19
  72:	6e69                	lui	t3,0x1a
  74:	5f727473          	csrrci	s0,0x5f7,4
  78:	6e65                	lui	t3,0x19
  7a:	0064                	addi	s1,sp,12
  7c:	6e75                	lui	t3,0x1d
  7e:	6e676973          	csrrsi	s2,0x6e6,14
  82:	6465                	lui	s0,0x19
  84:	6320                	ld	s0,64(a4)
  86:	6168                	ld	a0,192(a0)
  88:	0072                	c.slli	zero,0x1c
  8a:	6e696c63          	bltu	s2,t1,782 <_prog_start-0x7ffff87e>
  8e:	0074                	addi	a3,sp,12
  90:	6e69                	lui	t3,0x1a
  92:	7570                	ld	a2,232(a0)
  94:	0074                	addi	a3,sp,12
  96:	6f6c                	ld	a1,216(a4)
  98:	676e                	ld	a4,216(sp)
  9a:	7520                	ld	s0,104(a0)
  9c:	736e                	ld	t1,248(sp)
  9e:	6769                	lui	a4,0x1a
  a0:	656e                	ld	a0,216(sp)
  a2:	2064                	fld	fs1,192(s0)
  a4:	6e69                	lui	t3,0x1a
  a6:	0074                	addi	a3,sp,12
  a8:	726f6873          	csrrsi	a6,mhpmevent6h,30
  ac:	2074                	fld	fa3,192(s0)
  ae:	6e75                	lui	t3,0x1d
  b0:	6e676973          	csrrsi	s2,0x6e6,14
  b4:	6465                	lui	s0,0x19
  b6:	6920                	ld	s0,80(a0)
  b8:	746e                	ld	s0,248(sp)
  ba:	5f00                	lw	s0,56(a4)
  bc:	755f 6e69 3374      	.byte	0x5f, 0x75, 0x69, 0x6e, 0x74, 0x33
  c2:	5f32                	lw	t5,44(sp)
  c4:	0074                	addi	a3,sp,12
  c6:	6e72656b          	.4byte	0x6e72656b
  ca:	6c65                	lui	s8,0x19
  cc:	315f 6b00 7265      	.byte	0x5f, 0x31, 0x00, 0x6b, 0x65, 0x72
  d2:	656e                	ld	a0,216(sp)
  d4:	5f6c                	lw	a1,124(a4)
  d6:	0032                	c.slli	zero,0xc
  d8:	6e72656b          	.4byte	0x6e72656b
  dc:	6c65                	lui	s8,0x19
  de:	335f 6d00 6961      	.byte	0x5f, 0x33, 0x00, 0x6d, 0x61, 0x69
  e4:	006e                	c.slli	zero,0x1b
  e6:	5f74                	lw	a3,124(a4)
  e8:	72617473          	csrrci	s0,mhpmevent6h,2
  ec:	0074                	addi	a3,sp,12
  ee:	7261                	lui	tp,0xffff8
  f0:	6b006367          	.4byte	0x6b006367
  f4:	7265                	lui	tp,0xffff9
  f6:	656e                	ld	a0,216(sp)
  f8:	5f6c                	lw	a1,124(a4)
  fa:	0030                	addi	a2,sp,8
  fc:	766e6f63          	bltu	t3,t1,87a <_prog_start-0x7ffff786>
 100:	6432                	ld	s0,264(sp)
 102:	305f 6300 6e6f      	.byte	0x5f, 0x30, 0x00, 0x63, 0x6f, 0x6e
 108:	3276                	fld	ft4,376(sp)
 10a:	5f64                	lw	s1,124(a4)
 10c:	0031                	c.nop	12
 10e:	6e72656b          	.4byte	0x6e72656b
 112:	6c65                	lui	s8,0x19
 114:	7300                	ld	s0,32(a4)
 116:	6f68                	ld	a0,216(a4)
 118:	7472                	ld	s0,312(sp)
 11a:	6920                	ld	s0,80(a0)
 11c:	746e                	ld	s0,248(sp)
 11e:	5f00                	lw	s0,56(a4)
 120:	755f 6e69 3674      	.byte	0x5f, 0x75, 0x69, 0x6e, 0x74, 0x36
 126:	5f34                	lw	a3,120(a4)
 128:	0074                	addi	a3,sp,12
 12a:	5f5f 6d74 0070      	.byte	0x5f, 0x5f, 0x74, 0x6d, 0x70, 0x00
 130:	6175                	addi	sp,sp,368
 132:	7472                	ld	s0,312(sp)
 134:	6c00                	ld	s0,24(s0)
 136:	20676e6f          	jal	t3,7633c <_prog_start-0x7ff89cc4>
 13a:	6e69                	lui	t3,0x1a
 13c:	0074                	addi	a3,sp,12
 13e:	766e6f63          	bltu	t3,t1,8bc <_prog_start-0x7ffff744>
 142:	6432                	ld	s0,264(sp)
 144:	325f 6300 6e6f      	.byte	0x5f, 0x32, 0x00, 0x63, 0x6f, 0x6e
 14a:	3276                	fld	ft4,376(sp)
 14c:	5f64                	lw	s1,124(a4)
 14e:	4e470033          	.4byte	0x4e470033
 152:	2055                	.2byte	0x2055
 154:	20313143          	fmadd.s	ft2,ft2,ft3,ft4,rup
 158:	3231                	addiw	tp,tp,-20 # ffffffffffff8fec <kprintf+0xffffffff7fff8ac8>
 15a:	322e                	fld	ft4,232(sp)
 15c:	302e                	fld	ft0,232(sp)
 15e:	2d20                	fld	fs0,88(a0)
 160:	636d                	lui	t1,0x1b
 162:	6f6d                	lui	t5,0x1b
 164:	6564                	ld	s1,200(a0)
 166:	3d6c                	fld	fa1,248(a0)
 168:	656d                	lui	a0,0x1b
 16a:	6164                	ld	s1,192(a0)
 16c:	796e                	ld	s2,248(sp)
 16e:	2d20                	fld	fs0,88(a0)
 170:	616d                	addi	sp,sp,240
 172:	6962                	ld	s2,24(sp)
 174:	6c3d                	lui	s8,0xf
 176:	3670                	fld	fa2,232(a2)
 178:	2034                	fld	fa3,64(s0)
 17a:	6d2d                	lui	s10,0xb
 17c:	7574                	ld	a3,232(a0)
 17e:	656e                	ld	a0,216(sp)
 180:	723d                	lui	tp,0xfffef
 182:	656b636f          	jal	t1,b67d8 <_prog_start-0x7ff49828>
 186:	2074                	fld	fa3,192(s0)
 188:	6d2d                	lui	s10,0xb
 18a:	7369                	lui	t1,0xffffa
 18c:	2d61                	addiw	s10,s10,24 # b018 <_prog_start-0x7fff4fe8>
 18e:	63657073          	csrci	0x636,10
 192:	323d                	addiw	tp,tp,-17 # fffffffffffeefef <kprintf+0xffffffff7ffeeacb>
 194:	322e                	fld	ft4,232(sp)
 196:	2d20                	fld	fs0,88(a0)
 198:	616d                	addi	sp,sp,240
 19a:	6372                	ld	t1,280(sp)
 19c:	3d68                	fld	fa0,248(a0)
 19e:	7672                	ld	a2,312(sp)
 1a0:	3436                	fld	fs0,360(sp)
 1a2:	6d69                	lui	s10,0x1a
 1a4:	6661                	lui	a2,0x18
 1a6:	6364                	ld	s1,192(a4)
 1a8:	2d20                	fld	fs0,88(a0)
 1aa:	4f2d2067          	.4byte	0x4f2d2067
 1ae:	6166                	ld	sp,88(sp)
 1b0:	2d207473          	csrrci	s0,0x2d2,0
 1b4:	3d647473          	csrrci	s0,0x3d6,8
 1b8:	31756e67          	.4byte	0x31756e67
 1bc:	2031                	.2byte	0x2031
 1be:	662d                	lui	a2,0xb
 1c0:	6f6e                	ld	t5,216(sp)
 1c2:	632d                	lui	t1,0xb
 1c4:	6f6d6d6f          	jal	s10,d68ba <_prog_start-0x7ff29746>
 1c8:	206e                	fld	ft0,216(sp)
 1ca:	662d                	lui	a2,0xb
 1cc:	6f6e                	ld	t5,216(sp)
 1ce:	622d                	lui	tp,0xb
 1d0:	6975                	lui	s2,0x1d
 1d2:	746c                	ld	a1,232(s0)
 1d4:	6e69                	lui	t3,0x1a
 1d6:	6f00                	ld	s0,24(a4)
 1d8:	7475                	lui	s0,0xffffd
 1da:	7570                	ld	a2,232(a0)
 1dc:	0074                	addi	a3,sp,12
 1de:	6e69                	lui	t3,0x1a
 1e0:	675f7473          	csrrci	s0,0x675,30
 1e4:	7061                	c.lui	zero,0xffff8
 1e6:	6900                	ld	s0,16(a0)
 1e8:	5f6e                	lw	t5,248(sp)
 1ea:	0078                	addi	a4,sp,12
 1ec:	6e69                	lui	t3,0x1a
 1ee:	795f 6900 5f73      	.byte	0x5f, 0x79, 0x00, 0x69, 0x73, 0x5f
 1f4:	72616863          	bltu	sp,t1,924 <_prog_start-0x7ffff6dc>
 1f8:	5f00                	lw	s0,56(a4)
 1fa:	625f 6975 746c      	.byte	0x5f, 0x62, 0x75, 0x69, 0x6c, 0x74
 200:	6e69                	lui	t3,0x1a
 202:	765f 5f61 696c      	.byte	0x5f, 0x76, 0x61, 0x5f, 0x6c, 0x69
 208:	5f007473          	csrrci	s0,0x5f0,0
 20c:	695f 746e 3233      	.byte	0x5f, 0x69, 0x6e, 0x74, 0x33, 0x32
 212:	745f 6900 5f73      	.byte	0x5f, 0x74, 0x00, 0x69, 0x73, 0x5f
 218:	6f6c                	ld	a1,216(a4)
 21a:	676e                	ld	a4,216(sp)
 21c:	5f00                	lw	s0,56(a4)
 21e:	675f 756e 5f63      	.byte	0x5f, 0x67, 0x6e, 0x75, 0x63, 0x5f
 224:	6176                	ld	sp,344(sp)
 226:	6c5f 7369 0074      	.byte	0x5f, 0x6c, 0x69, 0x73, 0x74, 0x00
 22c:	7369                	lui	t1,0xffffa
 22e:	665f 726f 616d      	.byte	0x5f, 0x66, 0x6f, 0x72, 0x6d, 0x61
 234:	0074                	addi	a3,sp,12
 236:	6b5f 7570 7374      	.byte	0x5f, 0x6b, 0x70, 0x75, 0x74, 0x73
 23c:	6b00                	ld	s0,16(a4)
 23e:	7570                	ld	a2,232(a0)
 240:	6374                	ld	a3,192(a4)
 242:	5f00                	lw	s0,56(a4)
 244:	6f42                	ld	t5,16(sp)
 246:	6f 6c 00            	Address 0x0000000000000246 is out of bounds.


Disassembly of section .debug_loclists:

0000000000000000 <.debug_loclists>:
       0:	0d78                	addi	a4,sp,668
       2:	0000                	unimp
       4:	0005                	c.nop	1
       6:	0008                	.2byte	0x8
       8:	0000                	unimp
       a:	0000                	unimp
       c:	0003b407          	fld	fs0,0(t2)
      10:	0080                	addi	s0,sp,64
      12:	0000                	unimp
      14:	f000                	sd	s0,32(s0)
      16:	00800003          	lb	zero,8(zero) # 8 <_prog_start-0x7ffffff8>
      1a:	0000                	unimp
      1c:	0100                	addi	s0,sp,128
      1e:	075a                	slli	a4,a4,0x16
      20:	03f0                	addi	a2,sp,460
      22:	8000                	.2byte	0x8000
      24:	0000                	unimp
      26:	0000                	unimp
      28:	04e6                	slli	s1,s1,0x19
      2a:	8000                	.2byte	0x8000
      2c:	0000                	unimp
      2e:	0000                	unimp
      30:	a304                	fsd	fs1,0(a4)
      32:	5a01                	li	s4,-32
      34:	009f b407 0003      	.byte	0x9f, 0x00, 0x07, 0xb4, 0x03, 0x00
      3a:	0080                	addi	s0,sp,64
      3c:	0000                	unimp
      3e:	f400                	sd	s0,40(s0)
      40:	00800003          	lb	zero,8(zero) # 8 <_prog_start-0x7ffffff8>
      44:	0000                	unimp
      46:	0100                	addi	s0,sp,128
      48:	03f4075b          	.4byte	0x3f4075b
      4c:	8000                	.2byte	0x8000
      4e:	0000                	unimp
      50:	0000                	unimp
      52:	04e6                	slli	s1,s1,0x19
      54:	8000                	.2byte	0x8000
      56:	0000                	unimp
      58:	0000                	unimp
      5a:	a304                	fsd	fs1,0(a4)
      5c:	5b01                	li	s6,-32
      5e:	009f 3407 0004      	.byte	0x9f, 0x00, 0x07, 0x34, 0x04, 0x00
      64:	0080                	addi	s0,sp,64
      66:	0000                	unimp
      68:	8a00                	.2byte	0x8a00
      6a:	0004                	.2byte	0x4
      6c:	0080                	addi	s0,sp,64
      6e:	0000                	unimp
      70:	0100                	addi	s0,sp,128
      72:	0762                	slli	a4,a4,0x18
      74:	048a                	slli	s1,s1,0x2
      76:	8000                	.2byte	0x8000
      78:	0000                	unimp
      7a:	0000                	unimp
      7c:	04d2                	slli	s1,s1,0x14
      7e:	8000                	.2byte	0x8000
      80:	0000                	unimp
      82:	0000                	unimp
      84:	5801                	li	a6,-32
      86:	0700                	addi	s0,sp,896
      88:	044a                	slli	s0,s0,0x12
      8a:	8000                	.2byte	0x8000
      8c:	0000                	unimp
      8e:	0000                	unimp
      90:	0478                	addi	a4,sp,524
      92:	8000                	.2byte	0x8000
      94:	0000                	unimp
      96:	0000                	unimp
      98:	5801                	li	a6,-32
      9a:	00049e07          	.4byte	0x49e07
      9e:	0080                	addi	s0,sp,64
      a0:	0000                	unimp
      a2:	a800                	fsd	fs0,16(s0)
      a4:	0004                	.2byte	0x4
      a6:	0080                	addi	s0,sp,64
      a8:	0000                	unimp
      aa:	0100                	addi	s0,sp,128
      ac:	7807005b          	.4byte	0x7807005b
      b0:	0004                	.2byte	0x4
      b2:	0080                	addi	s0,sp,64
      b4:	0000                	unimp
      b6:	8a00                	.2byte	0x8a00
      b8:	0004                	.2byte	0x4
      ba:	0080                	addi	s0,sp,64
      bc:	0000                	unimp
      be:	0100                	addi	s0,sp,128
      c0:	0758                	addi	a4,sp,900
      c2:	049e                	slli	s1,s1,0x7
      c4:	8000                	.2byte	0x8000
      c6:	0000                	unimp
      c8:	0000                	unimp
      ca:	04a8                	addi	a0,sp,584
      cc:	8000                	.2byte	0x8000
      ce:	0000                	unimp
      d0:	0000                	unimp
      d2:	7b06                	ld	s6,96(sp)
      d4:	7800                	ld	s0,48(s0)
      d6:	1c00                	addi	s0,sp,560
      d8:	079f 04a8 8000      	.byte	0x9f, 0x07, 0xa8, 0x04, 0x00, 0x80
      de:	0000                	unimp
      e0:	0000                	unimp
      e2:	800004ab          	.4byte	0x800004ab
      e6:	0000                	unimp
      e8:	0000                	unimp
      ea:	5b01                	li	s6,-32
      ec:	0700                	addi	s0,sp,896
      ee:	0438                	addi	a4,sp,520
      f0:	8000                	.2byte	0x8000
      f2:	0000                	unimp
      f4:	0000                	unimp
      f6:	04de                	slli	s1,s1,0x17
      f8:	8000                	.2byte	0x8000
      fa:	0000                	unimp
      fc:	0000                	unimp
      fe:	6301                	.2byte	0x6301
     100:	0700                	addi	s0,sp,896
     102:	044e                	slli	s0,s0,0x13
     104:	8000                	.2byte	0x8000
     106:	0000                	unimp
     108:	0000                	unimp
     10a:	0466                	slli	s0,s0,0x19
     10c:	8000                	.2byte	0x8000
     10e:	0000                	unimp
     110:	0000                	unimp
     112:	5901                	li	s2,-32
     114:	0700                	addi	s0,sp,896
     116:	0478                	addi	a4,sp,524
     118:	8000                	.2byte	0x8000
     11a:	0000                	unimp
     11c:	0000                	unimp
     11e:	04d6                	slli	s1,s1,0x15
     120:	8000                	.2byte	0x8000
     122:	0000                	unimp
     124:	0000                	unimp
     126:	5901                	li	s2,-32
     128:	0700                	addi	s0,sp,896
     12a:	03d4                	addi	a3,sp,452
     12c:	8000                	.2byte	0x8000
     12e:	0000                	unimp
     130:	0000                	unimp
     132:	03dc                	addi	a5,sp,452
     134:	8000                	.2byte	0x8000
     136:	0000                	unimp
     138:	0000                	unimp
     13a:	3002                	fld	ft0,32(sp)
     13c:	079f 03dc 8000      	.byte	0x9f, 0x07, 0xdc, 0x03, 0x00, 0x80
     142:	0000                	unimp
     144:	0000                	unimp
     146:	03e0                	addi	s0,sp,460
     148:	8000                	.2byte	0x8000
     14a:	0000                	unimp
     14c:	0000                	unimp
     14e:	80807f07          	.4byte	0x80807f07
     152:	8080                	.2byte	0x8080
     154:	9f79                	.2byte	0x9f79
     156:	0003e007          	.4byte	0x3e007
     15a:	0080                	addi	s0,sp,64
     15c:	0000                	unimp
     15e:	e200                	sd	s0,0(a2)
     160:	00800003          	lb	zero,8(zero) # 8 <_prog_start-0x7ffffff8>
     164:	0000                	unimp
     166:	0700                	addi	s0,sp,896
     168:	817f                	.2byte	0x817f
     16a:	8080                	.2byte	0x8080
     16c:	7980                	ld	s0,48(a1)
     16e:	009f f407 0003      	.byte	0x9f, 0x00, 0x07, 0xf4, 0x03, 0x00
     174:	0080                	addi	s0,sp,64
     176:	0000                	unimp
     178:	1400                	addi	s0,sp,544
     17a:	0004                	.2byte	0x4
     17c:	0080                	addi	s0,sp,64
     17e:	0000                	unimp
     180:	0700                	addi	s0,sp,896
     182:	807f                	.2byte	0x807f
     184:	8080                	.2byte	0x8080
     186:	7c80                	ld	s0,56(s1)
     188:	079f 0414 8000      	.byte	0x9f, 0x07, 0x14, 0x04, 0x00, 0x80
     18e:	0000                	unimp
     190:	0000                	unimp
     192:	0416                	slli	s0,s0,0x5
     194:	8000                	.2byte	0x8000
     196:	0000                	unimp
     198:	0000                	unimp
     19a:	80817f07          	.4byte	0x80817f07
     19e:	8080                	.2byte	0x8080
     1a0:	9f7c                	.2byte	0x9f7c
     1a2:	0700                	addi	s0,sp,896
     1a4:	0426                	slli	s0,s0,0x9
     1a6:	8000                	.2byte	0x8000
     1a8:	0000                	unimp
     1aa:	0000                	unimp
     1ac:	042a                	slli	s0,s0,0xa
     1ae:	8000                	.2byte	0x8000
     1b0:	0000                	unimp
     1b2:	0000                	unimp
     1b4:	e0807f07          	.4byte	0xe0807f07
     1b8:	fffe                	sd	t6,504(sp)
     1ba:	9f78                	.2byte	0x9f78
     1bc:	00042a07          	flw	fs4,0(s0) # ffffffffffffd000 <kprintf+0xffffffff7fffcadc>
     1c0:	0080                	addi	s0,sp,64
     1c2:	0000                	unimp
     1c4:	2c00                	fld	fs0,24(s0)
     1c6:	0004                	.2byte	0x4
     1c8:	0080                	addi	s0,sp,64
     1ca:	0000                	unimp
     1cc:	0700                	addi	s0,sp,896
     1ce:	817f                	.2byte	0x817f
     1d0:	fee0                	sd	s0,248(a3)
     1d2:	78ff                	.2byte	0x78ff
     1d4:	009f 3407 0004      	.byte	0x9f, 0x00, 0x07, 0x34, 0x04, 0x00
     1da:	0080                	addi	s0,sp,64
     1dc:	0000                	unimp
     1de:	da00                	sw	s0,48(a2)
     1e0:	0004                	.2byte	0x4
     1e2:	0080                	addi	s0,sp,64
     1e4:	0000                	unimp
     1e6:	0100                	addi	s0,sp,128
     1e8:	0062                	c.slli	zero,0x18
     1ea:	00044a07          	.4byte	0x44a07
     1ee:	0080                	addi	s0,sp,64
     1f0:	0000                	unimp
     1f2:	7800                	ld	s0,48(s0)
     1f4:	0004                	.2byte	0x4
     1f6:	0080                	addi	s0,sp,64
     1f8:	0000                	unimp
     1fa:	0100                	addi	s0,sp,128
     1fc:	0058                	addi	a4,sp,4
     1fe:	00048a07          	.4byte	0x48a07
     202:	0080                	addi	s0,sp,64
     204:	0000                	unimp
     206:	d200                	sw	s0,32(a2)
     208:	0004                	.2byte	0x4
     20a:	0080                	addi	s0,sp,64
     20c:	0000                	unimp
     20e:	0100                	addi	s0,sp,128
     210:	0058                	addi	a4,sp,4
     212:	00049e07          	.4byte	0x49e07
     216:	0080                	addi	s0,sp,64
     218:	0000                	unimp
     21a:	a800                	fsd	fs0,16(s0)
     21c:	0004                	.2byte	0x4
     21e:	0080                	addi	s0,sp,64
     220:	0000                	unimp
     222:	0100                	addi	s0,sp,128
     224:	ac07005b          	.4byte	0xac07005b
     228:	0004                	.2byte	0x4
     22a:	0080                	addi	s0,sp,64
     22c:	0000                	unimp
     22e:	bc00                	fsd	fs0,56(s0)
     230:	0004                	.2byte	0x4
     232:	0080                	addi	s0,sp,64
     234:	0000                	unimp
     236:	0200                	addi	s0,sp,256
     238:	9f30                	.2byte	0x9f30
     23a:	0004bc07          	fld	fs8,0(s1)
     23e:	0080                	addi	s0,sp,64
     240:	0000                	unimp
     242:	c200                	sw	s0,0(a2)
     244:	0004                	.2byte	0x4
     246:	0080                	addi	s0,sp,64
     248:	0000                	unimp
     24a:	0700                	addi	s0,sp,896
     24c:	807f                	.2byte	0x807f
     24e:	fee0                	sd	s0,248(a3)
     250:	78ff                	.2byte	0x78ff
     252:	009f 1c07 0003      	.byte	0x9f, 0x00, 0x07, 0x1c, 0x03, 0x00
     258:	0080                	addi	s0,sp,64
     25a:	0000                	unimp
     25c:	4200                	lw	s0,0(a2)
     25e:	00800003          	lb	zero,8(zero) # 8 <_prog_start-0x7ffffff8>
     262:	0000                	unimp
     264:	0200                	addi	s0,sp,256
     266:	9f30                	.2byte	0x9f30
     268:	00034207          	.4byte	0x34207
     26c:	0080                	addi	s0,sp,64
     26e:	0000                	unimp
     270:	9e00                	.2byte	0x9e00
     272:	00800003          	lb	zero,8(zero) # 8 <_prog_start-0x7ffffff8>
     276:	0000                	unimp
     278:	0100                	addi	s0,sp,128
     27a:	4207006f          	j	7069a <_prog_start-0x7ff8f966>
     27e:	00800003          	lb	zero,8(zero) # 8 <_prog_start-0x7ffffff8>
     282:	0000                	unimp
     284:	4e00                	lw	s0,24(a2)
     286:	00800003          	lb	zero,8(zero) # 8 <_prog_start-0x7ffffff8>
     28a:	0000                	unimp
     28c:	0300                	addi	s0,sp,384
     28e:	4908                	lw	a0,16(a0)
     290:	079f 034e 8000      	.byte	0x9f, 0x07, 0x4e, 0x03, 0x00, 0x80
     296:	0000                	unimp
     298:	0000                	unimp
     29a:	0396                	slli	t2,t2,0x5
     29c:	8000                	.2byte	0x8000
     29e:	0000                	unimp
     2a0:	0000                	unimp
     2a2:	6c01                	.2byte	0x6c01
     2a4:	00039607          	.4byte	0x39607
     2a8:	0080                	addi	s0,sp,64
     2aa:	0000                	unimp
     2ac:	9800                	.2byte	0x9800
     2ae:	00800003          	lb	zero,8(zero) # 8 <_prog_start-0x7ffffff8>
     2b2:	0000                	unimp
     2b4:	0300                	addi	s0,sp,384
     2b6:	018c                	addi	a1,sp,192
     2b8:	009f 4e07 0003      	.byte	0x9f, 0x00, 0x07, 0x4e, 0x03, 0x00
     2be:	0080                	addi	s0,sp,64
     2c0:	0000                	unimp
     2c2:	5a00                	lw	s0,48(a2)
     2c4:	00800003          	lb	zero,8(zero) # 8 <_prog_start-0x7ffffff8>
     2c8:	0000                	unimp
     2ca:	0200                	addi	s0,sp,256
     2cc:	9f30                	.2byte	0x9f30
     2ce:	00035a07          	.4byte	0x35a07
     2d2:	0080                	addi	s0,sp,64
     2d4:	0000                	unimp
     2d6:	7400                	ld	s0,40(s0)
     2d8:	00800003          	lb	zero,8(zero) # 8 <_prog_start-0x7ffffff8>
     2dc:	0000                	unimp
     2de:	0100                	addi	s0,sp,128
     2e0:	075e                	slli	a4,a4,0x17
     2e2:	0378                	addi	a4,sp,396
     2e4:	8000                	.2byte	0x8000
     2e6:	0000                	unimp
     2e8:	0000                	unimp
     2ea:	03b4                	addi	a3,sp,456
     2ec:	8000                	.2byte	0x8000
     2ee:	0000                	unimp
     2f0:	0000                	unimp
     2f2:	5e01                	li	t3,-32
     2f4:	0700                	addi	s0,sp,896
     2f6:	034e                	slli	t1,t1,0x13
     2f8:	8000                	.2byte	0x8000
     2fa:	0000                	unimp
     2fc:	0000                	unimp
     2fe:	035a                	slli	t1,t1,0x16
     300:	8000                	.2byte	0x8000
     302:	0000                	unimp
     304:	0000                	unimp
     306:	3002                	fld	ft0,32(sp)
     308:	079f 035a 8000      	.byte	0x9f, 0x07, 0x5a, 0x03, 0x00, 0x80
     30e:	0000                	unimp
     310:	0000                	unimp
     312:	037c                	addi	a5,sp,396
     314:	8000                	.2byte	0x8000
     316:	0000                	unimp
     318:	0000                	unimp
     31a:	7b1f 8f00 3700      	.byte	0x1f, 0x7b, 0x00, 0x8f, 0x00, 0x37
     320:	0824                	addi	s1,sp,24
     322:	2420                	fld	fs0,72(s0)
     324:	2008                	fld	fa0,0(s0)
     326:	1c26                	slli	s8,s8,0x29
     328:	008c                	addi	a1,sp,64
     32a:	2008                	fld	fa0,0(s0)
     32c:	0824                	addi	s1,sp,24
     32e:	2620                	fld	fs0,72(a2)
     330:	0c1c                	addi	a5,sp,528
     332:	0020                	addi	s0,sp,8
     334:	7000                	ld	s0,32(s0)
     336:	371c                	fld	fa5,40(a4)
     338:	9f25                	addw	a4,a4,s1
     33a:	00037c07          	.4byte	0x37c07
     33e:	0080                	addi	s0,sp,64
     340:	0000                	unimp
     342:	8800                	.2byte	0x8800
     344:	00800003          	lb	zero,8(zero) # 8 <_prog_start-0x7ffffff8>
     348:	0000                	unimp
     34a:	2100                	fld	fs0,0(a0)
     34c:	008f007b          	.4byte	0x8f007b
     350:	20082437          	lui	s0,0x20082
     354:	0824                	addi	s1,sp,24
     356:	2620                	fld	fs0,72(a2)
     358:	8c1c                	.2byte	0x8c1c
     35a:	0800                	addi	s0,sp,16
     35c:	2420                	fld	fs0,72(s0)
     35e:	2008                	fld	fa0,0(s0)
     360:	1c26                	slli	s8,s8,0x29
     362:	200c                	fld	fa1,0(s0)
     364:	0000                	unimp
     366:	1c70                	addi	a2,sp,572
     368:	01232537          	lui	a0,0x1232
     36c:	079f 0388 8000      	.byte	0x9f, 0x07, 0x88, 0x03, 0x00, 0x80
     372:	0000                	unimp
     374:	0000                	unimp
     376:	0398                	addi	a4,sp,448
     378:	8000                	.2byte	0x8000
     37a:	0000                	unimp
     37c:	0000                	unimp
     37e:	7b21                	lui	s6,0xfffe8
     380:	8f00                	.2byte	0x8f00
     382:	3700                	fld	fs0,40(a4)
     384:	0824                	addi	s1,sp,24
     386:	2420                	fld	fs0,72(s0)
     388:	2008                	fld	fa0,0(s0)
     38a:	1c26                	slli	s8,s8,0x29
     38c:	008c                	addi	a1,sp,64
     38e:	2008                	fld	fa0,0(s0)
     390:	0824                	addi	s1,sp,24
     392:	2620                	fld	fs0,72(a2)
     394:	0c1c                	addi	a5,sp,528
     396:	00a0                	addi	s0,sp,72
     398:	7000                	ld	s0,32(s0)
     39a:	371c                	fld	fa5,40(a4)
     39c:	2325                	addiw	t1,t1,9 # ffffffffffffa009 <kprintf+0xffffffff7fff9ae5>
     39e:	9f01                	subw	a4,a4,s0
     3a0:	0700                	addi	s0,sp,896
     3a2:	035a                	slli	t1,t1,0x16
     3a4:	8000                	.2byte	0x8000
     3a6:	0000                	unimp
     3a8:	0000                	unimp
     3aa:	035e                	slli	t1,t1,0x17
     3ac:	8000                	.2byte	0x8000
     3ae:	0000                	unimp
     3b0:	0000                	unimp
     3b2:	3002                	fld	ft0,32(sp)
     3b4:	079f 035e 8000      	.byte	0x9f, 0x07, 0x5e, 0x03, 0x00, 0x80
     3ba:	0000                	unimp
     3bc:	0000                	unimp
     3be:	036e                	slli	t1,t1,0x1b
     3c0:	8000                	.2byte	0x8000
     3c2:	0000                	unimp
     3c4:	0000                	unimp
     3c6:	7f22                	ld	t5,40(sp)
     3c8:	7b00                	ld	s0,48(a4)
     3ca:	8c00                	.2byte	0x8c00
     3cc:	1c00                	addi	s0,sp,560
     3ce:	200c                	fld	fa1,0(s0)
     3d0:	0000                	unimp
     3d2:	1c70                	addi	a2,sp,572
     3d4:	2008                	fld	fa0,0(s0)
     3d6:	0824                	addi	s1,sp,24
     3d8:	2620                	fld	fs0,72(a2)
     3da:	008c                	addi	a1,sp,64
     3dc:	2008                	fld	fa0,0(s0)
     3de:	0824                	addi	s1,sp,24
     3e0:	2620                	fld	fs0,72(a2)
     3e2:	4c22                	lw	s8,8(sp)
     3e4:	244a                	fld	fs0,144(sp)
     3e6:	1c22                	slli	s8,s8,0x28
     3e8:	009f 5e07 0003      	.byte	0x9f, 0x00, 0x07, 0x5e, 0x03, 0x00
     3ee:	0080                	addi	s0,sp,64
     3f0:	0000                	unimp
     3f2:	8800                	.2byte	0x8800
     3f4:	00800003          	lb	zero,8(zero) # 8 <_prog_start-0x7ffffff8>
     3f8:	0000                	unimp
     3fa:	2200                	fld	fs0,0(a2)
     3fc:	008f007b          	.4byte	0x8f007b
     400:	20082437          	lui	s0,0x20082
     404:	0824                	addi	s1,sp,24
     406:	2620                	fld	fs0,72(a2)
     408:	8c1c                	.2byte	0x8c1c
     40a:	0800                	addi	s0,sp,16
     40c:	2420                	fld	fs0,72(s0)
     40e:	2008                	fld	fa0,0(s0)
     410:	1c26                	slli	s8,s8,0x29
     412:	200c                	fld	fa1,0(s0)
     414:	0000                	unimp
     416:	1c70                	addi	a2,sp,572
     418:	008f2537          	lui	a0,0x8f2
     41c:	9f22                	add	t5,t5,s0
     41e:	00038807          	.4byte	0x38807
     422:	0080                	addi	s0,sp,64
     424:	0000                	unimp
     426:	9800                	.2byte	0x9800
     428:	00800003          	lb	zero,8(zero) # 8 <_prog_start-0x7ffffff8>
     42c:	0000                	unimp
     42e:	2200                	fld	fs0,0(a2)
     430:	008f007b          	.4byte	0x8f007b
     434:	20082437          	lui	s0,0x20082
     438:	0824                	addi	s1,sp,24
     43a:	2620                	fld	fs0,72(a2)
     43c:	8c1c                	.2byte	0x8c1c
     43e:	0800                	addi	s0,sp,16
     440:	2420                	fld	fs0,72(s0)
     442:	2008                	fld	fa0,0(s0)
     444:	1c26                	slli	s8,s8,0x29
     446:	a00c                	fsd	fa1,0(s0)
     448:	0000                	unimp
     44a:	1c70                	addi	a2,sp,572
     44c:	008f2537          	lui	a0,0x8f2
     450:	9f22                	add	t5,t5,s0
     452:	0700                	addi	s0,sp,896
     454:	035e                	slli	t1,t1,0x17
     456:	8000                	.2byte	0x8000
     458:	0000                	unimp
     45a:	0000                	unimp
     45c:	036e                	slli	t1,t1,0x1b
     45e:	8000                	.2byte	0x8000
     460:	0000                	unimp
     462:	0000                	unimp
     464:	7f25                	lui	t5,0xfffe9
     466:	7b00                	ld	s0,48(a4)
     468:	8c00                	.2byte	0x8c00
     46a:	1c00                	addi	s0,sp,560
     46c:	200c                	fld	fa1,0(s0)
     46e:	0000                	unimp
     470:	1c70                	addi	a2,sp,572
     472:	2008                	fld	fa0,0(s0)
     474:	0824                	addi	s1,sp,24
     476:	2620                	fld	fs0,72(a2)
     478:	008c                	addi	a1,sp,64
     47a:	2008                	fld	fa0,0(s0)
     47c:	0824                	addi	s1,sp,24
     47e:	2620                	fld	fs0,72(a2)
     480:	4c22                	lw	s8,8(sp)
     482:	244a                	fld	fs0,144(sp)
     484:	1c22                	slli	s8,s8,0x28
     486:	008c                	addi	a1,sp,64
     488:	9f22                	add	t5,t5,s0
     48a:	0700                	addi	s0,sp,896
     48c:	027c                	addi	a5,sp,268
     48e:	8000                	.2byte	0x8000
     490:	0000                	unimp
     492:	0000                	unimp
     494:	02a8                	addi	a0,sp,328
     496:	8000                	.2byte	0x8000
     498:	0000                	unimp
     49a:	0000                	unimp
     49c:	3002                	fld	ft0,32(sp)
     49e:	079f 02a8 8000      	.byte	0x9f, 0x07, 0xa8, 0x02, 0x00, 0x80
     4a4:	0000                	unimp
     4a6:	0000                	unimp
     4a8:	0304                	addi	s1,sp,384
     4aa:	8000                	.2byte	0x8000
     4ac:	0000                	unimp
     4ae:	0000                	unimp
     4b0:	6f01                	.2byte	0x6f01
     4b2:	0700                	addi	s0,sp,896
     4b4:	02a8                	addi	a0,sp,328
     4b6:	8000                	.2byte	0x8000
     4b8:	0000                	unimp
     4ba:	0000                	unimp
     4bc:	02b4                	addi	a3,sp,328
     4be:	8000                	.2byte	0x8000
     4c0:	0000                	unimp
     4c2:	0000                	unimp
     4c4:	9f310803          	lb	a6,-1549(sp)
     4c8:	0002b407          	fld	fs0,0(t0)
     4cc:	0080                	addi	s0,sp,64
     4ce:	0000                	unimp
     4d0:	fc00                	sd	s0,56(s0)
     4d2:	0002                	c.slli64	zero
     4d4:	0080                	addi	s0,sp,64
     4d6:	0000                	unimp
     4d8:	0100                	addi	s0,sp,128
     4da:	076c                	addi	a1,sp,908
     4dc:	02fc                	addi	a5,sp,332
     4de:	8000                	.2byte	0x8000
     4e0:	0000                	unimp
     4e2:	0000                	unimp
     4e4:	02fe                	slli	t0,t0,0x1f
     4e6:	8000                	.2byte	0x8000
     4e8:	0000                	unimp
     4ea:	0000                	unimp
     4ec:	9f018c03          	lb	s8,-1552(gp)
     4f0:	0700                	addi	s0,sp,896
     4f2:	02b4                	addi	a3,sp,328
     4f4:	8000                	.2byte	0x8000
     4f6:	0000                	unimp
     4f8:	0000                	unimp
     4fa:	02c0                	addi	s0,sp,324
     4fc:	8000                	.2byte	0x8000
     4fe:	0000                	unimp
     500:	0000                	unimp
     502:	3002                	fld	ft0,32(sp)
     504:	079f 02c0 8000      	.byte	0x9f, 0x07, 0xc0, 0x02, 0x00, 0x80
     50a:	0000                	unimp
     50c:	0000                	unimp
     50e:	02da                	slli	t0,t0,0x16
     510:	8000                	.2byte	0x8000
     512:	0000                	unimp
     514:	0000                	unimp
     516:	5e01                	li	t3,-32
     518:	0002de07          	.4byte	0x2de07
     51c:	0080                	addi	s0,sp,64
     51e:	0000                	unimp
     520:	1c00                	addi	s0,sp,560
     522:	00800003          	lb	zero,8(zero) # 8 <_prog_start-0x7ffffff8>
     526:	0000                	unimp
     528:	0100                	addi	s0,sp,128
     52a:	005e                	c.slli	zero,0x17
     52c:	0002b407          	fld	fs0,0(t0)
     530:	0080                	addi	s0,sp,64
     532:	0000                	unimp
     534:	c000                	sw	s0,0(s0)
     536:	0002                	c.slli64	zero
     538:	0080                	addi	s0,sp,64
     53a:	0000                	unimp
     53c:	0200                	addi	s0,sp,256
     53e:	9f30                	.2byte	0x9f30
     540:	0002c007          	.4byte	0x2c007
     544:	0080                	addi	s0,sp,64
     546:	0000                	unimp
     548:	e200                	sd	s0,0(a2)
     54a:	0002                	c.slli64	zero
     54c:	0080                	addi	s0,sp,64
     54e:	0000                	unimp
     550:	1f00                	addi	s0,sp,944
     552:	008f007b          	.4byte	0x8f007b
     556:	20082437          	lui	s0,0x20082
     55a:	0824                	addi	s1,sp,24
     55c:	2620                	fld	fs0,72(a2)
     55e:	8c1c                	.2byte	0x8c1c
     560:	0800                	addi	s0,sp,16
     562:	2420                	fld	fs0,72(s0)
     564:	2008                	fld	fa0,0(s0)
     566:	1c26                	slli	s8,s8,0x29
     568:	200c                	fld	fa1,0(s0)
     56a:	0000                	unimp
     56c:	1c70                	addi	a2,sp,572
     56e:	079f2537          	lui	a0,0x79f2
     572:	02e2                	slli	t0,t0,0x18
     574:	8000                	.2byte	0x8000
     576:	0000                	unimp
     578:	0000                	unimp
     57a:	02ee                	slli	t0,t0,0x1b
     57c:	8000                	.2byte	0x8000
     57e:	0000                	unimp
     580:	0000                	unimp
     582:	7b21                	lui	s6,0xfffe8
     584:	8f00                	.2byte	0x8f00
     586:	3700                	fld	fs0,40(a4)
     588:	0824                	addi	s1,sp,24
     58a:	2420                	fld	fs0,72(s0)
     58c:	2008                	fld	fa0,0(s0)
     58e:	1c26                	slli	s8,s8,0x29
     590:	008c                	addi	a1,sp,64
     592:	2008                	fld	fa0,0(s0)
     594:	0824                	addi	s1,sp,24
     596:	2620                	fld	fs0,72(a2)
     598:	0c1c                	addi	a5,sp,528
     59a:	0020                	addi	s0,sp,8
     59c:	7000                	ld	s0,32(s0)
     59e:	371c                	fld	fa5,40(a4)
     5a0:	2325                	addiw	t1,t1,9
     5a2:	9f01                	subw	a4,a4,s0
     5a4:	0002ee07          	.4byte	0x2ee07
     5a8:	0080                	addi	s0,sp,64
     5aa:	0000                	unimp
     5ac:	fe00                	sd	s0,56(a2)
     5ae:	0002                	c.slli64	zero
     5b0:	0080                	addi	s0,sp,64
     5b2:	0000                	unimp
     5b4:	2100                	fld	fs0,0(a0)
     5b6:	008f007b          	.4byte	0x8f007b
     5ba:	20082437          	lui	s0,0x20082
     5be:	0824                	addi	s1,sp,24
     5c0:	2620                	fld	fs0,72(a2)
     5c2:	8c1c                	.2byte	0x8c1c
     5c4:	0800                	addi	s0,sp,16
     5c6:	2420                	fld	fs0,72(s0)
     5c8:	2008                	fld	fa0,0(s0)
     5ca:	1c26                	slli	s8,s8,0x29
     5cc:	a00c                	fsd	fa1,0(s0)
     5ce:	0000                	unimp
     5d0:	1c70                	addi	a2,sp,572
     5d2:	01232537          	lui	a0,0x1232
     5d6:	009f c007 0002      	.byte	0x9f, 0x00, 0x07, 0xc0, 0x02, 0x00
     5dc:	0080                	addi	s0,sp,64
     5de:	0000                	unimp
     5e0:	c400                	sw	s0,8(s0)
     5e2:	0002                	c.slli64	zero
     5e4:	0080                	addi	s0,sp,64
     5e6:	0000                	unimp
     5e8:	0200                	addi	s0,sp,256
     5ea:	9f30                	.2byte	0x9f30
     5ec:	0002c407          	.4byte	0x2c407
     5f0:	0080                	addi	s0,sp,64
     5f2:	0000                	unimp
     5f4:	d400                	sw	s0,40(s0)
     5f6:	0002                	c.slli64	zero
     5f8:	0080                	addi	s0,sp,64
     5fa:	0000                	unimp
     5fc:	2200                	fld	fs0,0(a2)
     5fe:	007f                	.2byte	0x7f
     600:	008c007b          	.4byte	0x8c007b
     604:	0c1c                	addi	a5,sp,528
     606:	0020                	addi	s0,sp,8
     608:	7000                	ld	s0,32(s0)
     60a:	081c                	addi	a5,sp,16
     60c:	2420                	fld	fs0,72(s0)
     60e:	2008                	fld	fa0,0(s0)
     610:	8c26                	mv	s8,s1
     612:	0800                	addi	s0,sp,16
     614:	2420                	fld	fs0,72(s0)
     616:	2008                	fld	fa0,0(s0)
     618:	2226                	fld	ft4,72(sp)
     61a:	4a4c                	lw	a1,20(a2)
     61c:	2224                	fld	fs1,64(a2)
     61e:	9f1c                	.2byte	0x9f1c
     620:	0700                	addi	s0,sp,896
     622:	02c4                	addi	s1,sp,324
     624:	8000                	.2byte	0x8000
     626:	0000                	unimp
     628:	0000                	unimp
     62a:	02ee                	slli	t0,t0,0x1b
     62c:	8000                	.2byte	0x8000
     62e:	0000                	unimp
     630:	0000                	unimp
     632:	7b22                	ld	s6,40(sp)
     634:	8f00                	.2byte	0x8f00
     636:	3700                	fld	fs0,40(a4)
     638:	0824                	addi	s1,sp,24
     63a:	2420                	fld	fs0,72(s0)
     63c:	2008                	fld	fa0,0(s0)
     63e:	1c26                	slli	s8,s8,0x29
     640:	008c                	addi	a1,sp,64
     642:	2008                	fld	fa0,0(s0)
     644:	0824                	addi	s1,sp,24
     646:	2620                	fld	fs0,72(a2)
     648:	0c1c                	addi	a5,sp,528
     64a:	0020                	addi	s0,sp,8
     64c:	7000                	ld	s0,32(s0)
     64e:	371c                	fld	fa5,40(a4)
     650:	8f25                	xor	a4,a4,s1
     652:	2200                	fld	fs0,0(a2)
     654:	079f 02ee 8000      	.byte	0x9f, 0x07, 0xee, 0x02, 0x00, 0x80
     65a:	0000                	unimp
     65c:	0000                	unimp
     65e:	02fe                	slli	t0,t0,0x1f
     660:	8000                	.2byte	0x8000
     662:	0000                	unimp
     664:	0000                	unimp
     666:	7b22                	ld	s6,40(sp)
     668:	8f00                	.2byte	0x8f00
     66a:	3700                	fld	fs0,40(a4)
     66c:	0824                	addi	s1,sp,24
     66e:	2420                	fld	fs0,72(s0)
     670:	2008                	fld	fa0,0(s0)
     672:	1c26                	slli	s8,s8,0x29
     674:	008c                	addi	a1,sp,64
     676:	2008                	fld	fa0,0(s0)
     678:	0824                	addi	s1,sp,24
     67a:	2620                	fld	fs0,72(a2)
     67c:	0c1c                	addi	a5,sp,528
     67e:	00a0                	addi	s0,sp,72
     680:	7000                	ld	s0,32(s0)
     682:	371c                	fld	fa5,40(a4)
     684:	8f25                	xor	a4,a4,s1
     686:	2200                	fld	fs0,0(a2)
     688:	009f c407 0002      	.byte	0x9f, 0x00, 0x07, 0xc4, 0x02, 0x00
     68e:	0080                	addi	s0,sp,64
     690:	0000                	unimp
     692:	d400                	sw	s0,40(s0)
     694:	0002                	c.slli64	zero
     696:	0080                	addi	s0,sp,64
     698:	0000                	unimp
     69a:	2500                	fld	fs0,8(a0)
     69c:	007f                	.2byte	0x7f
     69e:	008c007b          	.4byte	0x8c007b
     6a2:	0c1c                	addi	a5,sp,528
     6a4:	0020                	addi	s0,sp,8
     6a6:	7000                	ld	s0,32(s0)
     6a8:	081c                	addi	a5,sp,16
     6aa:	2420                	fld	fs0,72(s0)
     6ac:	2008                	fld	fa0,0(s0)
     6ae:	8c26                	mv	s8,s1
     6b0:	0800                	addi	s0,sp,16
     6b2:	2420                	fld	fs0,72(s0)
     6b4:	2008                	fld	fa0,0(s0)
     6b6:	2226                	fld	ft4,72(sp)
     6b8:	4a4c                	lw	a1,20(a2)
     6ba:	2224                	fld	fs1,64(a2)
     6bc:	8c1c                	.2byte	0x8c1c
     6be:	2200                	fld	fs0,0(a2)
     6c0:	009f d807 0001      	.byte	0x9f, 0x00, 0x07, 0xd8, 0x01, 0x00
     6c6:	0080                	addi	s0,sp,64
     6c8:	0000                	unimp
     6ca:	0a00                	addi	s0,sp,272
     6cc:	0002                	c.slli64	zero
     6ce:	0080                	addi	s0,sp,64
     6d0:	0000                	unimp
     6d2:	0200                	addi	s0,sp,256
     6d4:	9f49                	.2byte	0x9f49
     6d6:	00020a07          	.4byte	0x20a07
     6da:	0080                	addi	s0,sp,64
     6dc:	0000                	unimp
     6de:	6400                	ld	s0,8(s0)
     6e0:	0002                	c.slli64	zero
     6e2:	0080                	addi	s0,sp,64
     6e4:	0000                	unimp
     6e6:	0100                	addi	s0,sp,128
     6e8:	0055                	c.nop	21
     6ea:	00020a07          	.4byte	0x20a07
     6ee:	0080                	addi	s0,sp,64
     6f0:	0000                	unimp
     6f2:	1400                	addi	s0,sp,544
     6f4:	0002                	c.slli64	zero
     6f6:	0080                	addi	s0,sp,64
     6f8:	0000                	unimp
     6fa:	0200                	addi	s0,sp,256
     6fc:	9f30                	.2byte	0x9f30
     6fe:	00021407          	.4byte	0x21407
     702:	0080                	addi	s0,sp,64
     704:	0000                	unimp
     706:	5c00                	lw	s0,56(s0)
     708:	0002                	c.slli64	zero
     70a:	0080                	addi	s0,sp,64
     70c:	0000                	unimp
     70e:	0100                	addi	s0,sp,128
     710:	076d                	addi	a4,a4,27 # 1a01b <_prog_start-0x7ffe5fe5>
     712:	025c                	addi	a5,sp,260
     714:	8000                	.2byte	0x8000
     716:	0000                	unimp
     718:	0000                	unimp
     71a:	025e                	slli	tp,tp,0x17
     71c:	8000                	.2byte	0x8000
     71e:	0000                	unimp
     720:	0000                	unimp
     722:	9f018d03          	lb	s10,-1552(gp)
     726:	0700                	addi	s0,sp,896
     728:	0214                	addi	a3,sp,256
     72a:	8000                	.2byte	0x8000
     72c:	0000                	unimp
     72e:	0000                	unimp
     730:	0220                	addi	s0,sp,264
     732:	8000                	.2byte	0x8000
     734:	0000                	unimp
     736:	0000                	unimp
     738:	3002                	fld	ft0,32(sp)
     73a:	079f 0220 8000      	.byte	0x9f, 0x07, 0x20, 0x02, 0x00, 0x80
     740:	0000                	unimp
     742:	0000                	unimp
     744:	023a                	slli	tp,tp,0xe
     746:	8000                	.2byte	0x8000
     748:	0000                	unimp
     74a:	0000                	unimp
     74c:	5e01                	li	t3,-32
     74e:	00023e07          	fld	ft8,0(tp) # b000 <_prog_start-0x7fff5000>
     752:	0080                	addi	s0,sp,64
     754:	0000                	unimp
     756:	7c00                	ld	s0,56(s0)
     758:	0002                	c.slli64	zero
     75a:	0080                	addi	s0,sp,64
     75c:	0000                	unimp
     75e:	0100                	addi	s0,sp,128
     760:	005e                	c.slli	zero,0x17
     762:	00021407          	.4byte	0x21407
     766:	0080                	addi	s0,sp,64
     768:	0000                	unimp
     76a:	2000                	fld	fs0,0(s0)
     76c:	0002                	c.slli64	zero
     76e:	0080                	addi	s0,sp,64
     770:	0000                	unimp
     772:	0200                	addi	s0,sp,256
     774:	9f30                	.2byte	0x9f30
     776:	00022007          	flw	ft0,0(tp) # 0 <_prog_start-0x80000000>
     77a:	0080                	addi	s0,sp,64
     77c:	0000                	unimp
     77e:	4200                	lw	s0,0(a2)
     780:	0002                	c.slli64	zero
     782:	0080                	addi	s0,sp,64
     784:	0000                	unimp
     786:	1f00                	addi	s0,sp,944
     788:	0075007b          	.4byte	0x75007b
     78c:	20082437          	lui	s0,0x20082
     790:	0824                	addi	s1,sp,24
     792:	2620                	fld	fs0,72(a2)
     794:	8d1c                	.2byte	0x8d1c
     796:	0800                	addi	s0,sp,16
     798:	2420                	fld	fs0,72(s0)
     79a:	2008                	fld	fa0,0(s0)
     79c:	1c26                	slli	s8,s8,0x29
     79e:	200c                	fld	fa1,0(s0)
     7a0:	0000                	unimp
     7a2:	1c70                	addi	a2,sp,572
     7a4:	079f2537          	lui	a0,0x79f2
     7a8:	0242                	slli	tp,tp,0x10
     7aa:	8000                	.2byte	0x8000
     7ac:	0000                	unimp
     7ae:	0000                	unimp
     7b0:	024e                	slli	tp,tp,0x13
     7b2:	8000                	.2byte	0x8000
     7b4:	0000                	unimp
     7b6:	0000                	unimp
     7b8:	7b21                	lui	s6,0xfffe8
     7ba:	7500                	ld	s0,40(a0)
     7bc:	3700                	fld	fs0,40(a4)
     7be:	0824                	addi	s1,sp,24
     7c0:	2420                	fld	fs0,72(s0)
     7c2:	2008                	fld	fa0,0(s0)
     7c4:	1c26                	slli	s8,s8,0x29
     7c6:	008d                	addi	ra,ra,3
     7c8:	2008                	fld	fa0,0(s0)
     7ca:	0824                	addi	s1,sp,24
     7cc:	2620                	fld	fs0,72(a2)
     7ce:	0c1c                	addi	a5,sp,528
     7d0:	0020                	addi	s0,sp,8
     7d2:	7000                	ld	s0,32(s0)
     7d4:	371c                	fld	fa5,40(a4)
     7d6:	2325                	addiw	t1,t1,9
     7d8:	9f01                	subw	a4,a4,s0
     7da:	00024e07          	.4byte	0x24e07
     7de:	0080                	addi	s0,sp,64
     7e0:	0000                	unimp
     7e2:	5e00                	lw	s0,56(a2)
     7e4:	0002                	c.slli64	zero
     7e6:	0080                	addi	s0,sp,64
     7e8:	0000                	unimp
     7ea:	2100                	fld	fs0,0(a0)
     7ec:	0075007b          	.4byte	0x75007b
     7f0:	20082437          	lui	s0,0x20082
     7f4:	0824                	addi	s1,sp,24
     7f6:	2620                	fld	fs0,72(a2)
     7f8:	8d1c                	.2byte	0x8d1c
     7fa:	0800                	addi	s0,sp,16
     7fc:	2420                	fld	fs0,72(s0)
     7fe:	2008                	fld	fa0,0(s0)
     800:	1c26                	slli	s8,s8,0x29
     802:	a00c                	fsd	fa1,0(s0)
     804:	0000                	unimp
     806:	1c70                	addi	a2,sp,572
     808:	01232537          	lui	a0,0x1232
     80c:	009f 2007 0002      	.byte	0x9f, 0x00, 0x07, 0x20, 0x02, 0x00
     812:	0080                	addi	s0,sp,64
     814:	0000                	unimp
     816:	2400                	fld	fs0,8(s0)
     818:	0002                	c.slli64	zero
     81a:	0080                	addi	s0,sp,64
     81c:	0000                	unimp
     81e:	0200                	addi	s0,sp,256
     820:	9f30                	.2byte	0x9f30
     822:	00022407          	flw	fs0,0(tp) # 0 <_prog_start-0x80000000>
     826:	0080                	addi	s0,sp,64
     828:	0000                	unimp
     82a:	3400                	fld	fs0,40(s0)
     82c:	0002                	c.slli64	zero
     82e:	0080                	addi	s0,sp,64
     830:	0000                	unimp
     832:	2200                	fld	fs0,0(a2)
     834:	007f                	.2byte	0x7f
     836:	008d007b          	.4byte	0x8d007b
     83a:	0c1c                	addi	a5,sp,528
     83c:	0020                	addi	s0,sp,8
     83e:	7000                	ld	s0,32(s0)
     840:	081c                	addi	a5,sp,16
     842:	2420                	fld	fs0,72(s0)
     844:	2008                	fld	fa0,0(s0)
     846:	8d26                	mv	s10,s1
     848:	0800                	addi	s0,sp,16
     84a:	2420                	fld	fs0,72(s0)
     84c:	2008                	fld	fa0,0(s0)
     84e:	2226                	fld	ft4,72(sp)
     850:	4a4c                	lw	a1,20(a2)
     852:	2224                	fld	fs1,64(a2)
     854:	9f1c                	.2byte	0x9f1c
     856:	0700                	addi	s0,sp,896
     858:	0224                	addi	s1,sp,264
     85a:	8000                	.2byte	0x8000
     85c:	0000                	unimp
     85e:	0000                	unimp
     860:	024e                	slli	tp,tp,0x13
     862:	8000                	.2byte	0x8000
     864:	0000                	unimp
     866:	0000                	unimp
     868:	7b22                	ld	s6,40(sp)
     86a:	7500                	ld	s0,40(a0)
     86c:	3700                	fld	fs0,40(a4)
     86e:	0824                	addi	s1,sp,24
     870:	2420                	fld	fs0,72(s0)
     872:	2008                	fld	fa0,0(s0)
     874:	1c26                	slli	s8,s8,0x29
     876:	008d                	addi	ra,ra,3
     878:	2008                	fld	fa0,0(s0)
     87a:	0824                	addi	s1,sp,24
     87c:	2620                	fld	fs0,72(a2)
     87e:	0c1c                	addi	a5,sp,528
     880:	0020                	addi	s0,sp,8
     882:	7000                	ld	s0,32(s0)
     884:	371c                	fld	fa5,40(a4)
     886:	7525                	lui	a0,0xfffe9
     888:	2200                	fld	fs0,0(a2)
     88a:	079f 024e 8000      	.byte	0x9f, 0x07, 0x4e, 0x02, 0x00, 0x80
     890:	0000                	unimp
     892:	0000                	unimp
     894:	025e                	slli	tp,tp,0x17
     896:	8000                	.2byte	0x8000
     898:	0000                	unimp
     89a:	0000                	unimp
     89c:	7b22                	ld	s6,40(sp)
     89e:	7500                	ld	s0,40(a0)
     8a0:	3700                	fld	fs0,40(a4)
     8a2:	0824                	addi	s1,sp,24
     8a4:	2420                	fld	fs0,72(s0)
     8a6:	2008                	fld	fa0,0(s0)
     8a8:	1c26                	slli	s8,s8,0x29
     8aa:	008d                	addi	ra,ra,3
     8ac:	2008                	fld	fa0,0(s0)
     8ae:	0824                	addi	s1,sp,24
     8b0:	2620                	fld	fs0,72(a2)
     8b2:	0c1c                	addi	a5,sp,528
     8b4:	00a0                	addi	s0,sp,72
     8b6:	7000                	ld	s0,32(s0)
     8b8:	371c                	fld	fa5,40(a4)
     8ba:	7525                	lui	a0,0xfffe9
     8bc:	2200                	fld	fs0,0(a2)
     8be:	009f 2407 0002      	.byte	0x9f, 0x00, 0x07, 0x24, 0x02, 0x00
     8c4:	0080                	addi	s0,sp,64
     8c6:	0000                	unimp
     8c8:	3400                	fld	fs0,40(s0)
     8ca:	0002                	c.slli64	zero
     8cc:	0080                	addi	s0,sp,64
     8ce:	0000                	unimp
     8d0:	2500                	fld	fs0,8(a0)
     8d2:	007f                	.2byte	0x7f
     8d4:	008d007b          	.4byte	0x8d007b
     8d8:	0c1c                	addi	a5,sp,528
     8da:	0020                	addi	s0,sp,8
     8dc:	7000                	ld	s0,32(s0)
     8de:	081c                	addi	a5,sp,16
     8e0:	2420                	fld	fs0,72(s0)
     8e2:	2008                	fld	fa0,0(s0)
     8e4:	8d26                	mv	s10,s1
     8e6:	0800                	addi	s0,sp,16
     8e8:	2420                	fld	fs0,72(s0)
     8ea:	2008                	fld	fa0,0(s0)
     8ec:	2226                	fld	ft4,72(sp)
     8ee:	4a4c                	lw	a1,20(a2)
     8f0:	2224                	fld	fs1,64(a2)
     8f2:	8d1c                	.2byte	0x8d1c
     8f4:	2200                	fld	fs0,0(a2)
     8f6:	009f 3c07 0001      	.byte	0x9f, 0x00, 0x07, 0x3c, 0x01, 0x00
     8fc:	0080                	addi	s0,sp,64
     8fe:	0000                	unimp
     900:	6600                	ld	s0,8(a2)
     902:	0001                	nop
     904:	0080                	addi	s0,sp,64
     906:	0000                	unimp
     908:	0200                	addi	s0,sp,256
     90a:	9f30                	.2byte	0x9f30
     90c:	00016607          	.4byte	0x16607
     910:	0080                	addi	s0,sp,64
     912:	0000                	unimp
     914:	c000                	sw	s0,0(s0)
     916:	0001                	nop
     918:	0080                	addi	s0,sp,64
     91a:	0000                	unimp
     91c:	0100                	addi	s0,sp,128
     91e:	6607006f          	j	70f7e <_prog_start-0x7ff8f082>
     922:	0001                	nop
     924:	0080                	addi	s0,sp,64
     926:	0000                	unimp
     928:	7000                	ld	s0,32(s0)
     92a:	0001                	nop
     92c:	0080                	addi	s0,sp,64
     92e:	0000                	unimp
     930:	0200                	addi	s0,sp,256
     932:	9f30                	.2byte	0x9f30
     934:	00017007          	.4byte	0x17007
     938:	0080                	addi	s0,sp,64
     93a:	0000                	unimp
     93c:	b800                	fsd	fs0,48(s0)
     93e:	0001                	nop
     940:	0080                	addi	s0,sp,64
     942:	0000                	unimp
     944:	0100                	addi	s0,sp,128
     946:	076c                	addi	a1,sp,908
     948:	01b8                	addi	a4,sp,200
     94a:	8000                	.2byte	0x8000
     94c:	0000                	unimp
     94e:	0000                	unimp
     950:	01ba                	slli	gp,gp,0xe
     952:	8000                	.2byte	0x8000
     954:	0000                	unimp
     956:	0000                	unimp
     958:	9f018c03          	lb	s8,-1552(gp)
     95c:	0700                	addi	s0,sp,896
     95e:	0170                	addi	a2,sp,140
     960:	8000                	.2byte	0x8000
     962:	0000                	unimp
     964:	0000                	unimp
     966:	017c                	addi	a5,sp,140
     968:	8000                	.2byte	0x8000
     96a:	0000                	unimp
     96c:	0000                	unimp
     96e:	3002                	fld	ft0,32(sp)
     970:	079f 017c 8000      	.byte	0x9f, 0x07, 0x7c, 0x01, 0x00, 0x80
     976:	0000                	unimp
     978:	0000                	unimp
     97a:	0196                	slli	gp,gp,0x5
     97c:	8000                	.2byte	0x8000
     97e:	0000                	unimp
     980:	0000                	unimp
     982:	5e01                	li	t3,-32
     984:	00019a07          	.4byte	0x19a07
     988:	0080                	addi	s0,sp,64
     98a:	0000                	unimp
     98c:	d800                	sw	s0,48(s0)
     98e:	0001                	nop
     990:	0080                	addi	s0,sp,64
     992:	0000                	unimp
     994:	0100                	addi	s0,sp,128
     996:	005e                	c.slli	zero,0x17
     998:	00017007          	.4byte	0x17007
     99c:	0080                	addi	s0,sp,64
     99e:	0000                	unimp
     9a0:	7c00                	ld	s0,56(s0)
     9a2:	0001                	nop
     9a4:	0080                	addi	s0,sp,64
     9a6:	0000                	unimp
     9a8:	0200                	addi	s0,sp,256
     9aa:	9f30                	.2byte	0x9f30
     9ac:	00017c07          	.4byte	0x17c07
     9b0:	0080                	addi	s0,sp,64
     9b2:	0000                	unimp
     9b4:	9e00                	.2byte	0x9e00
     9b6:	0001                	nop
     9b8:	0080                	addi	s0,sp,64
     9ba:	0000                	unimp
     9bc:	1f00                	addi	s0,sp,944
     9be:	008f007b          	.4byte	0x8f007b
     9c2:	20082437          	lui	s0,0x20082
     9c6:	0824                	addi	s1,sp,24
     9c8:	2620                	fld	fs0,72(a2)
     9ca:	8c1c                	.2byte	0x8c1c
     9cc:	0800                	addi	s0,sp,16
     9ce:	2420                	fld	fs0,72(s0)
     9d0:	2008                	fld	fa0,0(s0)
     9d2:	1c26                	slli	s8,s8,0x29
     9d4:	200c                	fld	fa1,0(s0)
     9d6:	0000                	unimp
     9d8:	1c70                	addi	a2,sp,572
     9da:	079f2537          	lui	a0,0x79f2
     9de:	019e                	slli	gp,gp,0x7
     9e0:	8000                	.2byte	0x8000
     9e2:	0000                	unimp
     9e4:	0000                	unimp
     9e6:	01aa                	slli	gp,gp,0xa
     9e8:	8000                	.2byte	0x8000
     9ea:	0000                	unimp
     9ec:	0000                	unimp
     9ee:	7b21                	lui	s6,0xfffe8
     9f0:	8f00                	.2byte	0x8f00
     9f2:	3700                	fld	fs0,40(a4)
     9f4:	0824                	addi	s1,sp,24
     9f6:	2420                	fld	fs0,72(s0)
     9f8:	2008                	fld	fa0,0(s0)
     9fa:	1c26                	slli	s8,s8,0x29
     9fc:	008c                	addi	a1,sp,64
     9fe:	2008                	fld	fa0,0(s0)
     a00:	0824                	addi	s1,sp,24
     a02:	2620                	fld	fs0,72(a2)
     a04:	0c1c                	addi	a5,sp,528
     a06:	0020                	addi	s0,sp,8
     a08:	7000                	ld	s0,32(s0)
     a0a:	371c                	fld	fa5,40(a4)
     a0c:	2325                	addiw	t1,t1,9
     a0e:	9f01                	subw	a4,a4,s0
     a10:	0001aa07          	flw	fs4,0(gp)
     a14:	0080                	addi	s0,sp,64
     a16:	0000                	unimp
     a18:	ba00                	fsd	fs0,48(a2)
     a1a:	0001                	nop
     a1c:	0080                	addi	s0,sp,64
     a1e:	0000                	unimp
     a20:	2100                	fld	fs0,0(a0)
     a22:	008f007b          	.4byte	0x8f007b
     a26:	20082437          	lui	s0,0x20082
     a2a:	0824                	addi	s1,sp,24
     a2c:	2620                	fld	fs0,72(a2)
     a2e:	8c1c                	.2byte	0x8c1c
     a30:	0800                	addi	s0,sp,16
     a32:	2420                	fld	fs0,72(s0)
     a34:	2008                	fld	fa0,0(s0)
     a36:	1c26                	slli	s8,s8,0x29
     a38:	a00c                	fsd	fa1,0(s0)
     a3a:	0000                	unimp
     a3c:	1c70                	addi	a2,sp,572
     a3e:	01232537          	lui	a0,0x1232
     a42:	009f 7c07 0001      	.byte	0x9f, 0x00, 0x07, 0x7c, 0x01, 0x00
     a48:	0080                	addi	s0,sp,64
     a4a:	0000                	unimp
     a4c:	8000                	.2byte	0x8000
     a4e:	0001                	nop
     a50:	0080                	addi	s0,sp,64
     a52:	0000                	unimp
     a54:	0200                	addi	s0,sp,256
     a56:	9f30                	.2byte	0x9f30
     a58:	00018007          	.4byte	0x18007
     a5c:	0080                	addi	s0,sp,64
     a5e:	0000                	unimp
     a60:	9000                	.2byte	0x9000
     a62:	0001                	nop
     a64:	0080                	addi	s0,sp,64
     a66:	0000                	unimp
     a68:	2200                	fld	fs0,0(a2)
     a6a:	007f                	.2byte	0x7f
     a6c:	008c007b          	.4byte	0x8c007b
     a70:	0c1c                	addi	a5,sp,528
     a72:	0020                	addi	s0,sp,8
     a74:	7000                	ld	s0,32(s0)
     a76:	081c                	addi	a5,sp,16
     a78:	2420                	fld	fs0,72(s0)
     a7a:	2008                	fld	fa0,0(s0)
     a7c:	8c26                	mv	s8,s1
     a7e:	0800                	addi	s0,sp,16
     a80:	2420                	fld	fs0,72(s0)
     a82:	2008                	fld	fa0,0(s0)
     a84:	2226                	fld	ft4,72(sp)
     a86:	4a4c                	lw	a1,20(a2)
     a88:	2224                	fld	fs1,64(a2)
     a8a:	9f1c                	.2byte	0x9f1c
     a8c:	0700                	addi	s0,sp,896
     a8e:	0180                	addi	s0,sp,192
     a90:	8000                	.2byte	0x8000
     a92:	0000                	unimp
     a94:	0000                	unimp
     a96:	01aa                	slli	gp,gp,0xa
     a98:	8000                	.2byte	0x8000
     a9a:	0000                	unimp
     a9c:	0000                	unimp
     a9e:	7b22                	ld	s6,40(sp)
     aa0:	8f00                	.2byte	0x8f00
     aa2:	3700                	fld	fs0,40(a4)
     aa4:	0824                	addi	s1,sp,24
     aa6:	2420                	fld	fs0,72(s0)
     aa8:	2008                	fld	fa0,0(s0)
     aaa:	1c26                	slli	s8,s8,0x29
     aac:	008c                	addi	a1,sp,64
     aae:	2008                	fld	fa0,0(s0)
     ab0:	0824                	addi	s1,sp,24
     ab2:	2620                	fld	fs0,72(a2)
     ab4:	0c1c                	addi	a5,sp,528
     ab6:	0020                	addi	s0,sp,8
     ab8:	7000                	ld	s0,32(s0)
     aba:	371c                	fld	fa5,40(a4)
     abc:	8f25                	xor	a4,a4,s1
     abe:	2200                	fld	fs0,0(a2)
     ac0:	079f 01aa 8000      	.byte	0x9f, 0x07, 0xaa, 0x01, 0x00, 0x80
     ac6:	0000                	unimp
     ac8:	0000                	unimp
     aca:	01ba                	slli	gp,gp,0xe
     acc:	8000                	.2byte	0x8000
     ace:	0000                	unimp
     ad0:	0000                	unimp
     ad2:	7b22                	ld	s6,40(sp)
     ad4:	8f00                	.2byte	0x8f00
     ad6:	3700                	fld	fs0,40(a4)
     ad8:	0824                	addi	s1,sp,24
     ada:	2420                	fld	fs0,72(s0)
     adc:	2008                	fld	fa0,0(s0)
     ade:	1c26                	slli	s8,s8,0x29
     ae0:	008c                	addi	a1,sp,64
     ae2:	2008                	fld	fa0,0(s0)
     ae4:	0824                	addi	s1,sp,24
     ae6:	2620                	fld	fs0,72(a2)
     ae8:	0c1c                	addi	a5,sp,528
     aea:	00a0                	addi	s0,sp,72
     aec:	7000                	ld	s0,32(s0)
     aee:	371c                	fld	fa5,40(a4)
     af0:	8f25                	xor	a4,a4,s1
     af2:	2200                	fld	fs0,0(a2)
     af4:	009f 8007 0001      	.byte	0x9f, 0x00, 0x07, 0x80, 0x01, 0x00
     afa:	0080                	addi	s0,sp,64
     afc:	0000                	unimp
     afe:	9000                	.2byte	0x9000
     b00:	0001                	nop
     b02:	0080                	addi	s0,sp,64
     b04:	0000                	unimp
     b06:	2500                	fld	fs0,8(a0)
     b08:	007f                	.2byte	0x7f
     b0a:	008c007b          	.4byte	0x8c007b
     b0e:	0c1c                	addi	a5,sp,528
     b10:	0020                	addi	s0,sp,8
     b12:	7000                	ld	s0,32(s0)
     b14:	081c                	addi	a5,sp,16
     b16:	2420                	fld	fs0,72(s0)
     b18:	2008                	fld	fa0,0(s0)
     b1a:	8c26                	mv	s8,s1
     b1c:	0800                	addi	s0,sp,16
     b1e:	2420                	fld	fs0,72(s0)
     b20:	2008                	fld	fa0,0(s0)
     b22:	2226                	fld	ft4,72(sp)
     b24:	4a4c                	lw	a1,20(a2)
     b26:	2224                	fld	fs1,64(a2)
     b28:	8c1c                	.2byte	0x8c1c
     b2a:	2200                	fld	fs0,0(a2)
     b2c:	009f d407 0000      	.byte	0x9f, 0x00, 0x07, 0xd4, 0x00, 0x00
     b32:	0080                	addi	s0,sp,64
     b34:	0000                	unimp
     b36:	e400                	sd	s0,8(s0)
     b38:	0000                	unimp
     b3a:	0080                	addi	s0,sp,64
     b3c:	0000                	unimp
     b3e:	0100                	addi	s0,sp,128
     b40:	075a                	slli	a4,a4,0x16
     b42:	00e4                	addi	s1,sp,76
     b44:	8000                	.2byte	0x8000
     b46:	0000                	unimp
     b48:	0000                	unimp
     b4a:	013c                	addi	a5,sp,136
     b4c:	8000                	.2byte	0x8000
     b4e:	0000                	unimp
     b50:	0000                	unimp
     b52:	a304                	fsd	fs1,0(a4)
     b54:	5a01                	li	s4,-32
     b56:	009f d407 0000      	.byte	0x9f, 0x00, 0x07, 0xd4, 0x00, 0x00
     b5c:	0080                	addi	s0,sp,64
     b5e:	0000                	unimp
     b60:	e400                	sd	s0,8(s0)
     b62:	0000                	unimp
     b64:	0080                	addi	s0,sp,64
     b66:	0000                	unimp
     b68:	0100                	addi	s0,sp,128
     b6a:	00e4075b          	.4byte	0xe4075b
     b6e:	8000                	.2byte	0x8000
     b70:	0000                	unimp
     b72:	0000                	unimp
     b74:	013c                	addi	a5,sp,136
     b76:	8000                	.2byte	0x8000
     b78:	0000                	unimp
     b7a:	0000                	unimp
     b7c:	6e01                	.2byte	0x6e01
     b7e:	0700                	addi	s0,sp,896
     b80:	00d4                	addi	a3,sp,68
     b82:	8000                	.2byte	0x8000
     b84:	0000                	unimp
     b86:	0000                	unimp
     b88:	00e4                	addi	s1,sp,76
     b8a:	8000                	.2byte	0x8000
     b8c:	0000                	unimp
     b8e:	0000                	unimp
     b90:	5c01                	li	s8,-32
     b92:	0000e407          	.4byte	0xe407
     b96:	0080                	addi	s0,sp,64
     b98:	0000                	unimp
     b9a:	3c00                	fld	fs0,56(s0)
     b9c:	0001                	nop
     b9e:	0080                	addi	s0,sp,64
     ba0:	0000                	unimp
     ba2:	0400                	addi	s0,sp,512
     ba4:	9f5c01a3          	sb	s5,-1565(s8) # e9e3 <_prog_start-0x7fff161d>
     ba8:	0700                	addi	s0,sp,896
     baa:	00d4                	addi	a3,sp,68
     bac:	8000                	.2byte	0x8000
     bae:	0000                	unimp
     bb0:	0000                	unimp
     bb2:	00e4                	addi	s1,sp,76
     bb4:	8000                	.2byte	0x8000
     bb6:	0000                	unimp
     bb8:	0000                	unimp
     bba:	3002                	fld	ft0,32(sp)
     bbc:	079f 00e4 8000      	.byte	0x9f, 0x07, 0xe4, 0x00, 0x00, 0x80
     bc2:	0000                	unimp
     bc4:	0000                	unimp
     bc6:	012e                	slli	sp,sp,0xb
     bc8:	8000                	.2byte	0x8000
     bca:	0000                	unimp
     bcc:	0000                	unimp
     bce:	6f01                	.2byte	0x6f01
     bd0:	0700                	addi	s0,sp,896
     bd2:	00e4                	addi	s1,sp,76
     bd4:	8000                	.2byte	0x8000
     bd6:	0000                	unimp
     bd8:	0000                	unimp
     bda:	00ea                	slli	ra,ra,0x1a
     bdc:	8000                	.2byte	0x8000
     bde:	0000                	unimp
     be0:	0000                	unimp
     be2:	3002                	fld	ft0,32(sp)
     be4:	079f 00ea 8000      	.byte	0x9f, 0x07, 0xea, 0x00, 0x00, 0x80
     bea:	0000                	unimp
     bec:	0000                	unimp
     bee:	0126                	slli	sp,sp,0x9
     bf0:	8000                	.2byte	0x8000
     bf2:	0000                	unimp
     bf4:	0000                	unimp
     bf6:	5601                	li	a2,-32
     bf8:	00012607          	flw	fa2,0(sp)
     bfc:	0080                	addi	s0,sp,64
     bfe:	0000                	unimp
     c00:	2800                	fld	fs0,16(s0)
     c02:	0001                	nop
     c04:	0080                	addi	s0,sp,64
     c06:	0000                	unimp
     c08:	0300                	addi	s0,sp,384
     c0a:	0176                	slli	sp,sp,0x1d
     c0c:	009f ea07 0000      	.byte	0x9f, 0x00, 0x07, 0xea, 0x00, 0x00
     c12:	0080                	addi	s0,sp,64
     c14:	0000                	unimp
     c16:	f200                	sd	s0,32(a2)
     c18:	0000                	unimp
     c1a:	0080                	addi	s0,sp,64
     c1c:	0000                	unimp
     c1e:	0200                	addi	s0,sp,256
     c20:	9f30                	.2byte	0x9f30
     c22:	0000f207          	.4byte	0xf207
     c26:	0080                	addi	s0,sp,64
     c28:	0000                	unimp
     c2a:	0a00                	addi	s0,sp,272
     c2c:	0001                	nop
     c2e:	0080                	addi	s0,sp,64
     c30:	0000                	unimp
     c32:	0100                	addi	s0,sp,128
     c34:	075e                	slli	a4,a4,0x17
     c36:	010e                	slli	sp,sp,0x3
     c38:	8000                	.2byte	0x8000
     c3a:	0000                	unimp
     c3c:	0000                	unimp
     c3e:	013c                	addi	a5,sp,136
     c40:	8000                	.2byte	0x8000
     c42:	0000                	unimp
     c44:	0000                	unimp
     c46:	5e01                	li	t3,-32
     c48:	0700                	addi	s0,sp,896
     c4a:	00ea                	slli	ra,ra,0x1a
     c4c:	8000                	.2byte	0x8000
     c4e:	0000                	unimp
     c50:	0000                	unimp
     c52:	00f2                	slli	ra,ra,0x1c
     c54:	8000                	.2byte	0x8000
     c56:	0000                	unimp
     c58:	0000                	unimp
     c5a:	3002                	fld	ft0,32(sp)
     c5c:	079f 00f2 8000      	.byte	0x9f, 0x07, 0xf2, 0x00, 0x00, 0x80
     c62:	0000                	unimp
     c64:	0000                	unimp
     c66:	0112                	slli	sp,sp,0x4
     c68:	8000                	.2byte	0x8000
     c6a:	0000                	unimp
     c6c:	0000                	unimp
     c6e:	8008                	.2byte	0x8008
     c70:	8e00                	.2byte	0x8e00
     c72:	1c00                	addi	s0,sp,560
     c74:	2535                	addiw	a0,a0,13 # 123200d <_prog_start-0x7edcdff3>
     c76:	079f 0112 8000      	.byte	0x9f, 0x07, 0x12, 0x01, 0x00, 0x80
     c7c:	0000                	unimp
     c7e:	0000                	unimp
     c80:	0116                	slli	sp,sp,0x5
     c82:	8000                	.2byte	0x8000
     c84:	0000                	unimp
     c86:	0000                	unimp
     c88:	800a                	c.mv	zero,sp
     c8a:	8e00                	.2byte	0x8e00
     c8c:	1c00                	addi	s0,sp,560
     c8e:	2535                	addiw	a0,a0,13
     c90:	079f0123          	sb	s9,98(t5) # fffffffffffe9062 <kprintf+0xffffffff7ffe8b3e>
     c94:	0116                	slli	sp,sp,0x5
     c96:	8000                	.2byte	0x8000
     c98:	0000                	unimp
     c9a:	0000                	unimp
     c9c:	013c                	addi	a5,sp,136
     c9e:	8000                	.2byte	0x8000
     ca0:	0000                	unimp
     ca2:	0000                	unimp
     ca4:	800d                	srli	s0,s0,0x3
     ca6:	8e00                	.2byte	0x8e00
     ca8:	1c00                	addi	s0,sp,560
     caa:	2008                	fld	fa0,0(s0)
     cac:	351c                	fld	fa5,40(a0)
     cae:	2325                	addiw	t1,t1,9
     cb0:	9f01                	subw	a4,a4,s0
     cb2:	0700                	addi	s0,sp,896
     cb4:	00f2                	slli	ra,ra,0x1c
     cb6:	8000                	.2byte	0x8000
     cb8:	0000                	unimp
     cba:	0000                	unimp
     cbc:	00f8                	addi	a4,sp,76
     cbe:	8000                	.2byte	0x8000
     cc0:	0000                	unimp
     cc2:	0000                	unimp
     cc4:	3002                	fld	ft0,32(sp)
     cc6:	079f 00f8 8000      	.byte	0x9f, 0x07, 0xf8, 0x00, 0x00, 0x80
     ccc:	0000                	unimp
     cce:	0000                	unimp
     cd0:	0102                	c.slli64	sp
     cd2:	8000                	.2byte	0x8000
     cd4:	0000                	unimp
     cd6:	0000                	unimp
     cd8:	8f007f27          	.4byte	0x8f007f27
     cdc:	3700                	fld	fs0,40(a4)
     cde:	7624                	ld	s1,104(a2)
     ce0:	1c00                	addi	s0,sp,560
     ce2:	007a                	c.slli	zero,0x1e
     ce4:	8c22                	mv	s8,s0
     ce6:	1c00                	addi	s0,sp,560
     ce8:	2008                	fld	fa0,0(s0)
     cea:	081c                	addi	a5,sp,16
     cec:	2420                	fld	fs0,72(s0)
     cee:	2008                	fld	fa0,0(s0)
     cf0:	7626                	ld	a2,104(sp)
     cf2:	0800                	addi	s0,sp,16
     cf4:	2420                	fld	fs0,72(s0)
     cf6:	2008                	fld	fa0,0(s0)
     cf8:	2226                	fld	ft4,72(sp)
     cfa:	225a01a3          	sb	t0,547(s4)
     cfe:	9f1c                	.2byte	0x9f1c
     d00:	0700                	addi	s0,sp,896
     d02:	00f8                	addi	a4,sp,76
     d04:	8000                	.2byte	0x8000
     d06:	0000                	unimp
     d08:	0000                	unimp
     d0a:	0116                	slli	sp,sp,0x5
     d0c:	8000                	.2byte	0x8000
     d0e:	0000                	unimp
     d10:	0000                	unimp
     d12:	8e00800b          	.4byte	0x8e00800b
     d16:	1c00                	addi	s0,sp,560
     d18:	2535                	addiw	a0,a0,13
     d1a:	9f22008f          	.4byte	0x9f22008f
     d1e:	00011607          	.4byte	0x11607
     d22:	0080                	addi	s0,sp,64
     d24:	0000                	unimp
     d26:	2e00                	fld	fs0,24(a2)
     d28:	0001                	nop
     d2a:	0080                	addi	s0,sp,64
     d2c:	0000                	unimp
     d2e:	0e00                	addi	s0,sp,784
     d30:	0080                	addi	s0,sp,64
     d32:	008e                	slli	ra,ra,0x3
     d34:	081c                	addi	a5,sp,16
     d36:	1c20                	addi	s0,sp,568
     d38:	2535                	addiw	a0,a0,13
     d3a:	9f22008f          	.4byte	0x9f22008f
     d3e:	0700                	addi	s0,sp,896
     d40:	00f8                	addi	a4,sp,76
     d42:	8000                	.2byte	0x8000
     d44:	0000                	unimp
     d46:	0000                	unimp
     d48:	0102                	c.slli64	sp
     d4a:	8000                	.2byte	0x8000
     d4c:	0000                	unimp
     d4e:	0000                	unimp
     d50:	762a                	ld	a2,168(sp)
     d52:	8f00                	.2byte	0x8f00
     d54:	3700                	fld	fs0,40(a4)
     d56:	7624                	ld	s1,104(a2)
     d58:	1c00                	addi	s0,sp,560
     d5a:	007a                	c.slli	zero,0x1e
     d5c:	8c22                	mv	s8,s0
     d5e:	1c00                	addi	s0,sp,560
     d60:	2008                	fld	fa0,0(s0)
     d62:	081c                	addi	a5,sp,16
     d64:	2420                	fld	fs0,72(s0)
     d66:	2008                	fld	fa0,0(s0)
     d68:	7626                	ld	a2,104(sp)
     d6a:	0800                	addi	s0,sp,16
     d6c:	2420                	fld	fs0,72(s0)
     d6e:	2008                	fld	fa0,0(s0)
     d70:	2226                	fld	ft4,72(sp)
     d72:	225a01a3          	sb	t0,547(s4)
     d76:	7f1c                	ld	a5,56(a4)
     d78:	2200                	fld	fs0,0(a2)
     d7a:	009f 0472 0000      	.byte	0x9f, 0x00, 0x72, 0x04, 0x00, 0x00
     d80:	0005                	c.nop	1
     d82:	0008                	.2byte	0x8
     d84:	0000                	unimp
     d86:	0000                	unimp
     d88:	00052407          	flw	fs0,0(a0)
     d8c:	0080                	addi	s0,sp,64
     d8e:	0000                	unimp
     d90:	3c00                	fld	fs0,56(s0)
     d92:	0005                	c.nop	1
     d94:	0080                	addi	s0,sp,64
     d96:	0000                	unimp
     d98:	0100                	addi	s0,sp,128
     d9a:	075a                	slli	a4,a4,0x16
     d9c:	053c                	addi	a5,sp,648
     d9e:	8000                	.2byte	0x8000
     da0:	0000                	unimp
     da2:	0000                	unimp
     da4:	0542                	slli	a0,a0,0x10
     da6:	8000                	.2byte	0x8000
     da8:	0000                	unimp
     daa:	0000                	unimp
     dac:	9f017a03          	.4byte	0x9f017a03
     db0:	00054207          	.4byte	0x54207
     db4:	0080                	addi	s0,sp,64
     db6:	0000                	unimp
     db8:	9800                	.2byte	0x9800
     dba:	0005                	c.nop	1
     dbc:	0080                	addi	s0,sp,64
     dbe:	0000                	unimp
     dc0:	0100                	addi	s0,sp,128
     dc2:	075a                	slli	a4,a4,0x16
     dc4:	059c                	addi	a5,sp,704
     dc6:	8000                	.2byte	0x8000
     dc8:	0000                	unimp
     dca:	0000                	unimp
     dcc:	06a6                	slli	a3,a3,0x9
     dce:	8000                	.2byte	0x8000
     dd0:	0000                	unimp
     dd2:	0000                	unimp
     dd4:	5a01                	li	s4,-32
     dd6:	0700                	addi	s0,sp,896
     dd8:	053c                	addi	a5,sp,648
     dda:	8000                	.2byte	0x8000
     ddc:	0000                	unimp
     dde:	0000                	unimp
     de0:	0558                	addi	a4,sp,644
     de2:	8000                	.2byte	0x8000
     de4:	0000                	unimp
     de6:	0000                	unimp
     de8:	3002                	fld	ft0,32(sp)
     dea:	079f 0558 8000      	.byte	0x9f, 0x07, 0x58, 0x05, 0x00, 0x80
     df0:	0000                	unimp
     df2:	0000                	unimp
     df4:	0578                	addi	a4,sp,652
     df6:	8000                	.2byte	0x8000
     df8:	0000                	unimp
     dfa:	0000                	unimp
     dfc:	5e01                	li	t3,-32
     dfe:	00058e07          	.4byte	0x58e07
     e02:	0080                	addi	s0,sp,64
     e04:	0000                	unimp
     e06:	9800                	.2byte	0x9800
     e08:	0005                	c.nop	1
     e0a:	0080                	addi	s0,sp,64
     e0c:	0000                	unimp
     e0e:	0100                	addi	s0,sp,128
     e10:	075e                	slli	a4,a4,0x17
     e12:	059c                	addi	a5,sp,704
     e14:	8000                	.2byte	0x8000
     e16:	0000                	unimp
     e18:	0000                	unimp
     e1a:	05a4                	addi	s1,sp,712
     e1c:	8000                	.2byte	0x8000
     e1e:	0000                	unimp
     e20:	0000                	unimp
     e22:	5e01                	li	t3,-32
     e24:	0005da07          	.4byte	0x5da07
     e28:	0080                	addi	s0,sp,64
     e2a:	0000                	unimp
     e2c:	ec00                	sd	s0,24(s0)
     e2e:	0005                	c.nop	1
     e30:	0080                	addi	s0,sp,64
     e32:	0000                	unimp
     e34:	0100                	addi	s0,sp,128
     e36:	075e                	slli	a4,a4,0x17
     e38:	0600                	addi	s0,sp,768
     e3a:	8000                	.2byte	0x8000
     e3c:	0000                	unimp
     e3e:	0000                	unimp
     e40:	0622                	slli	a2,a2,0x8
     e42:	8000                	.2byte	0x8000
     e44:	0000                	unimp
     e46:	0000                	unimp
     e48:	5e01                	li	t3,-32
     e4a:	00063207          	fld	ft4,0(a2) # b000 <_prog_start-0x7fff5000>
     e4e:	0080                	addi	s0,sp,64
     e50:	0000                	unimp
     e52:	3600                	fld	fs0,40(a2)
     e54:	0006                	c.slli	zero,0x1
     e56:	0080                	addi	s0,sp,64
     e58:	0000                	unimp
     e5a:	0100                	addi	s0,sp,128
     e5c:	075e                	slli	a4,a4,0x17
     e5e:	0636                	slli	a2,a2,0xd
     e60:	8000                	.2byte	0x8000
     e62:	0000                	unimp
     e64:	0000                	unimp
     e66:	0654                	addi	a3,sp,772
     e68:	8000                	.2byte	0x8000
     e6a:	0000                	unimp
     e6c:	0000                	unimp
     e6e:	3002                	fld	ft0,32(sp)
     e70:	079f 0654 8000      	.byte	0x9f, 0x07, 0x54, 0x06, 0x00, 0x80
     e76:	0000                	unimp
     e78:	0000                	unimp
     e7a:	065a                	slli	a2,a2,0x16
     e7c:	8000                	.2byte	0x8000
     e7e:	0000                	unimp
     e80:	0000                	unimp
     e82:	5e01                	li	t3,-32
     e84:	0700                	addi	s0,sp,896
     e86:	053c                	addi	a5,sp,648
     e88:	8000                	.2byte	0x8000
     e8a:	0000                	unimp
     e8c:	0000                	unimp
     e8e:	0558                	addi	a4,sp,644
     e90:	8000                	.2byte	0x8000
     e92:	0000                	unimp
     e94:	0000                	unimp
     e96:	3002                	fld	ft0,32(sp)
     e98:	079f 0558 8000      	.byte	0x9f, 0x07, 0x58, 0x05, 0x00, 0x80
     e9e:	0000                	unimp
     ea0:	0000                	unimp
     ea2:	057c                	addi	a5,sp,652
     ea4:	8000                	.2byte	0x8000
     ea6:	0000                	unimp
     ea8:	0000                	unimp
     eaa:	5d01                	li	s10,-32
     eac:	00058e07          	.4byte	0x58e07
     eb0:	0080                	addi	s0,sp,64
     eb2:	0000                	unimp
     eb4:	9800                	.2byte	0x9800
     eb6:	0005                	c.nop	1
     eb8:	0080                	addi	s0,sp,64
     eba:	0000                	unimp
     ebc:	0100                	addi	s0,sp,128
     ebe:	075d                	addi	a4,a4,23
     ec0:	059c                	addi	a5,sp,704
     ec2:	8000                	.2byte	0x8000
     ec4:	0000                	unimp
     ec6:	0000                	unimp
     ec8:	05b4                	addi	a3,sp,712
     eca:	8000                	.2byte	0x8000
     ecc:	0000                	unimp
     ece:	0000                	unimp
     ed0:	5d01                	li	s10,-32
     ed2:	0005da07          	.4byte	0x5da07
     ed6:	0080                	addi	s0,sp,64
     ed8:	0000                	unimp
     eda:	e600                	sd	s0,8(a2)
     edc:	0005                	c.nop	1
     ede:	0080                	addi	s0,sp,64
     ee0:	0000                	unimp
     ee2:	0100                	addi	s0,sp,128
     ee4:	075d                	addi	a4,a4,23
     ee6:	0600                	addi	s0,sp,768
     ee8:	8000                	.2byte	0x8000
     eea:	0000                	unimp
     eec:	0000                	unimp
     eee:	0626                	slli	a2,a2,0x9
     ef0:	8000                	.2byte	0x8000
     ef2:	0000                	unimp
     ef4:	0000                	unimp
     ef6:	5d01                	li	s10,-32
     ef8:	00063207          	fld	ft4,0(a2)
     efc:	0080                	addi	s0,sp,64
     efe:	0000                	unimp
     f00:	3600                	fld	fs0,40(a2)
     f02:	0006                	c.slli	zero,0x1
     f04:	0080                	addi	s0,sp,64
     f06:	0000                	unimp
     f08:	0200                	addi	s0,sp,256
     f0a:	9f31                	addw	a4,a4,a2
     f0c:	00063607          	fld	fa2,0(a2)
     f10:	0080                	addi	s0,sp,64
     f12:	0000                	unimp
     f14:	5a00                	lw	s0,48(a2)
     f16:	0006                	c.slli	zero,0x1
     f18:	0080                	addi	s0,sp,64
     f1a:	0000                	unimp
     f1c:	0100                	addi	s0,sp,128
     f1e:	075d                	addi	a4,a4,23
     f20:	0686                	slli	a3,a3,0x1
     f22:	8000                	.2byte	0x8000
     f24:	0000                	unimp
     f26:	0000                	unimp
     f28:	068a                	slli	a3,a3,0x2
     f2a:	8000                	.2byte	0x8000
     f2c:	0000                	unimp
     f2e:	0000                	unimp
     f30:	5d01                	li	s10,-32
     f32:	0700                	addi	s0,sp,896
     f34:	053c                	addi	a5,sp,648
     f36:	8000                	.2byte	0x8000
     f38:	0000                	unimp
     f3a:	0000                	unimp
     f3c:	055e                	slli	a0,a0,0x17
     f3e:	8000                	.2byte	0x8000
     f40:	0000                	unimp
     f42:	0000                	unimp
     f44:	5601                	li	a2,-32
     f46:	00059407          	.4byte	0x59407
     f4a:	0080                	addi	s0,sp,64
     f4c:	0000                	unimp
     f4e:	9c00                	.2byte	0x9c00
     f50:	0005                	c.nop	1
     f52:	0080                	addi	s0,sp,64
     f54:	0000                	unimp
     f56:	0100                	addi	s0,sp,128
     f58:	0756                	slli	a4,a4,0x15
     f5a:	0636                	slli	a2,a2,0xd
     f5c:	8000                	.2byte	0x8000
     f5e:	0000                	unimp
     f60:	0000                	unimp
     f62:	0654                	addi	a3,sp,772
     f64:	8000                	.2byte	0x8000
     f66:	0000                	unimp
     f68:	0000                	unimp
     f6a:	5601                	li	a2,-32
     f6c:	0700                	addi	s0,sp,896
     f6e:	065a                	slli	a2,a2,0x16
     f70:	8000                	.2byte	0x8000
     f72:	0000                	unimp
     f74:	0000                	unimp
     f76:	067e                	slli	a2,a2,0x1f
     f78:	8000                	.2byte	0x8000
     f7a:	0000                	unimp
     f7c:	0000                	unimp
     f7e:	5601                	li	a2,-32
     f80:	00067e07          	.4byte	0x67e07
     f84:	0080                	addi	s0,sp,64
     f86:	0000                	unimp
     f88:	8600                	.2byte	0x8600
     f8a:	0006                	c.slli	zero,0x1
     f8c:	0080                	addi	s0,sp,64
     f8e:	0000                	unimp
     f90:	0100                	addi	s0,sp,128
     f92:	075f 068a 8000      	.byte	0x5f, 0x07, 0x8a, 0x06, 0x00, 0x80
     f98:	0000                	unimp
     f9a:	0000                	unimp
     f9c:	0692                	slli	a3,a3,0x4
     f9e:	8000                	.2byte	0x8000
     fa0:	0000                	unimp
     fa2:	0000                	unimp
     fa4:	5f01                	li	t5,-32
     fa6:	00069207          	.4byte	0x69207
     faa:	0080                	addi	s0,sp,64
     fac:	0000                	unimp
     fae:	a600                	fsd	fs0,8(a2)
     fb0:	0006                	c.slli	zero,0x1
     fb2:	0080                	addi	s0,sp,64
     fb4:	0000                	unimp
     fb6:	0c00                	addi	s0,sp,528
     fb8:	0076                	c.slli	zero,0x1d
     fba:	2ea8                	fld	fa0,88(a3)
     fbc:	008d                	addi	ra,ra,3
     fbe:	2ea8                	fld	fa0,88(a3)
     fc0:	9f00a81b          	.4byte	0x9f00a81b
     fc4:	0700                	addi	s0,sp,896
     fc6:	065a                	slli	a2,a2,0x16
     fc8:	8000                	.2byte	0x8000
     fca:	0000                	unimp
     fcc:	0000                	unimp
     fce:	065e                	slli	a2,a2,0x17
     fd0:	8000                	.2byte	0x8000
     fd2:	0000                	unimp
     fd4:	0000                	unimp
     fd6:	9f3f0803          	lb	a6,-1549(t5)
     fda:	00065e07          	.4byte	0x65e07
     fde:	0080                	addi	s0,sp,64
     fe0:	0000                	unimp
     fe2:	6600                	ld	s0,8(a2)
     fe4:	0006                	c.slli	zero,0x1
     fe6:	0080                	addi	s0,sp,64
     fe8:	0000                	unimp
     fea:	0900                	addi	s0,sp,144
     fec:	007f                	.2byte	0x7f
     fee:	be91                	j	b42 <_prog_start-0x7ffff4be>
     ff0:	1c7f                	.2byte	0x1c7f
     ff2:	009f3f23          	sd	s1,30(t5)
     ff6:	00069c07          	.4byte	0x69c07
     ffa:	0080                	addi	s0,sp,64
     ffc:	0000                	unimp
     ffe:	a200                	fsd	fs0,0(a2)
    1000:	0006                	c.slli	zero,0x1
    1002:	0080                	addi	s0,sp,64
    1004:	0000                	unimp
    1006:	0900                	addi	s0,sp,144
    1008:	007c                	addi	a5,sp,12
    100a:	8191                	srli	a1,a1,0x4
    100c:	1c7f                	.2byte	0x1c7f
    100e:	009f0123          	sb	s1,2(t5)
    1012:	00069807          	.4byte	0x69807
    1016:	0080                	addi	s0,sp,64
    1018:	0000                	unimp
    101a:	9c00                	.2byte	0x9c00
    101c:	0006                	c.slli	zero,0x1
    101e:	0080                	addi	s0,sp,64
    1020:	0000                	unimp
    1022:	0100                	addi	s0,sp,128
    1024:	005f aa07 0005      	.byte	0x5f, 0x00, 0x07, 0xaa, 0x05, 0x00
    102a:	0080                	addi	s0,sp,64
    102c:	0000                	unimp
    102e:	ac00                	fsd	fs0,24(s0)
    1030:	0005                	c.nop	1
    1032:	0080                	addi	s0,sp,64
    1034:	0000                	unimp
    1036:	0100                	addi	s0,sp,128
    1038:	05b4076f          	jal	a4,41892 <_prog_start-0x7ffbe76e>
    103c:	8000                	.2byte	0x8000
    103e:	0000                	unimp
    1040:	0000                	unimp
    1042:	05da                	slli	a1,a1,0x16
    1044:	8000                	.2byte	0x8000
    1046:	0000                	unimp
    1048:	0000                	unimp
    104a:	6f01                	.2byte	0x6f01
    104c:	00068607          	.4byte	0x68607
    1050:	0080                	addi	s0,sp,64
    1052:	0000                	unimp
    1054:	8a00                	.2byte	0x8a00
    1056:	0006                	c.slli	zero,0x1
    1058:	0080                	addi	s0,sp,64
    105a:	0000                	unimp
    105c:	0100                	addi	s0,sp,128
    105e:	b407006f          	j	fffffffffff7139e <kprintf+0xffffffff7ff70e7a>
    1062:	0005                	c.nop	1
    1064:	0080                	addi	s0,sp,64
    1066:	0000                	unimp
    1068:	da00                	sw	s0,48(a2)
    106a:	0005                	c.nop	1
    106c:	0080                	addi	s0,sp,64
    106e:	0000                	unimp
    1070:	0100                	addi	s0,sp,128
    1072:	005c                	addi	a5,sp,4
    1074:	0005bc07          	fld	fs8,0(a1) # 64000000 <_prog_start-0x1c000000>
    1078:	0080                	addi	s0,sp,64
    107a:	0000                	unimp
    107c:	da00                	sw	s0,48(a2)
    107e:	0005                	c.nop	1
    1080:	0080                	addi	s0,sp,64
    1082:	0000                	unimp
    1084:	0100                	addi	s0,sp,128
    1086:	0056                	c.slli	zero,0x15
    1088:	0005ce07          	.4byte	0x5ce07
    108c:	0080                	addi	s0,sp,64
    108e:	0000                	unimp
    1090:	d200                	sw	s0,32(a2)
    1092:	0005                	c.nop	1
    1094:	0080                	addi	s0,sp,64
    1096:	0000                	unimp
    1098:	0100                	addi	s0,sp,128
    109a:	005f 7c07 0005      	.byte	0x5f, 0x00, 0x07, 0x7c, 0x05, 0x00
    10a0:	0080                	addi	s0,sp,64
    10a2:	0000                	unimp
    10a4:	8a00                	.2byte	0x8a00
    10a6:	0005                	c.nop	1
    10a8:	0080                	addi	s0,sp,64
    10aa:	0000                	unimp
    10ac:	0100                	addi	s0,sp,128
    10ae:	005d                	c.nop	23
    10b0:	00057c07          	.4byte	0x57c07
    10b4:	0080                	addi	s0,sp,64
    10b6:	0000                	unimp
    10b8:	8a00                	.2byte	0x8a00
    10ba:	0005                	c.nop	1
    10bc:	0080                	addi	s0,sp,64
    10be:	0000                	unimp
    10c0:	0400                	addi	s0,sp,512
    10c2:	4a49                	li	s4,18
    10c4:	9f24                	.2byte	0x9f24
    10c6:	0700                	addi	s0,sp,896
    10c8:	0586                	slli	a1,a1,0x1
    10ca:	8000                	.2byte	0x8000
    10cc:	0000                	unimp
    10ce:	0000                	unimp
    10d0:	058a                	slli	a1,a1,0x2
    10d2:	8000                	.2byte	0x8000
    10d4:	0000                	unimp
    10d6:	0000                	unimp
    10d8:	5f01                	li	t5,-32
    10da:	0700                	addi	s0,sp,896
    10dc:	05de                	slli	a1,a1,0x17
    10de:	8000                	.2byte	0x8000
    10e0:	0000                	unimp
    10e2:	0000                	unimp
    10e4:	0600                	addi	s0,sp,768
    10e6:	8000                	.2byte	0x8000
    10e8:	0000                	unimp
    10ea:	0000                	unimp
    10ec:	5c01                	li	s8,-32
    10ee:	0700                	addi	s0,sp,896
    10f0:	05e6                	slli	a1,a1,0x19
    10f2:	8000                	.2byte	0x8000
    10f4:	0000                	unimp
    10f6:	0000                	unimp
    10f8:	05fa                	slli	a1,a1,0x1e
    10fa:	8000                	.2byte	0x8000
    10fc:	0000                	unimp
    10fe:	0000                	unimp
    1100:	5d01                	li	s10,-32
    1102:	0005fc07          	.4byte	0x5fc07
    1106:	0080                	addi	s0,sp,64
    1108:	0000                	unimp
    110a:	0000                	unimp
    110c:	0006                	c.slli	zero,0x1
    110e:	0080                	addi	s0,sp,64
    1110:	0000                	unimp
    1112:	0100                	addi	s0,sp,128
    1114:	005d                	c.nop	23
    1116:	0005f207          	.4byte	0x5f207
    111a:	0080                	addi	s0,sp,64
    111c:	0000                	unimp
    111e:	f600                	sd	s0,40(a2)
    1120:	0005                	c.nop	1
    1122:	0080                	addi	s0,sp,64
    1124:	0000                	unimp
    1126:	0100                	addi	s0,sp,128
    1128:	005f 2c07 0006      	.byte	0x5f, 0x00, 0x07, 0x2c, 0x06, 0x00
    112e:	0080                	addi	s0,sp,64
    1130:	0000                	unimp
    1132:	3200                	fld	fs0,32(a2)
    1134:	0006                	c.slli	zero,0x1
    1136:	0080                	addi	s0,sp,64
    1138:	0000                	unimp
    113a:	0100                	addi	s0,sp,128
    113c:	005f 4407 0006      	.byte	0x5f, 0x00, 0x07, 0x44, 0x06, 0x00
    1142:	0080                	addi	s0,sp,64
    1144:	0000                	unimp
    1146:	4c00                	lw	s0,24(s0)
    1148:	0006                	c.slli	zero,0x1
    114a:	0080                	addi	s0,sp,64
    114c:	0000                	unimp
    114e:	0100                	addi	s0,sp,128
    1150:	075f 064e 8000      	.byte	0x5f, 0x07, 0x4e, 0x06, 0x00, 0x80
    1156:	0000                	unimp
    1158:	0000                	unimp
    115a:	0654                	addi	a3,sp,772
    115c:	8000                	.2byte	0x8000
    115e:	0000                	unimp
    1160:	0000                	unimp
    1162:	5f01                	li	t5,-32
    1164:	0700                	addi	s0,sp,896
    1166:	04e6                	slli	s1,s1,0x19
    1168:	8000                	.2byte	0x8000
    116a:	0000                	unimp
    116c:	0000                	unimp
    116e:	04f0                	addi	a2,sp,588
    1170:	8000                	.2byte	0x8000
    1172:	0000                	unimp
    1174:	0000                	unimp
    1176:	5a01                	li	s4,-32
    1178:	0004f007          	.4byte	0x4f007
    117c:	0080                	addi	s0,sp,64
    117e:	0000                	unimp
    1180:	2400                	fld	fs0,8(s0)
    1182:	0005                	c.nop	1
    1184:	0080                	addi	s0,sp,64
    1186:	0000                	unimp
    1188:	0400                	addi	s0,sp,512
    118a:	9f5a01a3          	sb	s5,-1565(s4)
    118e:	0700                	addi	s0,sp,896
    1190:	04e6                	slli	s1,s1,0x19
    1192:	8000                	.2byte	0x8000
    1194:	0000                	unimp
    1196:	0000                	unimp
    1198:	0508                	addi	a0,sp,640
    119a:	8000                	.2byte	0x8000
    119c:	0000                	unimp
    119e:	0000                	unimp
    11a0:	5a01                	li	s4,-32
    11a2:	0700                	addi	s0,sp,896
    11a4:	04ea                	slli	s1,s1,0x1a
    11a6:	8000                	.2byte	0x8000
    11a8:	0000                	unimp
    11aa:	0000                	unimp
    11ac:	04fe                	slli	s1,s1,0x1f
    11ae:	8000                	.2byte	0x8000
    11b0:	0000                	unimp
    11b2:	0000                	unimp
    11b4:	5d01                	li	s10,-32
    11b6:	00050007          	.4byte	0x50007
    11ba:	0080                	addi	s0,sp,64
    11bc:	0000                	unimp
    11be:	0800                	addi	s0,sp,16
    11c0:	0005                	c.nop	1
    11c2:	0080                	addi	s0,sp,64
    11c4:	0000                	unimp
    11c6:	0100                	addi	s0,sp,128
    11c8:	005d                	c.nop	23
    11ca:	0004f607          	.4byte	0x4f607
    11ce:	0080                	addi	s0,sp,64
    11d0:	0000                	unimp
    11d2:	fa00                	sd	s0,48(a2)
    11d4:	0004                	.2byte	0x4
    11d6:	0080                	addi	s0,sp,64
    11d8:	0000                	unimp
    11da:	0100                	addi	s0,sp,128
    11dc:	005f 0e07 0005      	.byte	0x5f, 0x00, 0x07, 0x0e, 0x05, 0x00
    11e2:	0080                	addi	s0,sp,64
    11e4:	0000                	unimp
    11e6:	1800                	addi	s0,sp,48
    11e8:	0005                	c.nop	1
    11ea:	0080                	addi	s0,sp,64
    11ec:	0000                	unimp
    11ee:	0100                	addi	s0,sp,128
    11f0:	5f 00             	Address 0x00000000000011f0 is out of bounds.


Disassembly of section .debug_rnglists:

0000000000000000 <.debug_rnglists>:
   0:	0724                	addi	s1,sp,904
   2:	0000                	unimp
   4:	0005                	c.nop	1
   6:	0008                	.2byte	0x8
   8:	0000                	unimp
   a:	0000                	unimp
   c:	d406                	sw	ra,40(sp)
   e:	0000                	unimp
  10:	0080                	addi	s0,sp,64
  12:	0000                	unimp
  14:	d400                	sw	s0,40(s0)
  16:	0000                	unimp
  18:	0080                	addi	s0,sp,64
  1a:	0000                	unimp
  1c:	0600                	addi	s0,sp,768
  1e:	00da                	slli	ra,ra,0x16
  20:	8000                	.2byte	0x8000
  22:	0000                	unimp
  24:	0000                	unimp
  26:	00f6                	slli	ra,ra,0x1d
  28:	8000                	.2byte	0x8000
  2a:	0000                	unimp
  2c:	0000                	unimp
  2e:	f806                	sd	ra,48(sp)
  30:	0000                	unimp
  32:	0080                	addi	s0,sp,64
  34:	0000                	unimp
  36:	3a00                	fld	fs0,48(a2)
  38:	0001                	nop
  3a:	0080                	addi	s0,sp,64
  3c:	0000                	unimp
  3e:	0000                	unimp
  40:	e006                	sd	ra,0(sp)
  42:	0000                	unimp
  44:	0080                	addi	s0,sp,64
  46:	0000                	unimp
  48:	f600                	sd	s0,40(a2)
  4a:	0000                	unimp
  4c:	0080                	addi	s0,sp,64
  4e:	0000                	unimp
  50:	0600                	addi	s0,sp,768
  52:	00f8                	addi	a4,sp,76
  54:	8000                	.2byte	0x8000
  56:	0000                	unimp
  58:	0000                	unimp
  5a:	012c                	addi	a1,sp,136
  5c:	8000                	.2byte	0x8000
  5e:	0000                	unimp
  60:	0000                	unimp
  62:	0600                	addi	s0,sp,768
  64:	00e4                	addi	s1,sp,76
  66:	8000                	.2byte	0x8000
  68:	0000                	unimp
  6a:	0000                	unimp
  6c:	00f6                	slli	ra,ra,0x1d
  6e:	8000                	.2byte	0x8000
  70:	0000                	unimp
  72:	0000                	unimp
  74:	f806                	sd	ra,48(sp)
  76:	0000                	unimp
  78:	0080                	addi	s0,sp,64
  7a:	0000                	unimp
  7c:	2600                	fld	fs0,8(a2)
  7e:	0001                	nop
  80:	0080                	addi	s0,sp,64
  82:	0000                	unimp
  84:	0000                	unimp
  86:	ea06                	sd	ra,272(sp)
  88:	0000                	unimp
  8a:	0080                	addi	s0,sp,64
  8c:	0000                	unimp
  8e:	f000                	sd	s0,32(s0)
  90:	0000                	unimp
  92:	0080                	addi	s0,sp,64
  94:	0000                	unimp
  96:	0600                	addi	s0,sp,768
  98:	00f2                	slli	ra,ra,0x1c
  9a:	8000                	.2byte	0x8000
  9c:	0000                	unimp
  9e:	0000                	unimp
  a0:	00f6                	slli	ra,ra,0x1d
  a2:	8000                	.2byte	0x8000
  a4:	0000                	unimp
  a6:	0000                	unimp
  a8:	f806                	sd	ra,48(sp)
  aa:	0000                	unimp
  ac:	0080                	addi	s0,sp,64
  ae:	0000                	unimp
  b0:	1e00                	addi	s0,sp,816
  b2:	0001                	nop
  b4:	0080                	addi	s0,sp,64
  b6:	0000                	unimp
  b8:	0000                	unimp
  ba:	f206                	sd	ra,288(sp)
  bc:	0000                	unimp
  be:	0080                	addi	s0,sp,64
  c0:	0000                	unimp
  c2:	f600                	sd	s0,40(a2)
  c4:	0000                	unimp
  c6:	0080                	addi	s0,sp,64
  c8:	0000                	unimp
  ca:	0600                	addi	s0,sp,768
  cc:	00f8                	addi	a4,sp,76
  ce:	8000                	.2byte	0x8000
  d0:	0000                	unimp
  d2:	0000                	unimp
  d4:	0112                	slli	sp,sp,0x4
  d6:	8000                	.2byte	0x8000
  d8:	0000                	unimp
  da:	0000                	unimp
  dc:	0600                	addi	s0,sp,768
  de:	00f8                	addi	a4,sp,76
  e0:	8000                	.2byte	0x8000
  e2:	0000                	unimp
  e4:	0000                	unimp
  e6:	0100                	addi	s0,sp,128
  e8:	8000                	.2byte	0x8000
  ea:	0000                	unimp
  ec:	0000                	unimp
  ee:	0406                	slli	s0,s0,0x1
  f0:	0001                	nop
  f2:	0080                	addi	s0,sp,64
  f4:	0000                	unimp
  f6:	0e00                	addi	s0,sp,784
  f8:	0001                	nop
  fa:	0080                	addi	s0,sp,64
  fc:	0000                	unimp
  fe:	0000                	unimp
 100:	3c06                	fld	fs8,96(sp)
 102:	0001                	nop
 104:	0080                	addi	s0,sp,64
 106:	0000                	unimp
 108:	3c00                	fld	fs0,56(s0)
 10a:	0001                	nop
 10c:	0080                	addi	s0,sp,64
 10e:	0000                	unimp
 110:	0600                	addi	s0,sp,768
 112:	014a                	slli	sp,sp,0x12
 114:	8000                	.2byte	0x8000
 116:	0000                	unimp
 118:	0000                	unimp
 11a:	0178                	addi	a4,sp,140
 11c:	8000                	.2byte	0x8000
 11e:	0000                	unimp
 120:	0000                	unimp
 122:	7a06                	ld	s4,96(sp)
 124:	0001                	nop
 126:	0080                	addi	s0,sp,64
 128:	0000                	unimp
 12a:	cc00                	sw	s0,24(s0)
 12c:	0001                	nop
 12e:	0080                	addi	s0,sp,64
 130:	0000                	unimp
 132:	0000                	unimp
 134:	4a06                	lw	s4,64(sp)
 136:	0001                	nop
 138:	0080                	addi	s0,sp,64
 13a:	0000                	unimp
 13c:	4e00                	lw	s0,24(a2)
 13e:	0001                	nop
 140:	0080                	addi	s0,sp,64
 142:	0000                	unimp
 144:	0600                	addi	s0,sp,768
 146:	0154                	addi	a3,sp,132
 148:	8000                	.2byte	0x8000
 14a:	0000                	unimp
 14c:	0000                	unimp
 14e:	0164                	addi	s1,sp,140
 150:	8000                	.2byte	0x8000
 152:	0000                	unimp
 154:	0000                	unimp
 156:	6606                	ld	a2,64(sp)
 158:	0001                	nop
 15a:	0080                	addi	s0,sp,64
 15c:	0000                	unimp
 15e:	7800                	ld	s0,48(s0)
 160:	0001                	nop
 162:	0080                	addi	s0,sp,64
 164:	0000                	unimp
 166:	0600                	addi	s0,sp,768
 168:	017a                	slli	sp,sp,0x1e
 16a:	8000                	.2byte	0x8000
 16c:	0000                	unimp
 16e:	0000                	unimp
 170:	01be                	slli	gp,gp,0xf
 172:	8000                	.2byte	0x8000
 174:	0000                	unimp
 176:	0000                	unimp
 178:	0600                	addi	s0,sp,768
 17a:	014a                	slli	sp,sp,0x12
 17c:	8000                	.2byte	0x8000
 17e:	0000                	unimp
 180:	0000                	unimp
 182:	014e                	slli	sp,sp,0x13
 184:	8000                	.2byte	0x8000
 186:	0000                	unimp
 188:	0000                	unimp
 18a:	5406                	lw	s0,96(sp)
 18c:	0001                	nop
 18e:	0080                	addi	s0,sp,64
 190:	0000                	unimp
 192:	6000                	ld	s0,0(s0)
 194:	0001                	nop
 196:	0080                	addi	s0,sp,64
 198:	0000                	unimp
 19a:	0600                	addi	s0,sp,768
 19c:	0166                	slli	sp,sp,0x19
 19e:	8000                	.2byte	0x8000
 1a0:	0000                	unimp
 1a2:	0000                	unimp
 1a4:	0178                	addi	a4,sp,140
 1a6:	8000                	.2byte	0x8000
 1a8:	0000                	unimp
 1aa:	0000                	unimp
 1ac:	7a06                	ld	s4,96(sp)
 1ae:	0001                	nop
 1b0:	0080                	addi	s0,sp,64
 1b2:	0000                	unimp
 1b4:	b800                	fsd	fs0,48(s0)
 1b6:	0001                	nop
 1b8:	0080                	addi	s0,sp,64
 1ba:	0000                	unimp
 1bc:	0000                	unimp
 1be:	5406                	lw	s0,96(sp)
 1c0:	0001                	nop
 1c2:	0080                	addi	s0,sp,64
 1c4:	0000                	unimp
 1c6:	5c00                	lw	s0,56(s0)
 1c8:	0001                	nop
 1ca:	0080                	addi	s0,sp,64
 1cc:	0000                	unimp
 1ce:	0600                	addi	s0,sp,768
 1d0:	0170                	addi	a2,sp,140
 1d2:	8000                	.2byte	0x8000
 1d4:	0000                	unimp
 1d6:	0000                	unimp
 1d8:	0178                	addi	a4,sp,140
 1da:	8000                	.2byte	0x8000
 1dc:	0000                	unimp
 1de:	0000                	unimp
 1e0:	7c06                	ld	s8,96(sp)
 1e2:	0001                	nop
 1e4:	0080                	addi	s0,sp,64
 1e6:	0000                	unimp
 1e8:	ae00                	fsd	fs0,24(a2)
 1ea:	0001                	nop
 1ec:	0080                	addi	s0,sp,64
 1ee:	0000                	unimp
 1f0:	0000                	unimp
 1f2:	5406                	lw	s0,96(sp)
 1f4:	0001                	nop
 1f6:	0080                	addi	s0,sp,64
 1f8:	0000                	unimp
 1fa:	5800                	lw	s0,48(s0)
 1fc:	0001                	nop
 1fe:	0080                	addi	s0,sp,64
 200:	0000                	unimp
 202:	0600                	addi	s0,sp,768
 204:	017c                	addi	a5,sp,140
 206:	8000                	.2byte	0x8000
 208:	0000                	unimp
 20a:	0000                	unimp
 20c:	019e                	slli	gp,gp,0x7
 20e:	8000                	.2byte	0x8000
 210:	0000                	unimp
 212:	0000                	unimp
 214:	0600                	addi	s0,sp,768
 216:	0154                	addi	a3,sp,132
 218:	8000                	.2byte	0x8000
 21a:	0000                	unimp
 21c:	0000                	unimp
 21e:	0158                	addi	a4,sp,132
 220:	8000                	.2byte	0x8000
 222:	0000                	unimp
 224:	0000                	unimp
 226:	8006                	c.mv	zero,ra
 228:	0001                	nop
 22a:	0080                	addi	s0,sp,64
 22c:	0000                	unimp
 22e:	8e00                	.2byte	0x8e00
 230:	0001                	nop
 232:	0080                	addi	s0,sp,64
 234:	0000                	unimp
 236:	0600                	addi	s0,sp,768
 238:	0190                	addi	a2,sp,192
 23a:	8000                	.2byte	0x8000
 23c:	0000                	unimp
 23e:	0000                	unimp
 240:	019a                	slli	gp,gp,0x6
 242:	8000                	.2byte	0x8000
 244:	0000                	unimp
 246:	0000                	unimp
 248:	0600                	addi	s0,sp,768
 24a:	01d8                	addi	a4,sp,196
 24c:	8000                	.2byte	0x8000
 24e:	0000                	unimp
 250:	0000                	unimp
 252:	01d8                	addi	a4,sp,196
 254:	8000                	.2byte	0x8000
 256:	0000                	unimp
 258:	0000                	unimp
 25a:	da06                	sw	ra,52(sp)
 25c:	0001                	nop
 25e:	0080                	addi	s0,sp,64
 260:	0000                	unimp
 262:	e000                	sd	s0,0(s0)
 264:	0001                	nop
 266:	0080                	addi	s0,sp,64
 268:	0000                	unimp
 26a:	0600                	addi	s0,sp,768
 26c:	01e4                	addi	s1,sp,204
 26e:	8000                	.2byte	0x8000
 270:	0000                	unimp
 272:	0000                	unimp
 274:	01e8                	addi	a0,sp,204
 276:	8000                	.2byte	0x8000
 278:	0000                	unimp
 27a:	0000                	unimp
 27c:	ec06                	sd	ra,24(sp)
 27e:	0001                	nop
 280:	0080                	addi	s0,sp,64
 282:	0000                	unimp
 284:	1c00                	addi	s0,sp,560
 286:	0002                	c.slli64	zero
 288:	0080                	addi	s0,sp,64
 28a:	0000                	unimp
 28c:	0600                	addi	s0,sp,768
 28e:	021e                	slli	tp,tp,0x7
 290:	8000                	.2byte	0x8000
 292:	0000                	unimp
 294:	0000                	unimp
 296:	0270                	addi	a2,sp,268
 298:	8000                	.2byte	0x8000
 29a:	0000                	unimp
 29c:	0000                	unimp
 29e:	0600                	addi	s0,sp,768
 2a0:	01da                	slli	gp,gp,0x16
 2a2:	8000                	.2byte	0x8000
 2a4:	0000                	unimp
 2a6:	0000                	unimp
 2a8:	01e0                	addi	s0,sp,204
 2aa:	8000                	.2byte	0x8000
 2ac:	0000                	unimp
 2ae:	0000                	unimp
 2b0:	e406                	sd	ra,8(sp)
 2b2:	0001                	nop
 2b4:	0080                	addi	s0,sp,64
 2b6:	0000                	unimp
 2b8:	e800                	sd	s0,16(s0)
 2ba:	0001                	nop
 2bc:	0080                	addi	s0,sp,64
 2be:	0000                	unimp
 2c0:	0600                	addi	s0,sp,768
 2c2:	01ec                	addi	a1,sp,204
 2c4:	8000                	.2byte	0x8000
 2c6:	0000                	unimp
 2c8:	0000                	unimp
 2ca:	01f0                	addi	a2,sp,204
 2cc:	8000                	.2byte	0x8000
 2ce:	0000                	unimp
 2d0:	0000                	unimp
 2d2:	f606                	sd	ra,296(sp)
 2d4:	0001                	nop
 2d6:	0080                	addi	s0,sp,64
 2d8:	0000                	unimp
 2da:	0600                	addi	s0,sp,768
 2dc:	0002                	c.slli64	zero
 2de:	0080                	addi	s0,sp,64
 2e0:	0000                	unimp
 2e2:	0600                	addi	s0,sp,768
 2e4:	020a                	slli	tp,tp,0x2
 2e6:	8000                	.2byte	0x8000
 2e8:	0000                	unimp
 2ea:	0000                	unimp
 2ec:	021c                	addi	a5,sp,256
 2ee:	8000                	.2byte	0x8000
 2f0:	0000                	unimp
 2f2:	0000                	unimp
 2f4:	1e06                	slli	t3,t3,0x21
 2f6:	0002                	c.slli64	zero
 2f8:	0080                	addi	s0,sp,64
 2fa:	0000                	unimp
 2fc:	6200                	ld	s0,0(a2)
 2fe:	0002                	c.slli64	zero
 300:	0080                	addi	s0,sp,64
 302:	0000                	unimp
 304:	0000                	unimp
 306:	da06                	sw	ra,52(sp)
 308:	0001                	nop
 30a:	0080                	addi	s0,sp,64
 30c:	0000                	unimp
 30e:	e000                	sd	s0,0(s0)
 310:	0001                	nop
 312:	0080                	addi	s0,sp,64
 314:	0000                	unimp
 316:	0600                	addi	s0,sp,768
 318:	01e4                	addi	s1,sp,204
 31a:	8000                	.2byte	0x8000
 31c:	0000                	unimp
 31e:	0000                	unimp
 320:	01e8                	addi	a0,sp,204
 322:	8000                	.2byte	0x8000
 324:	0000                	unimp
 326:	0000                	unimp
 328:	ec06                	sd	ra,24(sp)
 32a:	0001                	nop
 32c:	0080                	addi	s0,sp,64
 32e:	0000                	unimp
 330:	f000                	sd	s0,32(s0)
 332:	0001                	nop
 334:	0080                	addi	s0,sp,64
 336:	0000                	unimp
 338:	0600                	addi	s0,sp,768
 33a:	01f6                	slli	gp,gp,0x1d
 33c:	8000                	.2byte	0x8000
 33e:	0000                	unimp
 340:	0000                	unimp
 342:	0202                	c.slli64	tp
 344:	8000                	.2byte	0x8000
 346:	0000                	unimp
 348:	0000                	unimp
 34a:	0a06                	slli	s4,s4,0x1
 34c:	0002                	c.slli64	zero
 34e:	0080                	addi	s0,sp,64
 350:	0000                	unimp
 352:	1c00                	addi	s0,sp,560
 354:	0002                	c.slli64	zero
 356:	0080                	addi	s0,sp,64
 358:	0000                	unimp
 35a:	0600                	addi	s0,sp,768
 35c:	021e                	slli	tp,tp,0x7
 35e:	8000                	.2byte	0x8000
 360:	0000                	unimp
 362:	0000                	unimp
 364:	025c                	addi	a5,sp,260
 366:	8000                	.2byte	0x8000
 368:	0000                	unimp
 36a:	0000                	unimp
 36c:	0600                	addi	s0,sp,768
 36e:	01f6                	slli	gp,gp,0x1d
 370:	8000                	.2byte	0x8000
 372:	0000                	unimp
 374:	0000                	unimp
 376:	01fe                	slli	gp,gp,0x1f
 378:	8000                	.2byte	0x8000
 37a:	0000                	unimp
 37c:	0000                	unimp
 37e:	1406                	slli	s0,s0,0x21
 380:	0002                	c.slli64	zero
 382:	0080                	addi	s0,sp,64
 384:	0000                	unimp
 386:	1c00                	addi	s0,sp,560
 388:	0002                	c.slli64	zero
 38a:	0080                	addi	s0,sp,64
 38c:	0000                	unimp
 38e:	0600                	addi	s0,sp,768
 390:	0220                	addi	s0,sp,264
 392:	8000                	.2byte	0x8000
 394:	0000                	unimp
 396:	0000                	unimp
 398:	0252                	slli	tp,tp,0x14
 39a:	8000                	.2byte	0x8000
 39c:	0000                	unimp
 39e:	0000                	unimp
 3a0:	0600                	addi	s0,sp,768
 3a2:	01f6                	slli	gp,gp,0x1d
 3a4:	8000                	.2byte	0x8000
 3a6:	0000                	unimp
 3a8:	0000                	unimp
 3aa:	01fa                	slli	gp,gp,0x1e
 3ac:	8000                	.2byte	0x8000
 3ae:	0000                	unimp
 3b0:	0000                	unimp
 3b2:	2006                	fld	ft0,64(sp)
 3b4:	0002                	c.slli64	zero
 3b6:	0080                	addi	s0,sp,64
 3b8:	0000                	unimp
 3ba:	4200                	lw	s0,0(a2)
 3bc:	0002                	c.slli64	zero
 3be:	0080                	addi	s0,sp,64
 3c0:	0000                	unimp
 3c2:	0000                	unimp
 3c4:	f606                	sd	ra,296(sp)
 3c6:	0001                	nop
 3c8:	0080                	addi	s0,sp,64
 3ca:	0000                	unimp
 3cc:	fa00                	sd	s0,48(a2)
 3ce:	0001                	nop
 3d0:	0080                	addi	s0,sp,64
 3d2:	0000                	unimp
 3d4:	0600                	addi	s0,sp,768
 3d6:	0224                	addi	s1,sp,264
 3d8:	8000                	.2byte	0x8000
 3da:	0000                	unimp
 3dc:	0000                	unimp
 3de:	0232                	slli	tp,tp,0xc
 3e0:	8000                	.2byte	0x8000
 3e2:	0000                	unimp
 3e4:	0000                	unimp
 3e6:	3406                	fld	fs0,96(sp)
 3e8:	0002                	c.slli64	zero
 3ea:	0080                	addi	s0,sp,64
 3ec:	0000                	unimp
 3ee:	3e00                	fld	fs0,56(a2)
 3f0:	0002                	c.slli64	zero
 3f2:	0080                	addi	s0,sp,64
 3f4:	0000                	unimp
 3f6:	0000                	unimp
 3f8:	7c06                	ld	s8,96(sp)
 3fa:	0002                	c.slli64	zero
 3fc:	0080                	addi	s0,sp,64
 3fe:	0000                	unimp
 400:	7c00                	ld	s0,56(s0)
 402:	0002                	c.slli64	zero
 404:	0080                	addi	s0,sp,64
 406:	0000                	unimp
 408:	0600                	addi	s0,sp,768
 40a:	028a                	slli	t0,t0,0x2
 40c:	8000                	.2byte	0x8000
 40e:	0000                	unimp
 410:	0000                	unimp
 412:	02bc                	addi	a5,sp,328
 414:	8000                	.2byte	0x8000
 416:	0000                	unimp
 418:	0000                	unimp
 41a:	be06                	fsd	ft1,312(sp)
 41c:	0002                	c.slli64	zero
 41e:	0080                	addi	s0,sp,64
 420:	0000                	unimp
 422:	1000                	addi	s0,sp,32
 424:	00800003          	lb	zero,8(zero) # 8 <_prog_start-0x7ffffff8>
 428:	0000                	unimp
 42a:	0000                	unimp
 42c:	8a06                	mv	s4,ra
 42e:	0002                	c.slli64	zero
 430:	0080                	addi	s0,sp,64
 432:	0000                	unimp
 434:	8e00                	.2byte	0x8e00
 436:	0002                	c.slli64	zero
 438:	0080                	addi	s0,sp,64
 43a:	0000                	unimp
 43c:	0600                	addi	s0,sp,768
 43e:	0294                	addi	a3,sp,320
 440:	8000                	.2byte	0x8000
 442:	0000                	unimp
 444:	0000                	unimp
 446:	02a4                	addi	s1,sp,328
 448:	8000                	.2byte	0x8000
 44a:	0000                	unimp
 44c:	0000                	unimp
 44e:	a806                	fsd	ft1,16(sp)
 450:	0002                	c.slli64	zero
 452:	0080                	addi	s0,sp,64
 454:	0000                	unimp
 456:	bc00                	fsd	fs0,56(s0)
 458:	0002                	c.slli64	zero
 45a:	0080                	addi	s0,sp,64
 45c:	0000                	unimp
 45e:	0600                	addi	s0,sp,768
 460:	02be                	slli	t0,t0,0xf
 462:	8000                	.2byte	0x8000
 464:	0000                	unimp
 466:	0000                	unimp
 468:	0302                	c.slli64	t1
 46a:	8000                	.2byte	0x8000
 46c:	0000                	unimp
 46e:	0000                	unimp
 470:	0600                	addi	s0,sp,768
 472:	028a                	slli	t0,t0,0x2
 474:	8000                	.2byte	0x8000
 476:	0000                	unimp
 478:	0000                	unimp
 47a:	028e                	slli	t0,t0,0x3
 47c:	8000                	.2byte	0x8000
 47e:	0000                	unimp
 480:	0000                	unimp
 482:	9406                	add	s0,s0,ra
 484:	0002                	c.slli64	zero
 486:	0080                	addi	s0,sp,64
 488:	0000                	unimp
 48a:	a000                	fsd	fs0,0(s0)
 48c:	0002                	c.slli64	zero
 48e:	0080                	addi	s0,sp,64
 490:	0000                	unimp
 492:	0600                	addi	s0,sp,768
 494:	02a8                	addi	a0,sp,328
 496:	8000                	.2byte	0x8000
 498:	0000                	unimp
 49a:	0000                	unimp
 49c:	02bc                	addi	a5,sp,328
 49e:	8000                	.2byte	0x8000
 4a0:	0000                	unimp
 4a2:	0000                	unimp
 4a4:	be06                	fsd	ft1,312(sp)
 4a6:	0002                	c.slli64	zero
 4a8:	0080                	addi	s0,sp,64
 4aa:	0000                	unimp
 4ac:	fc00                	sd	s0,56(s0)
 4ae:	0002                	c.slli64	zero
 4b0:	0080                	addi	s0,sp,64
 4b2:	0000                	unimp
 4b4:	0000                	unimp
 4b6:	9406                	add	s0,s0,ra
 4b8:	0002                	c.slli64	zero
 4ba:	0080                	addi	s0,sp,64
 4bc:	0000                	unimp
 4be:	9c00                	.2byte	0x9c00
 4c0:	0002                	c.slli64	zero
 4c2:	0080                	addi	s0,sp,64
 4c4:	0000                	unimp
 4c6:	0600                	addi	s0,sp,768
 4c8:	02b4                	addi	a3,sp,328
 4ca:	8000                	.2byte	0x8000
 4cc:	0000                	unimp
 4ce:	0000                	unimp
 4d0:	02bc                	addi	a5,sp,328
 4d2:	8000                	.2byte	0x8000
 4d4:	0000                	unimp
 4d6:	0000                	unimp
 4d8:	c006                	sw	ra,0(sp)
 4da:	0002                	c.slli64	zero
 4dc:	0080                	addi	s0,sp,64
 4de:	0000                	unimp
 4e0:	f200                	sd	s0,32(a2)
 4e2:	0002                	c.slli64	zero
 4e4:	0080                	addi	s0,sp,64
 4e6:	0000                	unimp
 4e8:	0000                	unimp
 4ea:	9406                	add	s0,s0,ra
 4ec:	0002                	c.slli64	zero
 4ee:	0080                	addi	s0,sp,64
 4f0:	0000                	unimp
 4f2:	9800                	.2byte	0x9800
 4f4:	0002                	c.slli64	zero
 4f6:	0080                	addi	s0,sp,64
 4f8:	0000                	unimp
 4fa:	0600                	addi	s0,sp,768
 4fc:	02c0                	addi	s0,sp,324
 4fe:	8000                	.2byte	0x8000
 500:	0000                	unimp
 502:	0000                	unimp
 504:	02e2                	slli	t0,t0,0x18
 506:	8000                	.2byte	0x8000
 508:	0000                	unimp
 50a:	0000                	unimp
 50c:	0600                	addi	s0,sp,768
 50e:	0294                	addi	a3,sp,320
 510:	8000                	.2byte	0x8000
 512:	0000                	unimp
 514:	0000                	unimp
 516:	0298                	addi	a4,sp,320
 518:	8000                	.2byte	0x8000
 51a:	0000                	unimp
 51c:	0000                	unimp
 51e:	c406                	sw	ra,8(sp)
 520:	0002                	c.slli64	zero
 522:	0080                	addi	s0,sp,64
 524:	0000                	unimp
 526:	d200                	sw	s0,32(a2)
 528:	0002                	c.slli64	zero
 52a:	0080                	addi	s0,sp,64
 52c:	0000                	unimp
 52e:	0600                	addi	s0,sp,768
 530:	02d4                	addi	a3,sp,324
 532:	8000                	.2byte	0x8000
 534:	0000                	unimp
 536:	0000                	unimp
 538:	02de                	slli	t0,t0,0x17
 53a:	8000                	.2byte	0x8000
 53c:	0000                	unimp
 53e:	0000                	unimp
 540:	0600                	addi	s0,sp,768
 542:	031c                	addi	a5,sp,384
 544:	8000                	.2byte	0x8000
 546:	0000                	unimp
 548:	0000                	unimp
 54a:	031c                	addi	a5,sp,384
 54c:	8000                	.2byte	0x8000
 54e:	0000                	unimp
 550:	0000                	unimp
 552:	2806                	fld	fa6,64(sp)
 554:	00800003          	lb	zero,8(zero) # 8 <_prog_start-0x7ffffff8>
 558:	0000                	unimp
 55a:	5600                	lw	s0,40(a2)
 55c:	00800003          	lb	zero,8(zero) # 8 <_prog_start-0x7ffffff8>
 560:	0000                	unimp
 562:	0600                	addi	s0,sp,768
 564:	0358                	addi	a4,sp,388
 566:	8000                	.2byte	0x8000
 568:	0000                	unimp
 56a:	0000                	unimp
 56c:	03aa                	slli	t2,t2,0xa
 56e:	8000                	.2byte	0x8000
 570:	0000                	unimp
 572:	0000                	unimp
 574:	0600                	addi	s0,sp,768
 576:	0328                	addi	a0,sp,392
 578:	8000                	.2byte	0x8000
 57a:	0000                	unimp
 57c:	0000                	unimp
 57e:	032c                	addi	a1,sp,392
 580:	8000                	.2byte	0x8000
 582:	0000                	unimp
 584:	0000                	unimp
 586:	3206                	fld	ft4,96(sp)
 588:	00800003          	lb	zero,8(zero) # 8 <_prog_start-0x7ffffff8>
 58c:	0000                	unimp
 58e:	5600                	lw	s0,40(a2)
 590:	00800003          	lb	zero,8(zero) # 8 <_prog_start-0x7ffffff8>
 594:	0000                	unimp
 596:	0600                	addi	s0,sp,768
 598:	0358                	addi	a4,sp,388
 59a:	8000                	.2byte	0x8000
 59c:	0000                	unimp
 59e:	0000                	unimp
 5a0:	039c                	addi	a5,sp,448
 5a2:	8000                	.2byte	0x8000
 5a4:	0000                	unimp
 5a6:	0000                	unimp
 5a8:	0600                	addi	s0,sp,768
 5aa:	0328                	addi	a0,sp,392
 5ac:	8000                	.2byte	0x8000
 5ae:	0000                	unimp
 5b0:	0000                	unimp
 5b2:	032c                	addi	a1,sp,392
 5b4:	8000                	.2byte	0x8000
 5b6:	0000                	unimp
 5b8:	0000                	unimp
 5ba:	3206                	fld	ft4,96(sp)
 5bc:	00800003          	lb	zero,8(zero) # 8 <_prog_start-0x7ffffff8>
 5c0:	0000                	unimp
 5c2:	3e00                	fld	fs0,56(a2)
 5c4:	00800003          	lb	zero,8(zero) # 8 <_prog_start-0x7ffffff8>
 5c8:	0000                	unimp
 5ca:	0600                	addi	s0,sp,768
 5cc:	0342                	slli	t1,t1,0x10
 5ce:	8000                	.2byte	0x8000
 5d0:	0000                	unimp
 5d2:	0000                	unimp
 5d4:	0356                	slli	t1,t1,0x15
 5d6:	8000                	.2byte	0x8000
 5d8:	0000                	unimp
 5da:	0000                	unimp
 5dc:	5806                	lw	a6,96(sp)
 5de:	00800003          	lb	zero,8(zero) # 8 <_prog_start-0x7ffffff8>
 5e2:	0000                	unimp
 5e4:	9600                	.2byte	0x9600
 5e6:	00800003          	lb	zero,8(zero) # 8 <_prog_start-0x7ffffff8>
 5ea:	0000                	unimp
 5ec:	0000                	unimp
 5ee:	3206                	fld	ft4,96(sp)
 5f0:	00800003          	lb	zero,8(zero) # 8 <_prog_start-0x7ffffff8>
 5f4:	0000                	unimp
 5f6:	3a00                	fld	fs0,48(a2)
 5f8:	00800003          	lb	zero,8(zero) # 8 <_prog_start-0x7ffffff8>
 5fc:	0000                	unimp
 5fe:	0600                	addi	s0,sp,768
 600:	034e                	slli	t1,t1,0x13
 602:	8000                	.2byte	0x8000
 604:	0000                	unimp
 606:	0000                	unimp
 608:	0356                	slli	t1,t1,0x15
 60a:	8000                	.2byte	0x8000
 60c:	0000                	unimp
 60e:	0000                	unimp
 610:	5a06                	lw	s4,96(sp)
 612:	00800003          	lb	zero,8(zero) # 8 <_prog_start-0x7ffffff8>
 616:	0000                	unimp
 618:	8c00                	.2byte	0x8c00
 61a:	00800003          	lb	zero,8(zero) # 8 <_prog_start-0x7ffffff8>
 61e:	0000                	unimp
 620:	0000                	unimp
 622:	3206                	fld	ft4,96(sp)
 624:	00800003          	lb	zero,8(zero) # 8 <_prog_start-0x7ffffff8>
 628:	0000                	unimp
 62a:	3600                	fld	fs0,40(a2)
 62c:	00800003          	lb	zero,8(zero) # 8 <_prog_start-0x7ffffff8>
 630:	0000                	unimp
 632:	0600                	addi	s0,sp,768
 634:	035a                	slli	t1,t1,0x16
 636:	8000                	.2byte	0x8000
 638:	0000                	unimp
 63a:	0000                	unimp
 63c:	037c                	addi	a5,sp,396
 63e:	8000                	.2byte	0x8000
 640:	0000                	unimp
 642:	0000                	unimp
 644:	0600                	addi	s0,sp,768
 646:	0332                	slli	t1,t1,0xc
 648:	8000                	.2byte	0x8000
 64a:	0000                	unimp
 64c:	0000                	unimp
 64e:	0336                	slli	t1,t1,0xd
 650:	8000                	.2byte	0x8000
 652:	0000                	unimp
 654:	0000                	unimp
 656:	5e06                	lw	t3,96(sp)
 658:	00800003          	lb	zero,8(zero) # 8 <_prog_start-0x7ffffff8>
 65c:	0000                	unimp
 65e:	6c00                	ld	s0,24(s0)
 660:	00800003          	lb	zero,8(zero) # 8 <_prog_start-0x7ffffff8>
 664:	0000                	unimp
 666:	0600                	addi	s0,sp,768
 668:	036e                	slli	t1,t1,0x1b
 66a:	8000                	.2byte	0x8000
 66c:	0000                	unimp
 66e:	0000                	unimp
 670:	0378                	addi	a4,sp,396
 672:	8000                	.2byte	0x8000
 674:	0000                	unimp
 676:	0000                	unimp
 678:	0600                	addi	s0,sp,768
 67a:	03d4                	addi	a3,sp,452
 67c:	8000                	.2byte	0x8000
 67e:	0000                	unimp
 680:	0000                	unimp
 682:	03d4                	addi	a3,sp,452
 684:	8000                	.2byte	0x8000
 686:	0000                	unimp
 688:	0000                	unimp
 68a:	d806                	sw	ra,48(sp)
 68c:	00800003          	lb	zero,8(zero) # 8 <_prog_start-0x7ffffff8>
 690:	0000                	unimp
 692:	ea00                	sd	s0,16(a2)
 694:	00800003          	lb	zero,8(zero) # 8 <_prog_start-0x7ffffff8>
 698:	0000                	unimp
 69a:	0000                	unimp
 69c:	ea06                	sd	ra,272(sp)
 69e:	00800003          	lb	zero,8(zero) # 8 <_prog_start-0x7ffffff8>
 6a2:	0000                	unimp
 6a4:	1a00                	addi	s0,sp,304
 6a6:	0004                	.2byte	0x4
 6a8:	0080                	addi	s0,sp,64
 6aa:	0000                	unimp
 6ac:	0600                	addi	s0,sp,768
 6ae:	041e                	slli	s0,s0,0x7
 6b0:	8000                	.2byte	0x8000
 6b2:	0000                	unimp
 6b4:	0000                	unimp
 6b6:	0422                	slli	s0,s0,0x8
 6b8:	8000                	.2byte	0x8000
 6ba:	0000                	unimp
 6bc:	0000                	unimp
 6be:	0600                	addi	s0,sp,768
 6c0:	041a                	slli	s0,s0,0x6
 6c2:	8000                	.2byte	0x8000
 6c4:	0000                	unimp
 6c6:	0000                	unimp
 6c8:	041e                	slli	s0,s0,0x7
 6ca:	8000                	.2byte	0x8000
 6cc:	0000                	unimp
 6ce:	0000                	unimp
 6d0:	2206                	fld	ft4,64(sp)
 6d2:	0004                	.2byte	0x4
 6d4:	0080                	addi	s0,sp,64
 6d6:	0000                	unimp
 6d8:	3000                	fld	fs0,32(s0)
 6da:	0004                	.2byte	0x4
 6dc:	0080                	addi	s0,sp,64
 6de:	0000                	unimp
 6e0:	0000                	unimp
 6e2:	ac06                	fsd	ft1,24(sp)
 6e4:	0004                	.2byte	0x4
 6e6:	0080                	addi	s0,sp,64
 6e8:	0000                	unimp
 6ea:	b000                	fsd	fs0,32(s0)
 6ec:	0004                	.2byte	0x4
 6ee:	0080                	addi	s0,sp,64
 6f0:	0000                	unimp
 6f2:	0600                	addi	s0,sp,768
 6f4:	04b4                	addi	a3,sp,584
 6f6:	8000                	.2byte	0x8000
 6f8:	0000                	unimp
 6fa:	0000                	unimp
 6fc:	04ca                	slli	s1,s1,0x12
 6fe:	8000                	.2byte	0x8000
 700:	0000                	unimp
 702:	0000                	unimp
 704:	0600                	addi	s0,sp,768
 706:	00d4                	addi	a3,sp,68
 708:	8000                	.2byte	0x8000
 70a:	0000                	unimp
 70c:	0000                	unimp
 70e:	03b4                	addi	a3,sp,456
 710:	8000                	.2byte	0x8000
 712:	0000                	unimp
 714:	0000                	unimp
 716:	b406                	fsd	ft1,40(sp)
 718:	00800003          	lb	zero,8(zero) # 8 <_prog_start-0x7ffffff8>
 71c:	0000                	unimp
 71e:	e600                	sd	s0,8(a2)
 720:	0004                	.2byte	0x4
 722:	0080                	addi	s0,sp,64
 724:	0000                	unimp
 726:	0000                	unimp
 728:	00000153          	fadd.s	ft2,ft0,ft0,rne
 72c:	0005                	c.nop	1
 72e:	0008                	.2byte	0x8
 730:	0000                	unimp
 732:	0000                	unimp
 734:	4a06                	lw	s4,64(sp)
 736:	0005                	c.nop	1
 738:	0080                	addi	s0,sp,64
 73a:	0000                	unimp
 73c:	4e00                	lw	s0,24(a2)
 73e:	0005                	c.nop	1
 740:	0080                	addi	s0,sp,64
 742:	0000                	unimp
 744:	0600                	addi	s0,sp,768
 746:	063e                	slli	a2,a2,0xf
 748:	8000                	.2byte	0x8000
 74a:	0000                	unimp
 74c:	0000                	unimp
 74e:	0656                	slli	a2,a2,0x15
 750:	8000                	.2byte	0x8000
 752:	0000                	unimp
 754:	0000                	unimp
 756:	0600                	addi	s0,sp,768
 758:	0572                	slli	a0,a0,0x1c
 75a:	8000                	.2byte	0x8000
 75c:	0000                	unimp
 75e:	0000                	unimp
 760:	058a                	slli	a1,a1,0x2
 762:	8000                	.2byte	0x8000
 764:	0000                	unimp
 766:	0000                	unimp
 768:	9c06                	add	s8,s8,ra
 76a:	0005                	c.nop	1
 76c:	0080                	addi	s0,sp,64
 76e:	0000                	unimp
 770:	3600                	fld	fs0,40(a2)
 772:	0006                	c.slli	zero,0x1
 774:	0080                	addi	s0,sp,64
 776:	0000                	unimp
 778:	0600                	addi	s0,sp,768
 77a:	0656                	slli	a2,a2,0x15
 77c:	8000                	.2byte	0x8000
 77e:	0000                	unimp
 780:	0000                	unimp
 782:	06a6                	slli	a3,a3,0x9
 784:	8000                	.2byte	0x8000
 786:	0000                	unimp
 788:	0000                	unimp
 78a:	0600                	addi	s0,sp,768
 78c:	0574                	addi	a3,sp,652
 78e:	8000                	.2byte	0x8000
 790:	0000                	unimp
 792:	0000                	unimp
 794:	0578                	addi	a4,sp,652
 796:	8000                	.2byte	0x8000
 798:	0000                	unimp
 79a:	0000                	unimp
 79c:	7c06                	ld	s8,96(sp)
 79e:	0005                	c.nop	1
 7a0:	0080                	addi	s0,sp,64
 7a2:	0000                	unimp
 7a4:	7c00                	ld	s0,56(s0)
 7a6:	0005                	c.nop	1
 7a8:	0080                	addi	s0,sp,64
 7aa:	0000                	unimp
 7ac:	0600                	addi	s0,sp,768
 7ae:	0580                	addi	s0,sp,704
 7b0:	8000                	.2byte	0x8000
 7b2:	0000                	unimp
 7b4:	0000                	unimp
 7b6:	058a                	slli	a1,a1,0x2
 7b8:	8000                	.2byte	0x8000
 7ba:	0000                	unimp
 7bc:	0000                	unimp
 7be:	0600                	addi	s0,sp,768
 7c0:	059c                	addi	a5,sp,704
 7c2:	8000                	.2byte	0x8000
 7c4:	0000                	unimp
 7c6:	0000                	unimp
 7c8:	05da                	slli	a1,a1,0x16
 7ca:	8000                	.2byte	0x8000
 7cc:	0000                	unimp
 7ce:	0000                	unimp
 7d0:	8606                	mv	a2,ra
 7d2:	0006                	c.slli	zero,0x1
 7d4:	0080                	addi	s0,sp,64
 7d6:	0000                	unimp
 7d8:	8e00                	.2byte	0x8e00
 7da:	0006                	c.slli	zero,0x1
 7dc:	0080                	addi	s0,sp,64
 7de:	0000                	unimp
 7e0:	0000                	unimp
 7e2:	ac06                	fsd	ft1,24(sp)
 7e4:	0005                	c.nop	1
 7e6:	0080                	addi	s0,sp,64
 7e8:	0000                	unimp
 7ea:	b200                	fsd	fs0,32(a2)
 7ec:	0005                	c.nop	1
 7ee:	0080                	addi	s0,sp,64
 7f0:	0000                	unimp
 7f2:	0600                	addi	s0,sp,768
 7f4:	05b4                	addi	a3,sp,712
 7f6:	8000                	.2byte	0x8000
 7f8:	0000                	unimp
 7fa:	0000                	unimp
 7fc:	05d2                	slli	a1,a1,0x14
 7fe:	8000                	.2byte	0x8000
 800:	0000                	unimp
 802:	0000                	unimp
 804:	0600                	addi	s0,sp,768
 806:	05ae                	slli	a1,a1,0xb
 808:	8000                	.2byte	0x8000
 80a:	0000                	unimp
 80c:	0000                	unimp
 80e:	05b2                	slli	a1,a1,0xc
 810:	8000                	.2byte	0x8000
 812:	0000                	unimp
 814:	0000                	unimp
 816:	c806                	sw	ra,16(sp)
 818:	0005                	c.nop	1
 81a:	0080                	addi	s0,sp,64
 81c:	0000                	unimp
 81e:	d200                	sw	s0,32(a2)
 820:	0005                	c.nop	1
 822:	0080                	addi	s0,sp,64
 824:	0000                	unimp
 826:	0000                	unimp
 828:	de06                	sw	ra,60(sp)
 82a:	0005                	c.nop	1
 82c:	0080                	addi	s0,sp,64
 82e:	0000                	unimp
 830:	de00                	sw	s0,56(a2)
 832:	0005                	c.nop	1
 834:	0080                	addi	s0,sp,64
 836:	0000                	unimp
 838:	0600                	addi	s0,sp,768
 83a:	05e2                	slli	a1,a1,0x18
 83c:	8000                	.2byte	0x8000
 83e:	0000                	unimp
 840:	0000                	unimp
 842:	0600                	addi	s0,sp,768
 844:	8000                	.2byte	0x8000
 846:	0000                	unimp
 848:	0000                	unimp
 84a:	0600                	addi	s0,sp,768
 84c:	0602                	c.slli64	a2
 84e:	8000                	.2byte	0x8000
 850:	0000                	unimp
 852:	0000                	unimp
 854:	0606                	slli	a2,a2,0x1
 856:	8000                	.2byte	0x8000
 858:	0000                	unimp
 85a:	0000                	unimp
 85c:	0a06                	slli	s4,s4,0x1
 85e:	0006                	c.slli	zero,0x1
 860:	0080                	addi	s0,sp,64
 862:	0000                	unimp
 864:	0a00                	addi	s0,sp,272
 866:	0006                	c.slli	zero,0x1
 868:	0080                	addi	s0,sp,64
 86a:	0000                	unimp
 86c:	0600                	addi	s0,sp,768
 86e:	060e                	slli	a2,a2,0x3
 870:	8000                	.2byte	0x8000
 872:	0000                	unimp
 874:	0000                	unimp
 876:	061a                	slli	a2,a2,0x6
 878:	8000                	.2byte	0x8000
 87a:	0000                	unimp
 87c:	0000                	unimp
	...

Disassembly of section .debug_frame:

0000000000000000 <.debug_frame>:
   0:	000c                	.2byte	0xc
   2:	0000                	unimp
   4:	ffff                	.2byte	0xffff
   6:	ffff                	.2byte	0xffff
   8:	7c010003          	lb	zero,1984(sp)
   c:	0d01                	addi	s10,s10,0 # 1a000 <_prog_start-0x7ffe6000>
   e:	0002                	c.slli64	zero
  10:	0014                	.2byte	0x14
  12:	0000                	unimp
  14:	0000                	unimp
  16:	0000                	unimp
  18:	00d4                	addi	a3,sp,68
  1a:	8000                	.2byte	0x8000
  1c:	0000                	unimp
  1e:	0000                	unimp
  20:	0068                	addi	a0,sp,12
  22:	0000                	unimp
  24:	0000                	unimp
  26:	0000                	unimp
  28:	002c                	addi	a1,sp,8
  2a:	0000                	unimp
  2c:	0000                	unimp
  2e:	0000                	unimp
  30:	013c                	addi	a5,sp,136
  32:	8000                	.2byte	0x8000
  34:	0000                	unimp
  36:	0000                	unimp
  38:	009c                	addi	a5,sp,64
  3a:	0000                	unimp
  3c:	0000                	unimp
  3e:	0000                	unimp
  40:	0e42                	slli	t3,t3,0x10
  42:	4c20                	lw	s0,88(s0)
  44:	0288                	addi	a0,sp,320
  46:	0489                	addi	s1,s1,2
  48:	0692                	slli	a3,a3,0x4
  4a:	84020893          	addi	a7,tp,-1984 # fffffffffffff840 <kprintf+0xffffffff7ffff31c>
  4e:	42c8                	lw	a0,4(a3)
  50:	42c9                	li	t0,18
  52:	42d2                	lw	t0,20(sp)
  54:	000e42d3          	fadd.s	ft5,ft8,ft0,rmm
  58:	002c                	addi	a1,sp,8
  5a:	0000                	unimp
  5c:	0000                	unimp
  5e:	0000                	unimp
  60:	01d8                	addi	a4,sp,196
  62:	8000                	.2byte	0x8000
  64:	0000                	unimp
  66:	0000                	unimp
  68:	00a4                	addi	s1,sp,72
  6a:	0000                	unimp
  6c:	0000                	unimp
  6e:	0000                	unimp
  70:	0e42                	slli	t3,t3,0x10
  72:	5220                	lw	s0,96(a2)
  74:	0288                	addi	a0,sp,320
  76:	0489                	addi	s1,s1,2
  78:	0692                	slli	a3,a3,0x4
  7a:	86020893          	addi	a7,tp,-1952 # fffffffffffff860 <kprintf+0xffffffff7ffff33c>
  7e:	42c8                	lw	a0,4(a3)
  80:	42c9                	li	t0,18
  82:	42d2                	lw	t0,20(sp)
  84:	000e42d3          	fadd.s	ft5,ft8,ft0,rmm
  88:	002c                	addi	a1,sp,8
  8a:	0000                	unimp
  8c:	0000                	unimp
  8e:	0000                	unimp
  90:	027c                	addi	a5,sp,268
  92:	8000                	.2byte	0x8000
  94:	0000                	unimp
  96:	0000                	unimp
  98:	00a0                	addi	s0,sp,72
  9a:	0000                	unimp
  9c:	0000                	unimp
  9e:	0000                	unimp
  a0:	0e42                	slli	t3,t3,0x10
  a2:	4c20                	lw	s0,88(s0)
  a4:	0288                	addi	a0,sp,320
  a6:	0489                	addi	s1,s1,2
  a8:	0692                	slli	a3,a3,0x4
  aa:	88020893          	addi	a7,tp,-1920 # fffffffffffff880 <kprintf+0xffffffff7ffff35c>
  ae:	42c8                	lw	a0,4(a3)
  b0:	42c9                	li	t0,18
  b2:	42d2                	lw	t0,20(sp)
  b4:	000e42d3          	fadd.s	ft5,ft8,ft0,rmm
  b8:	002c                	addi	a1,sp,8
  ba:	0000                	unimp
  bc:	0000                	unimp
  be:	0000                	unimp
  c0:	031c                	addi	a5,sp,384
  c2:	8000                	.2byte	0x8000
  c4:	0000                	unimp
  c6:	0000                	unimp
  c8:	0098                	addi	a4,sp,64
  ca:	0000                	unimp
  cc:	0000                	unimp
  ce:	0000                	unimp
  d0:	0e42                	slli	t3,t3,0x10
  d2:	4a20                	lw	s0,80(a2)
  d4:	0288                	addi	a0,sp,320
  d6:	0489                	addi	s1,s1,2
  d8:	0692                	slli	a3,a3,0x4
  da:	8402                	jr	s0
  dc:	42c8                	lw	a0,4(a3)
  de:	42c9                	li	t0,18
  e0:	42d2                	lw	t0,20(sp)
  e2:	000e                	c.slli	zero,0x3
  e4:	0000                	unimp
  e6:	0000                	unimp
  e8:	0034                	addi	a3,sp,8
  ea:	0000                	unimp
  ec:	0000                	unimp
  ee:	0000                	unimp
  f0:	03b4                	addi	a3,sp,456
  f2:	8000                	.2byte	0x8000
  f4:	0000                	unimp
  f6:	0000                	unimp
  f8:	0132                	slli	sp,sp,0xc
  fa:	0000                	unimp
  fc:	0000                	unimp
  fe:	0000                	unimp
 100:	0e44                	addi	s1,sp,788
 102:	08b0                	addi	a2,sp,88
 104:	815a                	mv	sp,s6
 106:	8802                	jr	a6
 108:	8904                	.2byte	0x8904
 10a:	9206                	add	tp,tp,ra
 10c:	9308                	.2byte	0x9308
 10e:	030a                	slli	t1,t1,0x2
 110:	00fc                	addi	a5,sp,76
 112:	44c1                	li	s1,16
 114:	44c8                	lw	a0,12(s1)
 116:	44c9                	li	s1,18
 118:	44d2                	lw	s1,20(sp)
 11a:	000e46d3          	fadd.s	fa3,ft8,ft0,rmm
 11e:	0000                	unimp
 120:	000c                	.2byte	0xc
 122:	0000                	unimp
 124:	ffff                	.2byte	0xffff
 126:	ffff                	.2byte	0xffff
 128:	7c010003          	lb	zero,1984(sp)
 12c:	0d01                	addi	s10,s10,0
 12e:	0002                	c.slli64	zero
 130:	0014                	.2byte	0x14
 132:	0000                	unimp
 134:	0120                	addi	s0,sp,136
 136:	0000                	unimp
 138:	04e6                	slli	s1,s1,0x19
 13a:	8000                	.2byte	0x8000
 13c:	0000                	unimp
 13e:	0000                	unimp
 140:	003e                	c.slli	zero,0xf
 142:	0000                	unimp
 144:	0000                	unimp
 146:	0000                	unimp
 148:	0024                	addi	s1,sp,8
 14a:	0000                	unimp
 14c:	0120                	addi	s0,sp,136
 14e:	0000                	unimp
 150:	0524                	addi	s1,sp,648
 152:	8000                	.2byte	0x8000
 154:	0000                	unimp
 156:	0000                	unimp
 158:	0182                	c.slli64	gp
 15a:	0000                	unimp
 15c:	0000                	unimp
 15e:	0000                	unimp
 160:	0e42                	slli	t3,t3,0x10
 162:	0190                	addi	a2,sp,192
 164:	7402                	ld	s0,32(sp)
 166:	0e0a                	slli	t3,t3,0x2
 168:	4200                	lw	s0,0(a2)
 16a:	0000000b          	.4byte	0xb
	...
