
/home/binhkieudo/Workspace/NewFramework/framework/sw/conv2d/build/main.elf:     file format elf64-littleriscv


Disassembly of section .text:

0000000080000000 <_prog_start>:
  .option norvc
  .globl _prog_start
_prog_start:
    # li s0, MEMORY_MEM_ADDR
    # jr s0
  csrw mie, zero
    80000000:	30401073          	csrw	mie,zero
  csrr a0, mhartid
    80000004:	f1402573          	csrr	a0,mhartid
  beq a0, zero, _hart0
    80000008:	02050063          	beqz	a0,80000028 <_hart0>
  li t0, 1
    8000000c:	00100293          	li	t0,1
  beq a0, t0, _hart1
    80000010:	02550863          	beq	a0,t0,80000040 <_hart1>
  li t0, 2
    80000014:	00200293          	li	t0,2
  beq a0, t0, _hart2
    80000018:	04550c63          	beq	a0,t0,80000070 <_hart2>
  li t0, 3
    8000001c:	00300293          	li	t0,3
  beq a0, t0, _hart3
    80000020:	08550063          	beq	a0,t0,800000a0 <_hart3>
  j _loopback
    80000024:	0ac0006f          	j	800000d0 <_loopback>

0000000080000028 <_hart0>:
_hart0:
  csrrw t0, mcycle, zero
    80000028:	b00012f3          	csrrw	t0,mcycle,zero
  csrrw t0, minstret, zero
    8000002c:	b02012f3          	csrrw	t0,minstret,zero
  li sp, 0x40000ff0
    80000030:	40001137          	lui	sp,0x40001
    80000034:	ff01011b          	addiw	sp,sp,-16 # 40000ff0 <_prog_start-0x3ffff010>
  call main
    80000038:	37c000ef          	jal	ra,800003b4 <main>
  wfi
    8000003c:	10500073          	wfi

0000000080000040 <_hart1>:
_hart1:
  wfi
    80000040:	10500073          	wfi
  csrw mie, zero
    80000044:	30401073          	csrw	mie,zero
  li s1, 0
    80000048:	00000493          	li	s1,0
  li t0, (CLINT_CTRL_ADDR + CLINT_MSIP1)
    8000004c:	020002b7          	lui	t0,0x2000
    80000050:	0042829b          	addiw	t0,t0,4 # 2000004 <_prog_start-0x7dfffffc>
  amoswap.w t1, s1, (t0)
    80000054:	0892a32f          	amoswap.w	t1,s1,(t0)
  li sp, 0x40001ff0
    80000058:	40002137          	lui	sp,0x40002
    8000005c:	ff01011b          	addiw	sp,sp,-16 # 40001ff0 <_prog_start-0x3fffe010>
  call conv2d_1
    80000060:	178000ef          	jal	ra,800001d8 <conv2d_1>
  li s1, 1
    80000064:	00100493          	li	s1,1
  csrw mie, s1
    80000068:	30449073          	csrw	mie,s1
  j _hart1
    8000006c:	fd5ff06f          	j	80000040 <_hart1>

0000000080000070 <_hart2>:
_hart2:
  wfi
    80000070:	10500073          	wfi
  csrw mie, zero
    80000074:	30401073          	csrw	mie,zero
  li s1, 0
    80000078:	00000493          	li	s1,0
  li t0, (CLINT_CTRL_ADDR + CLINT_MSIP2)
    8000007c:	020002b7          	lui	t0,0x2000
    80000080:	0082829b          	addiw	t0,t0,8 # 2000008 <_prog_start-0x7dfffff8>
  amoswap.w t1, s1, (t0)
    80000084:	0892a32f          	amoswap.w	t1,s1,(t0)
  li sp, 0x40002ff0
    80000088:	40003137          	lui	sp,0x40003
    8000008c:	ff01011b          	addiw	sp,sp,-16 # 40002ff0 <_prog_start-0x3fffd010>
  call conv2d_2
    80000090:	1ec000ef          	jal	ra,8000027c <conv2d_2>
  li s1, 1
    80000094:	00100493          	li	s1,1
  csrw mie, s1
    80000098:	30449073          	csrw	mie,s1
  j _hart2
    8000009c:	fd5ff06f          	j	80000070 <_hart2>

00000000800000a0 <_hart3>:
_hart3:
  wfi
    800000a0:	10500073          	wfi
  csrw mie, zero
    800000a4:	30401073          	csrw	mie,zero
  li s1, 0
    800000a8:	00000493          	li	s1,0
  li t0, (CLINT_CTRL_ADDR + CLINT_MSIP3)
    800000ac:	020002b7          	lui	t0,0x2000
    800000b0:	00c2829b          	addiw	t0,t0,12 # 200000c <_prog_start-0x7dfffff4>
  amoswap.w t1, s1, (t0)
    800000b4:	0892a32f          	amoswap.w	t1,s1,(t0)
  li sp, 0x40003ff0
    800000b8:	40004137          	lui	sp,0x40004
    800000bc:	ff01011b          	addiw	sp,sp,-16 # 40003ff0 <_prog_start-0x3fffc010>
  call conv2d_3
    800000c0:	25c000ef          	jal	ra,8000031c <conv2d_3>
  li s1, 1
    800000c4:	00100493          	li	s1,1
  csrw mie, s1
    800000c8:	30449073          	csrw	mie,s1
  j _hart3
    800000cc:	fd5ff06f          	j	800000a0 <_hart3>

00000000800000d0 <_loopback>:
_loopback:
  j _loopback
    800000d0:	0000006f          	j	800000d0 <_loopback>

00000000800000d4 <conv2d>:
#define OUTPUT_SIZE (INPUT_SIZE*INPUT_SIZE - KERNEL_SIZE*KERNEL_SIZE + 1)

// Example usage (replace with your actual data)


void conv2d(uint8_t* input, uint8_t* kernel, uint8_t* output) {
    800000d4:	8f2e                	mv	t5,a1
    800000d6:	8eb2                	mv	t4,a2
    800000d8:	8e2a                	mv	t3,a0
    for (int y = 0; y < INPUT_SIZE - KERNEL_SIZE + 1; y++) {
    800000da:	4f81                	li	t6,0
    800000dc:	40058893          	addi	a7,a1,1024
        for (int x = 0; x < INPUT_SIZE - KERNEL_SIZE + 1; x++) {
    800000e0:	06100293          	li	t0,97
            uint8_t sum = 0;
    800000e4:	4301                	li	t1,0
    800000e6:	020e0393          	addi	t2,t3,32
            for (int ky = 0; ky < KERNEL_SIZE; ky++) {
    800000ea:	887a                	mv	a6,t5
    800000ec:	00638533          	add	a0,t2,t1
            uint8_t sum = 0;
    800000f0:	4701                	li	a4,0
                for (int kx = 0; kx < KERNEL_SIZE; kx++) {
    800000f2:	fe050793          	addi	a5,a0,-32
void conv2d(uint8_t* input, uint8_t* kernel, uint8_t* output) {
    800000f6:	8642                	mv	a2,a6
                    int in_y = y + ky;
                    int in_x = x + kx;
                    sum += input[in_y * INPUT_SIZE + in_x] * kernel[ky * KERNEL_SIZE + kx];
    800000f8:	0007c683          	lbu	a3,0(a5)
    800000fc:	00064583          	lbu	a1,0(a2)
                for (int kx = 0; kx < KERNEL_SIZE; kx++) {
    80000100:	0785                	addi	a5,a5,1
    80000102:	0605                	addi	a2,a2,1
                    sum += input[in_y * INPUT_SIZE + in_x] * kernel[ky * KERNEL_SIZE + kx];
    80000104:	02b686bb          	mulw	a3,a3,a1
    80000108:	9f35                	addw	a4,a4,a3
    8000010a:	0ff77713          	zext.b	a4,a4
                for (int kx = 0; kx < KERNEL_SIZE; kx++) {
    8000010e:	fef515e3          	bne	a0,a5,800000f8 <conv2d+0x24>
            for (int ky = 0; ky < KERNEL_SIZE; ky++) {
    80000112:	02080813          	addi	a6,a6,32
    80000116:	08050513          	addi	a0,a0,128
    8000011a:	fd089ce3          	bne	a7,a6,800000f2 <conv2d+0x1e>
                }
            }
            output[y * (INPUT_SIZE - KERNEL_SIZE + 1) + x] = sum;
    8000011e:	006e87b3          	add	a5,t4,t1
    80000122:	00e78023          	sb	a4,0(a5)
        for (int x = 0; x < INPUT_SIZE - KERNEL_SIZE + 1; x++) {
    80000126:	0305                	addi	t1,t1,1
    80000128:	fc5311e3          	bne	t1,t0,800000ea <conv2d+0x16>
    for (int y = 0; y < INPUT_SIZE - KERNEL_SIZE + 1; y++) {
    8000012c:	2f85                	addiw	t6,t6,1
    8000012e:	061e8e93          	addi	t4,t4,97
    80000132:	080e0e13          	addi	t3,t3,128
    80000136:	fa6f97e3          	bne	t6,t1,800000e4 <conv2d+0x10>
        }
    }
}
    8000013a:	8082                	ret

000000008000013c <conv2d_0>:

void conv2d_0() {
    8000013c:	1101                	addi	sp,sp,-32
    8000013e:	70000f37          	lui	t5,0x70000
    80000142:	ec22                	sd	s0,24(sp)
    80000144:	e826                	sd	s1,16(sp)
    80000146:	e44a                	sd	s2,8(sp)
    80000148:	e04e                	sd	s3,0(sp)
    uint8_t *kernel = (uint8_t*)0x40000000;
    uint8_t *input = (uint8_t*)0x70000000;
    uint8_t *output = (uint8_t*)0x70005000;
    for (int y = 0; y <= GAP_SIZEP1; y++) {
        for (int x = 0; x <= GAP_SIZE; x++) {
            uint8_t sum = 0;
    8000014a:	4e81                	li	t4,0
    8000014c:	4281                	li	t0,0
    for (int y = 0; y <= GAP_SIZEP1; y++) {
    8000014e:	4f81                	li	t6,0
    80000150:	020f0f13          	addi	t5,t5,32 # 70000020 <_prog_start-0xfffffe0>
            for (int ky = 0; ky < KERNEL_SIZE; ky++) {
                for (int kx = 0; kx < KERNEL_SIZE; kx++) {
                    int in_y = y + ky;
                    int in_x = x + kx;
                    sum += input[in_y * INPUT_SIZE + in_x] * kernel[ky * KERNEL_SIZE + kx];
    80000154:	d0000837          	lui	a6,0xd0000
            for (int ky = 0; ky < KERNEL_SIZE; ky++) {
    80000158:	40000313          	li	t1,1024
                }
            }
            output[y * GAP_SIZE1 + x] = sum;
    8000015c:	700054b7          	lui	s1,0x70005
        for (int x = 0; x <= GAP_SIZE; x++) {
    80000160:	06100413          	li	s0,97
    for (int y = 0; y <= GAP_SIZEP1; y++) {
    80000164:	43e5                	li	t2,25
            uint8_t sum = 0;
    80000166:	4e01                	li	t3,0
    80000168:	41d009b3          	neg	s3,t4
    8000016c:	01ee8933          	add	s2,t4,t5
            for (int ky = 0; ky < KERNEL_SIZE; ky++) {
    80000170:	41c98533          	sub	a0,s3,t3
    80000174:	01c905b3          	add	a1,s2,t3
void conv2d_0() {
    80000178:	4881                	li	a7,0
            uint8_t sum = 0;
    8000017a:	4701                	li	a4,0
                for (int kx = 0; kx < KERNEL_SIZE; kx++) {
    8000017c:	fe058793          	addi	a5,a1,-32
                    sum += input[in_y * INPUT_SIZE + in_x] * kernel[ky * KERNEL_SIZE + kx];
    80000180:	00f506b3          	add	a3,a0,a5
    80000184:	96c2                	add	a3,a3,a6
    80000186:	0007c603          	lbu	a2,0(a5)
    8000018a:	0006c683          	lbu	a3,0(a3)
                for (int kx = 0; kx < KERNEL_SIZE; kx++) {
    8000018e:	0785                	addi	a5,a5,1
                    sum += input[in_y * INPUT_SIZE + in_x] * kernel[ky * KERNEL_SIZE + kx];
    80000190:	02c686bb          	mulw	a3,a3,a2
    80000194:	9f35                	addw	a4,a4,a3
    80000196:	0ff77713          	zext.b	a4,a4
                for (int kx = 0; kx < KERNEL_SIZE; kx++) {
    8000019a:	fef593e3          	bne	a1,a5,80000180 <conv2d_0+0x44>
            for (int ky = 0; ky < KERNEL_SIZE; ky++) {
    8000019e:	0208889b          	addiw	a7,a7,32
    800001a2:	fa050513          	addi	a0,a0,-96
    800001a6:	08058593          	addi	a1,a1,128
    800001aa:	fc6899e3          	bne	a7,t1,8000017c <conv2d_0+0x40>
            output[y * GAP_SIZE1 + x] = sum;
    800001ae:	005e07b3          	add	a5,t3,t0
    800001b2:	97a6                	add	a5,a5,s1
    800001b4:	00e78023          	sb	a4,0(a5)
        for (int x = 0; x <= GAP_SIZE; x++) {
    800001b8:	0e05                	addi	t3,t3,1
    800001ba:	fa8e1be3          	bne	t3,s0,80000170 <conv2d_0+0x34>
    for (int y = 0; y <= GAP_SIZEP1; y++) {
    800001be:	2f85                	addiw	t6,t6,1
    800001c0:	06128293          	addi	t0,t0,97
    800001c4:	080e8e93          	addi	t4,t4,128
    800001c8:	f87f9fe3          	bne	t6,t2,80000166 <conv2d_0+0x2a>
        }
    }
}
    800001cc:	6462                	ld	s0,24(sp)
    800001ce:	64c2                	ld	s1,16(sp)
    800001d0:	6922                	ld	s2,8(sp)
    800001d2:	6982                	ld	s3,0(sp)
    800001d4:	6105                	addi	sp,sp,32
    800001d6:	8082                	ret

00000000800001d8 <conv2d_1>:

void conv2d_1() {
    800001d8:	1101                	addi	sp,sp,-32
    uint8_t *kernel = (uint8_t*)0x40001000;
    uint8_t *input = (uint8_t*)0x70000000;
    uint8_t *output = (uint8_t*)0x70005000;
    for (int y = GAP_SIZEP1+1; y <= GAP_SIZEP2; y++) {
        for (int x = 0; x <= GAP_SIZE; x++) {
            uint8_t sum = 0;
    800001da:	6e05                	lui	t3,0x1
    800001dc:	70000fb7          	lui	t6,0x70000
void conv2d_1() {
    800001e0:	ec22                	sd	s0,24(sp)
    800001e2:	e826                	sd	s1,16(sp)
            uint8_t sum = 0;
    800001e4:	c80e0f13          	addi	t5,t3,-896 # c80 <_prog_start-0x7ffff380>
void conv2d_1() {
    800001e8:	e44a                	sd	s2,8(sp)
    800001ea:	e04e                	sd	s3,0(sp)
            uint8_t sum = 0;
    800001ec:	979e0e13          	addi	t3,t3,-1671
    for (int y = GAP_SIZEP1+1; y <= GAP_SIZEP2; y++) {
    800001f0:	42e5                	li	t0,25
    800001f2:	020f8f93          	addi	t6,t6,32 # 70000020 <_prog_start-0xfffffe0>
            for (int ky = 0; ky < KERNEL_SIZE; ky++) {
                for (int kx = 0; kx < KERNEL_SIZE; kx++) {
                    int in_y = y + ky;
                    int in_x = x + kx;
                    sum += input[in_y * INPUT_SIZE + in_x] * kernel[ky * KERNEL_SIZE + kx];
    800001f6:	d0001837          	lui	a6,0xd0001
            for (int ky = 0; ky < KERNEL_SIZE; ky++) {
    800001fa:	40000313          	li	t1,1024
                }
            }
            output[y * GAP_SIZE1 + x] = sum;
    800001fe:	700054b7          	lui	s1,0x70005
        for (int x = 0; x <= GAP_SIZE; x++) {
    80000202:	06100413          	li	s0,97
    for (int y = GAP_SIZEP1+1; y <= GAP_SIZEP2; y++) {
    80000206:	03100393          	li	t2,49
            uint8_t sum = 0;
    8000020a:	4e81                	li	t4,0
    8000020c:	41e009b3          	neg	s3,t5
    80000210:	01ff0933          	add	s2,t5,t6
            for (int ky = 0; ky < KERNEL_SIZE; ky++) {
    80000214:	41d98533          	sub	a0,s3,t4
    80000218:	01d905b3          	add	a1,s2,t4
void conv2d_1() {
    8000021c:	4881                	li	a7,0
            uint8_t sum = 0;
    8000021e:	4701                	li	a4,0
                for (int kx = 0; kx < KERNEL_SIZE; kx++) {
    80000220:	fe058793          	addi	a5,a1,-32
                    sum += input[in_y * INPUT_SIZE + in_x] * kernel[ky * KERNEL_SIZE + kx];
    80000224:	00f506b3          	add	a3,a0,a5
    80000228:	96c2                	add	a3,a3,a6
    8000022a:	0007c603          	lbu	a2,0(a5)
    8000022e:	0006c683          	lbu	a3,0(a3)
                for (int kx = 0; kx < KERNEL_SIZE; kx++) {
    80000232:	0785                	addi	a5,a5,1
                    sum += input[in_y * INPUT_SIZE + in_x] * kernel[ky * KERNEL_SIZE + kx];
    80000234:	02c686bb          	mulw	a3,a3,a2
    80000238:	9f35                	addw	a4,a4,a3
    8000023a:	0ff77713          	zext.b	a4,a4
                for (int kx = 0; kx < KERNEL_SIZE; kx++) {
    8000023e:	fef593e3          	bne	a1,a5,80000224 <conv2d_1+0x4c>
            for (int ky = 0; ky < KERNEL_SIZE; ky++) {
    80000242:	0208889b          	addiw	a7,a7,32
    80000246:	fa050513          	addi	a0,a0,-96
    8000024a:	08058593          	addi	a1,a1,128
    8000024e:	fc6899e3          	bne	a7,t1,80000220 <conv2d_1+0x48>
            output[y * GAP_SIZE1 + x] = sum;
    80000252:	01ce87b3          	add	a5,t4,t3
    80000256:	97a6                	add	a5,a5,s1
    80000258:	00e78023          	sb	a4,0(a5)
        for (int x = 0; x <= GAP_SIZE; x++) {
    8000025c:	0e85                	addi	t4,t4,1
    8000025e:	fa8e9be3          	bne	t4,s0,80000214 <conv2d_1+0x3c>
    for (int y = GAP_SIZEP1+1; y <= GAP_SIZEP2; y++) {
    80000262:	2285                	addiw	t0,t0,1
    80000264:	061e0e13          	addi	t3,t3,97
    80000268:	080f0f13          	addi	t5,t5,128
    8000026c:	f8729fe3          	bne	t0,t2,8000020a <conv2d_1+0x32>
        }
    }
}
    80000270:	6462                	ld	s0,24(sp)
    80000272:	64c2                	ld	s1,16(sp)
    80000274:	6922                	ld	s2,8(sp)
    80000276:	6982                	ld	s3,0(sp)
    80000278:	6105                	addi	sp,sp,32
    8000027a:	8082                	ret

000000008000027c <conv2d_2>:

void conv2d_2() {
    8000027c:	1101                	addi	sp,sp,-32
    8000027e:	70000f37          	lui	t5,0x70000
    80000282:	ec22                	sd	s0,24(sp)
    80000284:	e826                	sd	s1,16(sp)
    80000286:	e44a                	sd	s2,8(sp)
    80000288:	e04e                	sd	s3,0(sp)
    uint8_t *kernel = (uint8_t*)0x40002000;
    uint8_t *input = (uint8_t*)0x70000000;
    uint8_t *output = (uint8_t*)0x70005000;
    for (int y = 0; y <= GAP_SIZE; y++) {
        for (int x = GAP_SIZEP2+1; x <= GAP_SIZEP3; x++) {
            uint8_t sum = 0;
    8000028a:	4e81                	li	t4,0
    8000028c:	4281                	li	t0,0
    for (int y = 0; y <= GAP_SIZE; y++) {
    8000028e:	4f81                	li	t6,0
    80000290:	020f0f13          	addi	t5,t5,32 # 70000020 <_prog_start-0xfffffe0>
            for (int ky = 0; ky < KERNEL_SIZE; ky++) {
                for (int kx = 0; kx < KERNEL_SIZE; kx++) {
                    int in_y = y + ky;
                    int in_x = x + kx;
                    sum += input[in_y * INPUT_SIZE + in_x] * kernel[ky * KERNEL_SIZE + kx];
    80000294:	d0002837          	lui	a6,0xd0002
            for (int ky = 0; ky < KERNEL_SIZE; ky++) {
    80000298:	40000313          	li	t1,1024
                }
            }
            output[y * GAP_SIZE1 + x] = sum;
    8000029c:	700054b7          	lui	s1,0x70005
        for (int x = GAP_SIZEP2+1; x <= GAP_SIZEP3; x++) {
    800002a0:	04900413          	li	s0,73
    for (int y = 0; y <= GAP_SIZE; y++) {
    800002a4:	06100393          	li	t2,97
            uint8_t sum = 0;
    800002a8:	03100e13          	li	t3,49
    800002ac:	41d009b3          	neg	s3,t4
    800002b0:	01ee8933          	add	s2,t4,t5
            for (int ky = 0; ky < KERNEL_SIZE; ky++) {
    800002b4:	41c98533          	sub	a0,s3,t3
    800002b8:	01c905b3          	add	a1,s2,t3
void conv2d_2() {
    800002bc:	4881                	li	a7,0
            uint8_t sum = 0;
    800002be:	4701                	li	a4,0
                for (int kx = 0; kx < KERNEL_SIZE; kx++) {
    800002c0:	fe058793          	addi	a5,a1,-32
                    sum += input[in_y * INPUT_SIZE + in_x] * kernel[ky * KERNEL_SIZE + kx];
    800002c4:	00f506b3          	add	a3,a0,a5
    800002c8:	96c2                	add	a3,a3,a6
    800002ca:	0007c603          	lbu	a2,0(a5)
    800002ce:	0006c683          	lbu	a3,0(a3)
                for (int kx = 0; kx < KERNEL_SIZE; kx++) {
    800002d2:	0785                	addi	a5,a5,1
                    sum += input[in_y * INPUT_SIZE + in_x] * kernel[ky * KERNEL_SIZE + kx];
    800002d4:	02c686bb          	mulw	a3,a3,a2
    800002d8:	9f35                	addw	a4,a4,a3
    800002da:	0ff77713          	zext.b	a4,a4
                for (int kx = 0; kx < KERNEL_SIZE; kx++) {
    800002de:	fef593e3          	bne	a1,a5,800002c4 <conv2d_2+0x48>
            for (int ky = 0; ky < KERNEL_SIZE; ky++) {
    800002e2:	0208889b          	addiw	a7,a7,32
    800002e6:	fa050513          	addi	a0,a0,-96
    800002ea:	08058593          	addi	a1,a1,128
    800002ee:	fc6899e3          	bne	a7,t1,800002c0 <conv2d_2+0x44>
            output[y * GAP_SIZE1 + x] = sum;
    800002f2:	005e07b3          	add	a5,t3,t0
    800002f6:	97a6                	add	a5,a5,s1
    800002f8:	00e78023          	sb	a4,0(a5)
        for (int x = GAP_SIZEP2+1; x <= GAP_SIZEP3; x++) {
    800002fc:	0e05                	addi	t3,t3,1
    800002fe:	fa8e1be3          	bne	t3,s0,800002b4 <conv2d_2+0x38>
    for (int y = 0; y <= GAP_SIZE; y++) {
    80000302:	2f85                	addiw	t6,t6,1
    80000304:	06128293          	addi	t0,t0,97
    80000308:	080e8e93          	addi	t4,t4,128
    8000030c:	f87f9ee3          	bne	t6,t2,800002a8 <conv2d_2+0x2c>
        }
    }
}
    80000310:	6462                	ld	s0,24(sp)
    80000312:	64c2                	ld	s1,16(sp)
    80000314:	6922                	ld	s2,8(sp)
    80000316:	6982                	ld	s3,0(sp)
    80000318:	6105                	addi	sp,sp,32
    8000031a:	8082                	ret

000000008000031c <conv2d_3>:

void conv2d_3() {
    8000031c:	1101                	addi	sp,sp,-32
    8000031e:	70000f37          	lui	t5,0x70000
    80000322:	ec22                	sd	s0,24(sp)
    80000324:	e826                	sd	s1,16(sp)
    80000326:	e44a                	sd	s2,8(sp)
    uint8_t *kernel = (uint8_t*)0x40003000;
    uint8_t *input = (uint8_t*)0x70000000;
    uint8_t *output = (uint8_t*)0x70005000;
    for (int y = 0; y <= GAP_SIZE; y++) {
        for (int x = GAP_SIZEP3+1; x <= GAP_SIZE; x++) {
            uint8_t sum = 0;
    80000328:	4e81                	li	t4,0
    8000032a:	4281                	li	t0,0
    for (int y = 0; y <= GAP_SIZE; y++) {
    8000032c:	4f81                	li	t6,0
    8000032e:	020f0f13          	addi	t5,t5,32 # 70000020 <_prog_start-0xfffffe0>
            for (int ky = 0; ky < KERNEL_SIZE; ky++) {
                for (int kx = 0; kx < KERNEL_SIZE; kx++) {
                    int in_y = y + ky;
                    int in_x = x + kx;
                    sum += input[in_y * INPUT_SIZE + in_x] * kernel[ky * KERNEL_SIZE + kx];
    80000332:	d0003837          	lui	a6,0xd0003
            for (int ky = 0; ky < KERNEL_SIZE; ky++) {
    80000336:	40000313          	li	t1,1024
                }
            }
            output[y * GAP_SIZE1 + x] = sum;
    8000033a:	70005437          	lui	s0,0x70005
        for (int x = GAP_SIZEP3+1; x <= GAP_SIZE; x++) {
    8000033e:	06100393          	li	t2,97
            uint8_t sum = 0;
    80000342:	04900e13          	li	t3,73
    80000346:	41d00933          	neg	s2,t4
    8000034a:	01ee84b3          	add	s1,t4,t5
            for (int ky = 0; ky < KERNEL_SIZE; ky++) {
    8000034e:	41c90533          	sub	a0,s2,t3
    80000352:	01c485b3          	add	a1,s1,t3
void conv2d_3() {
    80000356:	4881                	li	a7,0
            uint8_t sum = 0;
    80000358:	4701                	li	a4,0
                for (int kx = 0; kx < KERNEL_SIZE; kx++) {
    8000035a:	fe058793          	addi	a5,a1,-32
                    sum += input[in_y * INPUT_SIZE + in_x] * kernel[ky * KERNEL_SIZE + kx];
    8000035e:	00f506b3          	add	a3,a0,a5
    80000362:	96c2                	add	a3,a3,a6
    80000364:	0007c603          	lbu	a2,0(a5)
    80000368:	0006c683          	lbu	a3,0(a3)
                for (int kx = 0; kx < KERNEL_SIZE; kx++) {
    8000036c:	0785                	addi	a5,a5,1
                    sum += input[in_y * INPUT_SIZE + in_x] * kernel[ky * KERNEL_SIZE + kx];
    8000036e:	02c686bb          	mulw	a3,a3,a2
    80000372:	9f35                	addw	a4,a4,a3
    80000374:	0ff77713          	zext.b	a4,a4
                for (int kx = 0; kx < KERNEL_SIZE; kx++) {
    80000378:	fef593e3          	bne	a1,a5,8000035e <conv2d_3+0x42>
            for (int ky = 0; ky < KERNEL_SIZE; ky++) {
    8000037c:	0208889b          	addiw	a7,a7,32
    80000380:	fa050513          	addi	a0,a0,-96
    80000384:	08058593          	addi	a1,a1,128
    80000388:	fc6899e3          	bne	a7,t1,8000035a <conv2d_3+0x3e>
            output[y * GAP_SIZE1 + x] = sum;
    8000038c:	005e07b3          	add	a5,t3,t0
    80000390:	97a2                	add	a5,a5,s0
    80000392:	00e78023          	sb	a4,0(a5)
        for (int x = GAP_SIZEP3+1; x <= GAP_SIZE; x++) {
    80000396:	0e05                	addi	t3,t3,1
    80000398:	fa7e1be3          	bne	t3,t2,8000034e <conv2d_3+0x32>
    for (int y = 0; y <= GAP_SIZE; y++) {
    8000039c:	2f85                	addiw	t6,t6,1
    8000039e:	06128293          	addi	t0,t0,97
    800003a2:	080e8e93          	addi	t4,t4,128
    800003a6:	f9cf9ee3          	bne	t6,t3,80000342 <conv2d_3+0x26>
        }
    }
}
    800003aa:	6462                	ld	s0,24(sp)
    800003ac:	64c2                	ld	s1,16(sp)
    800003ae:	6922                	ld	s2,8(sp)
    800003b0:	6105                	addi	sp,sp,32
    800003b2:	8082                	ret

00000000800003b4 <main>:

int main(int argc, char **arv) {
    800003b4:	bd010113          	addi	sp,sp,-1072
  
    REG32(uart, UART_REG_TXCTRL) = UART_TXEN;
    800003b8:	640007b7          	lui	a5,0x64000
    800003bc:	4705                	li	a4,1
int main(int argc, char **arv) {
    800003be:	42113423          	sd	ra,1064(sp)
    800003c2:	42813023          	sd	s0,1056(sp)
    800003c6:	40913c23          	sd	s1,1048(sp)
    800003ca:	41213823          	sd	s2,1040(sp)
    800003ce:	41313423          	sd	s3,1032(sp)
    REG32(uart, UART_REG_TXCTRL) = UART_TXEN;
    800003d2:	c798                	sw	a4,8(a5)
    800003d4:	700007b7          	lui	a5,0x70000
    uint8_t *kernel_3 = (uint8_t*)0x40003000;

    uint8_t *input = (uint8_t*)0x70000000;
    uint8_t *output = (uint8_t*)0x70005000;

    for (int i = 0; i < INPUT_SIZE*INPUT_SIZE; i ++)
    800003d8:	70004737          	lui	a4,0x70004
        input[i] = i;
    800003dc:	00f78023          	sb	a5,0(a5) # 70000000 <_prog_start-0x10000000>
    for (int i = 0; i < INPUT_SIZE*INPUT_SIZE; i ++)
    800003e0:	0785                	addi	a5,a5,1
    800003e2:	fee79de3          	bne	a5,a4,800003dc <main+0x28>
    800003e6:	400007b7          	lui	a5,0x40000

    for (int i = 0; i < KERNEL_SIZE*KERNEL_SIZE; i++) {
        kernel_0[i] = i;
        kernel_1[i] = i;
    800003ea:	6885                	lui	a7,0x1
        kernel_2[i] = i;
    800003ec:	6809                	lui	a6,0x2
        kernel_3[i] = i;
    800003ee:	650d                	lui	a0,0x3
    for (int i = 0; i < KERNEL_SIZE*KERNEL_SIZE; i++) {
    800003f0:	40078593          	addi	a1,a5,1024 # 40000400 <_prog_start-0x3ffffc00>
        kernel_0[i] = i;
    800003f4:	0ff7f713          	zext.b	a4,a5
    800003f8:	00e78023          	sb	a4,0(a5)
        kernel_1[i] = i;
    800003fc:	00f886b3          	add	a3,a7,a5
    80000400:	00e68023          	sb	a4,0(a3)
        kernel_2[i] = i;
    80000404:	00f80633          	add	a2,a6,a5
        kernel_3[i] = i;
    80000408:	00f506b3          	add	a3,a0,a5
        kernel_2[i] = i;
    8000040c:	00e60023          	sb	a4,0(a2)
        kernel_3[i] = i;
    80000410:	00e68023          	sb	a4,0(a3)
    for (int i = 0; i < KERNEL_SIZE*KERNEL_SIZE; i++) {
    80000414:	0785                	addi	a5,a5,1
    80000416:	fcb79fe3          	bne	a5,a1,800003f4 <main+0x40>
    }   

    for (int i = 0; i < OUTPUT_SIZE; i ++)
    8000041a:	70009737          	lui	a4,0x70009
    8000041e:	700057b7          	lui	a5,0x70005
    80000422:	c0170713          	addi	a4,a4,-1023 # 70008c01 <_prog_start-0xfff73ff>
        output[i] = 0;
    80000426:	00078023          	sb	zero,0(a5) # 70005000 <_prog_start-0xfffb000>
    for (int i = 0; i < OUTPUT_SIZE; i ++)
    8000042a:	0785                	addi	a5,a5,1
    8000042c:	fee79de3          	bne	a5,a4,80000426 <main+0x72>

    // ============ Serial =======================
    t_start = read_csr(mcycle); 
    80000430:	b0002973          	csrr	s2,mcycle
    intr_start = read_csr(minstret); 
    80000434:	b02029f3          	csrr	s3,minstret
    conv2d(input, kernel, output);
    80000438:	70005637          	lui	a2,0x70005
    8000043c:	858a                	mv	a1,sp
    8000043e:	70000537          	lui	a0,0x70000
    80000442:	c93ff0ef          	jal	ra,800000d4 <conv2d>
    t_end = read_csr(mcycle);
    80000446:	b0002473          	csrr	s0,mcycle
    instr_end = read_csr(minstret); 
    8000044a:	b02024f3          	csrr	s1,minstret
    t_gap = t_end - t_start;
    inst_gap = instr_end - intr_start;

    kprintf("Input size/Kernel size = %l/%l ===========\r\n", INPUT_SIZE, KERNEL_SIZE);
    8000044e:	02000613          	li	a2,32
    80000452:	00000517          	auipc	a0,0x0
    80000456:	29650513          	addi	a0,a0,662 # 800006e8 <kprintf+0x1c4>
    8000045a:	08000593          	li	a1,128
    8000045e:	0c6000ef          	jal	ra,80000524 <kprintf>
    inst_gap = instr_end - intr_start;
    80000462:	413484b3          	sub	s1,s1,s3
    kprintf("Instr (single): %l\r\n", inst_gap);
    80000466:	85a6                	mv	a1,s1
    80000468:	00000517          	auipc	a0,0x0
    8000046c:	2b050513          	addi	a0,a0,688 # 80000718 <kprintf+0x1f4>
    80000470:	0b4000ef          	jal	ra,80000524 <kprintf>
    t_gap = t_end - t_start;
    80000474:	41240433          	sub	s0,s0,s2
    kprintf("Time spent (single): %l (cycles)\r\n", t_gap);
    80000478:	85a2                	mv	a1,s0
    8000047a:	00000517          	auipc	a0,0x0
    8000047e:	2b650513          	addi	a0,a0,694 # 80000730 <kprintf+0x20c>
    80000482:	0a2000ef          	jal	ra,80000524 <kprintf>

    
    // ============ Parallel =======================
    t_start = read_csr(mcycle); 
    80000486:	b0002473          	csrr	s0,mcycle
    REG32(clint, CLINT_MSIP1) = CLINT_MSIPEN;
    8000048a:	020007b7          	lui	a5,0x2000
    8000048e:	4705                	li	a4,1
    80000490:	c3d8                	sw	a4,4(a5)
    REG32(clint, CLINT_MSIP2) = CLINT_MSIPEN;
    80000492:	c798                	sw	a4,8(a5)
    REG32(clint, CLINT_MSIP3) = CLINT_MSIPEN;
    80000494:	c7d8                	sw	a4,12(a5)
    conv2d_0();
    80000496:	ca7ff0ef          	jal	ra,8000013c <conv2d_0>
    t_end = read_csr(mcycle);
    8000049a:	b00025f3          	csrr	a1,mcycle
    t_gap = t_end - t_start;

    kprintf("Time spent (multi): %l (cycles)\r\n", t_gap);   
    8000049e:	00000517          	auipc	a0,0x0
    800004a2:	2ba50513          	addi	a0,a0,698 # 80000758 <kprintf+0x234>
    800004a6:	8d81                	sub	a1,a1,s0
    800004a8:	07c000ef          	jal	ra,80000524 <kprintf>

    for (int i = 0; i < OUTPUT_SIZE; i++)
    800004ac:	700096b7          	lui	a3,0x70009
    kprintf("Time spent (multi): %l (cycles)\r\n", t_gap);   
    800004b0:	700057b7          	lui	a5,0x70005
        *cp = output[i];
    800004b4:	70000637          	lui	a2,0x70000
    for (int i = 0; i < OUTPUT_SIZE; i++)
    800004b8:	c0168693          	addi	a3,a3,-1023 # 70008c01 <_prog_start-0xfff73ff>
        *cp = output[i];
    800004bc:	0007c703          	lbu	a4,0(a5) # 70005000 <_prog_start-0xfffb000>
    for (int i = 0; i < OUTPUT_SIZE; i++)
    800004c0:	0785                	addi	a5,a5,1
        *cp = output[i];
    800004c2:	00e60023          	sb	a4,0(a2) # 70000000 <_prog_start-0x10000000>
    for (int i = 0; i < OUTPUT_SIZE; i++)
    800004c6:	fed79be3          	bne	a5,a3,800004bc <main+0x108>

    return 0;
}
    800004ca:	42813083          	ld	ra,1064(sp)
    800004ce:	42013403          	ld	s0,1056(sp)
    800004d2:	41813483          	ld	s1,1048(sp)
    800004d6:	41013903          	ld	s2,1040(sp)
    800004da:	40813983          	ld	s3,1032(sp)
    800004de:	4501                	li	a0,0
    800004e0:	43010113          	addi	sp,sp,1072
    800004e4:	8082                	ret

00000000800004e6 <kputs>:
#include "kprintf.h"

static inline void _kputs(const char *s)
{
	char c;
	for (; (c = *s) != '\0'; s++)
    800004e6:	00054683          	lbu	a3,0(a0)
    800004ea:	ce81                	beqz	a3,80000502 <kputs+0x1c>
{
	volatile uint32_t *tx = &REG32(uart, UART_REG_TXFIFO);
#ifdef __riscv_atomic
	int32_t r;
	do {
		__asm__ __volatile__ (
    800004ec:	64000737          	lui	a4,0x64000
    800004f0:	40d727af          	amoor.w	a5,a3,(a4)
    800004f4:	2781                	sext.w	a5,a5
			"amoor.w %0, %2, %1\n"
			: "=r" (r), "+A" (*tx)
			: "r" (c));
	} while (r < 0);
    800004f6:	fe07cde3          	bltz	a5,800004f0 <kputs+0xa>
    800004fa:	00154683          	lbu	a3,1(a0)
    800004fe:	0505                	addi	a0,a0,1
    80000500:	fae5                	bnez	a3,800004f0 <kputs+0xa>
		__asm__ __volatile__ (
    80000502:	64000737          	lui	a4,0x64000
    80000506:	46b5                	li	a3,13
    80000508:	40d727af          	amoor.w	a5,a3,(a4)
    8000050c:	2781                	sext.w	a5,a5
	} while (r < 0);
    8000050e:	fe07cde3          	bltz	a5,80000508 <kputs+0x22>
		__asm__ __volatile__ (
    80000512:	64000737          	lui	a4,0x64000
    80000516:	46a9                	li	a3,10
    80000518:	40d727af          	amoor.w	a5,a3,(a4)
    8000051c:	2781                	sext.w	a5,a5
	} while (r < 0);
    8000051e:	fe07cde3          	bltz	a5,80000518 <kputs+0x32>
void kputs(const char *s)
{
	_kputs(s);
	kputc('\r');
	kputc('\n');
}
    80000522:	8082                	ret

0000000080000524 <kprintf>:

void kprintf(const char *fmt, ...)
{
    80000524:	7175                	addi	sp,sp,-144

	va_start(vl, fmt);
	is_format = false;
	is_long = false;
	is_char = false;
	while ((c = *fmt++) != '\0') {
    80000526:	00054303          	lbu	t1,0(a0)
{
    8000052a:	fcbe                	sd	a5,120(sp)
	va_start(vl, fmt);
    8000052c:	08bc                	addi	a5,sp,88
{
    8000052e:	ecae                	sd	a1,88(sp)
    80000530:	f0b2                	sd	a2,96(sp)
    80000532:	f4b6                	sd	a3,104(sp)
    80000534:	f8ba                	sd	a4,112(sp)
    80000536:	e142                	sd	a6,128(sp)
    80000538:	e546                	sd	a7,136(sp)
	va_start(vl, fmt);
    8000053a:	e43e                	sd	a5,8(sp)
	while ((c = *fmt++) != '\0') {
    8000053c:	04030e63          	beqz	t1,80000598 <kprintf+0x74>
    80000540:	0505                	addi	a0,a0,1
    80000542:	4681                	li	a3,0
    80000544:	4701                	li	a4,0
				break;
			}
			is_format = false;
			is_long = false;
			is_char = false;
		} else if (c == '%') {
    80000546:	02500e13          	li	t3,37
		__asm__ __volatile__ (
    8000054a:	640005b7          	lui	a1,0x64000
			switch (c) {
    8000054e:	48d5                	li	a7,21
    80000550:	00000817          	auipc	a6,0x0
    80000554:	22c80813          	addi	a6,a6,556 # 8000077c <kprintf+0x258>
		if (is_format) {
    80000558:	cf79                	beqz	a4,80000636 <kprintf+0x112>
			switch (c) {
    8000055a:	f9d3031b          	addiw	t1,t1,-99
    8000055e:	0ff37313          	zext.b	t1,t1
    80000562:	0268e463          	bltu	a7,t1,8000058a <kprintf+0x66>
    80000566:	00231793          	slli	a5,t1,0x2
    8000056a:	97c2                	add	a5,a5,a6
    8000056c:	439c                	lw	a5,0(a5)
    8000056e:	97c2                	add	a5,a5,a6
    80000570:	8782                	jr	a5
				kputc(va_arg(vl, int));
    80000572:	67a2                	ld	a5,8(sp)
    80000574:	64000737          	lui	a4,0x64000
    80000578:	0007c683          	lbu	a3,0(a5)
    8000057c:	07a1                	addi	a5,a5,8
    8000057e:	e43e                	sd	a5,8(sp)
    80000580:	40d727af          	amoor.w	a5,a3,(a4)
    80000584:	2781                	sext.w	a5,a5
	} while (r < 0);
    80000586:	fe07cde3          	bltz	a5,80000580 <kprintf+0x5c>
			is_char = false;
    8000058a:	4681                	li	a3,0
			is_format = false;
    8000058c:	4701                	li	a4,0
	while ((c = *fmt++) != '\0') {
    8000058e:	00054303          	lbu	t1,0(a0)
    80000592:	0505                	addi	a0,a0,1
    80000594:	fc0312e3          	bnez	t1,80000558 <kprintf+0x34>
		} else {
			kputc(c);
		}
	}
	va_end(vl);
}
    80000598:	6149                	addi	sp,sp,144
    8000059a:	8082                	ret
					n = va_arg(vl, unsigned int);
    8000059c:	67a2                	ld	a5,8(sp)
					i = is_char ? 4 : (sizeof(unsigned int) << 3) - 4;
    8000059e:	4611                	li	a2,4
					n = va_arg(vl, unsigned int);
    800005a0:	00878713          	addi	a4,a5,8
    800005a4:	e43a                	sd	a4,8(sp)
    800005a6:	0007ef83          	lwu	t6,0(a5)
					i = is_char ? 4 : (sizeof(unsigned int) << 3) - 4;
    800005aa:	cef1                	beqz	a3,80000686 <kprintf+0x162>
					kputc(d < 10 ? '0' + d : 'a' + d - 10);
    800005ac:	4f25                	li	t5,9
		__asm__ __volatile__ (
    800005ae:	64000737          	lui	a4,0x64000
				for (; i >= 0; i -= 4) {
    800005b2:	5ef1                	li	t4,-4
					d = (n >> i) & 0xF;
    800005b4:	00cfd7b3          	srl	a5,t6,a2
					kputc(d < 10 ? '0' + d : 'a' + d - 10);
    800005b8:	00f7f313          	andi	t1,a5,15
    800005bc:	05730693          	addi	a3,t1,87
    800005c0:	006f6463          	bltu	t5,t1,800005c8 <kprintf+0xa4>
    800005c4:	03030693          	addi	a3,t1,48
    800005c8:	40d727af          	amoor.w	a5,a3,(a4)
    800005cc:	2781                	sext.w	a5,a5
	} while (r < 0);
    800005ce:	fe07cde3          	bltz	a5,800005c8 <kprintf+0xa4>
				for (; i >= 0; i -= 4) {
    800005d2:	1671                	addi	a2,a2,-4
    800005d4:	ffd610e3          	bne	a2,t4,800005b4 <kprintf+0x90>
    800005d8:	bf4d                	j	8000058a <kprintf+0x66>
				_kputs(va_arg(vl, const char *));
    800005da:	67a2                	ld	a5,8(sp)
    800005dc:	6390                	ld	a2,0(a5)
    800005de:	07a1                	addi	a5,a5,8
    800005e0:	e43e                	sd	a5,8(sp)
	for (; (c = *s) != '\0'; s++)
    800005e2:	00064683          	lbu	a3,0(a2)
    800005e6:	d2d5                	beqz	a3,8000058a <kprintf+0x66>
		__asm__ __volatile__ (
    800005e8:	64000737          	lui	a4,0x64000
    800005ec:	40d727af          	amoor.w	a5,a3,(a4)
    800005f0:	2781                	sext.w	a5,a5
	} while (r < 0);
    800005f2:	fe07cde3          	bltz	a5,800005ec <kprintf+0xc8>
    800005f6:	00164683          	lbu	a3,1(a2)
    800005fa:	0605                	addi	a2,a2,1
    800005fc:	fae5                	bnez	a3,800005ec <kprintf+0xc8>
    800005fe:	b771                	j	8000058a <kprintf+0x66>
				n = va_arg(vl, unsigned long);
    80000600:	67a2                	ld	a5,8(sp)
				for (int i = 0; i < 64; i ++) c[i] = 0;
    80000602:	e802                	sd	zero,16(sp)
    80000604:	ec02                	sd	zero,24(sp)
				n = va_arg(vl, unsigned long);
    80000606:	0007b303          	ld	t1,0(a5)
    8000060a:	07a1                	addi	a5,a5,8
    8000060c:	e43e                	sd	a5,8(sp)
				for (int i = 0; i < 64; i ++) c[i] = 0;
    8000060e:	f002                	sd	zero,32(sp)
    80000610:	f402                	sd	zero,40(sp)
    80000612:	f802                	sd	zero,48(sp)
    80000614:	fc02                	sd	zero,56(sp)
    80000616:	e082                	sd	zero,64(sp)
    80000618:	e482                	sd	zero,72(sp)
				if (n == 0) {
    8000061a:	02031d63          	bnez	t1,80000654 <kprintf+0x130>
		__asm__ __volatile__ (
    8000061e:	64000737          	lui	a4,0x64000
    80000622:	03000693          	li	a3,48
    80000626:	40d727af          	amoor.w	a5,a3,(a4)
    8000062a:	2781                	sext.w	a5,a5
	} while (r < 0);
    8000062c:	fe07cde3          	bltz	a5,80000626 <kprintf+0x102>
    80000630:	bfa9                	j	8000058a <kprintf+0x66>
				is_char = true;
    80000632:	86ba                	mv	a3,a4
    80000634:	bfa9                	j	8000058e <kprintf+0x6a>
		} else if (c == '%') {
    80000636:	01c31463          	bne	t1,t3,8000063e <kprintf+0x11a>
			is_format = true;
    8000063a:	4705                	li	a4,1
    8000063c:	bf89                	j	8000058e <kprintf+0x6a>
		__asm__ __volatile__ (
    8000063e:	4065a7af          	amoor.w	a5,t1,(a1)
    80000642:	2781                	sext.w	a5,a5
	} while (r < 0);
    80000644:	f407d5e3          	bgez	a5,8000058e <kprintf+0x6a>
		__asm__ __volatile__ (
    80000648:	4065a7af          	amoor.w	a5,t1,(a1)
    8000064c:	2781                	sext.w	a5,a5
	} while (r < 0);
    8000064e:	fe07c8e3          	bltz	a5,8000063e <kprintf+0x11a>
    80000652:	bf35                	j	8000058e <kprintf+0x6a>
    80000654:	0810                	addi	a2,sp,16
					c[0] = '0' + (n%10);
    80000656:	4ea9                	li	t4,10
				for (;n != 0;) {
    80000658:	4f25                	li	t5,9
					for (int i = 63; i > 0; i--) c[i] = c[i-1];
    8000065a:	04e10793          	addi	a5,sp,78
    8000065e:	0007c683          	lbu	a3,0(a5)
    80000662:	873e                	mv	a4,a5
    80000664:	17fd                	addi	a5,a5,-1
    80000666:	00d78123          	sb	a3,2(a5)
    8000066a:	fec71ae3          	bne	a4,a2,8000065e <kprintf+0x13a>
					c[0] = '0' + (n%10);
    8000066e:	03d376b3          	remu	a3,t1,t4
    80000672:	03068693          	addi	a3,a3,48
    80000676:	00d10823          	sb	a3,16(sp)
					n = n / 10;
    8000067a:	03d357b3          	divu	a5,t1,t4
				for (;n != 0;) {
    8000067e:	006f7663          	bgeu	t5,t1,8000068a <kprintf+0x166>
					n = n / 10;
    80000682:	833e                	mv	t1,a5
    80000684:	bfd9                	j	8000065a <kprintf+0x136>
					i = is_char ? 4 : (sizeof(unsigned int) << 3) - 4;
    80000686:	4671                	li	a2,28
    80000688:	b715                	j	800005ac <kprintf+0x88>
    8000068a:	01110613          	addi	a2,sp,17
		__asm__ __volatile__ (
    8000068e:	64000737          	lui	a4,0x64000
    80000692:	40d727af          	amoor.w	a5,a3,(a4)
    80000696:	2781                	sext.w	a5,a5
	} while (r < 0);
    80000698:	fe07cde3          	bltz	a5,80000692 <kprintf+0x16e>
				for (int i = 0; c[i] != 0; i++) kputc(c[i]);
    8000069c:	00064683          	lbu	a3,0(a2)
    800006a0:	0605                	addi	a2,a2,1
    800006a2:	fae5                	bnez	a3,80000692 <kprintf+0x16e>
    800006a4:	b5dd                	j	8000058a <kprintf+0x66>
	...
