
/home/binhkieudo/Workspace/RoCC_Demo/NewFramework/framework/src/main/resources/bootROM/basic//build/sdboot.elf:     file format elf32-littleriscv


Disassembly of section .text:

00010000 <_prog_start>:
  .section .sdata
  .section .text.init
  .option norvc
  .globl _prog_start
_prog_start:
  li sp, (MEMORY_MEM_ADDR + 0x7f0)
   10000:	80000137          	lui	sp,0x80000
   10004:	7f010113          	addi	sp,sp,2032 # 800007f0 <main+0x7fff0790>
  csrr a0, mhartid // hartid for next level bootloader
   10008:	f1402573          	csrr	a0,mhartid
  call main
   1000c:	054000ef          	jal	ra,10060 <main>
  li s1, MEMORY_MEM_ADDR
   10010:	800004b7          	lui	s1,0x80000
  jr s1
   10014:	00048067          	jr	s1 # 80000000 <main+0x7ffeffa0>
  j _prog_start
   10018:	fe9ff06f          	j	10000 <_prog_start>

0001001c <kputs>:
#include "kprintf.h"

static inline void _kputs(const char *s)
{
	char c;
	for (; (c = *s) != '\0'; s++)
   1001c:	00054703          	lbu	a4,0(a0)
   10020:	00070e63          	beqz	a4,1003c <kputs+0x20>
{
	volatile uint32_t *tx = &REG32(uart, UART_REG_TXFIFO);
#ifdef __riscv_atomic
	int32_t r;
	do {
		__asm__ __volatile__ (
   10024:	640007b7          	lui	a5,0x64000
   10028:	40e7a6af          	amoor.w	a3,a4,(a5)
			"amoor.w %0, %2, %1\n"
			: "=r" (r), "+A" (*tx)
			: "r" (c));
	} while (r < 0);
   1002c:	fe06cee3          	bltz	a3,10028 <kputs+0xc>
   10030:	00154703          	lbu	a4,1(a0)
   10034:	00150513          	addi	a0,a0,1
   10038:	fe0718e3          	bnez	a4,10028 <kputs+0xc>
		__asm__ __volatile__ (
   1003c:	640007b7          	lui	a5,0x64000
   10040:	00d00713          	li	a4,13
   10044:	40e7a6af          	amoor.w	a3,a4,(a5)
	} while (r < 0);
   10048:	fe06cee3          	bltz	a3,10044 <kputs+0x28>
		__asm__ __volatile__ (
   1004c:	640007b7          	lui	a5,0x64000
   10050:	00a00713          	li	a4,10
   10054:	40e7a6af          	amoor.w	a3,a4,(a5)
	} while (r < 0);
   10058:	fe06cee3          	bltz	a3,10054 <kputs+0x38>
void kputs(const char *s)
{
	_kputs(s);
	kputc('\r');
	kputc('\n');
}
   1005c:	00008067          	ret

00010060 <main>:

#define DEBUG
#include "kprintf.h"

int main(int mhartid, char** dump)
{
   10060:	ff010113          	addi	sp,sp,-16
   10064:	00112623          	sw	ra,12(sp)
	REG32(uart, UART_REG_TXCTRL) = UART_TXEN;
   10068:	640007b7          	lui	a5,0x64000
   1006c:	00100713          	li	a4,1
   10070:	00e7a423          	sw	a4,8(a5) # 64000008 <main+0x63feffa8>

	kputs("Hello world!!!\r\n");
   10074:	00000517          	auipc	a0,0x0
   10078:	05450513          	addi	a0,a0,84 # 100c8 <main+0x68>
   1007c:	fa1ff0ef          	jal	ra,1001c <kputs>

	__asm__ __volatile__ ("fence.i" : : : "memory");
   10080:	0000100f          	fence.i

	while(1);
   10084:	0000006f          	j	10084 <main+0x24>
	...
